MODULE Linux x86_64 6D15D93CF99ADFCBDA1A58B0BEA247BC0 dump_syms
INFO CODE_ID 3CD9156D9AF9CBDFDA1A58B0BEA247BC4622E53F
PUBLIC 7db0 0 _init
PUBLIC 8330 0 (anonymous namespace)::MmapWrapper::~MmapWrapper() [clone .part.12]
PUBLIC 8346 0 google_breakpad::PageAllocator::FreeAll() [clone .isra.21]
PUBLIC 83a0 0 _GLOBAL__sub_I_dwarf_cfi_to_module.cc
PUBLIC 83d0 0 _GLOBAL__sub_I_dwarf_cu_to_module.cc
PUBLIC 8400 0 _GLOBAL__sub_I_dwarf_line_to_module.cc
PUBLIC 8430 0 _GLOBAL__sub_I_dwarf_range_list_handler.cc
PUBLIC 8460 0 _GLOBAL__sub_I_language.cc
PUBLIC 8530 0 _GLOBAL__sub_I_module.cc
PUBLIC 8560 0 _GLOBAL__sub_I_stabs_to_module.cc
PUBLIC 8590 0 _GLOBAL__sub_I_dump_symbols.cc
PUBLIC 85c0 0 _GLOBAL__sub_I_elf_symbols_to_module.cc
PUBLIC 85f0 0 main
PUBLIC 8ae0 0 _GLOBAL__sub_I_dump_syms.cc
PUBLIC 8b10 0 _start
PUBLIC 8b40 0 deregister_tm_clones
PUBLIC 8b80 0 register_tm_clones
PUBLIC 8bd0 0 __do_global_dtors_aux
PUBLIC 8c10 0 frame_dummy
PUBLIC 8c20 0 google_breakpad::DwarfCFIToModule::End()
PUBLIC 8c40 0 google_breakpad::DwarfCFIToModule::Reporter::UnnamedRegister(unsigned long, int)
PUBLIC 8c80 0 google_breakpad::DwarfCFIToModule::Reporter::UndefinedNotSupported(unsigned long, std::__cxx11::basic_string<char, std::char_traits<char>, std::allocator<char> > const&)
PUBLIC 8cc0 0 google_breakpad::DwarfCFIToModule::Reporter::ExpressionsNotSupported(unsigned long, std::__cxx11::basic_string<char, std::char_traits<char>, std::allocator<char> > const&)
PUBLIC 8d00 0 void std::__cxx11::basic_string<char, std::char_traits<char>, std::allocator<char> >::_M_construct<char const*>(char const*, char const*, std::forward_iterator_tag) [clone .isra.50]
PUBLIC 8dd0 0 google_breakpad::DwarfCFIToModule::RegisterNames::MakeVector[abi:cxx11](char const* const*, unsigned long)
PUBLIC 8f30 0 google_breakpad::DwarfCFIToModule::RegisterNames::I386[abi:cxx11]()
PUBLIC 8f80 0 google_breakpad::DwarfCFIToModule::RegisterNames::X86_64[abi:cxx11]()
PUBLIC 8fd0 0 google_breakpad::DwarfCFIToModule::RegisterNames::ARM[abi:cxx11]()
PUBLIC 9020 0 google_breakpad::DwarfCFIToModule::RegisterNames::ARM64[abi:cxx11]()
PUBLIC 9070 0 google_breakpad::DwarfCFIToModule::RegisterNames::MIPS[abi:cxx11]()
PUBLIC 90c0 0 google_breakpad::DwarfCFIToModule::RegisterName[abi:cxx11](int)
PUBLIC 9210 0 google_breakpad::DwarfCFIToModule::UndefinedRule(unsigned long long, int)
PUBLIC 92b0 0 google_breakpad::DwarfCFIToModule::ExpressionRule(unsigned long long, int, std::__cxx11::basic_string<char, std::char_traits<char>, std::allocator<char> > const&)
PUBLIC 9350 0 google_breakpad::DwarfCFIToModule::Entry(unsigned long, unsigned long long, unsigned long long, unsigned char, std::__cxx11::basic_string<char, std::char_traits<char>, std::allocator<char> > const&, unsigned int)
PUBLIC 9500 0 std::_Rb_tree_iterator<std::pair<std::__cxx11::basic_string<char, std::char_traits<char>, std::allocator<char> > const, std::__cxx11::basic_string<char, std::char_traits<char>, std::allocator<char> > > > std::_Rb_tree<std::__cxx11::basic_string<char, std::char_traits<char>, std::allocator<char> >, std::pair<std::__cxx11::basic_string<char, std::char_traits<char>, std::allocator<char> > const, std::__cxx11::basic_string<char, std::char_traits<char>, std::allocator<char> > >, std::_Select1st<std::pair<std::__cxx11::basic_string<char, std::char_traits<char>, std::allocator<char> > const, std::__cxx11::basic_string<char, std::char_traits<char>, std::allocator<char> > > >, std::less<std::__cxx11::basic_string<char, std::char_traits<char>, std::allocator<char> > >, std::allocator<std::pair<std::__cxx11::basic_string<char, std::char_traits<char>, std::allocator<char> > const, std::__cxx11::basic_string<char, std::char_traits<char>, std::allocator<char> > > > >::_M_emplace_hint_unique<std::piecewise_construct_t const&, std::tuple<std::__cxx11::basic_string<char, std::char_traits<char>, std::allocator<char> >&&>, std::tuple<> >(std::_Rb_tree_const_iterator<std::pair<std::__cxx11::basic_string<char, std::char_traits<char>, std::allocator<char> > const, std::__cxx11::basic_string<char, std::char_traits<char>, std::allocator<char> > > >, std::piecewise_construct_t const&, std::tuple<std::__cxx11::basic_string<char, std::char_traits<char>, std::allocator<char> >&&>&&, std::tuple<>&&) [clone .isra.114]
PUBLIC 95e0 0 google_breakpad::DwarfCFIToModule::Record(unsigned long, int, std::__cxx11::basic_string<char, std::char_traits<char>, std::allocator<char> > const&)
PUBLIC 9a40 0 google_breakpad::DwarfCFIToModule::SameValueRule(unsigned long long, int)
PUBLIC 9fc0 0 google_breakpad::DwarfCFIToModule::OffsetRule(unsigned long long, int, int, long)
PUBLIC a5a0 0 google_breakpad::DwarfCFIToModule::ValOffsetRule(unsigned long long, int, int, long)
PUBLIC ab80 0 google_breakpad::DwarfCFIToModule::RegisterRule(unsigned long long, int, int)
PUBLIC b100 0 dwarf2reader::CallFrameInfo::Handler::PersonalityRoutine(unsigned long long, bool)
PUBLIC b110 0 dwarf2reader::CallFrameInfo::Handler::LanguageSpecificDataArea(unsigned long long, bool)
PUBLIC b120 0 dwarf2reader::CallFrameInfo::Handler::SignalHandler()
PUBLIC b130 0 google_breakpad::DwarfCFIToModule::Reporter::~Reporter()
PUBLIC b180 0 google_breakpad::DwarfCFIToModule::Reporter::~Reporter()
PUBLIC b1d0 0 std::__cxx11::basic_stringbuf<char, std::char_traits<char>, std::allocator<char> >::~basic_stringbuf()
PUBLIC b210 0 std::__cxx11::basic_stringbuf<char, std::char_traits<char>, std::allocator<char> >::~basic_stringbuf()
PUBLIC b260 0 std::_Rb_tree<std::__cxx11::basic_string<char, std::char_traits<char>, std::allocator<char> >, std::__cxx11::basic_string<char, std::char_traits<char>, std::allocator<char> >, std::_Identity<std::__cxx11::basic_string<char, std::char_traits<char>, std::allocator<char> > >, std::less<std::__cxx11::basic_string<char, std::char_traits<char>, std::allocator<char> > >, std::allocator<std::__cxx11::basic_string<char, std::char_traits<char>, std::allocator<char> > > >::_M_erase(std::_Rb_tree_node<std::__cxx11::basic_string<char, std::char_traits<char>, std::allocator<char> > >*)
PUBLIC b2c0 0 std::_Rb_tree<std::__cxx11::basic_string<char, std::char_traits<char>, std::allocator<char> >, std::pair<std::__cxx11::basic_string<char, std::char_traits<char>, std::allocator<char> > const, std::__cxx11::basic_string<char, std::char_traits<char>, std::allocator<char> > >, std::_Select1st<std::pair<std::__cxx11::basic_string<char, std::char_traits<char>, std::allocator<char> > const, std::__cxx11::basic_string<char, std::char_traits<char>, std::allocator<char> > > >, std::less<std::__cxx11::basic_string<char, std::char_traits<char>, std::allocator<char> > >, std::allocator<std::pair<std::__cxx11::basic_string<char, std::char_traits<char>, std::allocator<char> > const, std::__cxx11::basic_string<char, std::char_traits<char>, std::allocator<char> > > > >::_M_erase(std::_Rb_tree_node<std::pair<std::__cxx11::basic_string<char, std::char_traits<char>, std::allocator<char> > const, std::__cxx11::basic_string<char, std::char_traits<char>, std::allocator<char> > > >*)
PUBLIC b330 0 std::_Rb_tree<unsigned long, std::pair<unsigned long const, std::map<std::__cxx11::basic_string<char, std::char_traits<char>, std::allocator<char> >, std::__cxx11::basic_string<char, std::char_traits<char>, std::allocator<char> >, std::less<std::__cxx11::basic_string<char, std::char_traits<char>, std::allocator<char> > >, std::allocator<std::pair<std::__cxx11::basic_string<char, std::char_traits<char>, std::allocator<char> > const, std::__cxx11::basic_string<char, std::char_traits<char>, std::allocator<char> > > > > >, std::_Select1st<std::pair<unsigned long const, std::map<std::__cxx11::basic_string<char, std::char_traits<char>, std::allocator<char> >, std::__cxx11::basic_string<char, std::char_traits<char>, std::allocator<char> >, std::less<std::__cxx11::basic_string<char, std::char_traits<char>, std::allocator<char> > >, std::allocator<std::pair<std::__cxx11::basic_string<char, std::char_traits<char>, std::allocator<char> > const, std::__cxx11::basic_string<char, std::char_traits<char>, std::allocator<char> > > > > > >, std::less<unsigned long>, std::allocator<std::pair<unsigned long const, std::map<std::__cxx11::basic_string<char, std::char_traits<char>, std::allocator<char> >, std::__cxx11::basic_string<char, std::char_traits<char>, std::allocator<char> >, std::less<std::__cxx11::basic_string<char, std::char_traits<char>, std::allocator<char> > >, std::allocator<std::pair<std::__cxx11::basic_string<char, std::char_traits<char>, std::allocator<char> > const, std::__cxx11::basic_string<char, std::char_traits<char>, std::allocator<char> > > > > > > >::_M_erase(std::_Rb_tree_node<std::pair<unsigned long const, std::map<std::__cxx11::basic_string<char, std::char_traits<char>, std::allocator<char> >, std::__cxx11::basic_string<char, std::char_traits<char>, std::allocator<char> >, std::less<std::__cxx11::basic_string<char, std::char_traits<char>, std::allocator<char> > >, std::allocator<std::pair<std::__cxx11::basic_string<char, std::char_traits<char>, std::allocator<char> > const, std::__cxx11::basic_string<char, std::char_traits<char>, std::allocator<char> > > > > > >*)
PUBLIC b380 0 google_breakpad::DwarfCFIToModule::~DwarfCFIToModule()
PUBLIC b410 0 google_breakpad::DwarfCFIToModule::~DwarfCFIToModule()
PUBLIC b4a0 0 std::pair<std::_Rb_tree_iterator<std::__cxx11::basic_string<char, std::char_traits<char>, std::allocator<char> > >, bool> std::_Rb_tree<std::__cxx11::basic_string<char, std::char_traits<char>, std::allocator<char> >, std::__cxx11::basic_string<char, std::char_traits<char>, std::allocator<char> >, std::_Identity<std::__cxx11::basic_string<char, std::char_traits<char>, std::allocator<char> > >, std::less<std::__cxx11::basic_string<char, std::char_traits<char>, std::allocator<char> > >, std::allocator<std::__cxx11::basic_string<char, std::char_traits<char>, std::allocator<char> > > >::_M_insert_unique<std::__cxx11::basic_string<char, std::char_traits<char>, std::allocator<char> > const&>(std::__cxx11::basic_string<char, std::char_traits<char>, std::allocator<char> > const&)
PUBLIC b730 0 std::_Rb_tree<std::__cxx11::basic_string<char, std::char_traits<char>, std::allocator<char> >, std::pair<std::__cxx11::basic_string<char, std::char_traits<char>, std::allocator<char> > const, std::__cxx11::basic_string<char, std::char_traits<char>, std::allocator<char> > >, std::_Select1st<std::pair<std::__cxx11::basic_string<char, std::char_traits<char>, std::allocator<char> > const, std::__cxx11::basic_string<char, std::char_traits<char>, std::allocator<char> > > >, std::less<std::__cxx11::basic_string<char, std::char_traits<char>, std::allocator<char> > >, std::allocator<std::pair<std::__cxx11::basic_string<char, std::char_traits<char>, std::allocator<char> > const, std::__cxx11::basic_string<char, std::char_traits<char>, std::allocator<char> > > > >::_M_insert_node(std::_Rb_tree_node_base*, std::_Rb_tree_node_base*, std::_Rb_tree_node<std::pair<std::__cxx11::basic_string<char, std::char_traits<char>, std::allocator<char> > const, std::__cxx11::basic_string<char, std::char_traits<char>, std::allocator<char> > > >*)
PUBLIC b7f0 0 std::_Rb_tree<std::__cxx11::basic_string<char, std::char_traits<char>, std::allocator<char> >, std::pair<std::__cxx11::basic_string<char, std::char_traits<char>, std::allocator<char> > const, std::__cxx11::basic_string<char, std::char_traits<char>, std::allocator<char> > >, std::_Select1st<std::pair<std::__cxx11::basic_string<char, std::char_traits<char>, std::allocator<char> > const, std::__cxx11::basic_string<char, std::char_traits<char>, std::allocator<char> > > >, std::less<std::__cxx11::basic_string<char, std::char_traits<char>, std::allocator<char> > >, std::allocator<std::pair<std::__cxx11::basic_string<char, std::char_traits<char>, std::allocator<char> > const, std::__cxx11::basic_string<char, std::char_traits<char>, std::allocator<char> > > > >::_M_get_insert_unique_pos(std::__cxx11::basic_string<char, std::char_traits<char>, std::allocator<char> > const&)
PUBLIC b980 0 std::_Rb_tree<std::__cxx11::basic_string<char, std::char_traits<char>, std::allocator<char> >, std::pair<std::__cxx11::basic_string<char, std::char_traits<char>, std::allocator<char> > const, std::__cxx11::basic_string<char, std::char_traits<char>, std::allocator<char> > >, std::_Select1st<std::pair<std::__cxx11::basic_string<char, std::char_traits<char>, std::allocator<char> > const, std::__cxx11::basic_string<char, std::char_traits<char>, std::allocator<char> > > >, std::less<std::__cxx11::basic_string<char, std::char_traits<char>, std::allocator<char> > >, std::allocator<std::pair<std::__cxx11::basic_string<char, std::char_traits<char>, std::allocator<char> > const, std::__cxx11::basic_string<char, std::char_traits<char>, std::allocator<char> > > > >::_M_get_insert_hint_unique_pos(std::_Rb_tree_const_iterator<std::pair<std::__cxx11::basic_string<char, std::char_traits<char>, std::allocator<char> > const, std::__cxx11::basic_string<char, std::char_traits<char>, std::allocator<char> > > >, std::__cxx11::basic_string<char, std::char_traits<char>, std::allocator<char> > const&)
PUBLIC bc40 0 std::_Rb_tree<unsigned long, std::pair<unsigned long const, std::map<std::__cxx11::basic_string<char, std::char_traits<char>, std::allocator<char> >, std::__cxx11::basic_string<char, std::char_traits<char>, std::allocator<char> >, std::less<std::__cxx11::basic_string<char, std::char_traits<char>, std::allocator<char> > >, std::allocator<std::pair<std::__cxx11::basic_string<char, std::char_traits<char>, std::allocator<char> > const, std::__cxx11::basic_string<char, std::char_traits<char>, std::allocator<char> > > > > >, std::_Select1st<std::pair<unsigned long const, std::map<std::__cxx11::basic_string<char, std::char_traits<char>, std::allocator<char> >, std::__cxx11::basic_string<char, std::char_traits<char>, std::allocator<char> >, std::less<std::__cxx11::basic_string<char, std::char_traits<char>, std::allocator<char> > >, std::allocator<std::pair<std::__cxx11::basic_string<char, std::char_traits<char>, std::allocator<char> > const, std::__cxx11::basic_string<char, std::char_traits<char>, std::allocator<char> > > > > > >, std::less<unsigned long>, std::allocator<std::pair<unsigned long const, std::map<std::__cxx11::basic_string<char, std::char_traits<char>, std::allocator<char> >, std::__cxx11::basic_string<char, std::char_traits<char>, std::allocator<char> >, std::less<std::__cxx11::basic_string<char, std::char_traits<char>, std::allocator<char> > >, std::allocator<std::pair<std::__cxx11::basic_string<char, std::char_traits<char>, std::allocator<char> > const, std::__cxx11::basic_string<char, std::char_traits<char>, std::allocator<char> > > > > > > >::_M_get_insert_unique_pos(unsigned long const&)
PUBLIC bcd0 0 std::_Rb_tree<unsigned long, std::pair<unsigned long const, std::map<std::__cxx11::basic_string<char, std::char_traits<char>, std::allocator<char> >, std::__cxx11::basic_string<char, std::char_traits<char>, std::allocator<char> >, std::less<std::__cxx11::basic_string<char, std::char_traits<char>, std::allocator<char> > >, std::allocator<std::pair<std::__cxx11::basic_string<char, std::char_traits<char>, std::allocator<char> > const, std::__cxx11::basic_string<char, std::char_traits<char>, std::allocator<char> > > > > >, std::_Select1st<std::pair<unsigned long const, std::map<std::__cxx11::basic_string<char, std::char_traits<char>, std::allocator<char> >, std::__cxx11::basic_string<char, std::char_traits<char>, std::allocator<char> >, std::less<std::__cxx11::basic_string<char, std::char_traits<char>, std::allocator<char> > >, std::allocator<std::pair<std::__cxx11::basic_string<char, std::char_traits<char>, std::allocator<char> > const, std::__cxx11::basic_string<char, std::char_traits<char>, std::allocator<char> > > > > > >, std::less<unsigned long>, std::allocator<std::pair<unsigned long const, std::map<std::__cxx11::basic_string<char, std::char_traits<char>, std::allocator<char> >, std::__cxx11::basic_string<char, std::char_traits<char>, std::allocator<char> >, std::less<std::__cxx11::basic_string<char, std::char_traits<char>, std::allocator<char> > >, std::allocator<std::pair<std::__cxx11::basic_string<char, std::char_traits<char>, std::allocator<char> > const, std::__cxx11::basic_string<char, std::char_traits<char>, std::allocator<char> > > > > > > >::_M_get_insert_hint_unique_pos(std::_Rb_tree_const_iterator<std::pair<unsigned long const, std::map<std::__cxx11::basic_string<char, std::char_traits<char>, std::allocator<char> >, std::__cxx11::basic_string<char, std::char_traits<char>, std::allocator<char> >, std::less<std::__cxx11::basic_string<char, std::char_traits<char>, std::allocator<char> > >, std::allocator<std::pair<std::__cxx11::basic_string<char, std::char_traits<char>, std::allocator<char> > const, std::__cxx11::basic_string<char, std::char_traits<char>, std::allocator<char> > > > > > >, unsigned long const&)
PUBLIC bdc0 0 google_breakpad::DwarfCUToModule::GenericDIEHandler::ProcessAttributeUnsigned(dwarf2reader::DwarfAttribute, dwarf2reader::DwarfForm, unsigned long long)
PUBLIC bdd0 0 google_breakpad::DwarfCUToModule::FuncHandler::ProcessAttributeUnsigned(dwarf2reader::DwarfAttribute, dwarf2reader::DwarfForm, unsigned long long)
PUBLIC be30 0 google_breakpad::DwarfCUToModule::FuncHandler::ProcessAttributeSigned(dwarf2reader::DwarfAttribute, dwarf2reader::DwarfForm, long long)
PUBLIC be40 0 google_breakpad::DwarfCUToModule::EndAttributes()
PUBLIC be50 0 google_breakpad::DwarfCUToModule::StartCompilationUnit(unsigned long long, unsigned char, unsigned char, unsigned long long, unsigned char)
PUBLIC be60 0 google_breakpad::DwarfCUToModule::StartRootDIE(unsigned long long, dwarf2reader::DwarfTag)
PUBLIC be70 0 google_breakpad::DwarfCUToModule::FindChildHandler(unsigned long long, dwarf2reader::DwarfTag)
PUBLIC c050 0 void std::__insertion_sort<__gnu_cxx::__normal_iterator<google_breakpad::(anonymous namespace)::FunctionRange*, std::vector<google_breakpad::(anonymous namespace)::FunctionRange, std::allocator<google_breakpad::(anonymous namespace)::FunctionRange> > >, __gnu_cxx::__ops::_Iter_comp_iter<google_breakpad::(anonymous namespace)::FillSortedFunctionRanges(std::vector<google_breakpad::(anonymous namespace)::FunctionRange, std::allocator<google_breakpad::(anonymous namespace)::FunctionRange> >&, std::vector<google_breakpad::Module::Function*, std::allocator<google_breakpad::Module::Function*> >*)::{lambda(google_breakpad::(anonymous namespace)::FunctionRange const&, google_breakpad::(anonymous namespace)::FunctionRange const&)#1}> >(__gnu_cxx::__normal_iterator<google_breakpad::(anonymous namespace)::FunctionRange*, std::vector<google_breakpad::(anonymous namespace)::FunctionRange, std::allocator<google_breakpad::(anonymous namespace)::FunctionRange> > >, __gnu_cxx::__ops::_Iter_comp_iter<google_breakpad::(anonymous namespace)::FillSortedFunctionRanges(std::vector<google_breakpad::(anonymous namespace)::FunctionRange, std::allocator<google_breakpad::(anonymous namespace)::FunctionRange> >&, std::vector<google_breakpad::Module::Function*, std::allocator<google_breakpad::Module::Function*> >*)::{lambda(google_breakpad::(anonymous namespace)::FunctionRange const&, google_breakpad::(anonymous namespace)::FunctionRange const&)#1}>, __gnu_cxx::__ops::_Iter_comp_iter<google_breakpad::(anonymous namespace)::FillSortedFunctionRanges(std::vector<google_breakpad::(anonymous namespace)::FunctionRange, std::allocator<google_breakpad::(anonymous namespace)::FunctionRange> >&, std::vector<google_breakpad::Module::Function*, std::allocator<google_breakpad::Module::Function*> >*)::{lambda(google_breakpad::(anonymous namespace)::FunctionRange const&, google_breakpad::(anonymous namespace)::FunctionRange const&)#1}>) [clone .isra.33]
PUBLIC c150 0 void std::__adjust_heap<__gnu_cxx::__normal_iterator<google_breakpad::(anonymous namespace)::FunctionRange*, std::vector<google_breakpad::(anonymous namespace)::FunctionRange, std::allocator<google_breakpad::(anonymous namespace)::FunctionRange> > >, long, google_breakpad::(anonymous namespace)::FunctionRange, __gnu_cxx::__ops::_Iter_comp_iter<google_breakpad::(anonymous namespace)::FillSortedFunctionRanges(std::vector<google_breakpad::(anonymous namespace)::FunctionRange, std::allocator<google_breakpad::(anonymous namespace)::FunctionRange> >&, std::vector<google_breakpad::Module::Function*, std::allocator<google_breakpad::Module::Function*> >*)::{lambda(google_breakpad::(anonymous namespace)::FunctionRange const&, google_breakpad::(anonymous namespace)::FunctionRange const&)#1}> >(__gnu_cxx::__normal_iterator<google_breakpad::(anonymous namespace)::FunctionRange*, std::vector<google_breakpad::(anonymous namespace)::FunctionRange, std::allocator<google_breakpad::(anonymous namespace)::FunctionRange> > >, long, __gnu_cxx::__normal_iterator<google_breakpad::(anonymous namespace)::FunctionRange*, std::vector<google_breakpad::(anonymous namespace)::FunctionRange, std::allocator<google_breakpad::(anonymous namespace)::FunctionRange> > >, google_breakpad::(anonymous namespace)::FunctionRange, __gnu_cxx::__ops::_Iter_comp_iter<google_breakpad::(anonymous namespace)::FillSortedFunctionRanges(std::vector<google_breakpad::(anonymous namespace)::FunctionRange, std::allocator<google_breakpad::(anonymous namespace)::FunctionRange> >&, std::vector<google_breakpad::Module::Function*, std::allocator<google_breakpad::Module::Function*> >*)::{lambda(google_breakpad::(anonymous namespace)::FunctionRange const&, google_breakpad::(anonymous namespace)::FunctionRange const&)#1}>) [clone .isra.37]
PUBLIC c2c0 0 google_breakpad::DwarfCUToModule::NamedScopeHandler::FindChildHandler(unsigned long long, dwarf2reader::DwarfTag)
PUBLIC c4b0 0 std::tr1::_Hashtable<std::__cxx11::basic_string<char, std::char_traits<char>, std::allocator<char> >, std::__cxx11::basic_string<char, std::char_traits<char>, std::allocator<char> >, std::allocator<std::__cxx11::basic_string<char, std::char_traits<char>, std::allocator<char> > >, std::_Identity<std::__cxx11::basic_string<char, std::char_traits<char>, std::allocator<char> > >, std::equal_to<std::__cxx11::basic_string<char, std::char_traits<char>, std::allocator<char> > >, std::tr1::hash<std::__cxx11::basic_string<char, std::char_traits<char>, std::allocator<char> > >, std::tr1::__detail::_Mod_range_hashing, std::tr1::__detail::_Default_ranged_hash, std::tr1::__detail::_Prime_rehash_policy, false, true, true>::_M_allocate_buckets(unsigned long) [clone .isra.189]
PUBLIC c500 0 google_breakpad::DwarfCUToModule::ProcessAttributeString(dwarf2reader::DwarfAttribute, dwarf2reader::DwarfForm, std::__cxx11::basic_string<char, std::char_traits<char>, std::allocator<char> > const&)
PUBLIC c550 0 std::tr1::_Hashtable<std::__cxx11::basic_string<char, std::char_traits<char>, std::allocator<char> >, std::__cxx11::basic_string<char, std::char_traits<char>, std::allocator<char> >, std::allocator<std::__cxx11::basic_string<char, std::char_traits<char>, std::allocator<char> > >, std::_Identity<std::__cxx11::basic_string<char, std::char_traits<char>, std::allocator<char> > >, std::equal_to<std::__cxx11::basic_string<char, std::char_traits<char>, std::allocator<char> > >, std::tr1::hash<std::__cxx11::basic_string<char, std::char_traits<char>, std::allocator<char> > >, std::tr1::__detail::_Mod_range_hashing, std::tr1::__detail::_Default_ranged_hash, std::tr1::__detail::_Prime_rehash_policy, false, true, true>::_M_deallocate_nodes(std::tr1::__detail::_Hash_node<std::__cxx11::basic_string<char, std::char_traits<char>, std::allocator<char> >, false>**, unsigned long) [clone .isra.192]
PUBLIC c5d0 0 void std::__cxx11::basic_string<char, std::char_traits<char>, std::allocator<char> >::_M_construct<char const*>(char const*, char const*, std::forward_iterator_tag) [clone .isra.163]
PUBLIC c6a0 0 void std::__introsort_loop<__gnu_cxx::__normal_iterator<google_breakpad::(anonymous namespace)::FunctionRange*, std::vector<google_breakpad::(anonymous namespace)::FunctionRange, std::allocator<google_breakpad::(anonymous namespace)::FunctionRange> > >, long, __gnu_cxx::__ops::_Iter_comp_iter<google_breakpad::(anonymous namespace)::FillSortedFunctionRanges(std::vector<google_breakpad::(anonymous namespace)::FunctionRange, std::allocator<google_breakpad::(anonymous namespace)::FunctionRange> >&, std::vector<google_breakpad::Module::Function*, std::allocator<google_breakpad::Module::Function*> >*)::{lambda(google_breakpad::(anonymous namespace)::FunctionRange const&, google_breakpad::(anonymous namespace)::FunctionRange const&)#1}> >(__gnu_cxx::__normal_iterator<google_breakpad::(anonymous namespace)::FunctionRange*, std::vector<google_breakpad::(anonymous namespace)::FunctionRange, std::allocator<google_breakpad::(anonymous namespace)::FunctionRange> > >, __gnu_cxx::__ops::_Iter_comp_iter<google_breakpad::(anonymous namespace)::FillSortedFunctionRanges(std::vector<google_breakpad::(anonymous namespace)::FunctionRange, std::allocator<google_breakpad::(anonymous namespace)::FunctionRange> >&, std::vector<google_breakpad::Module::Function*, std::allocator<google_breakpad::Module::Function*> >*)::{lambda(google_breakpad::(anonymous namespace)::FunctionRange const&, google_breakpad::(anonymous namespace)::FunctionRange const&)#1}>, long, __gnu_cxx::__ops::_Iter_comp_iter<google_breakpad::(anonymous namespace)::FillSortedFunctionRanges(std::vector<google_breakpad::(anonymous namespace)::FunctionRange, std::allocator<google_breakpad::(anonymous namespace)::FunctionRange> >&, std::vector<google_breakpad::Module::Function*, std::allocator<google_breakpad::Module::Function*> >*)::{lambda(google_breakpad::(anonymous namespace)::FunctionRange const&, google_breakpad::(anonymous namespace)::FunctionRange const&)#1}>)
PUBLIC c970 0 google_breakpad::DwarfCUToModule::~DwarfCUToModule()
PUBLIC ca60 0 google_breakpad::DwarfCUToModule::~DwarfCUToModule()
PUBLIC ca80 0 google_breakpad::DwarfCUToModule::FileContext::section_map[abi:cxx11]() const
PUBLIC ca90 0 google_breakpad::DwarfCUToModule::FileContext::IsUnhandledInterCUReference(unsigned long long, unsigned long long) const
PUBLIC caa0 0 google_breakpad::DwarfCUToModule::GenericDIEHandler::ProcessAttributeReference(dwarf2reader::DwarfAttribute, dwarf2reader::DwarfForm, unsigned long long)
PUBLIC cb70 0 google_breakpad::DwarfCUToModule::FuncHandler::ProcessAttributeReference(dwarf2reader::DwarfAttribute, dwarf2reader::DwarfForm, unsigned long long)
PUBLIC cc00 0 google_breakpad::DwarfCUToModule::WarningReporter::CUHeading()
PUBLIC cc50 0 google_breakpad::DwarfCUToModule::WarningReporter::UnknownSpecification(unsigned long long, unsigned long long)
PUBLIC cc90 0 google_breakpad::DwarfCUToModule::WarningReporter::UnknownAbstractOrigin(unsigned long long, unsigned long long)
PUBLIC ccd0 0 google_breakpad::DwarfCUToModule::WarningReporter::MissingSection(std::__cxx11::basic_string<char, std::char_traits<char>, std::allocator<char> > const&)
PUBLIC cd10 0 google_breakpad::DwarfCUToModule::WarningReporter::BadLineInfoOffset(unsigned long long)
PUBLIC cd40 0 google_breakpad::DwarfCUToModule::WarningReporter::UnnamedFunction(unsigned long long)
PUBLIC cd80 0 google_breakpad::DwarfCUToModule::WarningReporter::DemangleError(std::__cxx11::basic_string<char, std::char_traits<char>, std::allocator<char> > const&)
PUBLIC cdc0 0 google_breakpad::DwarfCUToModule::WarningReporter::UnhandledInterCUReference(unsigned long long, unsigned long long)
PUBLIC ce00 0 google_breakpad::DwarfCUToModule::WarningReporter::MalformedRangeList(unsigned long long)
PUBLIC ce40 0 google_breakpad::DwarfCUToModule::WarningReporter::MissingRanges()
PUBLIC ce70 0 google_breakpad::DwarfCUToModule::WarningReporter::UncoveredHeading()
PUBLIC ceb0 0 google_breakpad::DwarfCUToModule::WarningReporter::UncoveredLine(google_breakpad::Module::Line const&)
PUBLIC cf20 0 google_breakpad::DwarfCUToModule::WarningReporter::UncoveredFunction(google_breakpad::Module::Function const&)
PUBLIC cfa0 0 google_breakpad::DwarfCUToModule::SetLanguage(dwarf2reader::DwarfLanguage)
PUBLIC d020 0 google_breakpad::DwarfCUToModule::ProcessAttributeSigned(dwarf2reader::DwarfAttribute, dwarf2reader::DwarfForm, long long)
PUBLIC d040 0 google_breakpad::DwarfCUToModule::ProcessAttributeUnsigned(dwarf2reader::DwarfAttribute, dwarf2reader::DwarfForm, unsigned long long)
PUBLIC d0b0 0 google_breakpad::DwarfCUToModule::DwarfCUToModule(google_breakpad::DwarfCUToModule::FileContext*, google_breakpad::DwarfCUToModule::LineToModuleHandler*, google_breakpad::DwarfCUToModule::RangesHandler*, google_breakpad::DwarfCUToModule::WarningReporter*)
PUBLIC d190 0 google_breakpad::DwarfCUToModule::FileContext::ClearSpecifications()
PUBLIC d1d0 0 google_breakpad::DwarfCUToModule::FileContext::FileContext(std::__cxx11::basic_string<char, std::char_traits<char>, std::allocator<char> > const&, google_breakpad::Module*, bool)
PUBLIC d3f0 0 google_breakpad::DwarfCUToModule::FileContext::~FileContext()
PUBLIC d480 0 google_breakpad::DwarfCUToModule::FileContext::ClearSectionMapForTest()
PUBLIC d4b0 0 google_breakpad::DwarfCUToModule::ReadSourceLines(unsigned long long)
PUBLIC d650 0 google_breakpad::DwarfCUToModule::FileContext::AddSectionToSectionMap(std::__cxx11::basic_string<char, std::char_traits<char>, std::allocator<char> > const&, unsigned char const*, unsigned long long)
PUBLIC d8d0 0 google_breakpad::DwarfCUToModule::GenericDIEHandler::AddStringToPool(std::__cxx11::basic_string<char, std::char_traits<char>, std::allocator<char> > const&)
PUBLIC d940 0 google_breakpad::DwarfCUToModule::GenericDIEHandler::ProcessAttributeString(dwarf2reader::DwarfAttribute, dwarf2reader::DwarfForm, std::__cxx11::basic_string<char, std::char_traits<char>, std::allocator<char> > const&)
PUBLIC dd60 0 google_breakpad::DwarfCUToModule::GenericDIEHandler::ComputeQualifiedName[abi:cxx11]()
PUBLIC e280 0 google_breakpad::DwarfCUToModule::FuncHandler::EndAttributes()
PUBLIC e3e0 0 google_breakpad::DwarfCUToModule::NamedScopeHandler::EndAttributes()
PUBLIC e520 0 google_breakpad::DwarfCUToModule::FuncHandler::Finish()
PUBLIC ea10 0 google_breakpad::DwarfCUToModule::AssignLinesToFunctions()
PUBLIC f2b0 0 google_breakpad::DwarfCUToModule::Finish()
PUBLIC f340 0 google_breakpad::Language::HasFunctions() const
PUBLIC f350 0 google_breakpad::Language::DemangleName(std::__cxx11::basic_string<char, std::char_traits<char>, std::allocator<char> > const&, std::__cxx11::basic_string<char, std::char_traits<char>, std::allocator<char> >*) const
PUBLIC f370 0 google_breakpad::Module::Function::CompareByAddress(google_breakpad::Module::Function const*, google_breakpad::Module::Function const*)
PUBLIC f380 0 google_breakpad::Module::Line::CompareByAddress(google_breakpad::Module::Line const&, google_breakpad::Module::Line const&)
PUBLIC f390 0 dwarf2reader::DIEHandler::ProcessAttributeSigned(dwarf2reader::DwarfAttribute, dwarf2reader::DwarfForm, long long)
PUBLIC f3a0 0 dwarf2reader::DIEHandler::ProcessAttributeReference(dwarf2reader::DwarfAttribute, dwarf2reader::DwarfForm, unsigned long long)
PUBLIC f3b0 0 dwarf2reader::DIEHandler::ProcessAttributeBuffer(dwarf2reader::DwarfAttribute, dwarf2reader::DwarfForm, unsigned char const*, unsigned long long)
PUBLIC f3c0 0 dwarf2reader::DIEHandler::ProcessAttributeSignature(dwarf2reader::DwarfAttribute, dwarf2reader::DwarfForm, unsigned long long)
PUBLIC f3d0 0 dwarf2reader::DIEHandler::EndAttributes()
PUBLIC f3e0 0 dwarf2reader::DIEHandler::FindChildHandler(unsigned long long, dwarf2reader::DwarfTag)
PUBLIC f3f0 0 dwarf2reader::DIEHandler::Finish()
PUBLIC f400 0 google_breakpad::DwarfCUToModule::WarningReporter::uncovered_warnings_enabled() const
PUBLIC f410 0 google_breakpad::DwarfCUToModule::WarningReporter::set_uncovered_warnings_enabled(bool)
PUBLIC f420 0 google_breakpad::DwarfCUToModule::WarningReporter::~WarningReporter()
PUBLIC f470 0 google_breakpad::DwarfCUToModule::GenericDIEHandler::~GenericDIEHandler()
PUBLIC f4d0 0 google_breakpad::DwarfCUToModule::WarningReporter::SetCUName(std::__cxx11::basic_string<char, std::char_traits<char>, std::allocator<char> > const&)
PUBLIC f4e0 0 google_breakpad::DwarfCUToModule::WarningReporter::~WarningReporter()
PUBLIC f530 0 google_breakpad::DwarfCUToModule::NamedScopeHandler::~NamedScopeHandler()
PUBLIC f5b0 0 google_breakpad::DwarfCUToModule::GenericDIEHandler::~GenericDIEHandler()
PUBLIC f610 0 google_breakpad::DwarfCUToModule::FuncHandler::~FuncHandler()
PUBLIC f690 0 google_breakpad::DwarfCUToModule::NamedScopeHandler::~NamedScopeHandler()
PUBLIC f710 0 google_breakpad::DwarfCUToModule::FuncHandler::~FuncHandler()
PUBLIC f790 0 std::vector<google_breakpad::Module::Range, std::allocator<google_breakpad::Module::Range> >::operator=(std::vector<google_breakpad::Module::Range, std::allocator<google_breakpad::Module::Range> > const&)
PUBLIC f8f0 0 google_breakpad::scoped_ptr<google_breakpad::DwarfCUToModule::CUContext>::~scoped_ptr()
PUBLIC f990 0 std::_Rb_tree<unsigned long long, std::pair<unsigned long long const, google_breakpad::DwarfCUToModule::Specification>, std::_Select1st<std::pair<unsigned long long const, google_breakpad::DwarfCUToModule::Specification> >, std::less<unsigned long long>, std::allocator<std::pair<unsigned long long const, google_breakpad::DwarfCUToModule::Specification> > >::_M_erase(std::_Rb_tree_node<std::pair<unsigned long long const, google_breakpad::DwarfCUToModule::Specification> >*)
PUBLIC fa10 0 std::_Rb_tree<unsigned long long, std::pair<unsigned long long const, google_breakpad::AbstractOrigin>, std::_Select1st<std::pair<unsigned long long const, google_breakpad::AbstractOrigin> >, std::less<unsigned long long>, std::allocator<std::pair<unsigned long long const, google_breakpad::AbstractOrigin> > >::_M_erase(std::_Rb_tree_node<std::pair<unsigned long long const, google_breakpad::AbstractOrigin> >*)
PUBLIC fa70 0 std::_Rb_tree<std::__cxx11::basic_string<char, std::char_traits<char>, std::allocator<char> >, std::pair<std::__cxx11::basic_string<char, std::char_traits<char>, std::allocator<char> > const, std::pair<unsigned char const*, unsigned long long> >, std::_Select1st<std::pair<std::__cxx11::basic_string<char, std::char_traits<char>, std::allocator<char> > const, std::pair<unsigned char const*, unsigned long long> > >, std::less<std::__cxx11::basic_string<char, std::char_traits<char>, std::allocator<char> > >, std::allocator<std::pair<std::__cxx11::basic_string<char, std::char_traits<char>, std::allocator<char> > const, std::pair<unsigned char const*, unsigned long long> > > >::_M_erase(std::_Rb_tree_node<std::pair<std::__cxx11::basic_string<char, std::char_traits<char>, std::allocator<char> > const, std::pair<unsigned char const*, unsigned long long> > >*)
PUBLIC fad0 0 void std::vector<google_breakpad::Module::Range, std::allocator<google_breakpad::Module::Range> >::_M_realloc_insert<google_breakpad::Module::Range const&>(__gnu_cxx::__normal_iterator<google_breakpad::Module::Range*, std::vector<google_breakpad::Module::Range, std::allocator<google_breakpad::Module::Range> > >, google_breakpad::Module::Range const&)
PUBLIC fc40 0 std::_Rb_tree<std::__cxx11::basic_string<char, std::char_traits<char>, std::allocator<char> >, std::pair<std::__cxx11::basic_string<char, std::char_traits<char>, std::allocator<char> > const, std::pair<unsigned char const*, unsigned long long> >, std::_Select1st<std::pair<std::__cxx11::basic_string<char, std::char_traits<char>, std::allocator<char> > const, std::pair<unsigned char const*, unsigned long long> > >, std::less<std::__cxx11::basic_string<char, std::char_traits<char>, std::allocator<char> > >, std::allocator<std::pair<std::__cxx11::basic_string<char, std::char_traits<char>, std::allocator<char> > const, std::pair<unsigned char const*, unsigned long long> > > >::find(std::__cxx11::basic_string<char, std::char_traits<char>, std::allocator<char> > const&) const
PUBLIC fd50 0 void std::vector<google_breakpad::Module::Line, std::allocator<google_breakpad::Module::Line> >::_M_realloc_insert<google_breakpad::Module::Line const&>(__gnu_cxx::__normal_iterator<google_breakpad::Module::Line*, std::vector<google_breakpad::Module::Line, std::allocator<google_breakpad::Module::Line> > >, google_breakpad::Module::Line const&)
PUBLIC fe90 0 void std::vector<google_breakpad::Module::Function*, std::allocator<google_breakpad::Module::Function*> >::_M_realloc_insert<google_breakpad::Module::Function*>(__gnu_cxx::__normal_iterator<google_breakpad::Module::Function**, std::vector<google_breakpad::Module::Function*, std::allocator<google_breakpad::Module::Function*> > >, google_breakpad::Module::Function*&&)
PUBLIC ffc0 0 std::_Rb_tree<std::__cxx11::basic_string<char, std::char_traits<char>, std::allocator<char> >, std::pair<std::__cxx11::basic_string<char, std::char_traits<char>, std::allocator<char> > const, std::pair<unsigned char const*, unsigned long long> >, std::_Select1st<std::pair<std::__cxx11::basic_string<char, std::char_traits<char>, std::allocator<char> > const, std::pair<unsigned char const*, unsigned long long> > >, std::less<std::__cxx11::basic_string<char, std::char_traits<char>, std::allocator<char> > >, std::allocator<std::pair<std::__cxx11::basic_string<char, std::char_traits<char>, std::allocator<char> > const, std::pair<unsigned char const*, unsigned long long> > > >::_M_get_insert_unique_pos(std::__cxx11::basic_string<char, std::char_traits<char>, std::allocator<char> > const&)
PUBLIC 10150 0 std::_Rb_tree<std::__cxx11::basic_string<char, std::char_traits<char>, std::allocator<char> >, std::pair<std::__cxx11::basic_string<char, std::char_traits<char>, std::allocator<char> > const, std::pair<unsigned char const*, unsigned long long> >, std::_Select1st<std::pair<std::__cxx11::basic_string<char, std::char_traits<char>, std::allocator<char> > const, std::pair<unsigned char const*, unsigned long long> > >, std::less<std::__cxx11::basic_string<char, std::char_traits<char>, std::allocator<char> > >, std::allocator<std::pair<std::__cxx11::basic_string<char, std::char_traits<char>, std::allocator<char> > const, std::pair<unsigned char const*, unsigned long long> > > >::_M_get_insert_hint_unique_pos(std::_Rb_tree_const_iterator<std::pair<std::__cxx11::basic_string<char, std::char_traits<char>, std::allocator<char> > const, std::pair<unsigned char const*, unsigned long long> > >, std::__cxx11::basic_string<char, std::char_traits<char>, std::allocator<char> > const&)
PUBLIC 10410 0 std::tr1::_Hashtable<std::__cxx11::basic_string<char, std::char_traits<char>, std::allocator<char> >, std::__cxx11::basic_string<char, std::char_traits<char>, std::allocator<char> >, std::allocator<std::__cxx11::basic_string<char, std::char_traits<char>, std::allocator<char> > >, std::_Identity<std::__cxx11::basic_string<char, std::char_traits<char>, std::allocator<char> > >, std::equal_to<std::__cxx11::basic_string<char, std::char_traits<char>, std::allocator<char> > >, std::tr1::hash<std::__cxx11::basic_string<char, std::char_traits<char>, std::allocator<char> > >, std::tr1::__detail::_Mod_range_hashing, std::tr1::__detail::_Default_ranged_hash, std::tr1::__detail::_Prime_rehash_policy, false, true, true>::_M_rehash(unsigned long)
PUBLIC 105a0 0 std::tr1::_Hashtable<std::__cxx11::basic_string<char, std::char_traits<char>, std::allocator<char> >, std::__cxx11::basic_string<char, std::char_traits<char>, std::allocator<char> >, std::allocator<std::__cxx11::basic_string<char, std::char_traits<char>, std::allocator<char> > >, std::_Identity<std::__cxx11::basic_string<char, std::char_traits<char>, std::allocator<char> > >, std::equal_to<std::__cxx11::basic_string<char, std::char_traits<char>, std::allocator<char> > >, std::tr1::hash<std::__cxx11::basic_string<char, std::char_traits<char>, std::allocator<char> > >, std::tr1::__detail::_Mod_range_hashing, std::tr1::__detail::_Default_ranged_hash, std::tr1::__detail::_Prime_rehash_policy, false, true, true>::_M_insert_bucket(std::__cxx11::basic_string<char, std::char_traits<char>, std::allocator<char> > const&, unsigned long, unsigned long)
PUBLIC 10980 0 std::tr1::_Hashtable<std::__cxx11::basic_string<char, std::char_traits<char>, std::allocator<char> >, std::__cxx11::basic_string<char, std::char_traits<char>, std::allocator<char> >, std::allocator<std::__cxx11::basic_string<char, std::char_traits<char>, std::allocator<char> > >, std::_Identity<std::__cxx11::basic_string<char, std::char_traits<char>, std::allocator<char> > >, std::equal_to<std::__cxx11::basic_string<char, std::char_traits<char>, std::allocator<char> > >, std::tr1::hash<std::__cxx11::basic_string<char, std::char_traits<char>, std::allocator<char> > >, std::tr1::__detail::_Mod_range_hashing, std::tr1::__detail::_Default_ranged_hash, std::tr1::__detail::_Prime_rehash_policy, false, true, true>::_M_insert(std::__cxx11::basic_string<char, std::char_traits<char>, std::allocator<char> > const&, std::tr1::integral_constant<bool, true>)
PUBLIC 10ab0 0 std::_Rb_tree<unsigned long long, std::pair<unsigned long long const, google_breakpad::DwarfCUToModule::Specification>, std::_Select1st<std::pair<unsigned long long const, google_breakpad::DwarfCUToModule::Specification> >, std::less<unsigned long long>, std::allocator<std::pair<unsigned long long const, google_breakpad::DwarfCUToModule::Specification> > >::_M_get_insert_unique_pos(unsigned long long const&)
PUBLIC 10b40 0 std::_Rb_tree<unsigned long long, std::pair<unsigned long long const, google_breakpad::DwarfCUToModule::Specification>, std::_Select1st<std::pair<unsigned long long const, google_breakpad::DwarfCUToModule::Specification> >, std::less<unsigned long long>, std::allocator<std::pair<unsigned long long const, google_breakpad::DwarfCUToModule::Specification> > >::_M_get_insert_hint_unique_pos(std::_Rb_tree_const_iterator<std::pair<unsigned long long const, google_breakpad::DwarfCUToModule::Specification> >, unsigned long long const&)
PUBLIC 10c30 0 std::_Rb_tree<unsigned long long, std::pair<unsigned long long const, google_breakpad::AbstractOrigin>, std::_Select1st<std::pair<unsigned long long const, google_breakpad::AbstractOrigin> >, std::less<unsigned long long>, std::allocator<std::pair<unsigned long long const, google_breakpad::AbstractOrigin> > >::_M_get_insert_unique_pos(unsigned long long const&)
PUBLIC 10cc0 0 std::_Rb_tree<unsigned long long, std::pair<unsigned long long const, google_breakpad::AbstractOrigin>, std::_Select1st<std::pair<unsigned long long const, google_breakpad::AbstractOrigin> >, std::less<unsigned long long>, std::allocator<std::pair<unsigned long long const, google_breakpad::AbstractOrigin> > >::_M_get_insert_hint_unique_pos(std::_Rb_tree_const_iterator<std::pair<unsigned long long const, google_breakpad::AbstractOrigin> >, unsigned long long const&)
PUBLIC 10db0 0 void std::__insertion_sort<__gnu_cxx::__normal_iterator<google_breakpad::Module::Function**, std::vector<google_breakpad::Module::Function*, std::allocator<google_breakpad::Module::Function*> > >, __gnu_cxx::__ops::_Iter_comp_iter<bool (*)(google_breakpad::Module::Function const*, google_breakpad::Module::Function const*)> >(__gnu_cxx::__normal_iterator<google_breakpad::Module::Function**, std::vector<google_breakpad::Module::Function*, std::allocator<google_breakpad::Module::Function*> > >, __gnu_cxx::__normal_iterator<google_breakpad::Module::Function**, std::vector<google_breakpad::Module::Function*, std::allocator<google_breakpad::Module::Function*> > >, __gnu_cxx::__ops::_Iter_comp_iter<bool (*)(google_breakpad::Module::Function const*, google_breakpad::Module::Function const*)>)
PUBLIC 10e70 0 void std::__move_median_to_first<__gnu_cxx::__normal_iterator<google_breakpad::Module::Line*, std::vector<google_breakpad::Module::Line, std::allocator<google_breakpad::Module::Line> > >, __gnu_cxx::__ops::_Iter_comp_iter<bool (*)(google_breakpad::Module::Line const&, google_breakpad::Module::Line const&)> >(__gnu_cxx::__normal_iterator<google_breakpad::Module::Line*, std::vector<google_breakpad::Module::Line, std::allocator<google_breakpad::Module::Line> > >, __gnu_cxx::__normal_iterator<google_breakpad::Module::Line*, std::vector<google_breakpad::Module::Line, std::allocator<google_breakpad::Module::Line> > >, __gnu_cxx::__normal_iterator<google_breakpad::Module::Line*, std::vector<google_breakpad::Module::Line, std::allocator<google_breakpad::Module::Line> > >, __gnu_cxx::__normal_iterator<google_breakpad::Module::Line*, std::vector<google_breakpad::Module::Line, std::allocator<google_breakpad::Module::Line> > >, __gnu_cxx::__ops::_Iter_comp_iter<bool (*)(google_breakpad::Module::Line const&, google_breakpad::Module::Line const&)>)
PUBLIC 10fb0 0 void std::__unguarded_linear_insert<__gnu_cxx::__normal_iterator<google_breakpad::Module::Line*, std::vector<google_breakpad::Module::Line, std::allocator<google_breakpad::Module::Line> > >, __gnu_cxx::__ops::_Val_comp_iter<bool (*)(google_breakpad::Module::Line const&, google_breakpad::Module::Line const&)> >(__gnu_cxx::__normal_iterator<google_breakpad::Module::Line*, std::vector<google_breakpad::Module::Line, std::allocator<google_breakpad::Module::Line> > >, __gnu_cxx::__ops::_Val_comp_iter<bool (*)(google_breakpad::Module::Line const&, google_breakpad::Module::Line const&)>)
PUBLIC 11050 0 void std::__insertion_sort<__gnu_cxx::__normal_iterator<google_breakpad::Module::Line*, std::vector<google_breakpad::Module::Line, std::allocator<google_breakpad::Module::Line> > >, __gnu_cxx::__ops::_Iter_comp_iter<bool (*)(google_breakpad::Module::Line const&, google_breakpad::Module::Line const&)> >(__gnu_cxx::__normal_iterator<google_breakpad::Module::Line*, std::vector<google_breakpad::Module::Line, std::allocator<google_breakpad::Module::Line> > >, __gnu_cxx::__normal_iterator<google_breakpad::Module::Line*, std::vector<google_breakpad::Module::Line, std::allocator<google_breakpad::Module::Line> > >, __gnu_cxx::__ops::_Iter_comp_iter<bool (*)(google_breakpad::Module::Line const&, google_breakpad::Module::Line const&)>)
PUBLIC 11120 0 void std::__adjust_heap<__gnu_cxx::__normal_iterator<google_breakpad::Module::Function**, std::vector<google_breakpad::Module::Function*, std::allocator<google_breakpad::Module::Function*> > >, long, google_breakpad::Module::Function*, __gnu_cxx::__ops::_Iter_comp_iter<bool (*)(google_breakpad::Module::Function const*, google_breakpad::Module::Function const*)> >(__gnu_cxx::__normal_iterator<google_breakpad::Module::Function**, std::vector<google_breakpad::Module::Function*, std::allocator<google_breakpad::Module::Function*> > >, long, long, google_breakpad::Module::Function*, __gnu_cxx::__ops::_Iter_comp_iter<bool (*)(google_breakpad::Module::Function const*, google_breakpad::Module::Function const*)>)
PUBLIC 112a0 0 void std::__introsort_loop<__gnu_cxx::__normal_iterator<google_breakpad::Module::Function**, std::vector<google_breakpad::Module::Function*, std::allocator<google_breakpad::Module::Function*> > >, long, __gnu_cxx::__ops::_Iter_comp_iter<bool (*)(google_breakpad::Module::Function const*, google_breakpad::Module::Function const*)> >(__gnu_cxx::__normal_iterator<google_breakpad::Module::Function**, std::vector<google_breakpad::Module::Function*, std::allocator<google_breakpad::Module::Function*> > >, __gnu_cxx::__normal_iterator<google_breakpad::Module::Function**, std::vector<google_breakpad::Module::Function*, std::allocator<google_breakpad::Module::Function*> > >, long, __gnu_cxx::__ops::_Iter_comp_iter<bool (*)(google_breakpad::Module::Function const*, google_breakpad::Module::Function const*)>)
PUBLIC 114f0 0 void std::__adjust_heap<__gnu_cxx::__normal_iterator<google_breakpad::Module::Line*, std::vector<google_breakpad::Module::Line, std::allocator<google_breakpad::Module::Line> > >, long, google_breakpad::Module::Line, __gnu_cxx::__ops::_Iter_comp_iter<bool (*)(google_breakpad::Module::Line const&, google_breakpad::Module::Line const&)> >(__gnu_cxx::__normal_iterator<google_breakpad::Module::Line*, std::vector<google_breakpad::Module::Line, std::allocator<google_breakpad::Module::Line> > >, long, long, google_breakpad::Module::Line, __gnu_cxx::__ops::_Iter_comp_iter<bool (*)(google_breakpad::Module::Line const&, google_breakpad::Module::Line const&)>)
PUBLIC 11740 0 void std::__introsort_loop<__gnu_cxx::__normal_iterator<google_breakpad::Module::Line*, std::vector<google_breakpad::Module::Line, std::allocator<google_breakpad::Module::Line> > >, long, __gnu_cxx::__ops::_Iter_comp_iter<bool (*)(google_breakpad::Module::Line const&, google_breakpad::Module::Line const&)> >(__gnu_cxx::__normal_iterator<google_breakpad::Module::Line*, std::vector<google_breakpad::Module::Line, std::allocator<google_breakpad::Module::Line> > >, __gnu_cxx::__normal_iterator<google_breakpad::Module::Line*, std::vector<google_breakpad::Module::Line, std::allocator<google_breakpad::Module::Line> > >, long, __gnu_cxx::__ops::_Iter_comp_iter<bool (*)(google_breakpad::Module::Line const&, google_breakpad::Module::Line const&)>)
PUBLIC 11960 0 void std::__cxx11::basic_string<char, std::char_traits<char>, std::allocator<char> >::_M_construct<char*>(char*, char*, std::forward_iterator_tag) [clone .isra.47]
PUBLIC 11a30 0 ExpandPath(std::__cxx11::basic_string<char, std::char_traits<char>, std::allocator<char> > const&, std::__cxx11::basic_string<char, std::char_traits<char>, std::allocator<char> > const&)
PUBLIC 11bd0 0 google_breakpad::DwarfLineToModule::DefineDir(std::__cxx11::basic_string<char, std::char_traits<char>, std::allocator<char> > const&, unsigned int)
PUBLIC 11e30 0 google_breakpad::DwarfLineToModule::DefineFile(std::__cxx11::basic_string<char, std::char_traits<char>, std::allocator<char> > const&, int, unsigned int, unsigned long long, unsigned long long)
PUBLIC 120b0 0 google_breakpad::DwarfLineToModule::AddLine(unsigned long long, unsigned long long, unsigned int, unsigned int, unsigned int)
PUBLIC 122b0 0 std::_Rb_tree<unsigned int, std::pair<unsigned int const, std::__cxx11::basic_string<char, std::char_traits<char>, std::allocator<char> > >, std::_Select1st<std::pair<unsigned int const, std::__cxx11::basic_string<char, std::char_traits<char>, std::allocator<char> > > >, std::less<unsigned int>, std::allocator<std::pair<unsigned int const, std::__cxx11::basic_string<char, std::char_traits<char>, std::allocator<char> > > > >::_M_erase(std::_Rb_tree_node<std::pair<unsigned int const, std::__cxx11::basic_string<char, std::char_traits<char>, std::allocator<char> > > >*)
PUBLIC 12310 0 std::_Rb_tree<unsigned int, std::pair<unsigned int const, google_breakpad::Module::File*>, std::_Select1st<std::pair<unsigned int const, google_breakpad::Module::File*> >, std::less<unsigned int>, std::allocator<std::pair<unsigned int const, google_breakpad::Module::File*> > >::_M_erase(std::_Rb_tree_node<std::pair<unsigned int const, google_breakpad::Module::File*> >*)
PUBLIC 12350 0 google_breakpad::DwarfLineToModule::~DwarfLineToModule()
PUBLIC 123a0 0 google_breakpad::DwarfLineToModule::~DwarfLineToModule()
PUBLIC 123f0 0 std::_Rb_tree<unsigned int, std::pair<unsigned int const, google_breakpad::Module::File*>, std::_Select1st<std::pair<unsigned int const, google_breakpad::Module::File*> >, std::less<unsigned int>, std::allocator<std::pair<unsigned int const, google_breakpad::Module::File*> > >::_M_insert_node(std::_Rb_tree_node_base*, std::_Rb_tree_node_base*, std::_Rb_tree_node<std::pair<unsigned int const, google_breakpad::Module::File*> >*)
PUBLIC 12440 0 std::_Rb_tree<unsigned int, std::pair<unsigned int const, std::__cxx11::basic_string<char, std::char_traits<char>, std::allocator<char> > >, std::_Select1st<std::pair<unsigned int const, std::__cxx11::basic_string<char, std::char_traits<char>, std::allocator<char> > > >, std::less<unsigned int>, std::allocator<std::pair<unsigned int const, std::__cxx11::basic_string<char, std::char_traits<char>, std::allocator<char> > > > >::_M_get_insert_unique_pos(unsigned int const&)
PUBLIC 124d0 0 std::_Rb_tree<unsigned int, std::pair<unsigned int const, std::__cxx11::basic_string<char, std::char_traits<char>, std::allocator<char> > >, std::_Select1st<std::pair<unsigned int const, std::__cxx11::basic_string<char, std::char_traits<char>, std::allocator<char> > > >, std::less<unsigned int>, std::allocator<std::pair<unsigned int const, std::__cxx11::basic_string<char, std::char_traits<char>, std::allocator<char> > > > >::_M_get_insert_hint_unique_pos(std::_Rb_tree_const_iterator<std::pair<unsigned int const, std::__cxx11::basic_string<char, std::char_traits<char>, std::allocator<char> > > >, unsigned int const&)
PUBLIC 125b0 0 std::_Rb_tree<unsigned int, std::pair<unsigned int const, google_breakpad::Module::File*>, std::_Select1st<std::pair<unsigned int const, google_breakpad::Module::File*> >, std::less<unsigned int>, std::allocator<std::pair<unsigned int const, google_breakpad::Module::File*> > >::_M_get_insert_unique_pos(unsigned int const&)
PUBLIC 12640 0 std::_Rb_tree<unsigned int, std::pair<unsigned int const, google_breakpad::Module::File*>, std::_Select1st<std::pair<unsigned int const, google_breakpad::Module::File*> >, std::less<unsigned int>, std::allocator<std::pair<unsigned int const, google_breakpad::Module::File*> > >::_M_get_insert_hint_unique_pos(std::_Rb_tree_const_iterator<std::pair<unsigned int const, google_breakpad::Module::File*> >, unsigned int const&)
PUBLIC 12720 0 google_breakpad::DwarfRangeListHandler::SetBaseAddress(unsigned long long)
PUBLIC 12730 0 void std::__adjust_heap<__gnu_cxx::__normal_iterator<google_breakpad::Module::Range*, std::vector<google_breakpad::Module::Range, std::allocator<google_breakpad::Module::Range> > >, long, google_breakpad::Module::Range, __gnu_cxx::__ops::_Iter_comp_iter<google_breakpad::DwarfRangeListHandler::Finish()::{lambda(google_breakpad::Module::Range const&, google_breakpad::Module::Range const&)#1}> >(__gnu_cxx::__normal_iterator<google_breakpad::Module::Range*, std::vector<google_breakpad::Module::Range, std::allocator<google_breakpad::Module::Range> > >, long, __gnu_cxx::__normal_iterator<google_breakpad::Module::Range*, std::vector<google_breakpad::Module::Range, std::allocator<google_breakpad::Module::Range> > >, google_breakpad::Module::Range, __gnu_cxx::__ops::_Iter_comp_iter<google_breakpad::DwarfRangeListHandler::Finish()::{lambda(google_breakpad::Module::Range const&, google_breakpad::Module::Range const&)#1}>) [clone .isra.18]
PUBLIC 12880 0 void std::__introsort_loop<__gnu_cxx::__normal_iterator<google_breakpad::Module::Range*, std::vector<google_breakpad::Module::Range, std::allocator<google_breakpad::Module::Range> > >, long, __gnu_cxx::__ops::_Iter_comp_iter<google_breakpad::DwarfRangeListHandler::Finish()::{lambda(google_breakpad::Module::Range const&, google_breakpad::Module::Range const&)#1}> >(__gnu_cxx::__normal_iterator<google_breakpad::Module::Range*, std::vector<google_breakpad::Module::Range, std::allocator<google_breakpad::Module::Range> > >, __gnu_cxx::__ops::_Iter_comp_iter<google_breakpad::DwarfRangeListHandler::Finish()::{lambda(google_breakpad::Module::Range const&, google_breakpad::Module::Range const&)#1}>, long, __gnu_cxx::__ops::_Iter_comp_iter<google_breakpad::DwarfRangeListHandler::Finish()::{lambda(google_breakpad::Module::Range const&, google_breakpad::Module::Range const&)#1}>)
PUBLIC 12a90 0 void std::__insertion_sort<__gnu_cxx::__normal_iterator<google_breakpad::Module::Range*, std::vector<google_breakpad::Module::Range, std::allocator<google_breakpad::Module::Range> > >, __gnu_cxx::__ops::_Iter_comp_iter<google_breakpad::DwarfRangeListHandler::Finish()::{lambda(google_breakpad::Module::Range const&, google_breakpad::Module::Range const&)#1}> >(__gnu_cxx::__normal_iterator<google_breakpad::Module::Range*, std::vector<google_breakpad::Module::Range, std::allocator<google_breakpad::Module::Range> > >, __gnu_cxx::__ops::_Iter_comp_iter<google_breakpad::DwarfRangeListHandler::Finish()::{lambda(google_breakpad::Module::Range const&, google_breakpad::Module::Range const&)#1}>, __gnu_cxx::__ops::_Iter_comp_iter<google_breakpad::DwarfRangeListHandler::Finish()::{lambda(google_breakpad::Module::Range const&, google_breakpad::Module::Range const&)#1}>) [clone .isra.36]
PUBLIC 12b40 0 google_breakpad::DwarfRangeListHandler::Finish()
PUBLIC 12c30 0 google_breakpad::DwarfRangeListHandler::AddRange(unsigned long long, unsigned long long)
PUBLIC 12ca0 0 google_breakpad::DwarfRangeListHandler::~DwarfRangeListHandler()
PUBLIC 12cb0 0 google_breakpad::DwarfRangeListHandler::~DwarfRangeListHandler()
PUBLIC 12cc0 0 void std::__cxx11::basic_string<char, std::char_traits<char>, std::allocator<char> >::_M_construct<char*>(char*, char*, std::forward_iterator_tag) [clone .isra.17]
PUBLIC 12d90 0 (anonymous namespace)::MakeQualifiedNameWithSeparator(std::__cxx11::basic_string<char, std::char_traits<char>, std::allocator<char> > const&, char const*, std::__cxx11::basic_string<char, std::char_traits<char>, std::allocator<char> > const&)
PUBLIC 12ee0 0 google_breakpad::AssemblerLanguage::HasFunctions() const
PUBLIC 12ef0 0 google_breakpad::AssemblerLanguage::~AssemblerLanguage()
PUBLIC 12f00 0 google_breakpad::RustLanguage::~RustLanguage()
PUBLIC 12f10 0 google_breakpad::SwiftLanguage::~SwiftLanguage()
PUBLIC 12f20 0 google_breakpad::JavaLanguage::~JavaLanguage()
PUBLIC 12f30 0 google_breakpad::CPPLanguage::~CPPLanguage()
PUBLIC 12f40 0 google_breakpad::AssemblerLanguage::~AssemblerLanguage()
PUBLIC 12f50 0 google_breakpad::RustLanguage::~RustLanguage()
PUBLIC 12f60 0 google_breakpad::SwiftLanguage::~SwiftLanguage()
PUBLIC 12f70 0 google_breakpad::JavaLanguage::~JavaLanguage()
PUBLIC 12f80 0 google_breakpad::CPPLanguage::~CPPLanguage()
PUBLIC 12f90 0 google_breakpad::RustLanguage::DemangleName(std::__cxx11::basic_string<char, std::char_traits<char>, std::allocator<char> > const&, std::__cxx11::basic_string<char, std::char_traits<char>, std::allocator<char> >*) const
PUBLIC 12fb0 0 google_breakpad::SwiftLanguage::DemangleName(std::__cxx11::basic_string<char, std::char_traits<char>, std::allocator<char> > const&, std::__cxx11::basic_string<char, std::char_traits<char>, std::allocator<char> >*) const
PUBLIC 12fd0 0 google_breakpad::CPPLanguage::DemangleName(std::__cxx11::basic_string<char, std::char_traits<char>, std::allocator<char> > const&, std::__cxx11::basic_string<char, std::char_traits<char>, std::allocator<char> >*) const
PUBLIC 13070 0 google_breakpad::AssemblerLanguage::MakeQualifiedName(std::__cxx11::basic_string<char, std::char_traits<char>, std::allocator<char> > const&, std::__cxx11::basic_string<char, std::char_traits<char>, std::allocator<char> > const&) const
PUBLIC 13090 0 google_breakpad::RustLanguage::MakeQualifiedName(std::__cxx11::basic_string<char, std::char_traits<char>, std::allocator<char> > const&, std::__cxx11::basic_string<char, std::char_traits<char>, std::allocator<char> > const&) const
PUBLIC 130e0 0 google_breakpad::SwiftLanguage::MakeQualifiedName(std::__cxx11::basic_string<char, std::char_traits<char>, std::allocator<char> > const&, std::__cxx11::basic_string<char, std::char_traits<char>, std::allocator<char> > const&) const
PUBLIC 13130 0 google_breakpad::JavaLanguage::MakeQualifiedName(std::__cxx11::basic_string<char, std::char_traits<char>, std::allocator<char> > const&, std::__cxx11::basic_string<char, std::char_traits<char>, std::allocator<char> > const&) const
PUBLIC 13180 0 google_breakpad::CPPLanguage::MakeQualifiedName(std::__cxx11::basic_string<char, std::char_traits<char>, std::allocator<char> > const&, std::__cxx11::basic_string<char, std::char_traits<char>, std::allocator<char> > const&) const
PUBLIC 131d0 0 void std::__cxx11::basic_string<char, std::char_traits<char>, std::allocator<char> >::_M_construct<char const*>(char const*, char const*, std::forward_iterator_tag) [clone .isra.82]
PUBLIC 132a0 0 google_breakpad::Module::Module(std::__cxx11::basic_string<char, std::char_traits<char>, std::allocator<char> > const&, std::__cxx11::basic_string<char, std::char_traits<char>, std::allocator<char> > const&, std::__cxx11::basic_string<char, std::char_traits<char>, std::allocator<char> > const&, std::__cxx11::basic_string<char, std::char_traits<char>, std::allocator<char> > const&, std::__cxx11::basic_string<char, std::char_traits<char>, std::allocator<char> > const&)
PUBLIC 13490 0 google_breakpad::Module::SetLoadAddress(unsigned long)
PUBLIC 134a0 0 google_breakpad::Module::AddExtern(google_breakpad::Module::Extern*)
PUBLIC 135c0 0 google_breakpad::Module::FindExistingFile(std::__cxx11::basic_string<char, std::char_traits<char>, std::allocator<char> > const&)
PUBLIC 136e0 0 google_breakpad::Module::AssignSourceIds()
PUBLIC 137d0 0 google_breakpad::Module::ReportError()
PUBLIC 13810 0 google_breakpad::Module::WriteRuleMap(std::map<std::__cxx11::basic_string<char, std::char_traits<char>, std::allocator<char> >, std::__cxx11::basic_string<char, std::char_traits<char>, std::allocator<char> >, std::less<std::__cxx11::basic_string<char, std::char_traits<char>, std::allocator<char> > >, std::allocator<std::pair<std::__cxx11::basic_string<char, std::char_traits<char>, std::allocator<char> > const, std::__cxx11::basic_string<char, std::char_traits<char>, std::allocator<char> > > > > const&, std::ostream&)
PUBLIC 138f0 0 google_breakpad::Module::Write(std::ostream&, SymbolData)
PUBLIC 14080 0 google_breakpad::Module::GetStackFrameEntries(std::vector<google_breakpad::Module::StackFrameEntry*, std::allocator<google_breakpad::Module::StackFrameEntry*> >*) const
PUBLIC 140a0 0 google_breakpad::Module::~Module()
PUBLIC 142d0 0 google_breakpad::Module::AddStackFrameEntry(google_breakpad::Module::StackFrameEntry*)
PUBLIC 14330 0 google_breakpad::Module::GetFiles(std::vector<google_breakpad::Module::File*, std::allocator<google_breakpad::Module::File*> >*)
PUBLIC 143b0 0 google_breakpad::Module::AddFunction(google_breakpad::Module::Function*)
PUBLIC 146b0 0 google_breakpad::Module::AddFunctions(__gnu_cxx::__normal_iterator<google_breakpad::Module::Function**, std::vector<google_breakpad::Module::Function*, std::allocator<google_breakpad::Module::Function*> > >, __gnu_cxx::__normal_iterator<google_breakpad::Module::Function**, std::vector<google_breakpad::Module::Function*, std::allocator<google_breakpad::Module::Function*> > >)
PUBLIC 146f0 0 google_breakpad::Module::GetFunctions(std::vector<google_breakpad::Module::Function*, std::allocator<google_breakpad::Module::Function*> >*, __gnu_cxx::__normal_iterator<google_breakpad::Module::Function**, std::vector<google_breakpad::Module::Function*, std::allocator<google_breakpad::Module::Function*> > >)
PUBLIC 14720 0 google_breakpad::Module::GetExterns(std::vector<google_breakpad::Module::Extern*, std::allocator<google_breakpad::Module::Extern*> >*, __gnu_cxx::__normal_iterator<google_breakpad::Module::Extern**, std::vector<google_breakpad::Module::Extern*, std::allocator<google_breakpad::Module::Extern*> > >)
PUBLIC 14750 0 google_breakpad::Module::FindFile(std::__cxx11::basic_string<char, std::char_traits<char>, std::allocator<char> > const&)
PUBLIC 149a0 0 google_breakpad::Module::FindFile(char const*)
PUBLIC 14a60 0 std::vector<google_breakpad::Module::StackFrameEntry*, std::allocator<google_breakpad::Module::StackFrameEntry*> >::operator=(std::vector<google_breakpad::Module::StackFrameEntry*, std::allocator<google_breakpad::Module::StackFrameEntry*> > const&)
PUBLIC 14bc0 0 std::_Rb_tree<std::__cxx11::basic_string<char, std::char_traits<char>, std::allocator<char> > const*, std::pair<std::__cxx11::basic_string<char, std::char_traits<char>, std::allocator<char> > const* const, google_breakpad::Module::File*>, std::_Select1st<std::pair<std::__cxx11::basic_string<char, std::char_traits<char>, std::allocator<char> > const* const, google_breakpad::Module::File*> >, google_breakpad::Module::CompareStringPtrs, std::allocator<std::pair<std::__cxx11::basic_string<char, std::char_traits<char>, std::allocator<char> > const* const, google_breakpad::Module::File*> > >::_M_erase(std::_Rb_tree_node<std::pair<std::__cxx11::basic_string<char, std::char_traits<char>, std::allocator<char> > const* const, google_breakpad::Module::File*> >*)
PUBLIC 14c00 0 std::_Rb_tree<google_breakpad::Module::Function*, google_breakpad::Module::Function*, std::_Identity<google_breakpad::Module::Function*>, google_breakpad::Module::FunctionCompare, std::allocator<google_breakpad::Module::Function*> >::_M_erase(std::_Rb_tree_node<google_breakpad::Module::Function*>*)
PUBLIC 14c40 0 std::_Rb_tree<google_breakpad::Module::Extern*, google_breakpad::Module::Extern*, std::_Identity<google_breakpad::Module::Extern*>, google_breakpad::Module::ExternCompare, std::allocator<google_breakpad::Module::Extern*> >::_M_erase(std::_Rb_tree_node<google_breakpad::Module::Extern*>*)
PUBLIC 14c80 0 std::_Rb_tree<google_breakpad::Module::Extern*, google_breakpad::Module::Extern*, std::_Identity<google_breakpad::Module::Extern*>, google_breakpad::Module::ExternCompare, std::allocator<google_breakpad::Module::Extern*> >::find(google_breakpad::Module::Extern* const&)
PUBLIC 14ce0 0 void std::vector<google_breakpad::Module::StackFrameEntry*, std::allocator<google_breakpad::Module::StackFrameEntry*> >::_M_realloc_insert<google_breakpad::Module::StackFrameEntry* const&>(__gnu_cxx::__normal_iterator<google_breakpad::Module::StackFrameEntry**, std::vector<google_breakpad::Module::StackFrameEntry*, std::allocator<google_breakpad::Module::StackFrameEntry*> > >, google_breakpad::Module::StackFrameEntry* const&)
PUBLIC 14e10 0 void std::vector<google_breakpad::Module::File*, std::allocator<google_breakpad::Module::File*> >::_M_realloc_insert<google_breakpad::Module::File* const&>(__gnu_cxx::__normal_iterator<google_breakpad::Module::File**, std::vector<google_breakpad::Module::File*, std::allocator<google_breakpad::Module::File*> > >, google_breakpad::Module::File* const&)
PUBLIC 14f40 0 std::_Rb_tree<google_breakpad::Module::Function*, google_breakpad::Module::Function*, std::_Identity<google_breakpad::Module::Function*>, google_breakpad::Module::FunctionCompare, std::allocator<google_breakpad::Module::Function*> >::_M_get_insert_unique_pos(google_breakpad::Module::Function* const&)
PUBLIC 15120 0 void std::vector<google_breakpad::Module::Function*, std::allocator<google_breakpad::Module::Function*> >::_M_range_insert<std::_Rb_tree_const_iterator<google_breakpad::Module::Function*> >(__gnu_cxx::__normal_iterator<google_breakpad::Module::Function**, std::vector<google_breakpad::Module::Function*, std::allocator<google_breakpad::Module::Function*> > >, std::_Rb_tree_const_iterator<google_breakpad::Module::Function*>, std::_Rb_tree_const_iterator<google_breakpad::Module::Function*>, std::forward_iterator_tag)
PUBLIC 154b0 0 void std::vector<google_breakpad::Module::Extern*, std::allocator<google_breakpad::Module::Extern*> >::_M_range_insert<std::_Rb_tree_const_iterator<google_breakpad::Module::Extern*> >(__gnu_cxx::__normal_iterator<google_breakpad::Module::Extern**, std::vector<google_breakpad::Module::Extern*, std::allocator<google_breakpad::Module::Extern*> > >, std::_Rb_tree_const_iterator<google_breakpad::Module::Extern*>, std::_Rb_tree_const_iterator<google_breakpad::Module::Extern*>, std::forward_iterator_tag)
PUBLIC 15840 0 std::_Rb_tree<std::__cxx11::basic_string<char, std::char_traits<char>, std::allocator<char> > const*, std::pair<std::__cxx11::basic_string<char, std::char_traits<char>, std::allocator<char> > const* const, google_breakpad::Module::File*>, std::_Select1st<std::pair<std::__cxx11::basic_string<char, std::char_traits<char>, std::allocator<char> > const* const, google_breakpad::Module::File*> >, google_breakpad::Module::CompareStringPtrs, std::allocator<std::pair<std::__cxx11::basic_string<char, std::char_traits<char>, std::allocator<char> > const* const, google_breakpad::Module::File*> > >::_M_get_insert_unique_pos(std::__cxx11::basic_string<char, std::char_traits<char>, std::allocator<char> > const* const&)
PUBLIC 159d0 0 std::_Rb_tree<std::__cxx11::basic_string<char, std::char_traits<char>, std::allocator<char> > const*, std::pair<std::__cxx11::basic_string<char, std::char_traits<char>, std::allocator<char> > const* const, google_breakpad::Module::File*>, std::_Select1st<std::pair<std::__cxx11::basic_string<char, std::char_traits<char>, std::allocator<char> > const* const, google_breakpad::Module::File*> >, google_breakpad::Module::CompareStringPtrs, std::allocator<std::pair<std::__cxx11::basic_string<char, std::char_traits<char>, std::allocator<char> > const* const, google_breakpad::Module::File*> > >::_M_get_insert_hint_unique_pos(std::_Rb_tree_const_iterator<std::pair<std::__cxx11::basic_string<char, std::char_traits<char>, std::allocator<char> > const* const, google_breakpad::Module::File*> >, std::__cxx11::basic_string<char, std::char_traits<char>, std::allocator<char> > const* const&)
PUBLIC 15ca0 0 void std::__cxx11::basic_string<char, std::char_traits<char>, std::allocator<char> >::_M_construct<char const*>(char const*, char const*, std::forward_iterator_tag) [clone .isra.14]
PUBLIC 15d70 0 google_breakpad::BaseName(std::__cxx11::basic_string<char, std::char_traits<char>, std::allocator<char> > const&)
PUBLIC 15dd0 0 google_breakpad::DirName(std::__cxx11::basic_string<char, std::char_traits<char>, std::allocator<char> > const&)
PUBLIC 15e30 0 void std::__cxx11::basic_string<char, std::char_traits<char>, std::allocator<char> >::_M_construct<char const*>(char const*, char const*, std::forward_iterator_tag) [clone .isra.26]
PUBLIC 15f00 0 google_breakpad::StabsReader::EntryIterator::Fetch()
PUBLIC 16120 0 google_breakpad::StabsReader::EntryIterator::EntryIterator(google_breakpad::ByteBuffer const*, bool, unsigned long)
PUBLIC 16150 0 google_breakpad::StabsReader::StabsReader(unsigned char const*, unsigned long, unsigned char const*, unsigned long, bool, unsigned long, bool, google_breakpad::StabsHandler*)
PUBLIC 161e0 0 google_breakpad::StabsReader::SymbolString()
PUBLIC 16230 0 google_breakpad::StabsReader::ProcessFunction()
PUBLIC 164a0 0 google_breakpad::StabsReader::ProcessExtern()
PUBLIC 165c0 0 google_breakpad::StabsReader::ProcessCompilationUnit()
PUBLIC 16820 0 google_breakpad::StabsReader::Process()
PUBLIC 168b0 0 google_breakpad::StabsHandler::StartCompilationUnit(char const*, unsigned long, char const*)
PUBLIC 168c0 0 google_breakpad::StabsHandler::EndCompilationUnit(unsigned long)
PUBLIC 168d0 0 google_breakpad::StabsHandler::StartFunction(std::__cxx11::basic_string<char, std::char_traits<char>, std::allocator<char> > const&, unsigned long)
PUBLIC 168e0 0 google_breakpad::StabsHandler::EndFunction(unsigned long)
PUBLIC 168f0 0 google_breakpad::StabsHandler::Line(unsigned long, char const*, int)
PUBLIC 16900 0 google_breakpad::StabsHandler::Extern(std::__cxx11::basic_string<char, std::char_traits<char>, std::allocator<char> > const&, unsigned long)
PUBLIC 16910 0 void std::vector<google_breakpad::StabsReader::Line, std::allocator<google_breakpad::StabsReader::Line> >::_M_realloc_insert<google_breakpad::StabsReader::Line const&>(__gnu_cxx::__normal_iterator<google_breakpad::StabsReader::Line*, std::vector<google_breakpad::StabsReader::Line, std::allocator<google_breakpad::StabsReader::Line> > >, google_breakpad::StabsReader::Line const&)
PUBLIC 16a50 0 google_breakpad::StabsToModule::Warning(char const*, ...)
PUBLIC 16b20 0 void std::__cxx11::basic_string<char, std::char_traits<char>, std::allocator<char> >::_M_construct<char const*>(char const*, char const*, std::forward_iterator_tag) [clone .isra.60]
PUBLIC 16bf0 0 google_breakpad::Demangle(std::__cxx11::basic_string<char, std::char_traits<char>, std::allocator<char> > const&)
PUBLIC 16cf0 0 google_breakpad::StabsToModule::~StabsToModule()
PUBLIC 16dd0 0 google_breakpad::StabsToModule::~StabsToModule()
PUBLIC 16df0 0 google_breakpad::StabsToModule::Extern(std::__cxx11::basic_string<char, std::char_traits<char>, std::allocator<char> > const&, unsigned long)
PUBLIC 17120 0 google_breakpad::StabsToModule::Line(unsigned long, char const*, int)
PUBLIC 171f0 0 google_breakpad::StabsToModule::StartCompilationUnit(char const*, unsigned long, char const*)
PUBLIC 17260 0 google_breakpad::StabsToModule::EndCompilationUnit(unsigned long)
PUBLIC 172d0 0 google_breakpad::StabsToModule::StartFunction(std::__cxx11::basic_string<char, std::char_traits<char>, std::allocator<char> > const&, unsigned long)
PUBLIC 17440 0 google_breakpad::StabsToModule::EndFunction(unsigned long)
PUBLIC 17530 0 void std::__introsort_loop<__gnu_cxx::__normal_iterator<unsigned long*, std::vector<unsigned long, std::allocator<unsigned long> > >, long, __gnu_cxx::__ops::_Iter_less_iter>(__gnu_cxx::__normal_iterator<unsigned long*, std::vector<unsigned long, std::allocator<unsigned long> > >, __gnu_cxx::__normal_iterator<unsigned long*, std::vector<unsigned long, std::allocator<unsigned long> > >, long, __gnu_cxx::__ops::_Iter_less_iter) [clone .isra.127]
PUBLIC 17710 0 google_breakpad::StabsToModule::Finalize()
PUBLIC 17b30 0 void std::vector<google_breakpad::Module::Function*, std::allocator<google_breakpad::Module::Function*> >::_M_realloc_insert<google_breakpad::Module::Function* const&>(__gnu_cxx::__normal_iterator<google_breakpad::Module::Function**, std::vector<google_breakpad::Module::Function*, std::allocator<google_breakpad::Module::Function*> > >, google_breakpad::Module::Function* const&)
PUBLIC 17c60 0 void std::vector<unsigned long, std::allocator<unsigned long> >::_M_realloc_insert<unsigned long>(__gnu_cxx::__normal_iterator<unsigned long*, std::vector<unsigned long, std::allocator<unsigned long> > >, unsigned long&&)
PUBLIC 17d90 0 void std::vector<unsigned long, std::allocator<unsigned long> >::emplace_back<unsigned long>(unsigned long&&)
PUBLIC 17dc0 0 void std::__insertion_sort<__gnu_cxx::__normal_iterator<unsigned long*, std::vector<unsigned long, std::allocator<unsigned long> > >, __gnu_cxx::__ops::_Iter_less_iter>(__gnu_cxx::__normal_iterator<unsigned long*, std::vector<unsigned long, std::allocator<unsigned long> > >, __gnu_cxx::__normal_iterator<unsigned long*, std::vector<unsigned long, std::allocator<unsigned long> > >, __gnu_cxx::__ops::_Iter_less_iter)
PUBLIC 17e70 0 __gnu_cxx::__normal_iterator<google_breakpad::Module::Line*, std::vector<google_breakpad::Module::Line, std::allocator<google_breakpad::Module::Line> > > std::_V2::__rotate<__gnu_cxx::__normal_iterator<google_breakpad::Module::Line*, std::vector<google_breakpad::Module::Line, std::allocator<google_breakpad::Module::Line> > > >(__gnu_cxx::__normal_iterator<google_breakpad::Module::Line*, std::vector<google_breakpad::Module::Line, std::allocator<google_breakpad::Module::Line> > >, __gnu_cxx::__normal_iterator<google_breakpad::Module::Line*, std::vector<google_breakpad::Module::Line, std::allocator<google_breakpad::Module::Line> > >, __gnu_cxx::__normal_iterator<google_breakpad::Module::Line*, std::vector<google_breakpad::Module::Line, std::allocator<google_breakpad::Module::Line> > >, std::random_access_iterator_tag)
PUBLIC 18120 0 void std::__merge_without_buffer<__gnu_cxx::__normal_iterator<google_breakpad::Module::Line*, std::vector<google_breakpad::Module::Line, std::allocator<google_breakpad::Module::Line> > >, long, __gnu_cxx::__ops::_Iter_comp_iter<bool (*)(google_breakpad::Module::Line const&, google_breakpad::Module::Line const&)> >(__gnu_cxx::__normal_iterator<google_breakpad::Module::Line*, std::vector<google_breakpad::Module::Line, std::allocator<google_breakpad::Module::Line> > >, __gnu_cxx::__normal_iterator<google_breakpad::Module::Line*, std::vector<google_breakpad::Module::Line, std::allocator<google_breakpad::Module::Line> > >, __gnu_cxx::__normal_iterator<google_breakpad::Module::Line*, std::vector<google_breakpad::Module::Line, std::allocator<google_breakpad::Module::Line> > >, long, long, __gnu_cxx::__ops::_Iter_comp_iter<bool (*)(google_breakpad::Module::Line const&, google_breakpad::Module::Line const&)>)
PUBLIC 18420 0 void std::__inplace_stable_sort<__gnu_cxx::__normal_iterator<google_breakpad::Module::Line*, std::vector<google_breakpad::Module::Line, std::allocator<google_breakpad::Module::Line> > >, __gnu_cxx::__ops::_Iter_comp_iter<bool (*)(google_breakpad::Module::Line const&, google_breakpad::Module::Line const&)> >(__gnu_cxx::__normal_iterator<google_breakpad::Module::Line*, std::vector<google_breakpad::Module::Line, std::allocator<google_breakpad::Module::Line> > >, __gnu_cxx::__normal_iterator<google_breakpad::Module::Line*, std::vector<google_breakpad::Module::Line, std::allocator<google_breakpad::Module::Line> > >, __gnu_cxx::__ops::_Iter_comp_iter<bool (*)(google_breakpad::Module::Line const&, google_breakpad::Module::Line const&)>)
PUBLIC 184a0 0 void std::__merge_adaptive<__gnu_cxx::__normal_iterator<google_breakpad::Module::Line*, std::vector<google_breakpad::Module::Line, std::allocator<google_breakpad::Module::Line> > >, long, google_breakpad::Module::Line*, __gnu_cxx::__ops::_Iter_comp_iter<bool (*)(google_breakpad::Module::Line const&, google_breakpad::Module::Line const&)> >(__gnu_cxx::__normal_iterator<google_breakpad::Module::Line*, std::vector<google_breakpad::Module::Line, std::allocator<google_breakpad::Module::Line> > >, __gnu_cxx::__normal_iterator<google_breakpad::Module::Line*, std::vector<google_breakpad::Module::Line, std::allocator<google_breakpad::Module::Line> > >, __gnu_cxx::__normal_iterator<google_breakpad::Module::Line*, std::vector<google_breakpad::Module::Line, std::allocator<google_breakpad::Module::Line> > >, long, long, google_breakpad::Module::Line*, long, __gnu_cxx::__ops::_Iter_comp_iter<bool (*)(google_breakpad::Module::Line const&, google_breakpad::Module::Line const&)>)
PUBLIC 18b60 0 google_breakpad::Module::Line* std::__move_merge<__gnu_cxx::__normal_iterator<google_breakpad::Module::Line*, std::vector<google_breakpad::Module::Line, std::allocator<google_breakpad::Module::Line> > >, google_breakpad::Module::Line*, __gnu_cxx::__ops::_Iter_comp_iter<bool (*)(google_breakpad::Module::Line const&, google_breakpad::Module::Line const&)> >(__gnu_cxx::__normal_iterator<google_breakpad::Module::Line*, std::vector<google_breakpad::Module::Line, std::allocator<google_breakpad::Module::Line> > >, __gnu_cxx::__normal_iterator<google_breakpad::Module::Line*, std::vector<google_breakpad::Module::Line, std::allocator<google_breakpad::Module::Line> > >, __gnu_cxx::__normal_iterator<google_breakpad::Module::Line*, std::vector<google_breakpad::Module::Line, std::allocator<google_breakpad::Module::Line> > >, __gnu_cxx::__normal_iterator<google_breakpad::Module::Line*, std::vector<google_breakpad::Module::Line, std::allocator<google_breakpad::Module::Line> > >, google_breakpad::Module::Line*, __gnu_cxx::__ops::_Iter_comp_iter<bool (*)(google_breakpad::Module::Line const&, google_breakpad::Module::Line const&)>)
PUBLIC 18c40 0 __gnu_cxx::__normal_iterator<google_breakpad::Module::Line*, std::vector<google_breakpad::Module::Line, std::allocator<google_breakpad::Module::Line> > > std::__move_merge<google_breakpad::Module::Line*, __gnu_cxx::__normal_iterator<google_breakpad::Module::Line*, std::vector<google_breakpad::Module::Line, std::allocator<google_breakpad::Module::Line> > >, __gnu_cxx::__ops::_Iter_comp_iter<bool (*)(google_breakpad::Module::Line const&, google_breakpad::Module::Line const&)> >(google_breakpad::Module::Line*, google_breakpad::Module::Line*, google_breakpad::Module::Line*, google_breakpad::Module::Line*, __gnu_cxx::__normal_iterator<google_breakpad::Module::Line*, std::vector<google_breakpad::Module::Line, std::allocator<google_breakpad::Module::Line> > >, __gnu_cxx::__ops::_Iter_comp_iter<bool (*)(google_breakpad::Module::Line const&, google_breakpad::Module::Line const&)>)
PUBLIC 18d10 0 void std::__merge_sort_with_buffer<__gnu_cxx::__normal_iterator<google_breakpad::Module::Line*, std::vector<google_breakpad::Module::Line, std::allocator<google_breakpad::Module::Line> > >, google_breakpad::Module::Line*, __gnu_cxx::__ops::_Iter_comp_iter<bool (*)(google_breakpad::Module::Line const&, google_breakpad::Module::Line const&)> >(__gnu_cxx::__normal_iterator<google_breakpad::Module::Line*, std::vector<google_breakpad::Module::Line, std::allocator<google_breakpad::Module::Line> > >, __gnu_cxx::__normal_iterator<google_breakpad::Module::Line*, std::vector<google_breakpad::Module::Line, std::allocator<google_breakpad::Module::Line> > >, google_breakpad::Module::Line*, __gnu_cxx::__ops::_Iter_comp_iter<bool (*)(google_breakpad::Module::Line const&, google_breakpad::Module::Line const&)>)
PUBLIC 18f50 0 void std::__stable_sort_adaptive<__gnu_cxx::__normal_iterator<google_breakpad::Module::Line*, std::vector<google_breakpad::Module::Line, std::allocator<google_breakpad::Module::Line> > >, google_breakpad::Module::Line*, long, __gnu_cxx::__ops::_Iter_comp_iter<bool (*)(google_breakpad::Module::Line const&, google_breakpad::Module::Line const&)> >(__gnu_cxx::__normal_iterator<google_breakpad::Module::Line*, std::vector<google_breakpad::Module::Line, std::allocator<google_breakpad::Module::Line> > >, __gnu_cxx::__normal_iterator<google_breakpad::Module::Line*, std::vector<google_breakpad::Module::Line, std::allocator<google_breakpad::Module::Line> > >, google_breakpad::Module::Line*, long, __gnu_cxx::__ops::_Iter_comp_iter<bool (*)(google_breakpad::Module::Line const&, google_breakpad::Module::Line const&)>)
PUBLIC 19020 0 void std::__adjust_heap<__gnu_cxx::__normal_iterator<unsigned long*, std::vector<unsigned long, std::allocator<unsigned long> > >, long, unsigned long, __gnu_cxx::__ops::_Iter_less_iter>(__gnu_cxx::__normal_iterator<unsigned long*, std::vector<unsigned long, std::allocator<unsigned long> > >, long, long, unsigned long, __gnu_cxx::__ops::_Iter_less_iter)
PUBLIC 19150 0 dwarf2reader::ByteReader::~ByteReader()
PUBLIC 19160 0 dwarf2reader::ByteReader::~ByteReader()
PUBLIC 19180 0 dwarf2reader::ByteReader::ByteReader(dwarf2reader::Endianness)
PUBLIC 191d0 0 dwarf2reader::ByteReader::SetOffsetSize(unsigned char)
PUBLIC 19210 0 dwarf2reader::ByteReader::SetAddressSize(unsigned char)
PUBLIC 19250 0 dwarf2reader::ByteReader::ReadInitialLength(unsigned char const*, unsigned long*)
PUBLIC 192e0 0 dwarf2reader::ByteReader::ValidEncoding(dwarf2reader::DwarfPointerEncoding) const
PUBLIC 19310 0 dwarf2reader::ByteReader::UsableEncoding(dwarf2reader::DwarfPointerEncoding) const
PUBLIC 19360 0 dwarf2reader::ByteReader::ReadEncodedPointer(unsigned char const*, dwarf2reader::DwarfPointerEncoding, unsigned long*) const
PUBLIC 19610 0 dwarf2reader::ByteReader::GetEndianness() const
PUBLIC 19620 0 dwarf2reader::ByteReader::ReadFourBytes(unsigned char const*) const
PUBLIC 19630 0 dwarf2reader::ByteReader::ReadEightBytes(unsigned char const*) const
PUBLIC 19650 0 dwarf2reader::DIEDispatcher::StartCompilationUnit(unsigned long long, unsigned char, unsigned char, unsigned long long, unsigned char)
PUBLIC 19680 0 dwarf2reader::DIEDispatcher::ProcessAttributeSignature(unsigned long long, dwarf2reader::DwarfAttribute, dwarf2reader::DwarfForm, unsigned long long)
PUBLIC 196c0 0 dwarf2reader::DIEDispatcher::ProcessAttributeString(unsigned long long, dwarf2reader::DwarfAttribute, dwarf2reader::DwarfForm, std::__cxx11::basic_string<char, std::char_traits<char>, std::allocator<char> > const&)
PUBLIC 19700 0 dwarf2reader::DIEDispatcher::ProcessAttributeBuffer(unsigned long long, dwarf2reader::DwarfAttribute, dwarf2reader::DwarfForm, unsigned char const*, unsigned long long)
PUBLIC 19740 0 dwarf2reader::DIEDispatcher::ProcessAttributeReference(unsigned long long, dwarf2reader::DwarfAttribute, dwarf2reader::DwarfForm, unsigned long long)
PUBLIC 19780 0 dwarf2reader::DIEDispatcher::ProcessAttributeSigned(unsigned long long, dwarf2reader::DwarfAttribute, dwarf2reader::DwarfForm, long long)
PUBLIC 197c0 0 dwarf2reader::DIEDispatcher::ProcessAttributeUnsigned(unsigned long long, dwarf2reader::DwarfAttribute, dwarf2reader::DwarfForm, unsigned long long)
PUBLIC 19800 0 dwarf2reader::DIEDispatcher::EndDIE(unsigned long long)
PUBLIC 19900 0 dwarf2reader::DIEDispatcher::~DIEDispatcher()
PUBLIC 199f0 0 dwarf2reader::DIEDispatcher::~DIEDispatcher()
PUBLIC 19a10 0 dwarf2reader::DIEDispatcher::StartDIE(unsigned long long, dwarf2reader::DwarfTag)
PUBLIC 19c30 0 dwarf2reader::Dwarf2Handler::NeedSplitDebugInfo()
PUBLIC 19c40 0 dwarf2reader::Dwarf2Handler::StartSplitCompilationUnit(unsigned long long, unsigned long long)
PUBLIC 19c50 0 dwarf2reader::DIEHandler::ProcessAttributeUnsigned(dwarf2reader::DwarfAttribute, dwarf2reader::DwarfForm, unsigned long long)
PUBLIC 19c60 0 dwarf2reader::DIEHandler::ProcessAttributeString(dwarf2reader::DwarfAttribute, dwarf2reader::DwarfForm, std::__cxx11::basic_string<char, std::char_traits<char>, std::allocator<char> > const&)
PUBLIC 19c70 0 dwarf2reader::RootDIEHandler::StartCompilationUnit(unsigned long long, unsigned char, unsigned char, unsigned long long, unsigned char)
PUBLIC 19c80 0 dwarf2reader::RootDIEHandler::StartRootDIE(unsigned long long, dwarf2reader::DwarfTag)
PUBLIC 19c90 0 void std::deque<dwarf2reader::DIEDispatcher::HandlerStack, std::allocator<dwarf2reader::DIEDispatcher::HandlerStack> >::_M_push_back_aux<dwarf2reader::DIEDispatcher::HandlerStack const&>(dwarf2reader::DIEDispatcher::HandlerStack const&)
PUBLIC 19e60 0 dwarf2reader::CallFrameInfo::Reporter::EarlyEHTerminator(unsigned long long)
PUBLIC 19e90 0 dwarf2reader::CallFrameInfo::Reporter::CIEPointerOutOfRange(unsigned long long, unsigned long long)
PUBLIC 19ed0 0 dwarf2reader::CallFrameInfo::Reporter::BadCIEId(unsigned long long, unsigned long long)
PUBLIC 19f10 0 dwarf2reader::CallFrameInfo::Reporter::UnexpectedAddressSize(unsigned long long, unsigned char)
PUBLIC 19f50 0 dwarf2reader::CallFrameInfo::Reporter::UnexpectedSegmentSize(unsigned long long, unsigned char)
PUBLIC 19f90 0 dwarf2reader::CallFrameInfo::Reporter::UnrecognizedVersion(unsigned long long, int)
PUBLIC 19fd0 0 dwarf2reader::CallFrameInfo::Reporter::UnrecognizedAugmentation(unsigned long long, std::__cxx11::basic_string<char, std::char_traits<char>, std::allocator<char> > const&)
PUBLIC 1a010 0 dwarf2reader::CallFrameInfo::Reporter::InvalidPointerEncoding(unsigned long long, unsigned char)
PUBLIC 1a050 0 dwarf2reader::CallFrameInfo::Reporter::UnusablePointerEncoding(unsigned long long, unsigned char)
PUBLIC 1a090 0 dwarf2reader::CallFrameInfo::Reporter::RestoreInCIE(unsigned long long, unsigned long long)
PUBLIC 1a0d0 0 dwarf2reader::CallFrameInfo::State::DoDefCFAOffset(long) [clone .part.25]
PUBLIC 1a100 0 void std::__cxx11::basic_string<char, std::char_traits<char>, std::allocator<char> >::_M_construct<char const*>(char const*, char const*, std::forward_iterator_tag) [clone .isra.94]
PUBLIC 1a1d0 0 dwarf2reader::CompilationUnit::CompilationUnit(std::__cxx11::basic_string<char, std::char_traits<char>, std::allocator<char> > const&, std::map<std::__cxx11::basic_string<char, std::char_traits<char>, std::allocator<char> >, std::pair<unsigned char const*, unsigned long long>, std::less<std::__cxx11::basic_string<char, std::char_traits<char>, std::allocator<char> > >, std::allocator<std::pair<std::__cxx11::basic_string<char, std::char_traits<char>, std::allocator<char> > const, std::pair<unsigned char const*, unsigned long long> > > > const&, unsigned long long, dwarf2reader::ByteReader*, dwarf2reader::Dwarf2Handler*)
PUBLIC 1a300 0 dwarf2reader::CompilationUnit::SetSplitDwarf(unsigned char const*, unsigned long long, unsigned long long, unsigned long long, unsigned long long)
PUBLIC 1a330 0 dwarf2reader::CompilationUnit::SkipAttribute(unsigned char const*, dwarf2reader::DwarfForm)
PUBLIC 1a600 0 dwarf2reader::CompilationUnit::SkipDIE(unsigned char const*, dwarf2reader::CompilationUnit::Abbrev const&)
PUBLIC 1a640 0 dwarf2reader::CompilationUnit::ReadHeader()
PUBLIC 1a700 0 dwarf2reader::CompilationUnit::ProcessAttribute(unsigned long long, unsigned char const*, dwarf2reader::DwarfAttribute, dwarf2reader::DwarfForm)
PUBLIC 1b710 0 dwarf2reader::CompilationUnit::ProcessDIE(unsigned long long, unsigned char const*, dwarf2reader::CompilationUnit::Abbrev const&)
PUBLIC 1b7a0 0 dwarf2reader::DwpReader::DwpReader(dwarf2reader::ByteReader const&, dwarf2reader::ElfReader*)
PUBLIC 1b840 0 dwarf2reader::DwpReader::~DwpReader()
PUBLIC 1b870 0 dwarf2reader::DwpReader::Initialize()
PUBLIC 1bb30 0 dwarf2reader::DwpReader::LookupCU(unsigned long long)
PUBLIC 1bbb0 0 dwarf2reader::DwpReader::LookupCUv2(unsigned long long)
PUBLIC 1bc50 0 dwarf2reader::LineInfo::LineInfo(unsigned char const*, unsigned long long, dwarf2reader::ByteReader*, dwarf2reader::LineInfoHandler*)
PUBLIC 1bc80 0 dwarf2reader::LineInfo::ReadHeader()
PUBLIC 1c0c0 0 dwarf2reader::LineInfo::ProcessOneOpcode(dwarf2reader::ByteReader*, dwarf2reader::LineInfoHandler*, dwarf2reader::LineInfoHeader const&, unsigned char const*, dwarf2reader::LineStateMachine*, unsigned long*, unsigned long, bool*)
PUBLIC 1c630 0 dwarf2reader::LineInfo::ReadLines()
PUBLIC 1c810 0 dwarf2reader::LineInfo::Start()
PUBLIC 1c830 0 dwarf2reader::RangeListReader::RangeListReader(unsigned char const*, unsigned long long, dwarf2reader::ByteReader*, dwarf2reader::RangeListHandler*)
PUBLIC 1c840 0 dwarf2reader::RangeListReader::ReadRangeList(unsigned long long)
PUBLIC 1c980 0 dwarf2reader::CallFrameInfo::RuleMap::RegisterRule(int) const
PUBLIC 1c9e0 0 dwarf2reader::CallFrameInfo::RuleMap::HandleTransitionTo(dwarf2reader::CallFrameInfo::Handler*, unsigned long long, dwarf2reader::CallFrameInfo::RuleMap const&) const
PUBLIC 1cb20 0 dwarf2reader::CallFrameInfo::State::ParseOperands(char const*, dwarf2reader::CallFrameInfo::State::Operands*)
PUBLIC 1cf60 0 dwarf2reader::CallFrameInfo::State::DoDefCFA(unsigned int, long)
PUBLIC 1d010 0 dwarf2reader::CallFrameInfo::State::DoDefCFAOffset(long)
PUBLIC 1d060 0 dwarf2reader::CallFrameInfo::KindName(dwarf2reader::CallFrameInfo::EntryKind)
PUBLIC 1d090 0 dwarf2reader::CallFrameInfo::Reporter::Incomplete(unsigned long long, dwarf2reader::CallFrameInfo::EntryKind)
PUBLIC 1d0e0 0 dwarf2reader::CallFrameInfo::Reporter::BadInstruction(unsigned long long, dwarf2reader::CallFrameInfo::EntryKind, unsigned long long)
PUBLIC 1d140 0 dwarf2reader::CallFrameInfo::Reporter::NoCFARule(unsigned long long, dwarf2reader::CallFrameInfo::EntryKind, unsigned long long)
PUBLIC 1d1a0 0 dwarf2reader::CallFrameInfo::Reporter::EmptyStateStack(unsigned long long, dwarf2reader::CallFrameInfo::EntryKind, unsigned long long)
PUBLIC 1d200 0 dwarf2reader::CallFrameInfo::Reporter::ClearingCFARule(unsigned long long, dwarf2reader::CallFrameInfo::EntryKind, unsigned long long)
PUBLIC 1d260 0 dwarf2reader::CallFrameInfo::ReportIncomplete(dwarf2reader::CallFrameInfo::Entry*)
PUBLIC 1d280 0 dwarf2reader::CallFrameInfo::ReadEntryPrologue(unsigned char const*, dwarf2reader::CallFrameInfo::Entry*)
PUBLIC 1d430 0 dwarf2reader::CallFrameInfo::ReadFDEFields(dwarf2reader::CallFrameInfo::FDE*)
PUBLIC 1d5d0 0 dwarf2reader::CallFrameInfo::ReadCIEFields(dwarf2reader::CallFrameInfo::CIE*)
PUBLIC 1dbc0 0 dwarf2reader::CompilationUnit::ReadAbbrevs()
PUBLIC 1df40 0 dwarf2reader::CallFrameInfo::RuleMap::Clear()
PUBLIC 1dfc0 0 dwarf2reader::CompilationUnit::ProcessDIEs()
PUBLIC 1e390 0 dwarf2reader::CompilationUnit::ReadDebugSectionsFromDwo(dwarf2reader::ElfReader*, std::map<std::__cxx11::basic_string<char, std::char_traits<char>, std::allocator<char> >, std::pair<unsigned char const*, unsigned long long>, std::less<std::__cxx11::basic_string<char, std::char_traits<char>, std::allocator<char> > >, std::allocator<std::pair<std::__cxx11::basic_string<char, std::char_traits<char>, std::allocator<char> > const, std::pair<unsigned char const*, unsigned long long> > > >*)
PUBLIC 1e5a0 0 dwarf2reader::DwpReader::ReadDebugSectionsForCU(unsigned long long, std::map<std::__cxx11::basic_string<char, std::char_traits<char>, std::allocator<char> >, std::pair<unsigned char const*, unsigned long long>, std::less<std::__cxx11::basic_string<char, std::char_traits<char>, std::allocator<char> > >, std::allocator<std::pair<std::__cxx11::basic_string<char, std::char_traits<char>, std::allocator<char> > const, std::pair<unsigned char const*, unsigned long long> > > >*)
PUBLIC 1e920 0 std::_Rb_tree_iterator<std::pair<int const, dwarf2reader::CallFrameInfo::Rule*> > std::_Rb_tree<int, std::pair<int const, dwarf2reader::CallFrameInfo::Rule*>, std::_Select1st<std::pair<int const, dwarf2reader::CallFrameInfo::Rule*> >, std::less<int>, std::allocator<std::pair<int const, dwarf2reader::CallFrameInfo::Rule*> > >::_M_emplace_hint_unique<std::piecewise_construct_t const&, std::tuple<int const&>, std::tuple<> >(std::_Rb_tree_const_iterator<std::pair<int const, dwarf2reader::CallFrameInfo::Rule*> >, std::piecewise_construct_t const&, std::tuple<int const&>&&, std::tuple<>&&) [clone .isra.218]
PUBLIC 1e9d0 0 dwarf2reader::CallFrameInfo::RuleMap::SetRegisterRule(int, dwarf2reader::CallFrameInfo::Rule*)
PUBLIC 1ea90 0 dwarf2reader::CallFrameInfo::State::DoRule(unsigned int, dwarf2reader::CallFrameInfo::Rule*)
PUBLIC 1ead0 0 dwarf2reader::CallFrameInfo::State::DoOffset(unsigned int, long)
PUBLIC 1eb30 0 dwarf2reader::CallFrameInfo::State::DoValOffset(unsigned int, long)
PUBLIC 1eb90 0 dwarf2reader::CallFrameInfo::State::DoRestore(unsigned int)
PUBLIC 1ec20 0 dwarf2reader::CallFrameInfo::RuleMap::operator=(dwarf2reader::CallFrameInfo::RuleMap const&)
PUBLIC 1ed50 0 dwarf2reader::CallFrameInfo::State::DoInstruction()
PUBLIC 1f7e0 0 dwarf2reader::CallFrameInfo::State::InterpretCIE(dwarf2reader::CallFrameInfo::CIE const&)
PUBLIC 1f830 0 dwarf2reader::CallFrameInfo::State::InterpretFDE(dwarf2reader::CallFrameInfo::FDE const&)
PUBLIC 1f870 0 dwarf2reader::CallFrameInfo::Start()
PUBLIC 20250 0 dwarf2reader::CompilationUnit::ProcessSplitDwarf()
PUBLIC 20c80 0 dwarf2reader::CompilationUnit::Start()
PUBLIC 20fa0 0 dwarf2reader::LineInfoHandler::DefineDir(std::__cxx11::basic_string<char, std::char_traits<char>, std::allocator<char> > const&, unsigned int)
PUBLIC 20fb0 0 dwarf2reader::LineInfoHandler::DefineFile(std::__cxx11::basic_string<char, std::char_traits<char>, std::allocator<char> > const&, int, unsigned int, unsigned long long, unsigned long long)
PUBLIC 20fc0 0 dwarf2reader::LineInfoHandler::AddLine(unsigned long long, unsigned long long, unsigned int, unsigned int, unsigned int)
PUBLIC 20fd0 0 dwarf2reader::RangeListHandler::AddRange(unsigned long long, unsigned long long)
PUBLIC 20fe0 0 dwarf2reader::RangeListHandler::SetBaseAddress(unsigned long long)
PUBLIC 20ff0 0 dwarf2reader::RangeListHandler::Finish()
PUBLIC 21000 0 dwarf2reader::Dwarf2Handler::StartCompilationUnit(unsigned long long, unsigned char, unsigned char, unsigned long long, unsigned char)
PUBLIC 21010 0 dwarf2reader::Dwarf2Handler::StartDIE(unsigned long long, dwarf2reader::DwarfTag)
PUBLIC 21020 0 dwarf2reader::Dwarf2Handler::ProcessAttributeUnsigned(unsigned long long, dwarf2reader::DwarfAttribute, dwarf2reader::DwarfForm, unsigned long long)
PUBLIC 21030 0 dwarf2reader::Dwarf2Handler::ProcessAttributeSigned(unsigned long long, dwarf2reader::DwarfAttribute, dwarf2reader::DwarfForm, long long)
PUBLIC 21040 0 dwarf2reader::Dwarf2Handler::ProcessAttributeReference(unsigned long long, dwarf2reader::DwarfAttribute, dwarf2reader::DwarfForm, unsigned long long)
PUBLIC 21050 0 dwarf2reader::Dwarf2Handler::ProcessAttributeBuffer(unsigned long long, dwarf2reader::DwarfAttribute, dwarf2reader::DwarfForm, unsigned char const*, unsigned long long)
PUBLIC 21060 0 dwarf2reader::Dwarf2Handler::ProcessAttributeString(unsigned long long, dwarf2reader::DwarfAttribute, dwarf2reader::DwarfForm, std::__cxx11::basic_string<char, std::char_traits<char>, std::allocator<char> > const&)
PUBLIC 21070 0 dwarf2reader::Dwarf2Handler::ProcessAttributeSignature(unsigned long long, dwarf2reader::DwarfAttribute, dwarf2reader::DwarfForm, unsigned long long)
PUBLIC 21080 0 dwarf2reader::Dwarf2Handler::EndDIE(unsigned long long)
PUBLIC 21090 0 dwarf2reader::CallFrameInfo::Rule::SetBaseRegister(unsigned int)
PUBLIC 210a0 0 dwarf2reader::CallFrameInfo::Rule::SetOffset(long long)
PUBLIC 210b0 0 dwarf2reader::CallFrameInfo::UndefinedRule::~UndefinedRule()
PUBLIC 210c0 0 dwarf2reader::CallFrameInfo::UndefinedRule::Handle(dwarf2reader::CallFrameInfo::Handler*, unsigned long long, int) const
PUBLIC 210d0 0 dwarf2reader::CallFrameInfo::SameValueRule::~SameValueRule()
PUBLIC 210e0 0 dwarf2reader::CallFrameInfo::SameValueRule::Handle(dwarf2reader::CallFrameInfo::Handler*, unsigned long long, int) const
PUBLIC 210f0 0 dwarf2reader::CallFrameInfo::OffsetRule::~OffsetRule()
PUBLIC 21100 0 dwarf2reader::CallFrameInfo::OffsetRule::Handle(dwarf2reader::CallFrameInfo::Handler*, unsigned long long, int) const
PUBLIC 21120 0 dwarf2reader::CallFrameInfo::ValOffsetRule::~ValOffsetRule()
PUBLIC 21130 0 dwarf2reader::CallFrameInfo::ValOffsetRule::Handle(dwarf2reader::CallFrameInfo::Handler*, unsigned long long, int) const
PUBLIC 21150 0 dwarf2reader::CallFrameInfo::ValOffsetRule::SetBaseRegister(unsigned int)
PUBLIC 21160 0 dwarf2reader::CallFrameInfo::ValOffsetRule::SetOffset(long long)
PUBLIC 21170 0 dwarf2reader::CallFrameInfo::RegisterRule::~RegisterRule()
PUBLIC 21180 0 dwarf2reader::CallFrameInfo::RegisterRule::Handle(dwarf2reader::CallFrameInfo::Handler*, unsigned long long, int) const
PUBLIC 211a0 0 dwarf2reader::CallFrameInfo::ExpressionRule::Handle(dwarf2reader::CallFrameInfo::Handler*, unsigned long long, int) const
PUBLIC 211c0 0 dwarf2reader::CallFrameInfo::ValExpressionRule::Handle(dwarf2reader::CallFrameInfo::Handler*, unsigned long long, int) const
PUBLIC 211e0 0 dwarf2reader::CallFrameInfo::RegisterRule::~RegisterRule()
PUBLIC 211f0 0 dwarf2reader::CallFrameInfo::ValOffsetRule::~ValOffsetRule()
PUBLIC 21200 0 dwarf2reader::CallFrameInfo::OffsetRule::~OffsetRule()
PUBLIC 21210 0 dwarf2reader::CallFrameInfo::SameValueRule::~SameValueRule()
PUBLIC 21220 0 dwarf2reader::CallFrameInfo::UndefinedRule::~UndefinedRule()
PUBLIC 21230 0 dwarf2reader::CallFrameInfo::ValExpressionRule::~ValExpressionRule()
PUBLIC 21260 0 dwarf2reader::CallFrameInfo::ValExpressionRule::~ValExpressionRule()
PUBLIC 212a0 0 dwarf2reader::CallFrameInfo::ExpressionRule::~ExpressionRule()
PUBLIC 212d0 0 dwarf2reader::CallFrameInfo::ExpressionRule::~ExpressionRule()
PUBLIC 21310 0 dwarf2reader::CallFrameInfo::Reporter::~Reporter()
PUBLIC 21360 0 dwarf2reader::LineInfo::~LineInfo()
PUBLIC 213a0 0 dwarf2reader::CallFrameInfo::UndefinedRule::Copy() const
PUBLIC 213d0 0 dwarf2reader::CallFrameInfo::SameValueRule::Copy() const
PUBLIC 21400 0 dwarf2reader::CallFrameInfo::OffsetRule::Copy() const
PUBLIC 21430 0 dwarf2reader::CallFrameInfo::ValOffsetRule::Copy() const
PUBLIC 21460 0 dwarf2reader::CallFrameInfo::RegisterRule::Copy() const
PUBLIC 21490 0 dwarf2reader::CallFrameInfo::RegisterRule::operator==(dwarf2reader::CallFrameInfo::Rule const&) const
PUBLIC 214c0 0 dwarf2reader::CallFrameInfo::ValOffsetRule::operator==(dwarf2reader::CallFrameInfo::Rule const&) const
PUBLIC 21500 0 dwarf2reader::CallFrameInfo::OffsetRule::operator==(dwarf2reader::CallFrameInfo::Rule const&) const
PUBLIC 21540 0 dwarf2reader::CallFrameInfo::SameValueRule::operator==(dwarf2reader::CallFrameInfo::Rule const&) const
PUBLIC 21570 0 dwarf2reader::CallFrameInfo::UndefinedRule::operator==(dwarf2reader::CallFrameInfo::Rule const&) const
PUBLIC 215a0 0 dwarf2reader::CallFrameInfo::ValExpressionRule::operator==(dwarf2reader::CallFrameInfo::Rule const&) const
PUBLIC 21600 0 dwarf2reader::CallFrameInfo::ValExpressionRule::Copy() const
PUBLIC 21670 0 dwarf2reader::CallFrameInfo::ExpressionRule::Copy() const
PUBLIC 216e0 0 dwarf2reader::CallFrameInfo::ExpressionRule::operator==(dwarf2reader::CallFrameInfo::Rule const&) const
PUBLIC 21740 0 dwarf2reader::CallFrameInfo::Reporter::~Reporter()
PUBLIC 21790 0 dwarf2reader::LineInfo::~LineInfo()
PUBLIC 217e0 0 dwarf2reader::CompilationUnit::~CompilationUnit()
PUBLIC 21900 0 dwarf2reader::CompilationUnit::~CompilationUnit()
PUBLIC 21a20 0 std::vector<dwarf2reader::CompilationUnit::Abbrev, std::allocator<dwarf2reader::CompilationUnit::Abbrev> >::_M_default_append(unsigned long)
PUBLIC 21ce0 0 void std::vector<dwarf2reader::CompilationUnit::Abbrev, std::allocator<dwarf2reader::CompilationUnit::Abbrev> >::_M_realloc_insert<dwarf2reader::CompilationUnit::Abbrev const&>(__gnu_cxx::__normal_iterator<dwarf2reader::CompilationUnit::Abbrev*, std::vector<dwarf2reader::CompilationUnit::Abbrev, std::allocator<dwarf2reader::CompilationUnit::Abbrev> > >, dwarf2reader::CompilationUnit::Abbrev const&)
PUBLIC 220d0 0 std::_Deque_base<unsigned long long, std::allocator<unsigned long long> >::~_Deque_base()
PUBLIC 22130 0 std::_Rb_tree<int, std::pair<int const, dwarf2reader::CallFrameInfo::Rule*>, std::_Select1st<std::pair<int const, dwarf2reader::CallFrameInfo::Rule*> >, std::less<int>, std::allocator<std::pair<int const, dwarf2reader::CallFrameInfo::Rule*> > >::_M_erase(std::_Rb_tree_node<std::pair<int const, dwarf2reader::CallFrameInfo::Rule*> >*)
PUBLIC 22170 0 dwarf2reader::CallFrameInfo::State::~State()
PUBLIC 22400 0 void std::deque<unsigned long long, std::allocator<unsigned long long> >::_M_push_back_aux<unsigned long long const&>(unsigned long long const&)
PUBLIC 225b0 0 std::_Rb_tree<std::__cxx11::basic_string<char, std::char_traits<char>, std::allocator<char> >, std::pair<std::__cxx11::basic_string<char, std::char_traits<char>, std::allocator<char> > const, std::pair<unsigned char const*, unsigned long long> >, std::_Select1st<std::pair<std::__cxx11::basic_string<char, std::char_traits<char>, std::allocator<char> > const, std::pair<unsigned char const*, unsigned long long> > >, std::less<std::__cxx11::basic_string<char, std::char_traits<char>, std::allocator<char> > >, std::allocator<std::pair<std::__cxx11::basic_string<char, std::char_traits<char>, std::allocator<char> > const, std::pair<unsigned char const*, unsigned long long> > > >::_M_insert_node(std::_Rb_tree_node_base*, std::_Rb_tree_node_base*, std::_Rb_tree_node<std::pair<std::__cxx11::basic_string<char, std::char_traits<char>, std::allocator<char> > const, std::pair<unsigned char const*, unsigned long long> > >*)
PUBLIC 22670 0 std::pair<std::_Rb_tree_iterator<std::pair<std::__cxx11::basic_string<char, std::char_traits<char>, std::allocator<char> > const, std::pair<unsigned char const*, unsigned long long> > >, bool> std::_Rb_tree<std::__cxx11::basic_string<char, std::char_traits<char>, std::allocator<char> >, std::pair<std::__cxx11::basic_string<char, std::char_traits<char>, std::allocator<char> > const, std::pair<unsigned char const*, unsigned long long> >, std::_Select1st<std::pair<std::__cxx11::basic_string<char, std::char_traits<char>, std::allocator<char> > const, std::pair<unsigned char const*, unsigned long long> > >, std::less<std::__cxx11::basic_string<char, std::char_traits<char>, std::allocator<char> > >, std::allocator<std::pair<std::__cxx11::basic_string<char, std::char_traits<char>, std::allocator<char> > const, std::pair<unsigned char const*, unsigned long long> > > >::_M_emplace_unique<std::pair<std::__cxx11::basic_string<char, std::char_traits<char>, std::allocator<char> >, std::pair<unsigned char const*, unsigned long> > >(std::pair<std::__cxx11::basic_string<char, std::char_traits<char>, std::allocator<char> >, std::pair<unsigned char const*, unsigned long> >&&)
PUBLIC 22750 0 std::pair<std::_Rb_tree_iterator<std::pair<std::__cxx11::basic_string<char, std::char_traits<char>, std::allocator<char> > const, std::pair<unsigned char const*, unsigned long long> > >, bool> std::_Rb_tree<std::__cxx11::basic_string<char, std::char_traits<char>, std::allocator<char> >, std::pair<std::__cxx11::basic_string<char, std::char_traits<char>, std::allocator<char> > const, std::pair<unsigned char const*, unsigned long long> >, std::_Select1st<std::pair<std::__cxx11::basic_string<char, std::char_traits<char>, std::allocator<char> > const, std::pair<unsigned char const*, unsigned long long> > >, std::less<std::__cxx11::basic_string<char, std::char_traits<char>, std::allocator<char> > >, std::allocator<std::pair<std::__cxx11::basic_string<char, std::char_traits<char>, std::allocator<char> > const, std::pair<unsigned char const*, unsigned long long> > > >::_M_emplace_unique<std::pair<char const*, std::pair<unsigned char const*, unsigned long> > >(std::pair<char const*, std::pair<unsigned char const*, unsigned long> >&&)
PUBLIC 22840 0 std::pair<std::_Rb_tree_iterator<std::pair<std::__cxx11::basic_string<char, std::char_traits<char>, std::allocator<char> > const, std::pair<unsigned char const*, unsigned long long> > >, bool> std::_Rb_tree<std::__cxx11::basic_string<char, std::char_traits<char>, std::allocator<char> >, std::pair<std::__cxx11::basic_string<char, std::char_traits<char>, std::allocator<char> > const, std::pair<unsigned char const*, unsigned long long> >, std::_Select1st<std::pair<std::__cxx11::basic_string<char, std::char_traits<char>, std::allocator<char> > const, std::pair<unsigned char const*, unsigned long long> > >, std::less<std::__cxx11::basic_string<char, std::char_traits<char>, std::allocator<char> > >, std::allocator<std::pair<std::__cxx11::basic_string<char, std::char_traits<char>, std::allocator<char> > const, std::pair<unsigned char const*, unsigned long long> > > >::_M_emplace_unique<std::pair<char const*, std::pair<unsigned char const*, unsigned int> > >(std::pair<char const*, std::pair<unsigned char const*, unsigned int> >&&)
PUBLIC 22930 0 std::_Rb_tree<int, std::pair<int const, dwarf2reader::CallFrameInfo::Rule*>, std::_Select1st<std::pair<int const, dwarf2reader::CallFrameInfo::Rule*> >, std::less<int>, std::allocator<std::pair<int const, dwarf2reader::CallFrameInfo::Rule*> > >::_M_get_insert_unique_pos(int const&)
PUBLIC 229c0 0 std::_Rb_tree<int, std::pair<int const, dwarf2reader::CallFrameInfo::Rule*>, std::_Select1st<std::pair<int const, dwarf2reader::CallFrameInfo::Rule*> >, std::less<int>, std::allocator<std::pair<int const, dwarf2reader::CallFrameInfo::Rule*> > >::_M_get_insert_hint_unique_pos(std::_Rb_tree_const_iterator<std::pair<int const, dwarf2reader::CallFrameInfo::Rule*> >, int const&)
PUBLIC 22aa0 0 void std::deque<dwarf2reader::CallFrameInfo::RuleMap, std::allocator<dwarf2reader::CallFrameInfo::RuleMap> >::_M_push_back_aux<dwarf2reader::CallFrameInfo::RuleMap const&>(dwarf2reader::CallFrameInfo::RuleMap const&)
PUBLIC 22cc0 0 void std::__cxx11::basic_string<char, std::char_traits<char>, std::allocator<char> >::_M_construct<char const*>(char const*, char const*, std::forward_iterator_tag) [clone .isra.59]
PUBLIC 22d90 0 dwarf2reader::ElfReader::ElfReader(std::__cxx11::basic_string<char, std::char_traits<char>, std::allocator<char> > const&)
PUBLIC 22ee0 0 dwarf2reader::ElfReader::~ElfReader()
PUBLIC 231a0 0 dwarf2reader::ElfReader::IsNativeElfFile() const [clone .localalias.168]
PUBLIC 23220 0 dwarf2reader::ElfReader::IsElf32File() const
PUBLIC 232a0 0 dwarf2reader::ElfReader::IsElf64File() const
PUBLIC 232b0 0 dwarf2reader::ElfReader::SectionNamesMatch(std::__cxx11::basic_string<char, std::char_traits<char>, std::allocator<char> > const&, std::__cxx11::basic_string<char, std::char_traits<char>, std::allocator<char> > const&)
PUBLIC 23490 0 dwarf2reader::ElfReader::GetImpl32()
PUBLIC 23500 0 bool dwarf2reader::IsNonStrippedELFBinaryImpl<dwarf2reader::Elf32>(std::__cxx11::basic_string<char, std::char_traits<char>, std::allocator<char> > const&, int, bool)
PUBLIC 23b70 0 dwarf2reader::ElfReader::GetImpl64()
PUBLIC 23be0 0 dwarf2reader::ElfReader::VisitSymbols(dwarf2reader::ElfReader::SymbolSink*, int, int, bool)
PUBLIC 25760 0 dwarf2reader::ElfReader::VisitSymbols(dwarf2reader::ElfReader::SymbolSink*, int, int)
PUBLIC 25770 0 dwarf2reader::ElfReader::VisitSymbols(dwarf2reader::ElfReader::SymbolSink*)
PUBLIC 25780 0 dwarf2reader::ElfReader::VaddrOfFirstLoadSegment()
PUBLIC 25870 0 dwarf2reader::ElfReader::GetNumSections()
PUBLIC 258d0 0 dwarf2reader::ElfReader::GetSectionName(int)
PUBLIC 25bc0 0 dwarf2reader::ElfReader::GetSectionByIndex(int, unsigned long*)
PUBLIC 26080 0 dwarf2reader::ElfReader::GetSectionByName(std::__cxx11::basic_string<char, std::char_traits<char>, std::allocator<char> > const&, unsigned long*)
PUBLIC 269d0 0 dwarf2reader::ElfReader::GetSectionInfoByName(std::__cxx11::basic_string<char, std::char_traits<char>, std::allocator<char> > const&, dwarf2reader::ElfReader::SectionInfo*)
PUBLIC 26a40 0 dwarf2reader::ElfReader::IsDynamicSharedObject()
PUBLIC 26a90 0 bool dwarf2reader::IsNonStrippedELFBinaryImpl<dwarf2reader::Elf64>(std::__cxx11::basic_string<char, std::char_traits<char>, std::allocator<char> > const&, int, bool)
PUBLIC 27130 0 dwarf2reader::IsNonStrippedELFBinaryHelper(std::__cxx11::basic_string<char, std::char_traits<char>, std::allocator<char> > const&, bool)
PUBLIC 271c0 0 dwarf2reader::ElfReader::IsNonStrippedELFBinary(std::__cxx11::basic_string<char, std::char_traits<char>, std::allocator<char> > const&)
PUBLIC 271d0 0 dwarf2reader::ElfReader::IsNonDebugStrippedELFBinary(std::__cxx11::basic_string<char, std::char_traits<char>, std::allocator<char> > const&)
PUBLIC 271e0 0 dwarf2reader::ElfReaderImpl<dwarf2reader::Elf32>::~ElfReaderImpl()
PUBLIC 27310 0 dwarf2reader::ElfReaderImpl<dwarf2reader::Elf64>::~ElfReaderImpl()
PUBLIC 27440 0 std::vector<std::__cxx11::basic_string<char, std::char_traits<char>, std::allocator<char> >, std::allocator<std::__cxx11::basic_string<char, std::char_traits<char>, std::allocator<char> > > >::~vector()
PUBLIC 274a0 0 dwarf2reader::ElfReaderImpl<dwarf2reader::Elf32>::GetSection(int)
PUBLIC 276e0 0 dwarf2reader::ElfReaderImpl<dwarf2reader::Elf32>::GetSectionInfoByName(std::__cxx11::basic_string<char, std::char_traits<char>, std::allocator<char> > const&, dwarf2reader::ElfReader::SectionInfo*)
PUBLIC 27bf0 0 dwarf2reader::ElfReaderImpl<dwarf2reader::Elf64>::GetSection(int)
PUBLIC 27e40 0 dwarf2reader::ElfReaderImpl<dwarf2reader::Elf64>::GetSectionInfoByName(std::__cxx11::basic_string<char, std::char_traits<char>, std::allocator<char> > const&, dwarf2reader::ElfReader::SectionInfo*)
PUBLIC 28390 0 std::vector<unsigned long long, std::allocator<unsigned long long> >::_M_fill_insert(__gnu_cxx::__normal_iterator<unsigned long long*, std::vector<unsigned long long, std::allocator<unsigned long long> > >, unsigned long, unsigned long long const&)
PUBLIC 28650 0 std::vector<std::__cxx11::basic_string<char, std::char_traits<char>, std::allocator<char> >, std::allocator<std::__cxx11::basic_string<char, std::char_traits<char>, std::allocator<char> > > >::_M_default_append(unsigned long)
PUBLIC 28870 0 dwarf2reader::ElfReaderImpl<dwarf2reader::Elf64>::VisitRelocationEntries()
PUBLIC 28c10 0 dwarf2reader::ElfReaderImpl<dwarf2reader::Elf32>::VisitRelocationEntries()
PUBLIC 28fb0 0 std::vector<dwarf2reader::ElfSectionReader<dwarf2reader::Elf32>*, std::allocator<dwarf2reader::ElfSectionReader<dwarf2reader::Elf32>*> >::_M_fill_insert(__gnu_cxx::__normal_iterator<dwarf2reader::ElfSectionReader<dwarf2reader::Elf32>**, std::vector<dwarf2reader::ElfSectionReader<dwarf2reader::Elf32>*, std::allocator<dwarf2reader::ElfSectionReader<dwarf2reader::Elf32>*> > >, unsigned long, dwarf2reader::ElfSectionReader<dwarf2reader::Elf32>* const&)
PUBLIC 29270 0 dwarf2reader::ElfReaderImpl<dwarf2reader::Elf32>::ElfReaderImpl(std::__cxx11::basic_string<char, std::char_traits<char>, std::allocator<char> > const&, int)
PUBLIC 29900 0 std::vector<dwarf2reader::ElfSectionReader<dwarf2reader::Elf64>*, std::allocator<dwarf2reader::ElfSectionReader<dwarf2reader::Elf64>*> >::_M_fill_insert(__gnu_cxx::__normal_iterator<dwarf2reader::ElfSectionReader<dwarf2reader::Elf64>**, std::vector<dwarf2reader::ElfSectionReader<dwarf2reader::Elf64>*, std::allocator<dwarf2reader::ElfSectionReader<dwarf2reader::Elf64>*> > >, unsigned long, dwarf2reader::ElfSectionReader<dwarf2reader::Elf64>* const&)
PUBLIC 29bc0 0 dwarf2reader::ElfReaderImpl<dwarf2reader::Elf64>::ElfReaderImpl(std::__cxx11::basic_string<char, std::char_traits<char>, std::allocator<char> > const&, int)
PUBLIC 2a240 0 google_breakpad::UpdateCrc32(unsigned int, void const*, unsigned long)
PUBLIC 2a2d0 0 (anonymous namespace)::DumperRangesHandler::~DumperRangesHandler()
PUBLIC 2a2e0 0 (anonymous namespace)::DumperRangesHandler::~DumperRangesHandler()
PUBLIC 2a2f0 0 (anonymous namespace)::DumperLineToModule::~DumperLineToModule()
PUBLIC 2a320 0 (anonymous namespace)::DumperLineToModule::~DumperLineToModule()
PUBLIC 2a350 0 (anonymous namespace)::DumperLineToModule::StartCompilationUnit(std::__cxx11::basic_string<char, std::char_traits<char>, std::allocator<char> > const&)
PUBLIC 2a360 0 (anonymous namespace)::DumperRangesHandler::ReadRanges(unsigned long long, unsigned long, std::vector<google_breakpad::Module::Range, std::allocator<google_breakpad::Module::Range> >*)
PUBLIC 2a3e0 0 char const* (anonymous namespace)::ElfArchitecture<google_breakpad::ElfClass32>(google_breakpad::ElfClass32::Ehdr const*) [clone .isra.8]
PUBLIC 2a490 0 (anonymous namespace)::LoadELF(std::__cxx11::basic_string<char, std::char_traits<char>, std::allocator<char> > const&, (anonymous namespace)::MmapWrapper*, void**) [clone .constprop.202]
PUBLIC 2a640 0 void std::__cxx11::basic_string<char, std::char_traits<char>, std::allocator<char> >::_M_construct<char const*>(char const*, char const*, std::forward_iterator_tag) [clone .isra.63]
PUBLIC 2a710 0 bool (anonymous namespace)::DwarfCFIRegisterNames<google_breakpad::ElfClass32>(google_breakpad::ElfClass32::Ehdr const*, std::vector<std::__cxx11::basic_string<char, std::char_traits<char>, std::allocator<char> >, std::allocator<std::__cxx11::basic_string<char, std::char_traits<char>, std::allocator<char> > > >*) [clone .isra.183] [clone .constprop.201]
PUBLIC 2ab20 0 (anonymous namespace)::DumperLineToModule::ReadProgram(unsigned char const*, unsigned long long, google_breakpad::Module*, std::vector<google_breakpad::Module::Line, std::allocator<google_breakpad::Module::Line> >*)
PUBLIC 2ad40 0 bool (anonymous namespace)::InitModuleForElfClass<google_breakpad::ElfClass32>(google_breakpad::ElfClass32::Ehdr const*, std::__cxx11::basic_string<char, std::char_traits<char>, std::allocator<char> > const&, google_breakpad::scoped_ptr<google_breakpad::Module>&)
PUBLIC 2b200 0 bool (anonymous namespace)::InitModuleForElfClass<google_breakpad::ElfClass64>(google_breakpad::ElfClass64::Ehdr const*, std::__cxx11::basic_string<char, std::char_traits<char>, std::allocator<char> > const&, google_breakpad::scoped_ptr<google_breakpad::Module>&)
PUBLIC 2b6c0 0 google_breakpad::WriteSymbolFileHeader(std::__cxx11::basic_string<char, std::char_traits<char>, std::allocator<char> > const&, std::ostream&)
PUBLIC 2b8a0 0 bool (anonymous namespace)::LoadDwarfCFI<google_breakpad::ElfClass32>(std::__cxx11::basic_string<char, std::char_traits<char>, std::allocator<char> > const&, google_breakpad::ElfClass32::Ehdr const*, char const*, google_breakpad::ElfClass32::Shdr const*, bool, google_breakpad::ElfClass32::Shdr const*, google_breakpad::ElfClass32::Shdr const*, bool, google_breakpad::Module*)
PUBLIC 2bea0 0 (anonymous namespace)::ReadDebugLink(unsigned char const*, unsigned long, bool, std::__cxx11::basic_string<char, std::char_traits<char>, std::allocator<char> > const&, std::vector<std::__cxx11::basic_string<char, std::char_traits<char>, std::allocator<char> >, std::allocator<std::__cxx11::basic_string<char, std::char_traits<char>, std::allocator<char> > > > const&)
PUBLIC 2c670 0 bool (anonymous namespace)::LoadSymbols<google_breakpad::ElfClass32>(std::__cxx11::basic_string<char, std::char_traits<char>, std::allocator<char> > const&, bool, google_breakpad::ElfClass32::Ehdr const*, bool, (anonymous namespace)::LoadSymbolsInfo<google_breakpad::ElfClass32>*, google_breakpad::DumpOptions const&, google_breakpad::Module*)
PUBLIC 2d9b0 0 bool (anonymous namespace)::LoadDwarfCFI<google_breakpad::ElfClass64>(std::__cxx11::basic_string<char, std::char_traits<char>, std::allocator<char> > const&, google_breakpad::ElfClass64::Ehdr const*, char const*, google_breakpad::ElfClass64::Shdr const*, bool, google_breakpad::ElfClass64::Shdr const*, google_breakpad::ElfClass64::Shdr const*, bool, google_breakpad::Module*)
PUBLIC 2dfb0 0 bool (anonymous namespace)::LoadSymbols<google_breakpad::ElfClass64>(std::__cxx11::basic_string<char, std::char_traits<char>, std::allocator<char> > const&, bool, google_breakpad::ElfClass64::Ehdr const*, bool, (anonymous namespace)::LoadSymbolsInfo<google_breakpad::ElfClass64>*, google_breakpad::DumpOptions const&, google_breakpad::Module*)
PUBLIC 2f300 0 google_breakpad::ReadSymbolDataInternal(unsigned char const*, std::__cxx11::basic_string<char, std::char_traits<char>, std::allocator<char> > const&, std::vector<std::__cxx11::basic_string<char, std::char_traits<char>, std::allocator<char> >, std::allocator<std::__cxx11::basic_string<char, std::char_traits<char>, std::allocator<char> > > > const&, google_breakpad::DumpOptions const&, google_breakpad::Module**)
PUBLIC 2fed0 0 google_breakpad::ReadSymbolData(std::__cxx11::basic_string<char, std::char_traits<char>, std::allocator<char> > const&, std::vector<std::__cxx11::basic_string<char, std::char_traits<char>, std::allocator<char> >, std::allocator<std::__cxx11::basic_string<char, std::char_traits<char>, std::allocator<char> > > > const&, google_breakpad::DumpOptions const&, google_breakpad::Module**)
PUBLIC 2ffb0 0 google_breakpad::WriteSymbolFile(std::__cxx11::basic_string<char, std::char_traits<char>, std::allocator<char> > const&, std::vector<std::__cxx11::basic_string<char, std::char_traits<char>, std::allocator<char> >, std::allocator<std::__cxx11::basic_string<char, std::char_traits<char>, std::allocator<char> > > > const&, google_breakpad::DumpOptions const&, std::ostream&)
PUBLIC 30040 0 google_breakpad::scoped_ptr<google_breakpad::Module>::~scoped_ptr()
PUBLIC 30070 0 void std::vector<std::__cxx11::basic_string<char, std::char_traits<char>, std::allocator<char> >, std::allocator<std::__cxx11::basic_string<char, std::char_traits<char>, std::allocator<char> > > >::_M_realloc_insert<std::__cxx11::basic_string<char, std::char_traits<char>, std::allocator<char> > const&>(__gnu_cxx::__normal_iterator<std::__cxx11::basic_string<char, std::char_traits<char>, std::allocator<char> >*, std::vector<std::__cxx11::basic_string<char, std::char_traits<char>, std::allocator<char> >, std::allocator<std::__cxx11::basic_string<char, std::char_traits<char>, std::allocator<char> > > > >, std::__cxx11::basic_string<char, std::char_traits<char>, std::allocator<char> > const&)
PUBLIC 30300 0 google_breakpad::ElfClass32::Shdr const* google_breakpad::FindElfSectionByName<google_breakpad::ElfClass32>(char const*, google_breakpad::ElfClass32::Word, google_breakpad::ElfClass32::Shdr const*, char const*, char const*, int)
PUBLIC 303a0 0 google_breakpad::ElfClass64::Shdr const* google_breakpad::FindElfSectionByName<google_breakpad::ElfClass64>(char const*, google_breakpad::ElfClass64::Word, google_breakpad::ElfClass64::Shdr const*, char const*, char const*, int)
PUBLIC 30440 0 std::vector<unsigned char, google_breakpad::PageStdAllocator<unsigned char> >::reserve(unsigned long)
PUBLIC 30610 0 std::_Deque_base<dwarf2reader::DIEDispatcher::HandlerStack, std::allocator<dwarf2reader::DIEDispatcher::HandlerStack> >::_M_initialize_map(unsigned long)
PUBLIC 30780 0 std::_Rb_tree<std::__cxx11::basic_string<char, std::char_traits<char>, std::allocator<char> >, std::__cxx11::basic_string<char, std::char_traits<char>, std::allocator<char> >, std::_Identity<std::__cxx11::basic_string<char, std::char_traits<char>, std::allocator<char> > >, std::less<std::__cxx11::basic_string<char, std::char_traits<char>, std::allocator<char> > >, std::allocator<std::__cxx11::basic_string<char, std::char_traits<char>, std::allocator<char> > > >::find(std::__cxx11::basic_string<char, std::char_traits<char>, std::allocator<char> > const&) const
PUBLIC 30890 0 google_breakpad::SymbolString(long, google_breakpad::ByteBuffer&)
PUBLIC 308b0 0 google_breakpad::ELFSymbolsToModule(unsigned char const*, unsigned long, unsigned char const*, unsigned long, bool, unsigned long, google_breakpad::Module*)
PUBLIC 30f60 0 google_breakpad::IsValidElf(void const*)
PUBLIC 30f80 0 google_breakpad::ElfClass(void const*)
PUBLIC 30f90 0 google_breakpad::FindElfSection(void const*, char const*, unsigned int, void const**, unsigned long*)
PUBLIC 311a0 0 google_breakpad::FindElfSegments(void const*, unsigned int, google_breakpad::wasteful_vector<google_breakpad::ElfSegment>*)
PUBLIC 31340 0 void std::vector<google_breakpad::ElfSegment, google_breakpad::PageStdAllocator<google_breakpad::ElfSegment> >::_M_realloc_insert<google_breakpad::ElfSegment const&>(__gnu_cxx::__normal_iterator<google_breakpad::ElfSegment*, std::vector<google_breakpad::ElfSegment, google_breakpad::PageStdAllocator<google_breakpad::ElfSegment> > >, google_breakpad::ElfSegment const&)
PUBLIC 315d0 0 google_breakpad::bytes_to_hex_string(unsigned char const*, unsigned long)
PUBLIC 316e0 0 google_breakpad::FileID::FileID(char const*)
PUBLIC 317b0 0 google_breakpad::FileID::ConvertIdentifierToUUIDString[abi:cxx11](google_breakpad::wasteful_vector<unsigned char> const&)
PUBLIC 31850 0 google_breakpad::FileID::ConvertIdentifierToString[abi:cxx11](google_breakpad::wasteful_vector<unsigned char> const&)
PUBLIC 318a0 0 google_breakpad::ElfClassBuildIDNoteIdentifier(void const*, unsigned long, google_breakpad::wasteful_vector<unsigned char>&)
PUBLIC 31920 0 google_breakpad::FileID::ElfFileIdentifierFromMappedFile(void const*, google_breakpad::wasteful_vector<unsigned char>&)
PUBLIC 31c10 0 google_breakpad::FileID::ElfFileIdentifier(google_breakpad::wasteful_vector<unsigned char>&)
PUBLIC 31c90 0 std::vector<unsigned char, google_breakpad::PageStdAllocator<unsigned char> >::_M_default_append(unsigned long)
PUBLIC 31ef0 0 void std::vector<unsigned char, google_breakpad::PageStdAllocator<unsigned char> >::_M_range_insert<unsigned char const*>(__gnu_cxx::__normal_iterator<unsigned char*, std::vector<unsigned char, google_breakpad::PageStdAllocator<unsigned char> > >, unsigned char const*, unsigned char const*, std::forward_iterator_tag)
PUBLIC 32300 0 my_strlen
PUBLIC 32330 0 my_strcmp
PUBLIC 32380 0 my_strncmp
PUBLIC 323e0 0 my_strtoui
PUBLIC 32430 0 my_uint_len
PUBLIC 32470 0 my_uitos
PUBLIC 324c0 0 my_strchr
PUBLIC 32500 0 my_strrchr
PUBLIC 32530 0 my_memchr
PUBLIC 32570 0 my_read_hex_ptr
PUBLIC 325f0 0 my_read_decimal_ptr
PUBLIC 32630 0 my_memset
PUBLIC 32650 0 my_strlcpy
PUBLIC 32690 0 my_strlcat
PUBLIC 326f0 0 my_isspace
PUBLIC 32760 0 google_breakpad::MemoryMappedFile::MemoryMappedFile()
PUBLIC 32770 0 google_breakpad::MemoryMappedFile::Unmap()
PUBLIC 327c0 0 google_breakpad::MemoryMappedFile::~MemoryMappedFile()
PUBLIC 327d0 0 google_breakpad::MemoryMappedFile::Map(char const*, unsigned long)
PUBLIC 32990 0 google_breakpad::MemoryMappedFile::MemoryMappedFile(char const*, unsigned long)
PUBLIC 329b0 0 google_breakpad::SafeReadLink(char const*, char*, unsigned long)
PUBLIC 329f0 0 std::__cxx11::basic_string<char, std::char_traits<char>, std::allocator<char> >::basic_string(char const*, std::allocator<char> const&) [clone .isra.21]
PUBLIC 32ac0 0 usage(char const*)
PUBLIC 32b70 0 void std::vector<std::__cxx11::basic_string<char, std::char_traits<char>, std::allocator<char> >, std::allocator<std::__cxx11::basic_string<char, std::char_traits<char>, std::allocator<char> > > >::_M_realloc_insert<std::__cxx11::basic_string<char, std::char_traits<char>, std::allocator<char> > >(__gnu_cxx::__normal_iterator<std::__cxx11::basic_string<char, std::char_traits<char>, std::allocator<char> >*, std::vector<std::__cxx11::basic_string<char, std::char_traits<char>, std::allocator<char> >, std::allocator<std::__cxx11::basic_string<char, std::char_traits<char>, std::allocator<char> > > > >, std::__cxx11::basic_string<char, std::char_traits<char>, std::allocator<char> >&&)
PUBLIC 32df0 0 __libc_csu_init
PUBLIC 32e60 0 __libc_csu_fini
PUBLIC 32e64 0 _fini
STACK CFI INIT 8b10 2b .cfa: $rsp 8 + .ra: .cfa -8 + ^
STACK CFI INIT 7dd0 550 .cfa: $rsp 16 + .ra: .cfa -8 + ^
STACK CFI 7dd6 .cfa: $rsp 24 +
STACK CFI INIT 8320 8 .cfa: $rsp 8 + .ra: .cfa -8 + ^
STACK CFI INIT b100 6 .cfa: $rsp 8 + .ra: .cfa -8 + ^
STACK CFI INIT b110 6 .cfa: $rsp 8 + .ra: .cfa -8 + ^
STACK CFI INIT b120 6 .cfa: $rsp 8 + .ra: .cfa -8 + ^
STACK CFI INIT b130 42 .cfa: $rsp 8 + .ra: .cfa -8 + ^
STACK CFI b138 $rbx: .cfa -16 + ^ .cfa: $rsp 16 +
STACK CFI b162 .cfa: $rsp 8 +
STACK CFI b170 .cfa: $rsp 16 +
STACK CFI b171 .cfa: $rsp 8 +
STACK CFI INIT 8c20 20 .cfa: $rsp 8 + .ra: .cfa -8 + ^
STACK CFI 8c21 $rbx: .cfa -16 + ^ .cfa: $rsp 16 +
STACK CFI 8c3f .cfa: $rsp 8 +
STACK CFI INIT 8c40 32 .cfa: $rsp 8 + .ra: .cfa -8 + ^
STACK CFI 8c44 .cfa: $rsp 24 +
STACK CFI 8c50 .cfa: $rsp 32 +
STACK CFI 8c71 .cfa: $rsp 8 +
STACK CFI INIT 8c80 33 .cfa: $rsp 8 + .ra: .cfa -8 + ^
STACK CFI 8c84 .cfa: $rsp 24 +
STACK CFI 8c91 .cfa: $rsp 32 +
STACK CFI 8cb2 .cfa: $rsp 8 +
STACK CFI INIT 8cc0 33 .cfa: $rsp 8 + .ra: .cfa -8 + ^
STACK CFI 8cc4 .cfa: $rsp 24 +
STACK CFI 8cd1 .cfa: $rsp 32 +
STACK CFI 8cf2 .cfa: $rsp 8 +
STACK CFI INIT 8d00 c8 .cfa: $rsp 8 + .ra: .cfa -8 + ^
STACK CFI 8d02 $r12: .cfa -16 + ^ .cfa: $rsp 16 +
STACK CFI 8d03 $rbp: .cfa -24 + ^ .cfa: $rsp 24 +
STACK CFI 8d07 $rbx: .cfa -32 + ^ .cfa: $rsp 32 +
STACK CFI 8d0e .cfa: $rsp 48 +
STACK CFI 8d74 .cfa: $rsp 32 +
STACK CFI 8d75 .cfa: $rsp 24 +
STACK CFI 8d76 .cfa: $rsp 16 +
STACK CFI 8d78 .cfa: $rsp 8 +
STACK CFI 8d80 .cfa: $rsp 48 +
STACK CFI INIT b180 44 .cfa: $rsp 8 + .ra: .cfa -8 + ^
STACK CFI b188 $rbx: .cfa -16 + ^ .cfa: $rsp 16 +
STACK CFI b1bf .cfa: $rsp 8 +
STACK CFI INIT 8dd0 156 .cfa: $rsp 8 + .ra: .cfa -8 + ^
STACK CFI 8dd2 $r15: .cfa -16 + ^ .cfa: $rsp 16 +
STACK CFI 8dd8 $r14: .cfa -24 + ^ .cfa: $rsp 24 +
STACK CFI 8dda $r13: .cfa -32 + ^ .cfa: $rsp 32 +
STACK CFI 8ddc $r12: .cfa -40 + ^ .cfa: $rsp 40 +
STACK CFI 8de1 $rbp: .cfa -48 + ^ .cfa: $rsp 48 +
STACK CFI 8de2 $rbx: .cfa -56 + ^ .cfa: $rsp 56 +
STACK CFI 8df3 .cfa: $rsp 80 +
STACK CFI 8ea5 .cfa: $rsp 56 +
STACK CFI 8ea9 .cfa: $rsp 48 +
STACK CFI 8eaa .cfa: $rsp 40 +
STACK CFI 8eac .cfa: $rsp 32 +
STACK CFI 8eae .cfa: $rsp 24 +
STACK CFI 8eb0 .cfa: $rsp 16 +
STACK CFI 8eb2 .cfa: $rsp 8 +
STACK CFI 8eb8 .cfa: $rsp 80 +
STACK CFI INIT 8f30 47 .cfa: $rsp 8 + .ra: .cfa -8 + ^
STACK CFI 8f31 $rbx: .cfa -16 + ^ .cfa: $rsp 16 +
STACK CFI 8f44 .cfa: $rsp 32 +
STACK CFI 8f6d .cfa: $rsp 16 +
STACK CFI 8f71 .cfa: $rsp 8 +
STACK CFI 8f72 .cfa: $rsp 32 +
STACK CFI INIT 8f80 47 .cfa: $rsp 8 + .ra: .cfa -8 + ^
STACK CFI 8f81 $rbx: .cfa -16 + ^ .cfa: $rsp 16 +
STACK CFI 8f94 .cfa: $rsp 32 +
STACK CFI 8fbd .cfa: $rsp 16 +
STACK CFI 8fc1 .cfa: $rsp 8 +
STACK CFI 8fc2 .cfa: $rsp 32 +
STACK CFI INIT 8fd0 47 .cfa: $rsp 8 + .ra: .cfa -8 + ^
STACK CFI 8fd1 $rbx: .cfa -16 + ^ .cfa: $rsp 16 +
STACK CFI 8fe4 .cfa: $rsp 32 +
STACK CFI 900d .cfa: $rsp 16 +
STACK CFI 9011 .cfa: $rsp 8 +
STACK CFI 9012 .cfa: $rsp 32 +
STACK CFI INIT 9020 47 .cfa: $rsp 8 + .ra: .cfa -8 + ^
STACK CFI 9021 $rbx: .cfa -16 + ^ .cfa: $rsp 16 +
STACK CFI 9034 .cfa: $rsp 32 +
STACK CFI 905d .cfa: $rsp 16 +
STACK CFI 9061 .cfa: $rsp 8 +
STACK CFI 9062 .cfa: $rsp 32 +
STACK CFI INIT 9070 47 .cfa: $rsp 8 + .ra: .cfa -8 + ^
STACK CFI 9071 $rbx: .cfa -16 + ^ .cfa: $rsp 16 +
STACK CFI 9084 .cfa: $rsp 32 +
STACK CFI 90ad .cfa: $rsp 16 +
STACK CFI 90b1 .cfa: $rsp 8 +
STACK CFI 90b2 .cfa: $rsp 32 +
STACK CFI INIT 90c0 14d .cfa: $rsp 8 + .ra: .cfa -8 + ^
STACK CFI 90c2 $r13: .cfa -16 + ^ .cfa: $rsp 16 +
STACK CFI 90c4 $r12: .cfa -24 + ^ .cfa: $rsp 24 +
STACK CFI 90c9 $rbp: .cfa -32 + ^ .cfa: $rsp 32 +
STACK CFI 90ca $rbx: .cfa -40 + ^ .cfa: $rsp 40 +
STACK CFI 90d1 .cfa: $rsp 96 +
STACK CFI 91ad .cfa: $rsp 40 +
STACK CFI 91ae .cfa: $rsp 32 +
STACK CFI 91af .cfa: $rsp 24 +
STACK CFI 91b1 .cfa: $rsp 16 +
STACK CFI 91b3 .cfa: $rsp 8 +
STACK CFI 91b8 .cfa: $rsp 96 +
STACK CFI INIT 9210 98 .cfa: $rsp 8 + .ra: .cfa -8 + ^
STACK CFI 9212 $r13: .cfa -16 + ^ .cfa: $rsp 16 +
STACK CFI 9214 $r12: .cfa -24 + ^ .cfa: $rsp 24 +
STACK CFI 9218 $rbp: .cfa -32 + ^ .cfa: $rsp 32 +
STACK CFI 9219 $rbx: .cfa -40 + ^ .cfa: $rsp 40 +
STACK CFI 9220 .cfa: $rsp 96 +
STACK CFI 927f .cfa: $rsp 40 +
STACK CFI 9280 .cfa: $rsp 32 +
STACK CFI 9281 .cfa: $rsp 24 +
STACK CFI 9283 .cfa: $rsp 16 +
STACK CFI 9285 .cfa: $rsp 8 +
STACK CFI 9286 .cfa: $rsp 96 +
STACK CFI INIT 92b0 98 .cfa: $rsp 8 + .ra: .cfa -8 + ^
STACK CFI 92b2 $r13: .cfa -16 + ^ .cfa: $rsp 16 +
STACK CFI 92b4 $r12: .cfa -24 + ^ .cfa: $rsp 24 +
STACK CFI 92b8 $rbp: .cfa -32 + ^ .cfa: $rsp 32 +
STACK CFI 92b9 $rbx: .cfa -40 + ^ .cfa: $rsp 40 +
STACK CFI 92c0 .cfa: $rsp 96 +
STACK CFI 931f .cfa: $rsp 40 +
STACK CFI 9320 .cfa: $rsp 32 +
STACK CFI 9321 .cfa: $rsp 24 +
STACK CFI 9323 .cfa: $rsp 16 +
STACK CFI 9325 .cfa: $rsp 8 +
STACK CFI 9326 .cfa: $rsp 96 +
STACK CFI INIT b1d0 3c .cfa: $rsp 8 + .ra: .cfa -8 + ^
STACK CFI b1d8 $rbx: .cfa -16 + ^ .cfa: $rsp 16 +
STACK CFI b207 .cfa: $rsp 8 +
STACK CFI INIT b210 49 .cfa: $rsp 8 + .ra: .cfa -8 + ^
STACK CFI b218 $rbx: .cfa -16 + ^ .cfa: $rsp 16 +
STACK CFI b254 .cfa: $rsp 8 +
STACK CFI INIT b260 52 .cfa: $rsp 8 + .ra: .cfa -8 + ^
STACK CFI b267 $r12: .cfa -16 + ^ .cfa: $rsp 16 +
STACK CFI b26b $rbp: .cfa -24 + ^ .cfa: $rsp 24 +
STACK CFI b26c $rbx: .cfa -32 + ^ .cfa: $rsp 32 +
STACK CFI b2a2 .cfa: $rsp 24 +
STACK CFI b2a3 .cfa: $rsp 16 +
STACK CFI b2a5 .cfa: $rsp 8 +
STACK CFI b2b0 $r12: $r12 $rbp: $rbp $rbx: $rbx
STACK CFI INIT b2c0 62 .cfa: $rsp 8 + .ra: .cfa -8 + ^
STACK CFI b2c7 $r12: .cfa -16 + ^ .cfa: $rsp 16 +
STACK CFI b2cb $rbp: .cfa -24 + ^ .cfa: $rsp 24 +
STACK CFI b2cc $rbx: .cfa -32 + ^ .cfa: $rsp 32 +
STACK CFI b314 .cfa: $rsp 24 +
STACK CFI b315 .cfa: $rsp 16 +
STACK CFI b317 .cfa: $rsp 8 +
STACK CFI b320 $r12: $r12 $rbp: $rbp $rbx: $rbx
STACK CFI INIT b330 4a .cfa: $rsp 8 + .ra: .cfa -8 + ^
STACK CFI b337 $r12: .cfa -16 + ^ .cfa: $rsp 16 +
STACK CFI b33b $rbp: .cfa -24 + ^ .cfa: $rsp 24 +
STACK CFI b33c $rbx: .cfa -32 + ^ .cfa: $rsp 32 +
STACK CFI b36d .cfa: $rsp 24 +
STACK CFI b36e .cfa: $rsp 16 +
STACK CFI b370 .cfa: $rsp 8 +
STACK CFI b378 $r12: $r12 $rbp: $rbp $rbx: $rbx
STACK CFI INIT b380 8f .cfa: $rsp 8 + .ra: .cfa -8 + ^
STACK CFI b381 $rbp: .cfa -16 + ^ .cfa: $rsp 16 +
STACK CFI b382 $rbx: .cfa -24 + ^ .cfa: $rsp 24 +
STACK CFI b389 .cfa: $rsp 32 +
STACK CFI b3fa .cfa: $rsp 24 +
STACK CFI b3fb .cfa: $rsp 16 +
STACK CFI b3fc .cfa: $rsp 8 +
STACK CFI b408 .cfa: $rsp 32 +
STACK CFI b40c .cfa: $rsp 24 +
STACK CFI b40d .cfa: $rsp 16 +
STACK CFI b40e .cfa: $rsp 8 +
STACK CFI INIT b410 8e .cfa: $rsp 8 + .ra: .cfa -8 + ^
STACK CFI b411 $rbp: .cfa -16 + ^ .cfa: $rsp 16 +
STACK CFI b412 $rbx: .cfa -24 + ^ .cfa: $rsp 24 +
STACK CFI b419 .cfa: $rsp 32 +
STACK CFI b48f .cfa: $rsp 24 +
STACK CFI b498 .cfa: $rsp 16 +
STACK CFI b499 .cfa: $rsp 8 +
STACK CFI INIT b4a0 281 .cfa: $rsp 8 + .ra: .cfa -8 + ^
STACK CFI b4a2 $r15: .cfa -16 + ^ .cfa: $rsp 16 +
STACK CFI b4a4 $r14: .cfa -24 + ^ .cfa: $rsp 24 +
STACK CFI b4a9 $r13: .cfa -32 + ^ .cfa: $rsp 32 +
STACK CFI b4ab $r12: .cfa -40 + ^ .cfa: $rsp 40 +
STACK CFI b4b0 $rbp: .cfa -48 + ^ .cfa: $rsp 48 +
STACK CFI b4b1 $rbx: .cfa -56 + ^ .cfa: $rsp 56 +
STACK CFI b4b8 .cfa: $rsp 96 +
STACK CFI b5ec .cfa: $rsp 56 +
STACK CFI b5f0 .cfa: $rsp 48 +
STACK CFI b5f1 .cfa: $rsp 40 +
STACK CFI b5f3 .cfa: $rsp 32 +
STACK CFI b5f5 .cfa: $rsp 24 +
STACK CFI b5f7 .cfa: $rsp 16 +
STACK CFI b5f9 .cfa: $rsp 8 +
STACK CFI b5fa .cfa: $rsp 96 +
STACK CFI b600 .cfa: $rsp 56 +
STACK CFI b606 .cfa: $rsp 48 +
STACK CFI b607 .cfa: $rsp 40 +
STACK CFI b609 .cfa: $rsp 32 +
STACK CFI b60b .cfa: $rsp 24 +
STACK CFI b60d .cfa: $rsp 16 +
STACK CFI b60f .cfa: $rsp 8 +
STACK CFI b610 .cfa: $rsp 96 +
STACK CFI INIT b730 b2 .cfa: $rsp 8 + .ra: .cfa -8 + ^
STACK CFI b732 $r14: .cfa -16 + ^ .cfa: $rsp 16 +
STACK CFI b734 $r13: .cfa -24 + ^ .cfa: $rsp 24 +
STACK CFI b736 $r12: .cfa -32 + ^ .cfa: $rsp 32 +
STACK CFI b737 $rbp: .cfa -40 + ^ .cfa: $rsp 40 +
STACK CFI b73b $rbx: .cfa -48 + ^ .cfa: $rsp 48 +
STACK CFI b74e .cfa: $rsp 64 +
STACK CFI b767 .cfa: $rsp 48 +
STACK CFI b76b .cfa: $rsp 40 +
STACK CFI b76c .cfa: $rsp 32 +
STACK CFI b76e .cfa: $rsp 24 +
STACK CFI b770 .cfa: $rsp 16 +
STACK CFI b772 .cfa: $rsp 8 +
STACK CFI b778 .cfa: $rsp 64 +
STACK CFI INIT b7f0 184 .cfa: $rsp 8 + .ra: .cfa -8 + ^
STACK CFI b7f2 $r15: .cfa -16 + ^ .cfa: $rsp 16 +
STACK CFI b7f4 $r14: .cfa -24 + ^ .cfa: $rsp 24 +
STACK CFI b7f6 $r13: .cfa -32 + ^ .cfa: $rsp 32 +
STACK CFI b7f8 $r12: .cfa -40 + ^ .cfa: $rsp 40 +
STACK CFI b7f9 $rbp: .cfa -48 + ^ .cfa: $rsp 48 +
STACK CFI b7fa $rbx: .cfa -56 + ^ .cfa: $rsp 56 +
STACK CFI b7fe .cfa: $rsp 80 +
STACK CFI b8b8 .cfa: $rsp 56 +
STACK CFI b8be .cfa: $rsp 48 +
STACK CFI b8bf .cfa: $rsp 40 +
STACK CFI b8c1 .cfa: $rsp 32 +
STACK CFI b8c3 .cfa: $rsp 24 +
STACK CFI b8c5 .cfa: $rsp 16 +
STACK CFI b8c7 .cfa: $rsp 8 +
STACK CFI b8d0 .cfa: $rsp 80 +
STACK CFI b8d4 .cfa: $rsp 56 +
STACK CFI b8da .cfa: $rsp 48 +
STACK CFI b8db .cfa: $rsp 40 +
STACK CFI b8dd .cfa: $rsp 32 +
STACK CFI b8df .cfa: $rsp 24 +
STACK CFI b8e1 .cfa: $rsp 16 +
STACK CFI b8e3 .cfa: $rsp 8 +
STACK CFI b8e8 .cfa: $rsp 80 +
STACK CFI b964 .cfa: $rsp 56 +
STACK CFI b96a .cfa: $rsp 48 +
STACK CFI b96b .cfa: $rsp 40 +
STACK CFI b96d .cfa: $rsp 32 +
STACK CFI b96f .cfa: $rsp 24 +
STACK CFI b971 .cfa: $rsp 16 +
STACK CFI b973 .cfa: $rsp 8 +
STACK CFI INIT b980 2b2 .cfa: $rsp 8 + .ra: .cfa -8 + ^
STACK CFI b982 $r15: .cfa -16 + ^ .cfa: $rsp 16 +
STACK CFI b988 $r14: .cfa -24 + ^ .cfa: $rsp 24 +
STACK CFI b98a $r13: .cfa -32 + ^ .cfa: $rsp 32 +
STACK CFI b98c $r12: .cfa -40 + ^ .cfa: $rsp 40 +
STACK CFI b990 $rbp: .cfa -48 + ^ .cfa: $rsp 48 +
STACK CFI b991 $rbx: .cfa -56 + ^ .cfa: $rsp 56 +
STACK CFI b998 .cfa: $rsp 80 +
STACK CFI ba67 .cfa: $rsp 56 +
STACK CFI ba6b .cfa: $rsp 48 +
STACK CFI ba6c .cfa: $rsp 40 +
STACK CFI ba6e .cfa: $rsp 32 +
STACK CFI ba70 .cfa: $rsp 24 +
STACK CFI ba72 .cfa: $rsp 16 +
STACK CFI ba74 .cfa: $rsp 8 +
STACK CFI ba78 .cfa: $rsp 80 +
STACK CFI bb89 .cfa: $rsp 56 +
STACK CFI bb8a .cfa: $rsp 48 +
STACK CFI bb8b .cfa: $rsp 40 +
STACK CFI bb8d .cfa: $rsp 32 +
STACK CFI bb8f .cfa: $rsp 24 +
STACK CFI bb91 .cfa: $rsp 16 +
STACK CFI bb93 .cfa: $rsp 8 +
STACK CFI bb98 .cfa: $rsp 80 +
STACK CFI bbd9 .cfa: $rsp 56 +
STACK CFI bbdf .cfa: $rsp 48 +
STACK CFI bbe0 .cfa: $rsp 40 +
STACK CFI bbe2 .cfa: $rsp 32 +
STACK CFI bbe4 .cfa: $rsp 24 +
STACK CFI bbe6 .cfa: $rsp 16 +
STACK CFI bbe8 .cfa: $rsp 8 +
STACK CFI bbf0 .cfa: $rsp 80 +
STACK CFI bbf4 .cfa: $rsp 56 +
STACK CFI bbfb .cfa: $rsp 48 +
STACK CFI bbfc .cfa: $rsp 40 +
STACK CFI bbfe .cfa: $rsp 32 +
STACK CFI bc00 .cfa: $rsp 24 +
STACK CFI bc02 .cfa: $rsp 16 +
STACK CFI bc04 .cfa: $rsp 8 +
STACK CFI bc10 .cfa: $rsp 80 +
STACK CFI INIT 9350 1a3 .cfa: $rsp 8 + .ra: .cfa -8 + ^
STACK CFI 9352 $r15: .cfa -16 + ^ .cfa: $rsp 16 +
STACK CFI 9354 $r14: .cfa -24 + ^ .cfa: $rsp 24 +
STACK CFI 9359 $r13: .cfa -32 + ^ .cfa: $rsp 32 +
STACK CFI 935b $r12: .cfa -40 + ^ .cfa: $rsp 40 +
STACK CFI 935f $rbp: .cfa -48 + ^ .cfa: $rsp 48 +
STACK CFI 9360 $rbx: .cfa -56 + ^ .cfa: $rsp 56 +
STACK CFI 9367 .cfa: $rsp 80 +
STACK CFI 93f6 .cfa: $rsp 56 +
STACK CFI 93fc .cfa: $rsp 48 +
STACK CFI 93fd .cfa: $rsp 40 +
STACK CFI 93ff .cfa: $rsp 32 +
STACK CFI 9401 .cfa: $rsp 24 +
STACK CFI 9403 .cfa: $rsp 16 +
STACK CFI 9405 .cfa: $rsp 8 +
STACK CFI 9410 .cfa: $rsp 80 +
STACK CFI INIT 9500 de .cfa: $rsp 8 + .ra: .cfa -8 + ^
STACK CFI 9502 $r14: .cfa -16 + ^ .cfa: $rsp 16 +
STACK CFI 9504 $r13: .cfa -24 + ^ .cfa: $rsp 24 +
STACK CFI 9509 $r12: .cfa -32 + ^ .cfa: $rsp 32 +
STACK CFI 950a $rbp: .cfa -40 + ^ .cfa: $rsp 40 +
STACK CFI 950e $rbx: .cfa -48 + ^ .cfa: $rsp 48 +
STACK CFI 9592 .cfa: $rsp 40 +
STACK CFI 9593 .cfa: $rsp 32 +
STACK CFI 9595 .cfa: $rsp 24 +
STACK CFI 9597 .cfa: $rsp 16 +
STACK CFI 9599 .cfa: $rsp 8 +
STACK CFI 95a0 .cfa: $rsp 48 +
STACK CFI 95c5 .cfa: $rsp 40 +
STACK CFI 95c9 .cfa: $rsp 32 +
STACK CFI 95cb .cfa: $rsp 24 +
STACK CFI 95cd .cfa: $rsp 16 +
STACK CFI 95cf .cfa: $rsp 8 +
STACK CFI 95d0 .cfa: $rsp 48 +
STACK CFI INIT bc40 8a .cfa: $rsp 8 + .ra: .cfa -8 + ^
STACK CFI bc41 $rbp: .cfa -16 + ^ .cfa: $rsp 16 +
STACK CFI bc42 $rbx: .cfa -24 + ^ .cfa: $rsp 24 +
STACK CFI bc46 .cfa: $rsp 32 +
STACK CFI bc9b .cfa: $rsp 24 +
STACK CFI bc9c .cfa: $rsp 16 +
STACK CFI bc9d .cfa: $rsp 8 +
STACK CFI bca0 .cfa: $rsp 32 +
STACK CFI INIT bcd0 f0 .cfa: $rsp 8 + .ra: .cfa -8 + ^
STACK CFI bcd2 $r13: .cfa -16 + ^ .cfa: $rsp 16 +
STACK CFI bcd8 $r12: .cfa -24 + ^ .cfa: $rsp 24 +
STACK CFI bcd9 $rbp: .cfa -32 + ^ .cfa: $rsp 32 +
STACK CFI bcda $rbx: .cfa -40 + ^ .cfa: $rsp 40 +
STACK CFI bce4 .cfa: $rsp 48 +
STACK CFI bd28 .cfa: $rsp 40 +
STACK CFI bd29 .cfa: $rsp 32 +
STACK CFI bd2a .cfa: $rsp 24 +
STACK CFI bd2c .cfa: $rsp 16 +
STACK CFI bd2e .cfa: $rsp 8 +
STACK CFI bd30 .cfa: $rsp 48 +
STACK CFI bd80 .cfa: $rsp 40 +
STACK CFI bd87 .cfa: $rsp 32 +
STACK CFI bd88 .cfa: $rsp 24 +
STACK CFI bd8a .cfa: $rsp 16 +
STACK CFI bd8c .cfa: $rsp 8 +
STACK CFI bd98 .cfa: $rsp 48 +
STACK CFI bd9c .cfa: $rsp 40 +
STACK CFI bda2 .cfa: $rsp 32 +
STACK CFI bda3 .cfa: $rsp 24 +
STACK CFI bda5 .cfa: $rsp 16 +
STACK CFI bda7 .cfa: $rsp 8 +
STACK CFI bdb0 .cfa: $rsp 48 +
STACK CFI bdb4 .cfa: $rsp 40 +
STACK CFI bdba .cfa: $rsp 32 +
STACK CFI bdbb .cfa: $rsp 24 +
STACK CFI bdbd .cfa: $rsp 16 +
STACK CFI bdbf .cfa: $rsp 8 +
STACK CFI INIT 95e0 45f .cfa: $rsp 8 + .ra: .cfa -8 + ^
STACK CFI 95e2 $r15: .cfa -16 + ^ .cfa: $rsp 16 +
STACK CFI 95e4 $r14: .cfa -24 + ^ .cfa: $rsp 24 +
STACK CFI 95e9 $r13: .cfa -32 + ^ .cfa: $rsp 32 +
STACK CFI 95eb $r12: .cfa -40 + ^ .cfa: $rsp 40 +
STACK CFI 95ef $rbp: .cfa -48 + ^ .cfa: $rsp 48 +
STACK CFI 95f0 $rbx: .cfa -56 + ^ .cfa: $rsp 56 +
STACK CFI 9601 .cfa: $rsp 192 +
STACK CFI 9868 .cfa: $rsp 56 +
STACK CFI 9869 .cfa: $rsp 48 +
STACK CFI 986a .cfa: $rsp 40 +
STACK CFI 986c .cfa: $rsp 32 +
STACK CFI 986e .cfa: $rsp 24 +
STACK CFI 9870 .cfa: $rsp 16 +
STACK CFI 9872 .cfa: $rsp 8 +
STACK CFI 9878 .cfa: $rsp 192 +
STACK CFI INIT 9a40 579 .cfa: $rsp 8 + .ra: .cfa -8 + ^
STACK CFI 9a42 $r15: .cfa -16 + ^ .cfa: $rsp 16 +
STACK CFI 9a44 $r14: .cfa -24 + ^ .cfa: $rsp 24 +
STACK CFI 9a49 $r13: .cfa -32 + ^ .cfa: $rsp 32 +
STACK CFI 9a4b $r12: .cfa -40 + ^ .cfa: $rsp 40 +
STACK CFI 9a4c $rbp: .cfa -48 + ^ .cfa: $rsp 48 +
STACK CFI 9a4d $rbx: .cfa -56 + ^ .cfa: $rsp 56 +
STACK CFI 9a54 .cfa: $rsp 560 +
STACK CFI 9da1 .cfa: $rsp 56 +
STACK CFI 9da2 .cfa: $rsp 48 +
STACK CFI 9da3 .cfa: $rsp 40 +
STACK CFI 9da5 .cfa: $rsp 32 +
STACK CFI 9da7 .cfa: $rsp 24 +
STACK CFI 9da9 .cfa: $rsp 16 +
STACK CFI 9dab .cfa: $rsp 8 +
STACK CFI 9db0 .cfa: $rsp 560 +
STACK CFI INIT 9fc0 5d8 .cfa: $rsp 8 + .ra: .cfa -8 + ^
STACK CFI 9fc2 $r15: .cfa -16 + ^ .cfa: $rsp 16 +
STACK CFI 9fc4 $r14: .cfa -24 + ^ .cfa: $rsp 24 +
STACK CFI 9fc9 $r13: .cfa -32 + ^ .cfa: $rsp 32 +
STACK CFI 9fcb $r12: .cfa -40 + ^ .cfa: $rsp 40 +
STACK CFI 9fcc $rbp: .cfa -48 + ^ .cfa: $rsp 48 +
STACK CFI 9fcd $rbx: .cfa -56 + ^ .cfa: $rsp 56 +
STACK CFI 9fd4 .cfa: $rsp 576 +
STACK CFI a381 .cfa: $rsp 56 +
STACK CFI a382 .cfa: $rsp 48 +
STACK CFI a383 .cfa: $rsp 40 +
STACK CFI a385 .cfa: $rsp 32 +
STACK CFI a387 .cfa: $rsp 24 +
STACK CFI a389 .cfa: $rsp 16 +
STACK CFI a38b .cfa: $rsp 8 +
STACK CFI a390 .cfa: $rsp 576 +
STACK CFI INIT a5a0 5d8 .cfa: $rsp 8 + .ra: .cfa -8 + ^
STACK CFI a5a2 $r15: .cfa -16 + ^ .cfa: $rsp 16 +
STACK CFI a5a4 $r14: .cfa -24 + ^ .cfa: $rsp 24 +
STACK CFI a5a9 $r13: .cfa -32 + ^ .cfa: $rsp 32 +
STACK CFI a5ab $r12: .cfa -40 + ^ .cfa: $rsp 40 +
STACK CFI a5ac $rbp: .cfa -48 + ^ .cfa: $rsp 48 +
STACK CFI a5ad $rbx: .cfa -56 + ^ .cfa: $rsp 56 +
STACK CFI a5b4 .cfa: $rsp 576 +
STACK CFI a961 .cfa: $rsp 56 +
STACK CFI a962 .cfa: $rsp 48 +
STACK CFI a963 .cfa: $rsp 40 +
STACK CFI a965 .cfa: $rsp 32 +
STACK CFI a967 .cfa: $rsp 24 +
STACK CFI a969 .cfa: $rsp 16 +
STACK CFI a96b .cfa: $rsp 8 +
STACK CFI a970 .cfa: $rsp 576 +
STACK CFI INIT ab80 571 .cfa: $rsp 8 + .ra: .cfa -8 + ^
STACK CFI ab82 $r15: .cfa -16 + ^ .cfa: $rsp 16 +
STACK CFI ab84 $r14: .cfa -24 + ^ .cfa: $rsp 24 +
STACK CFI ab89 $r13: .cfa -32 + ^ .cfa: $rsp 32 +
STACK CFI ab8b $r12: .cfa -40 + ^ .cfa: $rsp 40 +
STACK CFI ab8c $rbp: .cfa -48 + ^ .cfa: $rsp 48 +
STACK CFI ab8d $rbx: .cfa -56 + ^ .cfa: $rsp 56 +
STACK CFI ab94 .cfa: $rsp 560 +
STACK CFI aee4 .cfa: $rsp 56 +
STACK CFI aee5 .cfa: $rsp 48 +
STACK CFI aee6 .cfa: $rsp 40 +
STACK CFI aee8 .cfa: $rsp 32 +
STACK CFI aeea .cfa: $rsp 24 +
STACK CFI aeec .cfa: $rsp 16 +
STACK CFI aeee .cfa: $rsp 8 +
STACK CFI aef0 .cfa: $rsp 560 +
STACK CFI INIT 83a0 2e .cfa: $rsp 8 + .ra: .cfa -8 + ^
STACK CFI 83ab .cfa: $rsp 16 +
STACK CFI 83c9 .cfa: $rsp 8 +
STACK CFI INIT f340 6 .cfa: $rsp 8 + .ra: .cfa -8 + ^
STACK CFI INIT f350 14 .cfa: $rsp 8 + .ra: .cfa -8 + ^
STACK CFI INIT f370 c .cfa: $rsp 8 + .ra: .cfa -8 + ^
STACK CFI INIT f380 a .cfa: $rsp 8 + .ra: .cfa -8 + ^
STACK CFI INIT f390 2 .cfa: $rsp 8 + .ra: .cfa -8 + ^
STACK CFI INIT f3a0 2 .cfa: $rsp 8 + .ra: .cfa -8 + ^
STACK CFI INIT f3b0 2 .cfa: $rsp 8 + .ra: .cfa -8 + ^
STACK CFI INIT f3c0 2 .cfa: $rsp 8 + .ra: .cfa -8 + ^
STACK CFI INIT f3d0 3 .cfa: $rsp 8 + .ra: .cfa -8 + ^
STACK CFI INIT f3e0 3 .cfa: $rsp 8 + .ra: .cfa -8 + ^
STACK CFI INIT f3f0 2 .cfa: $rsp 8 + .ra: .cfa -8 + ^
STACK CFI INIT f400 5 .cfa: $rsp 8 + .ra: .cfa -8 + ^
STACK CFI INIT f410 5 .cfa: $rsp 8 + .ra: .cfa -8 + ^
STACK CFI INIT bdc0 e .cfa: $rsp 8 + .ra: .cfa -8 + ^
STACK CFI INIT bdd0 56 .cfa: $rsp 8 + .ra: .cfa -8 + ^
STACK CFI INIT be30 e .cfa: $rsp 8 + .ra: .cfa -8 + ^
STACK CFI INIT be40 6 .cfa: $rsp 8 + .ra: .cfa -8 + ^
STACK CFI INIT be50 8 .cfa: $rsp 8 + .ra: .cfa -8 + ^
STACK CFI INIT be60 7 .cfa: $rsp 8 + .ra: .cfa -8 + ^
STACK CFI INIT be70 1d3 .cfa: $rsp 8 + .ra: .cfa -8 + ^
STACK CFI be8f $r12: .cfa -16 + ^ .cfa: $rsp 16 +
STACK CFI be90 $rbp: .cfa -24 + ^ .cfa: $rsp 24 +
STACK CFI be94 $rbx: .cfa -32 + ^ .cfa: $rsp 32 +
STACK CFI bf80 .cfa: $rsp 24 +
STACK CFI bf81 .cfa: $rsp 16 +
STACK CFI bf83 .cfa: $rsp 8 +
STACK CFI bf88 .cfa: $rsp 32 +
STACK CFI c023 .cfa: $rsp 24 +
STACK CFI c024 .cfa: $rsp 16 +
STACK CFI c026 .cfa: $rsp 8 +
STACK CFI c030 .cfa: $rsp 32 +
STACK CFI c031 .cfa: $rsp 24 +
STACK CFI c034 .cfa: $rsp 16 +
STACK CFI c036 .cfa: $rsp 8 +
STACK CFI c040 $r12: $r12 $rbp: $rbp $rbx: $rbx
STACK CFI INIT f420 42 .cfa: $rsp 8 + .ra: .cfa -8 + ^
STACK CFI f428 $rbx: .cfa -16 + ^ .cfa: $rsp 16 +
STACK CFI f452 .cfa: $rsp 8 +
STACK CFI f460 .cfa: $rsp 16 +
STACK CFI f461 .cfa: $rsp 8 +
STACK CFI INIT f470 52 .cfa: $rsp 8 + .ra: .cfa -8 + ^
STACK CFI f478 $rbx: .cfa -16 + ^ .cfa: $rsp 16 +
STACK CFI f4b7 .cfa: $rsp 8 +
STACK CFI f4c0 .cfa: $rsp 16 +
STACK CFI f4c1 .cfa: $rsp 8 +
STACK CFI INIT f4d0 9 .cfa: $rsp 8 + .ra: .cfa -8 + ^
STACK CFI INIT c050 f2 .cfa: $rsp 8 + .ra: .cfa -8 + ^
STACK CFI c06b $rbp: .cfa -16 + ^ .cfa: $rsp 16 +
STACK CFI c06c $rbx: .cfa -24 + ^ .cfa: $rsp 24 +
STACK CFI c0ee .cfa: $rsp 16 +
STACK CFI c0ef .cfa: $rsp 8 +
STACK CFI c0f0 .cfa: $rsp 24 +
STACK CFI c140 $rbp: $rbp $rbx: $rbx .cfa: $rsp 8 +
STACK CFI INIT c150 16d .cfa: $rsp 8 + .ra: .cfa -8 + ^
STACK CFI c155 $rbx: .cfa -16 + ^ .cfa: $rsp 16 +
STACK CFI c265 .cfa: $rsp 8 +
STACK CFI c270 .cfa: $rsp 16 +
STACK CFI INIT c2c0 1e3 .cfa: $rsp 8 + .ra: .cfa -8 + ^
STACK CFI c2ca $rbp: .cfa -16 + ^ .cfa: $rsp 16 +
STACK CFI c2cd $rbx: .cfa -24 + ^ .cfa: $rsp 24 +
STACK CFI c2e6 .cfa: $rsp 32 +
STACK CFI c3de .cfa: $rsp 24 +
STACK CFI c3df .cfa: $rsp 16 +
STACK CFI c3e0 .cfa: $rsp 8 +
STACK CFI c3e8 .cfa: $rsp 32 +
STACK CFI c48c .cfa: $rsp 24 +
STACK CFI c48d .cfa: $rsp 16 +
STACK CFI c48e .cfa: $rsp 8 +
STACK CFI c490 .cfa: $rsp 32 +
STACK CFI c494 .cfa: $rsp 24 +
STACK CFI c497 .cfa: $rsp 16 +
STACK CFI c498 .cfa: $rsp 8 +
STACK CFI c4a0 $rbp: $rbp $rbx: $rbx
STACK CFI INIT c4b0 4e .cfa: $rsp 8 + .ra: .cfa -8 + ^
STACK CFI c4b1 $rbx: .cfa -16 + ^ .cfa: $rsp 16 +
STACK CFI c4f8 .cfa: $rsp 8 +
STACK CFI c4f9 .cfa: $rsp 16 +
STACK CFI INIT c500 4c .cfa: $rsp 8 + .ra: .cfa -8 + ^
STACK CFI INIT c550 73 .cfa: $rsp 8 + .ra: .cfa -8 + ^
STACK CFI c557 $r13: .cfa -16 + ^ .cfa: $rsp 16 +
STACK CFI c559 $r12: .cfa -24 + ^ .cfa: $rsp 24 +
STACK CFI c55e $rbp: .cfa -32 + ^ .cfa: $rsp 32 +
STACK CFI c55f $rbx: .cfa -40 + ^ .cfa: $rsp 40 +
STACK CFI c566 .cfa: $rsp 48 +
STACK CFI c5ba .cfa: $rsp 40 +
STACK CFI c5bb .cfa: $rsp 32 +
STACK CFI c5bc .cfa: $rsp 24 +
STACK CFI c5be .cfa: $rsp 16 +
STACK CFI c5c0 .cfa: $rsp 8 +
STACK CFI c5c1 $r12: $r12 $r13: $r13 $rbp: $rbp $rbx: $rbx
STACK CFI INIT c5d0 c8 .cfa: $rsp 8 + .ra: .cfa -8 + ^
STACK CFI c5d2 $r12: .cfa -16 + ^ .cfa: $rsp 16 +
STACK CFI c5d3 $rbp: .cfa -24 + ^ .cfa: $rsp 24 +
STACK CFI c5d7 $rbx: .cfa -32 + ^ .cfa: $rsp 32 +
STACK CFI c5de .cfa: $rsp 48 +
STACK CFI c644 .cfa: $rsp 32 +
STACK CFI c645 .cfa: $rsp 24 +
STACK CFI c646 .cfa: $rsp 16 +
STACK CFI c648 .cfa: $rsp 8 +
STACK CFI c650 .cfa: $rsp 48 +
STACK CFI INIT c6a0 2c3 .cfa: $rsp 8 + .ra: .cfa -8 + ^
STACK CFI c6a2 $r15: .cfa -16 + ^ .cfa: $rsp 16 +
STACK CFI c6a7 $r14: .cfa -24 + ^ .cfa: $rsp 24 +
STACK CFI c6a9 $r13: .cfa -32 + ^ .cfa: $rsp 32 +
STACK CFI c6ab $r12: .cfa -40 + ^ .cfa: $rsp 40 +
STACK CFI c6af $rbp: .cfa -48 + ^ .cfa: $rsp 48 +
STACK CFI c6b0 $rbx: .cfa -56 + ^ .cfa: $rsp 56 +
STACK CFI c6b4 .cfa: $rsp 112 +
STACK CFI c824 .cfa: $rsp 120 +
STACK CFI c82b .cfa: $rsp 128 +
STACK CFI c83d .cfa: $rsp 120 +
STACK CFI c83e .cfa: $rsp 112 +
STACK CFI c885 .cfa: $rsp 120 +
STACK CFI c8a6 .cfa: $rsp 128 +
STACK CFI c8aa .cfa: $rsp 136 +
STACK CFI c8ae .cfa: $rsp 144 +
STACK CFI c8b7 .cfa: $rsp 112 +
STACK CFI c8db .cfa: $rsp 120 +
STACK CFI c915 .cfa: $rsp 128 +
STACK CFI c919 .cfa: $rsp 136 +
STACK CFI c91d .cfa: $rsp 144 +
STACK CFI c926 .cfa: $rsp 112 +
STACK CFI c930 .cfa: $rsp 56 +
STACK CFI c931 .cfa: $rsp 48 +
STACK CFI c932 .cfa: $rsp 40 +
STACK CFI c934 .cfa: $rsp 32 +
STACK CFI c936 .cfa: $rsp 24 +
STACK CFI c938 .cfa: $rsp 16 +
STACK CFI c93a .cfa: $rsp 8 +
STACK CFI c93b .cfa: $rsp 112 +
STACK CFI INIT f4e0 44 .cfa: $rsp 8 + .ra: .cfa -8 + ^
STACK CFI f4e8 $rbx: .cfa -16 + ^ .cfa: $rsp 16 +
STACK CFI f51f .cfa: $rsp 8 +
STACK CFI INIT c970 e5 .cfa: $rsp 8 + .ra: .cfa -8 + ^
STACK CFI c979 $r12: .cfa -16 + ^ .cfa: $rsp 16 +
STACK CFI c97a $rbp: .cfa -24 + ^ .cfa: $rsp 24 +
STACK CFI c97b $rbx: .cfa -32 + ^ .cfa: $rsp 32 +
STACK CFI ca3e .cfa: $rsp 24 +
STACK CFI ca47 .cfa: $rsp 16 +
STACK CFI ca49 .cfa: $rsp 8 +
STACK CFI ca50 .cfa: $rsp 32 +
STACK CFI ca51 .cfa: $rsp 24 +
STACK CFI ca52 .cfa: $rsp 16 +
STACK CFI ca54 .cfa: $rsp 8 +
STACK CFI INIT ca60 17 .cfa: $rsp 8 + .ra: .cfa -8 + ^
STACK CFI ca61 $rbx: .cfa -16 + ^ .cfa: $rsp 16 +
STACK CFI ca72 .cfa: $rsp 8 +
STACK CFI INIT f530 7f .cfa: $rsp 8 + .ra: .cfa -8 + ^
STACK CFI f538 $rbx: .cfa -16 + ^ .cfa: $rsp 16 +
STACK CFI f5aa .cfa: $rsp 8 +
STACK CFI INIT f5b0 59 .cfa: $rsp 8 + .ra: .cfa -8 + ^
STACK CFI f5b8 $rbx: .cfa -16 + ^ .cfa: $rsp 16 +
STACK CFI f604 .cfa: $rsp 8 +
STACK CFI INIT f610 7f .cfa: $rsp 8 + .ra: .cfa -8 + ^
STACK CFI f618 $rbx: .cfa -16 + ^ .cfa: $rsp 16 +
STACK CFI f68a .cfa: $rsp 8 +
STACK CFI INIT f690 7a .cfa: $rsp 8 + .ra: .cfa -8 + ^
STACK CFI f698 $rbx: .cfa -16 + ^ .cfa: $rsp 16 +
STACK CFI f6fd .cfa: $rsp 8 +
STACK CFI f708 .cfa: $rsp 16 +
STACK CFI f709 .cfa: $rsp 8 +
STACK CFI INIT f710 7a .cfa: $rsp 8 + .ra: .cfa -8 + ^
STACK CFI f718 $rbx: .cfa -16 + ^ .cfa: $rsp 16 +
STACK CFI f77d .cfa: $rsp 8 +
STACK CFI f788 .cfa: $rsp 16 +
STACK CFI f789 .cfa: $rsp 8 +
STACK CFI INIT ca80 5 .cfa: $rsp 8 + .ra: .cfa -8 + ^
STACK CFI INIT ca90 10 .cfa: $rsp 8 + .ra: .cfa -8 + ^
STACK CFI INIT caa0 c4 .cfa: $rsp 8 + .ra: .cfa -8 + ^
STACK CFI cab2 $r12: .cfa -16 + ^ .cfa: $rsp 16 +
STACK CFI cab3 $rbp: .cfa -24 + ^ .cfa: $rsp 24 +
STACK CFI cab7 $rbx: .cfa -32 + ^ .cfa: $rsp 32 +
STACK CFI cb1f .cfa: $rsp 24 +
STACK CFI cb20 .cfa: $rsp 16 +
STACK CFI cb22 .cfa: $rsp 8 +
STACK CFI cb28 .cfa: $rsp 32 +
STACK CFI cb34 $rbx: $rbx .cfa: $rsp 24 +
STACK CFI cb35 $rbp: $rbp .cfa: $rsp 16 +
STACK CFI cb3b $r12: $r12 .cfa: $rsp 8 +
STACK CFI cb48 $r12: .cfa -16 + ^ $rbp: .cfa -24 + ^ $rbx: .cfa -32 + ^ .cfa: $rsp 32 +
STACK CFI cb54 $rbx: $rbx .cfa: $rsp 24 +
STACK CFI cb55 $rbp: $rbp .cfa: $rsp 16 +
STACK CFI cb5b $r12: $r12 .cfa: $rsp 8 +
STACK CFI INIT cb70 85 .cfa: $rsp 8 + .ra: .cfa -8 + ^
STACK CFI INIT cc00 43 .cfa: $rsp 8 + .ra: .cfa -8 + ^
STACK CFI cc18 $rbx: .cfa -16 + ^ .cfa: $rsp 16 +
STACK CFI cc42 .cfa: $rsp 8 +
STACK CFI INIT cc50 3d .cfa: $rsp 8 + .ra: .cfa -8 + ^
STACK CFI cc52 $r12: .cfa -16 + ^ .cfa: $rsp 16 +
STACK CFI cc53 $rbp: .cfa -24 + ^ .cfa: $rsp 24 +
STACK CFI cc57 $rbx: .cfa -32 + ^ .cfa: $rsp 32 +
STACK CFI cc71 .cfa: $rsp 24 +
STACK CFI cc81 .cfa: $rsp 16 +
STACK CFI cc83 .cfa: $rsp 8 +
STACK CFI INIT cc90 3d .cfa: $rsp 8 + .ra: .cfa -8 + ^
STACK CFI cc92 $r12: .cfa -16 + ^ .cfa: $rsp 16 +
STACK CFI cc93 $rbp: .cfa -24 + ^ .cfa: $rsp 24 +
STACK CFI cc97 $rbx: .cfa -32 + ^ .cfa: $rsp 32 +
STACK CFI ccb1 .cfa: $rsp 24 +
STACK CFI ccc1 .cfa: $rsp 16 +
STACK CFI ccc3 .cfa: $rsp 8 +
STACK CFI INIT ccd0 3c .cfa: $rsp 8 + .ra: .cfa -8 + ^
STACK CFI ccd1 $rbp: .cfa -16 + ^ .cfa: $rsp 16 +
STACK CFI ccd2 $rbx: .cfa -24 + ^ .cfa: $rsp 24 +
STACK CFI ccdc .cfa: $rsp 32 +
STACK CFI cd03 .cfa: $rsp 24 +
STACK CFI cd06 .cfa: $rsp 16 +
STACK CFI cd07 .cfa: $rsp 8 +
STACK CFI INIT cd10 2b .cfa: $rsp 8 + .ra: .cfa -8 + ^
STACK CFI cd11 $rbx: .cfa -16 + ^ .cfa: $rsp 16 +
STACK CFI cd2c .cfa: $rsp 8 +
STACK CFI INIT cd40 3b .cfa: $rsp 8 + .ra: .cfa -8 + ^
STACK CFI cd41 $rbp: .cfa -16 + ^ .cfa: $rsp 16 +
STACK CFI cd42 $rbx: .cfa -24 + ^ .cfa: $rsp 24 +
STACK CFI cd4c .cfa: $rsp 32 +
STACK CFI cd72 .cfa: $rsp 24 +
STACK CFI cd75 .cfa: $rsp 16 +
STACK CFI cd76 .cfa: $rsp 8 +
STACK CFI INIT cd80 3c .cfa: $rsp 8 + .ra: .cfa -8 + ^
STACK CFI cd81 $rbp: .cfa -16 + ^ .cfa: $rsp 16 +
STACK CFI cd82 $rbx: .cfa -24 + ^ .cfa: $rsp 24 +
STACK CFI cd8c .cfa: $rsp 32 +
STACK CFI cdb3 .cfa: $rsp 24 +
STACK CFI cdb6 .cfa: $rsp 16 +
STACK CFI cdb7 .cfa: $rsp 8 +
STACK CFI INIT cdc0 3d .cfa: $rsp 8 + .ra: .cfa -8 + ^
STACK CFI cdc2 $r12: .cfa -16 + ^ .cfa: $rsp 16 +
STACK CFI cdc3 $rbp: .cfa -24 + ^ .cfa: $rsp 24 +
STACK CFI cdc7 $rbx: .cfa -32 + ^ .cfa: $rsp 32 +
STACK CFI cde1 .cfa: $rsp 24 +
STACK CFI cdf1 .cfa: $rsp 16 +
STACK CFI cdf3 .cfa: $rsp 8 +
STACK CFI INIT ce00 3b .cfa: $rsp 8 + .ra: .cfa -8 + ^
STACK CFI ce01 $rbp: .cfa -16 + ^ .cfa: $rsp 16 +
STACK CFI ce02 $rbx: .cfa -24 + ^ .cfa: $rsp 24 +
STACK CFI ce0c .cfa: $rsp 32 +
STACK CFI ce32 .cfa: $rsp 24 +
STACK CFI ce35 .cfa: $rsp 16 +
STACK CFI ce36 .cfa: $rsp 8 +
STACK CFI INIT ce40 2b .cfa: $rsp 8 + .ra: .cfa -8 + ^
STACK CFI ce41 $rbx: .cfa -16 + ^ .cfa: $rsp 16 +
STACK CFI ce5c .cfa: $rsp 8 +
STACK CFI INIT ce70 40 .cfa: $rsp 8 + .ra: .cfa -8 + ^
STACK CFI ce81 $rbx: .cfa -16 + ^ .cfa: $rsp 16 +
STACK CFI ceaf .cfa: $rsp 8 +
STACK CFI INIT ceb0 62 .cfa: $rsp 8 + .ra: .cfa -8 + ^
STACK CFI cec1 $rbx: .cfa -16 + ^ .cfa: $rsp 16 +
STACK CFI ceed .cfa: $rsp 24 +
STACK CFI ceef .cfa: $rsp 32 +
STACK CFI cf0f .cfa: $rsp 24 +
STACK CFI cf10 .cfa: $rsp 16 +
STACK CFI cf11 .cfa: $rsp 8 +
STACK CFI INIT cf20 7d .cfa: $rsp 8 + .ra: .cfa -8 + ^
STACK CFI cf31 $rbx: .cfa -16 + ^ .cfa: $rsp 16 +
STACK CFI cf93 $rbx: $rbx .cfa: $rsp 8 +
STACK CFI INIT cfa0 7f .cfa: $rsp 8 + .ra: .cfa -8 + ^
STACK CFI INIT d020 17 .cfa: $rsp 8 + .ra: .cfa -8 + ^
STACK CFI INIT d040 69 .cfa: $rsp 8 + .ra: .cfa -8 + ^
STACK CFI INIT f790 157 .cfa: $rsp 8 + .ra: .cfa -8 + ^
STACK CFI f795 $r14: .cfa -16 + ^ .cfa: $rsp 16 +
STACK CFI f797 $r13: .cfa -24 + ^ .cfa: $rsp 24 +
STACK CFI f799 $r12: .cfa -32 + ^ .cfa: $rsp 32 +
STACK CFI f79a $rbp: .cfa -40 + ^ .cfa: $rsp 40 +
STACK CFI f79e $rbx: .cfa -48 + ^ .cfa: $rsp 48 +
STACK CFI f80b .cfa: $rsp 40 +
STACK CFI f80f .cfa: $rsp 32 +
STACK CFI f811 .cfa: $rsp 24 +
STACK CFI f813 .cfa: $rsp 16 +
STACK CFI f815 .cfa: $rsp 8 +
STACK CFI f820 .cfa: $rsp 48 +
STACK CFI INIT f8f0 95 .cfa: $rsp 8 + .ra: .cfa -8 + ^
STACK CFI f8f2 $r12: .cfa -16 + ^ .cfa: $rsp 16 +
STACK CFI f8f3 $rbp: .cfa -24 + ^ .cfa: $rsp 24 +
STACK CFI f8f4 $rbx: .cfa -32 + ^ .cfa: $rsp 32 +
STACK CFI f96e .cfa: $rsp 24 +
STACK CFI f977 .cfa: $rsp 16 +
STACK CFI f979 .cfa: $rsp 8 +
STACK CFI f980 .cfa: $rsp 32 +
STACK CFI f981 .cfa: $rsp 24 +
STACK CFI f982 .cfa: $rsp 16 +
STACK CFI f984 .cfa: $rsp 8 +
STACK CFI INIT d0b0 db .cfa: $rsp 8 + .ra: .cfa -8 + ^
STACK CFI d0b2 $r13: .cfa -16 + ^ .cfa: $rsp 16 +
STACK CFI d0b4 $r12: .cfa -24 + ^ .cfa: $rsp 24 +
STACK CFI d0b8 $rbp: .cfa -32 + ^ .cfa: $rsp 32 +
STACK CFI d0b9 $rbx: .cfa -40 + ^ .cfa: $rsp 40 +
STACK CFI d0c6 .cfa: $rsp 48 +
STACK CFI d170 .cfa: $rsp 40 +
STACK CFI d171 .cfa: $rsp 32 +
STACK CFI d172 .cfa: $rsp 24 +
STACK CFI d174 .cfa: $rsp 16 +
STACK CFI d176 .cfa: $rsp 8 +
STACK CFI d177 .cfa: $rsp 48 +
STACK CFI INIT f990 72 .cfa: $rsp 8 + .ra: .cfa -8 + ^
STACK CFI f997 $r12: .cfa -16 + ^ .cfa: $rsp 16 +
STACK CFI f99b $rbp: .cfa -24 + ^ .cfa: $rsp 24 +
STACK CFI f99c $rbx: .cfa -32 + ^ .cfa: $rsp 32 +
STACK CFI f9f6 .cfa: $rsp 24 +
STACK CFI f9f7 .cfa: $rsp 16 +
STACK CFI f9f9 .cfa: $rsp 8 +
STACK CFI fa00 $r12: $r12 $rbp: $rbp $rbx: $rbx
STACK CFI INIT d190 40 .cfa: $rsp 8 + .ra: .cfa -8 + ^
STACK CFI d1a1 $rbx: .cfa -16 + ^ .cfa: $rsp 16 +
STACK CFI d1cf .cfa: $rsp 8 +
STACK CFI INIT fa10 52 .cfa: $rsp 8 + .ra: .cfa -8 + ^
STACK CFI fa17 $r12: .cfa -16 + ^ .cfa: $rsp 16 +
STACK CFI fa1b $rbp: .cfa -24 + ^ .cfa: $rsp 24 +
STACK CFI fa1c $rbx: .cfa -32 + ^ .cfa: $rsp 32 +
STACK CFI fa52 .cfa: $rsp 24 +
STACK CFI fa53 .cfa: $rsp 16 +
STACK CFI fa55 .cfa: $rsp 8 +
STACK CFI fa60 $r12: $r12 $rbp: $rbp $rbx: $rbx
STACK CFI INIT fa70 52 .cfa: $rsp 8 + .ra: .cfa -8 + ^
STACK CFI fa77 $r12: .cfa -16 + ^ .cfa: $rsp 16 +
STACK CFI fa7b $rbp: .cfa -24 + ^ .cfa: $rsp 24 +
STACK CFI fa7c $rbx: .cfa -32 + ^ .cfa: $rsp 32 +
STACK CFI fab2 .cfa: $rsp 24 +
STACK CFI fab3 .cfa: $rsp 16 +
STACK CFI fab5 .cfa: $rsp 8 +
STACK CFI fac0 $r12: $r12 $rbp: $rbp $rbx: $rbx
STACK CFI INIT d1d0 215 .cfa: $rsp 8 + .ra: .cfa -8 + ^
STACK CFI d1d2 $r13: .cfa -16 + ^ .cfa: $rsp 16 +
STACK CFI d1d4 $r12: .cfa -24 + ^ .cfa: $rsp 24 +
STACK CFI d1d9 $rbp: .cfa -32 + ^ .cfa: $rsp 32 +
STACK CFI d1da $rbx: .cfa -40 + ^ .cfa: $rsp 40 +
STACK CFI d1e6 .cfa: $rsp 48 +
STACK CFI d328 .cfa: $rsp 40 +
STACK CFI d329 .cfa: $rsp 32 +
STACK CFI d32a .cfa: $rsp 24 +
STACK CFI d32c .cfa: $rsp 16 +
STACK CFI d32e .cfa: $rsp 8 +
STACK CFI d330 .cfa: $rsp 48 +
STACK CFI INIT d3f0 87 .cfa: $rsp 8 + .ra: .cfa -8 + ^
STACK CFI d3f1 $rbp: .cfa -16 + ^ .cfa: $rsp 16 +
STACK CFI d3f2 $rbx: .cfa -24 + ^ .cfa: $rsp 24 +
STACK CFI d3f9 .cfa: $rsp 32 +
STACK CFI d465 .cfa: $rsp 24 +
STACK CFI d466 .cfa: $rsp 16 +
STACK CFI d467 .cfa: $rsp 8 +
STACK CFI d470 .cfa: $rsp 32 +
STACK CFI d474 .cfa: $rsp 24 +
STACK CFI d475 .cfa: $rsp 16 +
STACK CFI d476 .cfa: $rsp 8 +
STACK CFI INIT d480 2f .cfa: $rsp 8 + .ra: .cfa -8 + ^
STACK CFI d481 $rbx: .cfa -16 + ^ .cfa: $rsp 16 +
STACK CFI d4ae .cfa: $rsp 8 +
STACK CFI INIT fad0 161 .cfa: $rsp 8 + .ra: .cfa -8 + ^
STACK CFI fad2 $r15: .cfa -16 + ^ .cfa: $rsp 16 +
STACK CFI fad4 $r14: .cfa -24 + ^ .cfa: $rsp 24 +
STACK CFI fad6 $r13: .cfa -32 + ^ .cfa: $rsp 32 +
STACK CFI fad8 $r12: .cfa -40 + ^ .cfa: $rsp 40 +
STACK CFI fad9 $rbp: .cfa -48 + ^ .cfa: $rsp 48 +
STACK CFI fada $rbx: .cfa -56 + ^ .cfa: $rsp 56 +
STACK CFI fae4 .cfa: $rsp 80 +
STACK CFI fbdb .cfa: $rsp 56 +
STACK CFI fbdc .cfa: $rsp 48 +
STACK CFI fbdd .cfa: $rsp 40 +
STACK CFI fbdf .cfa: $rsp 32 +
STACK CFI fbe1 .cfa: $rsp 24 +
STACK CFI fbe3 .cfa: $rsp 16 +
STACK CFI fbe5 .cfa: $rsp 8 +
STACK CFI fbf0 .cfa: $rsp 80 +
STACK CFI INIT fc40 106 .cfa: $rsp 8 + .ra: .cfa -8 + ^
STACK CFI fc42 $r15: .cfa -16 + ^ .cfa: $rsp 16 +
STACK CFI fc44 $r14: .cfa -24 + ^ .cfa: $rsp 24 +
STACK CFI fc46 $r13: .cfa -32 + ^ .cfa: $rsp 32 +
STACK CFI fc48 $r12: .cfa -40 + ^ .cfa: $rsp 40 +
STACK CFI fc4d $rbp: .cfa -48 + ^ .cfa: $rsp 48 +
STACK CFI fc4e $rbx: .cfa -56 + ^ .cfa: $rsp 56 +
STACK CFI fc52 .cfa: $rsp 64 +
STACK CFI fcfb .cfa: $rsp 56 +
STACK CFI fcff .cfa: $rsp 48 +
STACK CFI fd00 .cfa: $rsp 40 +
STACK CFI fd02 .cfa: $rsp 32 +
STACK CFI fd04 .cfa: $rsp 24 +
STACK CFI fd06 .cfa: $rsp 16 +
STACK CFI fd08 .cfa: $rsp 8 +
STACK CFI fd10 .cfa: $rsp 64 +
STACK CFI fd14 .cfa: $rsp 56 +
STACK CFI fd18 .cfa: $rsp 48 +
STACK CFI fd19 .cfa: $rsp 40 +
STACK CFI fd1b .cfa: $rsp 32 +
STACK CFI fd1d .cfa: $rsp 24 +
STACK CFI fd1f .cfa: $rsp 16 +
STACK CFI fd21 .cfa: $rsp 8 +
STACK CFI fd28 .cfa: $rsp 64 +
STACK CFI INIT d4b0 196 .cfa: $rsp 8 + .ra: .cfa -8 + ^
STACK CFI d4b2 $r15: .cfa -16 + ^ .cfa: $rsp 16 +
STACK CFI d4b4 $r14: .cfa -24 + ^ .cfa: $rsp 24 +
STACK CFI d4b6 $r13: .cfa -32 + ^ .cfa: $rsp 32 +
STACK CFI d4b8 $r12: .cfa -40 + ^ .cfa: $rsp 40 +
STACK CFI d4bc $rbp: .cfa -48 + ^ .cfa: $rsp 48 +
STACK CFI d4bd $rbx: .cfa -56 + ^ .cfa: $rsp 56 +
STACK CFI d4c4 .cfa: $rsp 112 +
STACK CFI d56d .cfa: $rsp 56 +
STACK CFI d56e .cfa: $rsp 48 +
STACK CFI d56f .cfa: $rsp 40 +
STACK CFI d571 .cfa: $rsp 32 +
STACK CFI d573 .cfa: $rsp 24 +
STACK CFI d575 .cfa: $rsp 16 +
STACK CFI d577 .cfa: $rsp 8 +
STACK CFI d580 .cfa: $rsp 112 +
STACK CFI INIT fd50 136 .cfa: $rsp 8 + .ra: .cfa -8 + ^
STACK CFI fd52 $r15: .cfa -16 + ^ .cfa: $rsp 16 +
STACK CFI fd54 $r14: .cfa -24 + ^ .cfa: $rsp 24 +
STACK CFI fd59 $r13: .cfa -32 + ^ .cfa: $rsp 32 +
STACK CFI fd5b $r12: .cfa -40 + ^ .cfa: $rsp 40 +
STACK CFI fd5f $rbp: .cfa -48 + ^ .cfa: $rsp 48 +
STACK CFI fd60 $rbx: .cfa -56 + ^ .cfa: $rsp 56 +
STACK CFI fd67 .cfa: $rsp 80 +
STACK CFI fe39 .cfa: $rsp 56 +
STACK CFI fe3a .cfa: $rsp 48 +
STACK CFI fe3b .cfa: $rsp 40 +
STACK CFI fe3d .cfa: $rsp 32 +
STACK CFI fe3f .cfa: $rsp 24 +
STACK CFI fe41 .cfa: $rsp 16 +
STACK CFI fe43 .cfa: $rsp 8 +
STACK CFI fe48 .cfa: $rsp 80 +
STACK CFI INIT fe90 12e .cfa: $rsp 8 + .ra: .cfa -8 + ^
STACK CFI fe92 $r15: .cfa -16 + ^ .cfa: $rsp 16 +
STACK CFI fe94 $r14: .cfa -24 + ^ .cfa: $rsp 24 +
STACK CFI fe99 $r13: .cfa -32 + ^ .cfa: $rsp 32 +
STACK CFI fe9b $r12: .cfa -40 + ^ .cfa: $rsp 40 +
STACK CFI fe9f $rbp: .cfa -48 + ^ .cfa: $rsp 48 +
STACK CFI fea0 $rbx: .cfa -56 + ^ .cfa: $rsp 56 +
STACK CFI fea7 .cfa: $rsp 80 +
STACK CFI ff6d .cfa: $rsp 56 +
STACK CFI ff6e .cfa: $rsp 48 +
STACK CFI ff6f .cfa: $rsp 40 +
STACK CFI ff71 .cfa: $rsp 32 +
STACK CFI ff73 .cfa: $rsp 24 +
STACK CFI ff75 .cfa: $rsp 16 +
STACK CFI ff77 .cfa: $rsp 8 +
STACK CFI ff80 .cfa: $rsp 80 +
STACK CFI INIT ffc0 184 .cfa: $rsp 8 + .ra: .cfa -8 + ^
STACK CFI ffc2 $r15: .cfa -16 + ^ .cfa: $rsp 16 +
STACK CFI ffc4 $r14: .cfa -24 + ^ .cfa: $rsp 24 +
STACK CFI ffc6 $r13: .cfa -32 + ^ .cfa: $rsp 32 +
STACK CFI ffc8 $r12: .cfa -40 + ^ .cfa: $rsp 40 +
STACK CFI ffc9 $rbp: .cfa -48 + ^ .cfa: $rsp 48 +
STACK CFI ffca $rbx: .cfa -56 + ^ .cfa: $rsp 56 +
STACK CFI ffce .cfa: $rsp 80 +
STACK CFI 10088 .cfa: $rsp 56 +
STACK CFI 1008e .cfa: $rsp 48 +
STACK CFI 1008f .cfa: $rsp 40 +
STACK CFI 10091 .cfa: $rsp 32 +
STACK CFI 10093 .cfa: $rsp 24 +
STACK CFI 10095 .cfa: $rsp 16 +
STACK CFI 10097 .cfa: $rsp 8 +
STACK CFI 100a0 .cfa: $rsp 80 +
STACK CFI 100a4 .cfa: $rsp 56 +
STACK CFI 100aa .cfa: $rsp 48 +
STACK CFI 100ab .cfa: $rsp 40 +
STACK CFI 100ad .cfa: $rsp 32 +
STACK CFI 100af .cfa: $rsp 24 +
STACK CFI 100b1 .cfa: $rsp 16 +
STACK CFI 100b3 .cfa: $rsp 8 +
STACK CFI 100b8 .cfa: $rsp 80 +
STACK CFI 10134 .cfa: $rsp 56 +
STACK CFI 1013a .cfa: $rsp 48 +
STACK CFI 1013b .cfa: $rsp 40 +
STACK CFI 1013d .cfa: $rsp 32 +
STACK CFI 1013f .cfa: $rsp 24 +
STACK CFI 10141 .cfa: $rsp 16 +
STACK CFI 10143 .cfa: $rsp 8 +
STACK CFI INIT 10150 2b2 .cfa: $rsp 8 + .ra: .cfa -8 + ^
STACK CFI 10152 $r15: .cfa -16 + ^ .cfa: $rsp 16 +
STACK CFI 10158 $r14: .cfa -24 + ^ .cfa: $rsp 24 +
STACK CFI 1015a $r13: .cfa -32 + ^ .cfa: $rsp 32 +
STACK CFI 1015c $r12: .cfa -40 + ^ .cfa: $rsp 40 +
STACK CFI 10160 $rbp: .cfa -48 + ^ .cfa: $rsp 48 +
STACK CFI 10161 $rbx: .cfa -56 + ^ .cfa: $rsp 56 +
STACK CFI 10168 .cfa: $rsp 80 +
STACK CFI 10237 .cfa: $rsp 56 +
STACK CFI 1023b .cfa: $rsp 48 +
STACK CFI 1023c .cfa: $rsp 40 +
STACK CFI 1023e .cfa: $rsp 32 +
STACK CFI 10240 .cfa: $rsp 24 +
STACK CFI 10242 .cfa: $rsp 16 +
STACK CFI 10244 .cfa: $rsp 8 +
STACK CFI 10248 .cfa: $rsp 80 +
STACK CFI 10359 .cfa: $rsp 56 +
STACK CFI 1035a .cfa: $rsp 48 +
STACK CFI 1035b .cfa: $rsp 40 +
STACK CFI 1035d .cfa: $rsp 32 +
STACK CFI 1035f .cfa: $rsp 24 +
STACK CFI 10361 .cfa: $rsp 16 +
STACK CFI 10363 .cfa: $rsp 8 +
STACK CFI 10368 .cfa: $rsp 80 +
STACK CFI 103a9 .cfa: $rsp 56 +
STACK CFI 103af .cfa: $rsp 48 +
STACK CFI 103b0 .cfa: $rsp 40 +
STACK CFI 103b2 .cfa: $rsp 32 +
STACK CFI 103b4 .cfa: $rsp 24 +
STACK CFI 103b6 .cfa: $rsp 16 +
STACK CFI 103b8 .cfa: $rsp 8 +
STACK CFI 103c0 .cfa: $rsp 80 +
STACK CFI 103c4 .cfa: $rsp 56 +
STACK CFI 103cb .cfa: $rsp 48 +
STACK CFI 103cc .cfa: $rsp 40 +
STACK CFI 103ce .cfa: $rsp 32 +
STACK CFI 103d0 .cfa: $rsp 24 +
STACK CFI 103d2 .cfa: $rsp 16 +
STACK CFI 103d4 .cfa: $rsp 8 +
STACK CFI 103e0 .cfa: $rsp 80 +
STACK CFI INIT d650 27d .cfa: $rsp 8 + .ra: .cfa -8 + ^
STACK CFI d652 $r15: .cfa -16 + ^ .cfa: $rsp 16 +
STACK CFI d654 $r14: .cfa -24 + ^ .cfa: $rsp 24 +
STACK CFI d656 $r13: .cfa -32 + ^ .cfa: $rsp 32 +
STACK CFI d658 $r12: .cfa -40 + ^ .cfa: $rsp 40 +
STACK CFI d65c $rbp: .cfa -48 + ^ .cfa: $rsp 48 +
STACK CFI d65d $rbx: .cfa -56 + ^ .cfa: $rsp 56 +
STACK CFI d668 .cfa: $rsp 112 +
STACK CFI d7d5 .cfa: $rsp 56 +
STACK CFI d7d6 .cfa: $rsp 48 +
STACK CFI d7d7 .cfa: $rsp 40 +
STACK CFI d7d9 .cfa: $rsp 32 +
STACK CFI d7db .cfa: $rsp 24 +
STACK CFI d7dd .cfa: $rsp 16 +
STACK CFI d7df .cfa: $rsp 8 +
STACK CFI d7e0 .cfa: $rsp 112 +
STACK CFI INIT 10410 18f .cfa: $rsp 8 + .ra: .cfa -8 + ^
STACK CFI 10412 $r15: .cfa -16 + ^ .cfa: $rsp 16 +
STACK CFI 10414 $r14: .cfa -24 + ^ .cfa: $rsp 24 +
STACK CFI 10416 $r13: .cfa -32 + ^ .cfa: $rsp 32 +
STACK CFI 10418 $r12: .cfa -40 + ^ .cfa: $rsp 40 +
STACK CFI 10419 $rbp: .cfa -48 + ^ .cfa: $rsp 48 +
STACK CFI 1041a $rbx: .cfa -56 + ^ .cfa: $rsp 56 +
STACK CFI 10424 .cfa: $rsp 144 +
STACK CFI 1052d .cfa: $rsp 56 +
STACK CFI 1052e .cfa: $rsp 48 +
STACK CFI 1052f .cfa: $rsp 40 +
STACK CFI 10531 .cfa: $rsp 32 +
STACK CFI 10533 .cfa: $rsp 24 +
STACK CFI 10535 .cfa: $rsp 16 +
STACK CFI 10537 .cfa: $rsp 8 +
STACK CFI 10538 .cfa: $rsp 144 +
STACK CFI INIT 105a0 3d5 .cfa: $rsp 8 + .ra: .cfa -8 + ^
STACK CFI 105a2 $r15: .cfa -16 + ^ .cfa: $rsp 16 +
STACK CFI 105a4 $r14: .cfa -24 + ^ .cfa: $rsp 24 +
STACK CFI 105a9 $r13: .cfa -32 + ^ .cfa: $rsp 32 +
STACK CFI 105ab $r12: .cfa -40 + ^ .cfa: $rsp 40 +
STACK CFI 105af $rbp: .cfa -48 + ^ .cfa: $rsp 48 +
STACK CFI 105b0 $rbx: .cfa -56 + ^ .cfa: $rsp 56 +
STACK CFI 105ba .cfa: $rsp 80 +
STACK CFI 1062c .cfa: $rsp 56 +
STACK CFI 1062d .cfa: $rsp 48 +
STACK CFI 1062e .cfa: $rsp 40 +
STACK CFI 10630 .cfa: $rsp 32 +
STACK CFI 10632 .cfa: $rsp 24 +
STACK CFI 10634 .cfa: $rsp 16 +
STACK CFI 10636 .cfa: $rsp 8 +
STACK CFI 10640 .cfa: $rsp 80 +
STACK CFI INIT 10980 12d .cfa: $rsp 8 + .ra: .cfa -8 + ^
STACK CFI 10982 $r15: .cfa -16 + ^ .cfa: $rsp 16 +
STACK CFI 10984 $r14: .cfa -24 + ^ .cfa: $rsp 24 +
STACK CFI 10986 $r13: .cfa -32 + ^ .cfa: $rsp 32 +
STACK CFI 10988 $r12: .cfa -40 + ^ .cfa: $rsp 40 +
STACK CFI 1098c $rbp: .cfa -48 + ^ .cfa: $rsp 48 +
STACK CFI 1098d $rbx: .cfa -56 + ^ .cfa: $rsp 56 +
STACK CFI 10997 .cfa: $rsp 128 +
STACK CFI 10a5a .cfa: $rsp 56 +
STACK CFI 10a5b .cfa: $rsp 48 +
STACK CFI 10a5c .cfa: $rsp 40 +
STACK CFI 10a5e .cfa: $rsp 32 +
STACK CFI 10a60 .cfa: $rsp 24 +
STACK CFI 10a62 .cfa: $rsp 16 +
STACK CFI 10a64 .cfa: $rsp 8 +
STACK CFI 10a68 .cfa: $rsp 128 +
STACK CFI INIT d8d0 6f .cfa: $rsp 8 + .ra: .cfa -8 + ^
STACK CFI d8d1 $rbx: .cfa -16 + ^ .cfa: $rsp 16 +
STACK CFI d8d8 .cfa: $rsp 48 +
STACK CFI d8f3 .cfa: $rsp 56 +
STACK CFI d8fc .cfa: $rsp 64 +
STACK CFI d911 .cfa: $rsp 56 +
STACK CFI d919 .cfa: $rsp 48 +
STACK CFI d935 .cfa: $rsp 16 +
STACK CFI d939 .cfa: $rsp 8 +
STACK CFI d93a .cfa: $rsp 48 +
STACK CFI INIT d940 411 .cfa: $rsp 8 + .ra: .cfa -8 + ^
STACK CFI d942 $r13: .cfa -16 + ^ .cfa: $rsp 16 +
STACK CFI d944 $r12: .cfa -24 + ^ .cfa: $rsp 24 +
STACK CFI d948 $rbp: .cfa -32 + ^ .cfa: $rsp 32 +
STACK CFI d949 $rbx: .cfa -40 + ^ .cfa: $rsp 40 +
STACK CFI d950 .cfa: $rsp 160 +
STACK CFI d992 .cfa: $rsp 40 +
STACK CFI d993 .cfa: $rsp 32 +
STACK CFI d994 .cfa: $rsp 24 +
STACK CFI d996 .cfa: $rsp 16 +
STACK CFI d998 .cfa: $rsp 8 +
STACK CFI d9a0 .cfa: $rsp 160 +
STACK CFI INIT 10ab0 8a .cfa: $rsp 8 + .ra: .cfa -8 + ^
STACK CFI 10ab1 $rbp: .cfa -16 + ^ .cfa: $rsp 16 +
STACK CFI 10ab2 $rbx: .cfa -24 + ^ .cfa: $rsp 24 +
STACK CFI 10ab6 .cfa: $rsp 32 +
STACK CFI 10b0b .cfa: $rsp 24 +
STACK CFI 10b0c .cfa: $rsp 16 +
STACK CFI 10b0d .cfa: $rsp 8 +
STACK CFI 10b10 .cfa: $rsp 32 +
STACK CFI INIT 10b40 f0 .cfa: $rsp 8 + .ra: .cfa -8 + ^
STACK CFI 10b42 $r13: .cfa -16 + ^ .cfa: $rsp 16 +
STACK CFI 10b48 $r12: .cfa -24 + ^ .cfa: $rsp 24 +
STACK CFI 10b49 $rbp: .cfa -32 + ^ .cfa: $rsp 32 +
STACK CFI 10b4a $rbx: .cfa -40 + ^ .cfa: $rsp 40 +
STACK CFI 10b54 .cfa: $rsp 48 +
STACK CFI 10b98 .cfa: $rsp 40 +
STACK CFI 10b99 .cfa: $rsp 32 +
STACK CFI 10b9a .cfa: $rsp 24 +
STACK CFI 10b9c .cfa: $rsp 16 +
STACK CFI 10b9e .cfa: $rsp 8 +
STACK CFI 10ba0 .cfa: $rsp 48 +
STACK CFI 10bf0 .cfa: $rsp 40 +
STACK CFI 10bf7 .cfa: $rsp 32 +
STACK CFI 10bf8 .cfa: $rsp 24 +
STACK CFI 10bfa .cfa: $rsp 16 +
STACK CFI 10bfc .cfa: $rsp 8 +
STACK CFI 10c08 .cfa: $rsp 48 +
STACK CFI 10c0c .cfa: $rsp 40 +
STACK CFI 10c12 .cfa: $rsp 32 +
STACK CFI 10c13 .cfa: $rsp 24 +
STACK CFI 10c15 .cfa: $rsp 16 +
STACK CFI 10c17 .cfa: $rsp 8 +
STACK CFI 10c20 .cfa: $rsp 48 +
STACK CFI 10c24 .cfa: $rsp 40 +
STACK CFI 10c2a .cfa: $rsp 32 +
STACK CFI 10c2b .cfa: $rsp 24 +
STACK CFI 10c2d .cfa: $rsp 16 +
STACK CFI 10c2f .cfa: $rsp 8 +
STACK CFI INIT dd60 512 .cfa: $rsp 8 + .ra: .cfa -8 + ^
STACK CFI dd62 $r15: .cfa -16 + ^ .cfa: $rsp 16 +
STACK CFI dd64 $r14: .cfa -24 + ^ .cfa: $rsp 24 +
STACK CFI dd66 $r13: .cfa -32 + ^ .cfa: $rsp 32 +
STACK CFI dd68 $r12: .cfa -40 + ^ .cfa: $rsp 40 +
STACK CFI dd6c $rbp: .cfa -48 + ^ .cfa: $rsp 48 +
STACK CFI dd6d $rbx: .cfa -56 + ^ .cfa: $rsp 56 +
STACK CFI dd7b .cfa: $rsp 224 +
STACK CFI e08e .cfa: $rsp 56 +
STACK CFI e08f .cfa: $rsp 48 +
STACK CFI e090 .cfa: $rsp 40 +
STACK CFI e092 .cfa: $rsp 32 +
STACK CFI e094 .cfa: $rsp 24 +
STACK CFI e096 .cfa: $rsp 16 +
STACK CFI e098 .cfa: $rsp 8 +
STACK CFI e0a0 .cfa: $rsp 224 +
STACK CFI INIT e280 15a .cfa: $rsp 8 + .ra: .cfa -8 + ^
STACK CFI e281 $rbp: .cfa -16 + ^ .cfa: $rsp 16 +
STACK CFI e282 $rbx: .cfa -24 + ^ .cfa: $rsp 24 +
STACK CFI e28c .cfa: $rsp 80 +
STACK CFI e35c .cfa: $rsp 24 +
STACK CFI e35d .cfa: $rsp 16 +
STACK CFI e35e .cfa: $rsp 8 +
STACK CFI e360 .cfa: $rsp 80 +
STACK CFI INIT e3e0 132 .cfa: $rsp 8 + .ra: .cfa -8 + ^
STACK CFI e3e1 $rbp: .cfa -16 + ^ .cfa: $rsp 16 +
STACK CFI e3e2 $rbx: .cfa -24 + ^ .cfa: $rsp 24 +
STACK CFI e3ec .cfa: $rsp 80 +
STACK CFI e496 .cfa: $rsp 24 +
STACK CFI e497 .cfa: $rsp 16 +
STACK CFI e498 .cfa: $rsp 8 +
STACK CFI e4a0 .cfa: $rsp 80 +
STACK CFI INIT 10c30 8a .cfa: $rsp 8 + .ra: .cfa -8 + ^
STACK CFI 10c31 $rbp: .cfa -16 + ^ .cfa: $rsp 16 +
STACK CFI 10c32 $rbx: .cfa -24 + ^ .cfa: $rsp 24 +
STACK CFI 10c36 .cfa: $rsp 32 +
STACK CFI 10c8b .cfa: $rsp 24 +
STACK CFI 10c8c .cfa: $rsp 16 +
STACK CFI 10c8d .cfa: $rsp 8 +
STACK CFI 10c90 .cfa: $rsp 32 +
STACK CFI INIT 10cc0 f0 .cfa: $rsp 8 + .ra: .cfa -8 + ^
STACK CFI 10cc2 $r13: .cfa -16 + ^ .cfa: $rsp 16 +
STACK CFI 10cc8 $r12: .cfa -24 + ^ .cfa: $rsp 24 +
STACK CFI 10cc9 $rbp: .cfa -32 + ^ .cfa: $rsp 32 +
STACK CFI 10cca $rbx: .cfa -40 + ^ .cfa: $rsp 40 +
STACK CFI 10cd4 .cfa: $rsp 48 +
STACK CFI 10d18 .cfa: $rsp 40 +
STACK CFI 10d19 .cfa: $rsp 32 +
STACK CFI 10d1a .cfa: $rsp 24 +
STACK CFI 10d1c .cfa: $rsp 16 +
STACK CFI 10d1e .cfa: $rsp 8 +
STACK CFI 10d20 .cfa: $rsp 48 +
STACK CFI 10d70 .cfa: $rsp 40 +
STACK CFI 10d77 .cfa: $rsp 32 +
STACK CFI 10d78 .cfa: $rsp 24 +
STACK CFI 10d7a .cfa: $rsp 16 +
STACK CFI 10d7c .cfa: $rsp 8 +
STACK CFI 10d88 .cfa: $rsp 48 +
STACK CFI 10d8c .cfa: $rsp 40 +
STACK CFI 10d92 .cfa: $rsp 32 +
STACK CFI 10d93 .cfa: $rsp 24 +
STACK CFI 10d95 .cfa: $rsp 16 +
STACK CFI 10d97 .cfa: $rsp 8 +
STACK CFI 10da0 .cfa: $rsp 48 +
STACK CFI 10da4 .cfa: $rsp 40 +
STACK CFI 10daa .cfa: $rsp 32 +
STACK CFI 10dab .cfa: $rsp 24 +
STACK CFI 10dad .cfa: $rsp 16 +
STACK CFI 10daf .cfa: $rsp 8 +
STACK CFI INIT e520 4ea .cfa: $rsp 8 + .ra: .cfa -8 + ^
STACK CFI e522 $r15: .cfa -16 + ^ .cfa: $rsp 16 +
STACK CFI e524 $r14: .cfa -24 + ^ .cfa: $rsp 24 +
STACK CFI e526 $r13: .cfa -32 + ^ .cfa: $rsp 32 +
STACK CFI e528 $r12: .cfa -40 + ^ .cfa: $rsp 40 +
STACK CFI e529 $rbp: .cfa -48 + ^ .cfa: $rsp 48 +
STACK CFI e52a $rbx: .cfa -56 + ^ .cfa: $rsp 56 +
STACK CFI e531 .cfa: $rsp 176 +
STACK CFI e73c .cfa: $rsp 56 +
STACK CFI e73d .cfa: $rsp 48 +
STACK CFI e73e .cfa: $rsp 40 +
STACK CFI e740 .cfa: $rsp 32 +
STACK CFI e742 .cfa: $rsp 24 +
STACK CFI e744 .cfa: $rsp 16 +
STACK CFI e746 .cfa: $rsp 8 +
STACK CFI e750 .cfa: $rsp 176 +
STACK CFI INIT 10db0 b2 .cfa: $rsp 8 + .ra: .cfa -8 + ^
STACK CFI 10dbb $r15: .cfa -16 + ^ .cfa: $rsp 16 +
STACK CFI 10dbd $r14: .cfa -24 + ^ .cfa: $rsp 24 +
STACK CFI 10dbf $r13: .cfa -32 + ^ .cfa: $rsp 32 +
STACK CFI 10dc1 $r12: .cfa -40 + ^ .cfa: $rsp 40 +
STACK CFI 10dc2 $rbp: .cfa -48 + ^ .cfa: $rsp 48 +
STACK CFI 10dc3 $rbx: .cfa -56 + ^ .cfa: $rsp 56 +
STACK CFI 10dcb .cfa: $rsp 80 +
STACK CFI 10e55 .cfa: $rsp 56 +
STACK CFI 10e56 .cfa: $rsp 48 +
STACK CFI 10e57 .cfa: $rsp 40 +
STACK CFI 10e59 .cfa: $rsp 32 +
STACK CFI 10e5b .cfa: $rsp 24 +
STACK CFI 10e5d .cfa: $rsp 16 +
STACK CFI 10e5f .cfa: $rsp 8 +
STACK CFI 10e60 $r12: $r12 $r13: $r13 $r14: $r14 $r15: $r15 $rbp: $rbp $rbx: $rbx
STACK CFI INIT 10e70 133 .cfa: $rsp 8 + .ra: .cfa -8 + ^
STACK CFI 10e72 $r14: .cfa -16 + ^ .cfa: $rsp 16 +
STACK CFI 10e74 $r13: .cfa -24 + ^ .cfa: $rsp 24 +
STACK CFI 10e79 $r12: .cfa -32 + ^ .cfa: $rsp 32 +
STACK CFI 10e7d $rbp: .cfa -40 + ^ .cfa: $rsp 40 +
STACK CFI 10e81 $rbx: .cfa -48 + ^ .cfa: $rsp 48 +
STACK CFI 10ee8 .cfa: $rsp 40 +
STACK CFI 10ee9 .cfa: $rsp 32 +
STACK CFI 10eeb .cfa: $rsp 24 +
STACK CFI 10eed .cfa: $rsp 16 +
STACK CFI 10eef .cfa: $rsp 8 +
STACK CFI 10ef0 .cfa: $rsp 48 +
STACK CFI 10f3d .cfa: $rsp 40 +
STACK CFI 10f3e .cfa: $rsp 32 +
STACK CFI 10f40 .cfa: $rsp 24 +
STACK CFI 10f42 .cfa: $rsp 16 +
STACK CFI 10f44 .cfa: $rsp 8 +
STACK CFI 10f48 .cfa: $rsp 48 +
STACK CFI 10f69 .cfa: $rsp 40 +
STACK CFI 10f6a .cfa: $rsp 32 +
STACK CFI 10f6c .cfa: $rsp 24 +
STACK CFI 10f6e .cfa: $rsp 16 +
STACK CFI 10f70 .cfa: $rsp 8 +
STACK CFI 10f78 .cfa: $rsp 48 +
STACK CFI INIT 10fb0 99 .cfa: $rsp 8 + .ra: .cfa -8 + ^
STACK CFI 10fb2 $r13: .cfa -16 + ^ .cfa: $rsp 16 +
STACK CFI 10fb4 $r12: .cfa -24 + ^ .cfa: $rsp 24 +
STACK CFI 10fb8 $rbp: .cfa -32 + ^ .cfa: $rsp 32 +
STACK CFI 10fb9 $rbx: .cfa -40 + ^ .cfa: $rsp 40 +
STACK CFI 10fc1 .cfa: $rsp 96 +
STACK CFI 1103d .cfa: $rsp 40 +
STACK CFI 1103e .cfa: $rsp 32 +
STACK CFI 1103f .cfa: $rsp 24 +
STACK CFI 11041 .cfa: $rsp 16 +
STACK CFI 11043 .cfa: $rsp 8 +
STACK CFI 11044 .cfa: $rsp 96 +
STACK CFI INIT 11050 ca .cfa: $rsp 8 + .ra: .cfa -8 + ^
STACK CFI 1105b $r15: .cfa -16 + ^ .cfa: $rsp 16 +
STACK CFI 1105d $r14: .cfa -24 + ^ .cfa: $rsp 24 +
STACK CFI 11063 $r13: .cfa -32 + ^ .cfa: $rsp 32 +
STACK CFI 11065 $r12: .cfa -40 + ^ .cfa: $rsp 40 +
STACK CFI 11066 $rbp: .cfa -48 + ^ .cfa: $rsp 48 +
STACK CFI 11067 $rbx: .cfa -56 + ^ .cfa: $rsp 56 +
STACK CFI 1106b .cfa: $rsp 96 +
STACK CFI 11109 .cfa: $rsp 56 +
STACK CFI 1110a .cfa: $rsp 48 +
STACK CFI 1110b .cfa: $rsp 40 +
STACK CFI 1110d .cfa: $rsp 32 +
STACK CFI 1110f .cfa: $rsp 24 +
STACK CFI 11111 .cfa: $rsp 16 +
STACK CFI 11113 .cfa: $rsp 8 +
STACK CFI 11118 $r12: $r12 $r13: $r13 $r14: $r14 $r15: $r15 $rbp: $rbp $rbx: $rbx
STACK CFI INIT 11120 17b .cfa: $rsp 8 + .ra: .cfa -8 + ^
STACK CFI 11126 $r15: .cfa -16 + ^ .cfa: $rsp 16 +
STACK CFI 11128 $r14: .cfa -24 + ^ .cfa: $rsp 24 +
STACK CFI 1112a $r13: .cfa -32 + ^ .cfa: $rsp 32 +
STACK CFI 1112c $r12: .cfa -40 + ^ .cfa: $rsp 40 +
STACK CFI 11130 $rbp: .cfa -48 + ^ .cfa: $rsp 48 +
STACK CFI 11134 $rbx: .cfa -56 + ^ .cfa: $rsp 56 +
STACK CFI 11145 .cfa: $rsp 112 +
STACK CFI 11248 .cfa: $rsp 56 +
STACK CFI 11249 .cfa: $rsp 48 +
STACK CFI 1124a .cfa: $rsp 40 +
STACK CFI 1124c .cfa: $rsp 32 +
STACK CFI 1124e .cfa: $rsp 24 +
STACK CFI 11250 .cfa: $rsp 16 +
STACK CFI 11252 .cfa: $rsp 8 +
STACK CFI 11258 .cfa: $rsp 112 +
STACK CFI INIT 112a0 24d .cfa: $rsp 8 + .ra: .cfa -8 + ^
STACK CFI 112a2 $r15: .cfa -16 + ^ .cfa: $rsp 16 +
STACK CFI 112a7 $r14: .cfa -24 + ^ .cfa: $rsp 24 +
STACK CFI 112a9 $r13: .cfa -32 + ^ .cfa: $rsp 32 +
STACK CFI 112ab $r12: .cfa -40 + ^ .cfa: $rsp 40 +
STACK CFI 112af $rbp: .cfa -48 + ^ .cfa: $rsp 48 +
STACK CFI 112b0 $rbx: .cfa -56 + ^ .cfa: $rsp 56 +
STACK CFI 112b7 .cfa: $rsp 96 +
STACK CFI 11463 .cfa: $rsp 56 +
STACK CFI 11464 .cfa: $rsp 48 +
STACK CFI 11465 .cfa: $rsp 40 +
STACK CFI 11467 .cfa: $rsp 32 +
STACK CFI 11469 .cfa: $rsp 24 +
STACK CFI 1146b .cfa: $rsp 16 +
STACK CFI 1146d .cfa: $rsp 8 +
STACK CFI 11470 .cfa: $rsp 96 +
STACK CFI INIT 114f0 244 .cfa: $rsp 8 + .ra: .cfa -8 + ^
STACK CFI 114f2 $r15: .cfa -16 + ^ .cfa: $rsp 16 +
STACK CFI 114f4 $r14: .cfa -24 + ^ .cfa: $rsp 24 +
STACK CFI 114f6 $r13: .cfa -32 + ^ .cfa: $rsp 32 +
STACK CFI 114f8 $r12: .cfa -40 + ^ .cfa: $rsp 40 +
STACK CFI 114f9 $rbp: .cfa -48 + ^ .cfa: $rsp 48 +
STACK CFI 114fa $rbx: .cfa -56 + ^ .cfa: $rsp 56 +
STACK CFI 11507 .cfa: $rsp 160 +
STACK CFI 116a0 .cfa: $rsp 56 +
STACK CFI 116a1 .cfa: $rsp 48 +
STACK CFI 116a2 .cfa: $rsp 40 +
STACK CFI 116a4 .cfa: $rsp 32 +
STACK CFI 116a6 .cfa: $rsp 24 +
STACK CFI 116a8 .cfa: $rsp 16 +
STACK CFI 116aa .cfa: $rsp 8 +
STACK CFI 116b0 .cfa: $rsp 160 +
STACK CFI INIT 11740 21a .cfa: $rsp 8 + .ra: .cfa -8 + ^
STACK CFI 11742 $r15: .cfa -16 + ^ .cfa: $rsp 16 +
STACK CFI 11747 $r14: .cfa -24 + ^ .cfa: $rsp 24 +
STACK CFI 11749 $r13: .cfa -32 + ^ .cfa: $rsp 32 +
STACK CFI 1174b $r12: .cfa -40 + ^ .cfa: $rsp 40 +
STACK CFI 1174f $rbp: .cfa -48 + ^ .cfa: $rsp 48 +
STACK CFI 11750 $rbx: .cfa -56 + ^ .cfa: $rsp 56 +
STACK CFI 11757 .cfa: $rsp 128 +
STACK CFI 118b7 .cfa: $rsp 136 +
STACK CFI 118b8 .cfa: $rsp 144 +
STACK CFI 118bc .cfa: $rsp 152 +
STACK CFI 118bd .cfa: $rsp 160 +
STACK CFI 118cc .cfa: $rsp 128 +
STACK CFI 11926 .cfa: $rsp 136 +
STACK CFI 11927 .cfa: $rsp 144 +
STACK CFI 1192b .cfa: $rsp 152 +
STACK CFI 1192c .cfa: $rsp 160 +
STACK CFI 1193a .cfa: $rsp 128 +
STACK CFI 11944 .cfa: $rsp 56 +
STACK CFI 11945 .cfa: $rsp 48 +
STACK CFI 11946 .cfa: $rsp 40 +
STACK CFI 11948 .cfa: $rsp 32 +
STACK CFI 1194a .cfa: $rsp 24 +
STACK CFI 1194c .cfa: $rsp 16 +
STACK CFI 1194e .cfa: $rsp 8 +
STACK CFI 1194f .cfa: $rsp 128 +
STACK CFI INIT ea10 899 .cfa: $rsp 8 + .ra: .cfa -8 + ^
STACK CFI ea12 $r15: .cfa -16 + ^ .cfa: $rsp 16 +
STACK CFI ea14 $r14: .cfa -24 + ^ .cfa: $rsp 24 +
STACK CFI ea19 $r13: .cfa -32 + ^ .cfa: $rsp 32 +
STACK CFI ea1b $r12: .cfa -40 + ^ .cfa: $rsp 40 +
STACK CFI ea1c $rbp: .cfa -48 + ^ .cfa: $rsp 48 +
STACK CFI ea1d $rbx: .cfa -56 + ^ .cfa: $rsp 56 +
STACK CFI ea21 .cfa: $rsp 160 +
STACK CFI ed1a .cfa: $rsp 168 +
STACK CFI ed1f .cfa: $rsp 176 +
STACK CFI ed52 .cfa: $rsp 168 +
STACK CFI ed53 .cfa: $rsp 160 +
STACK CFI f0ca .cfa: $rsp 56 +
STACK CFI f0cb .cfa: $rsp 48 +
STACK CFI f0cc .cfa: $rsp 40 +
STACK CFI f0ce .cfa: $rsp 32 +
STACK CFI f0d0 .cfa: $rsp 24 +
STACK CFI f0d2 .cfa: $rsp 16 +
STACK CFI f0d4 .cfa: $rsp 8 +
STACK CFI f0d8 .cfa: $rsp 160 +
STACK CFI INIT f2b0 86 .cfa: $rsp 8 + .ra: .cfa -8 + ^
STACK CFI f2b1 $rbp: .cfa -16 + ^ .cfa: $rsp 16 +
STACK CFI f2b2 $rbx: .cfa -24 + ^ .cfa: $rsp 24 +
STACK CFI f2b9 .cfa: $rsp 32 +
STACK CFI f30e .cfa: $rsp 24 +
STACK CFI f30f .cfa: $rsp 16 +
STACK CFI f310 .cfa: $rsp 8 +
STACK CFI f318 .cfa: $rsp 32 +
STACK CFI f322 .cfa: $rsp 24 +
STACK CFI f323 .cfa: $rsp 16 +
STACK CFI f324 .cfa: $rsp 8 +
STACK CFI f328 .cfa: $rsp 32 +
STACK CFI INIT 83d0 2e .cfa: $rsp 8 + .ra: .cfa -8 + ^
STACK CFI 83db .cfa: $rsp 16 +
STACK CFI 83f9 .cfa: $rsp 8 +
STACK CFI INIT 11960 c8 .cfa: $rsp 8 + .ra: .cfa -8 + ^
STACK CFI 11962 $r12: .cfa -16 + ^ .cfa: $rsp 16 +
STACK CFI 11963 $rbp: .cfa -24 + ^ .cfa: $rsp 24 +
STACK CFI 11967 $rbx: .cfa -32 + ^ .cfa: $rsp 32 +
STACK CFI 1196e .cfa: $rsp 48 +
STACK CFI 119d4 .cfa: $rsp 32 +
STACK CFI 119d5 .cfa: $rsp 24 +
STACK CFI 119d6 .cfa: $rsp 16 +
STACK CFI 119d8 .cfa: $rsp 8 +
STACK CFI 119e0 .cfa: $rsp 48 +
STACK CFI INIT 11a30 196 .cfa: $rsp 8 + .ra: .cfa -8 + ^
STACK CFI 11a32 $r12: .cfa -16 + ^ .cfa: $rsp 16 +
STACK CFI 11a33 $rbp: .cfa -24 + ^ .cfa: $rsp 24 +
STACK CFI 11a37 $rbx: .cfa -32 + ^ .cfa: $rsp 32 +
STACK CFI 11a3e .cfa: $rsp 80 +
STACK CFI 11b51 .cfa: $rsp 32 +
STACK CFI 11b52 .cfa: $rsp 24 +
STACK CFI 11b53 .cfa: $rsp 16 +
STACK CFI 11b55 .cfa: $rsp 8 +
STACK CFI 11b60 .cfa: $rsp 80 +
STACK CFI INIT 122b0 52 .cfa: $rsp 8 + .ra: .cfa -8 + ^
STACK CFI 122b7 $r12: .cfa -16 + ^ .cfa: $rsp 16 +
STACK CFI 122bb $rbp: .cfa -24 + ^ .cfa: $rsp 24 +
STACK CFI 122bc $rbx: .cfa -32 + ^ .cfa: $rsp 32 +
STACK CFI 122f2 .cfa: $rsp 24 +
STACK CFI 122f3 .cfa: $rsp 16 +
STACK CFI 122f5 .cfa: $rsp 8 +
STACK CFI 12300 $r12: $r12 $rbp: $rbp $rbx: $rbx
STACK CFI INIT 12310 3a .cfa: $rsp 8 + .ra: .cfa -8 + ^
STACK CFI 12317 $r12: .cfa -16 + ^ .cfa: $rsp 16 +
STACK CFI 1231b $rbp: .cfa -24 + ^ .cfa: $rsp 24 +
STACK CFI 1231c $rbx: .cfa -32 + ^ .cfa: $rsp 32 +
STACK CFI 12340 .cfa: $rsp 24 +
STACK CFI 12341 .cfa: $rsp 16 +
STACK CFI 12343 .cfa: $rsp 8 +
STACK CFI 12348 $r12: $r12 $rbp: $rbp $rbx: $rbx
STACK CFI INIT 12350 42 .cfa: $rsp 8 + .ra: .cfa -8 + ^
STACK CFI 12358 $rbx: .cfa -16 + ^ .cfa: $rsp 16 +
STACK CFI 1238b .cfa: $rsp 8 +
STACK CFI 12390 .cfa: $rsp 16 +
STACK CFI 12391 .cfa: $rsp 8 +
STACK CFI INIT 123a0 4d .cfa: $rsp 8 + .ra: .cfa -8 + ^
STACK CFI 123a8 $rbx: .cfa -16 + ^ .cfa: $rsp 16 +
STACK CFI 123e8 .cfa: $rsp 8 +
STACK CFI INIT 123f0 4b .cfa: $rsp 8 + .ra: .cfa -8 + ^
STACK CFI 123f1 $rbp: .cfa -16 + ^ .cfa: $rsp 16 +
STACK CFI 123f2 $rbx: .cfa -24 + ^ .cfa: $rsp 24 +
STACK CFI 12405 .cfa: $rsp 32 +
STACK CFI 1241b .cfa: $rsp 24 +
STACK CFI 1241f .cfa: $rsp 16 +
STACK CFI 12420 .cfa: $rsp 8 +
STACK CFI 12428 .cfa: $rsp 32 +
STACK CFI INIT 12440 89 .cfa: $rsp 8 + .ra: .cfa -8 + ^
STACK CFI 12441 $rbp: .cfa -16 + ^ .cfa: $rsp 16 +
STACK CFI 12442 $rbx: .cfa -24 + ^ .cfa: $rsp 24 +
STACK CFI 12446 .cfa: $rsp 32 +
STACK CFI 1249a .cfa: $rsp 24 +
STACK CFI 1249b .cfa: $rsp 16 +
STACK CFI 1249c .cfa: $rsp 8 +
STACK CFI 124a0 .cfa: $rsp 32 +
STACK CFI INIT 124d0 e0 .cfa: $rsp 8 + .ra: .cfa -8 + ^
STACK CFI 124d2 $r13: .cfa -16 + ^ .cfa: $rsp 16 +
STACK CFI 124d8 $r12: .cfa -24 + ^ .cfa: $rsp 24 +
STACK CFI 124d9 $rbp: .cfa -32 + ^ .cfa: $rsp 32 +
STACK CFI 124da $rbx: .cfa -40 + ^ .cfa: $rsp 40 +
STACK CFI 124e4 .cfa: $rsp 48 +
STACK CFI 12528 .cfa: $rsp 40 +
STACK CFI 12529 .cfa: $rsp 32 +
STACK CFI 1252a .cfa: $rsp 24 +
STACK CFI 1252c .cfa: $rsp 16 +
STACK CFI 1252e .cfa: $rsp 8 +
STACK CFI 12530 .cfa: $rsp 48 +
STACK CFI 1257e .cfa: $rsp 40 +
STACK CFI 12585 .cfa: $rsp 32 +
STACK CFI 12586 .cfa: $rsp 24 +
STACK CFI 12588 .cfa: $rsp 16 +
STACK CFI 1258a .cfa: $rsp 8 +
STACK CFI 12590 .cfa: $rsp 48 +
STACK CFI 12594 .cfa: $rsp 40 +
STACK CFI 1259a .cfa: $rsp 32 +
STACK CFI 1259b .cfa: $rsp 24 +
STACK CFI 1259d .cfa: $rsp 16 +
STACK CFI 1259f .cfa: $rsp 8 +
STACK CFI 125a0 .cfa: $rsp 48 +
STACK CFI 125a4 .cfa: $rsp 40 +
STACK CFI 125aa .cfa: $rsp 32 +
STACK CFI 125ab .cfa: $rsp 24 +
STACK CFI 125ad .cfa: $rsp 16 +
STACK CFI 125af .cfa: $rsp 8 +
STACK CFI INIT 11bd0 255 .cfa: $rsp 8 + .ra: .cfa -8 + ^
STACK CFI 11bd2 $r15: .cfa -16 + ^ .cfa: $rsp 16 +
STACK CFI 11bd4 $r14: .cfa -24 + ^ .cfa: $rsp 24 +
STACK CFI 11bd6 $r13: .cfa -32 + ^ .cfa: $rsp 32 +
STACK CFI 11bd8 $r12: .cfa -40 + ^ .cfa: $rsp 40 +
STACK CFI 11bd9 $rbp: .cfa -48 + ^ .cfa: $rsp 48 +
STACK CFI 11bda $rbx: .cfa -56 + ^ .cfa: $rsp 56 +
STACK CFI 11bde .cfa: $rsp 128 +
STACK CFI 11c0a .cfa: $rsp 56 +
STACK CFI 11c0b .cfa: $rsp 48 +
STACK CFI 11c0c .cfa: $rsp 40 +
STACK CFI 11c0e .cfa: $rsp 32 +
STACK CFI 11c10 .cfa: $rsp 24 +
STACK CFI 11c12 .cfa: $rsp 16 +
STACK CFI 11c14 .cfa: $rsp 8 +
STACK CFI 11c18 .cfa: $rsp 128 +
STACK CFI INIT 125b0 89 .cfa: $rsp 8 + .ra: .cfa -8 + ^
STACK CFI 125b1 $rbp: .cfa -16 + ^ .cfa: $rsp 16 +
STACK CFI 125b2 $rbx: .cfa -24 + ^ .cfa: $rsp 24 +
STACK CFI 125b6 .cfa: $rsp 32 +
STACK CFI 1260a .cfa: $rsp 24 +
STACK CFI 1260b .cfa: $rsp 16 +
STACK CFI 1260c .cfa: $rsp 8 +
STACK CFI 12610 .cfa: $rsp 32 +
STACK CFI INIT 12640 e0 .cfa: $rsp 8 + .ra: .cfa -8 + ^
STACK CFI 12642 $r13: .cfa -16 + ^ .cfa: $rsp 16 +
STACK CFI 12648 $r12: .cfa -24 + ^ .cfa: $rsp 24 +
STACK CFI 12649 $rbp: .cfa -32 + ^ .cfa: $rsp 32 +
STACK CFI 1264a $rbx: .cfa -40 + ^ .cfa: $rsp 40 +
STACK CFI 12654 .cfa: $rsp 48 +
STACK CFI 12698 .cfa: $rsp 40 +
STACK CFI 12699 .cfa: $rsp 32 +
STACK CFI 1269a .cfa: $rsp 24 +
STACK CFI 1269c .cfa: $rsp 16 +
STACK CFI 1269e .cfa: $rsp 8 +
STACK CFI 126a0 .cfa: $rsp 48 +
STACK CFI 126ee .cfa: $rsp 40 +
STACK CFI 126f5 .cfa: $rsp 32 +
STACK CFI 126f6 .cfa: $rsp 24 +
STACK CFI 126f8 .cfa: $rsp 16 +
STACK CFI 126fa .cfa: $rsp 8 +
STACK CFI 12700 .cfa: $rsp 48 +
STACK CFI 12704 .cfa: $rsp 40 +
STACK CFI 1270a .cfa: $rsp 32 +
STACK CFI 1270b .cfa: $rsp 24 +
STACK CFI 1270d .cfa: $rsp 16 +
STACK CFI 1270f .cfa: $rsp 8 +
STACK CFI 12710 .cfa: $rsp 48 +
STACK CFI 12714 .cfa: $rsp 40 +
STACK CFI 1271a .cfa: $rsp 32 +
STACK CFI 1271b .cfa: $rsp 24 +
STACK CFI 1271d .cfa: $rsp 16 +
STACK CFI 1271f .cfa: $rsp 8 +
STACK CFI INIT 11e30 27f .cfa: $rsp 8 + .ra: .cfa -8 + ^
STACK CFI 11e32 $r15: .cfa -16 + ^ .cfa: $rsp 16 +
STACK CFI 11e34 $r14: .cfa -24 + ^ .cfa: $rsp 24 +
STACK CFI 11e36 $r13: .cfa -32 + ^ .cfa: $rsp 32 +
STACK CFI 11e38 $r12: .cfa -40 + ^ .cfa: $rsp 40 +
STACK CFI 11e3c $rbp: .cfa -48 + ^ .cfa: $rsp 48 +
STACK CFI 11e3d $rbx: .cfa -56 + ^ .cfa: $rsp 56 +
STACK CFI 11e44 .cfa: $rsp 160 +
STACK CFI 11fd0 .cfa: $rsp 56 +
STACK CFI 11fd1 .cfa: $rsp 48 +
STACK CFI 11fd2 .cfa: $rsp 40 +
STACK CFI 11fd4 .cfa: $rsp 32 +
STACK CFI 11fd6 .cfa: $rsp 24 +
STACK CFI 11fd8 .cfa: $rsp 16 +
STACK CFI 11fda .cfa: $rsp 8 +
STACK CFI 11fe0 .cfa: $rsp 160 +
STACK CFI INIT 120b0 1fc .cfa: $rsp 8 + .ra: .cfa -8 + ^
STACK CFI 120b2 $r15: .cfa -16 + ^ .cfa: $rsp 16 +
STACK CFI 120b4 $r14: .cfa -24 + ^ .cfa: $rsp 24 +
STACK CFI 120b6 $r13: .cfa -32 + ^ .cfa: $rsp 32 +
STACK CFI 120b8 $r12: .cfa -40 + ^ .cfa: $rsp 40 +
STACK CFI 120b9 $rbp: .cfa -48 + ^ .cfa: $rsp 48 +
STACK CFI 120ba $rbx: .cfa -56 + ^ .cfa: $rsp 56 +
STACK CFI 120be .cfa: $rsp 128 +
STACK CFI 12120 .cfa: $rsp 56 +
STACK CFI 12121 .cfa: $rsp 48 +
STACK CFI 12122 .cfa: $rsp 40 +
STACK CFI 12124 .cfa: $rsp 32 +
STACK CFI 12126 .cfa: $rsp 24 +
STACK CFI 12128 .cfa: $rsp 16 +
STACK CFI 1212a .cfa: $rsp 8 +
STACK CFI 12130 .cfa: $rsp 128 +
STACK CFI INIT 8400 2e .cfa: $rsp 8 + .ra: .cfa -8 + ^
STACK CFI 840b .cfa: $rsp 16 +
STACK CFI 8429 .cfa: $rsp 8 +
STACK CFI INIT 12ca0 2 .cfa: $rsp 8 + .ra: .cfa -8 + ^
STACK CFI INIT 12720 5 .cfa: $rsp 8 + .ra: .cfa -8 + ^
STACK CFI INIT 12cb0 a .cfa: $rsp 8 + .ra: .cfa -8 + ^
STACK CFI INIT 12730 148 .cfa: $rsp 8 + .ra: .cfa -8 + ^
STACK CFI 12736 $r14: .cfa -16 + ^ .cfa: $rsp 16 +
STACK CFI 12738 $r12: .cfa -24 + ^ .cfa: $rsp 24 +
STACK CFI 12739 $rbp: .cfa -32 + ^ .cfa: $rsp 32 +
STACK CFI 1273d $rbx: .cfa -40 + ^ .cfa: $rsp 40 +
STACK CFI 1281b .cfa: $rsp 32 +
STACK CFI 1281c .cfa: $rsp 24 +
STACK CFI 1281e .cfa: $rsp 16 +
STACK CFI 12820 .cfa: $rsp 8 +
STACK CFI 12828 .cfa: $rsp 40 +
STACK CFI INIT 12880 206 .cfa: $rsp 8 + .ra: .cfa -8 + ^
STACK CFI 12882 $r15: .cfa -16 + ^ .cfa: $rsp 16 +
STACK CFI 12887 $r14: .cfa -24 + ^ .cfa: $rsp 24 +
STACK CFI 1288c $r13: .cfa -32 + ^ .cfa: $rsp 32 +
STACK CFI 1288e $r12: .cfa -40 + ^ .cfa: $rsp 40 +
STACK CFI 1288f $rbp: .cfa -48 + ^ .cfa: $rsp 48 +
STACK CFI 12890 $rbx: .cfa -56 + ^ .cfa: $rsp 56 +
STACK CFI 12897 .cfa: $rsp 64 +
STACK CFI 129b4 .cfa: $rsp 72 +
STACK CFI 129bb .cfa: $rsp 80 +
STACK CFI 129ce .cfa: $rsp 72 +
STACK CFI 129cf .cfa: $rsp 64 +
STACK CFI 12a5e .cfa: $rsp 56 +
STACK CFI 12a5f .cfa: $rsp 48 +
STACK CFI 12a60 .cfa: $rsp 40 +
STACK CFI 12a62 .cfa: $rsp 32 +
STACK CFI 12a64 .cfa: $rsp 24 +
STACK CFI 12a66 .cfa: $rsp 16 +
STACK CFI 12a68 .cfa: $rsp 8 +
STACK CFI 12a69 .cfa: $rsp 64 +
STACK CFI INIT 12a90 ac .cfa: $rsp 8 + .ra: .cfa -8 + ^
STACK CFI INIT 12b40 e5 .cfa: $rsp 8 + .ra: .cfa -8 + ^
STACK CFI 12b42 $r12: .cfa -16 + ^ .cfa: $rsp 16 +
STACK CFI 12b43 $rbp: .cfa -24 + ^ .cfa: $rsp 24 +
STACK CFI 12b44 $rbx: .cfa -32 + ^ .cfa: $rsp 32 +
STACK CFI 12b5f .cfa: $rsp 40 +
STACK CFI 12b69 .cfa: $rsp 48 +
STACK CFI 12b93 .cfa: $rsp 40 +
STACK CFI 12b94 .cfa: $rsp 32 +
STACK CFI 12bee .cfa: $rsp 24 +
STACK CFI 12bef .cfa: $rsp 16 +
STACK CFI 12bf1 .cfa: $rsp 8 +
STACK CFI 12bf8 .cfa: $rsp 32 +
STACK CFI 12bff .cfa: $rsp 24 +
STACK CFI 12c00 .cfa: $rsp 16 +
STACK CFI 12c02 .cfa: $rsp 8 +
STACK CFI 12c10 .cfa: $rsp 32 +
STACK CFI INIT 12c30 6f .cfa: $rsp 8 + .ra: .cfa -8 + ^
STACK CFI 12c34 .cfa: $rsp 48 +
STACK CFI 12c8e .cfa: $rsp 8 +
STACK CFI 12c90 .cfa: $rsp 48 +
STACK CFI INIT 8430 2e .cfa: $rsp 8 + .ra: .cfa -8 + ^
STACK CFI 843b .cfa: $rsp 16 +
STACK CFI 8459 .cfa: $rsp 8 +
STACK CFI INIT 12ee0 3 .cfa: $rsp 8 + .ra: .cfa -8 + ^
STACK CFI INIT 12ef0 2 .cfa: $rsp 8 + .ra: .cfa -8 + ^
STACK CFI INIT 12f00 2 .cfa: $rsp 8 + .ra: .cfa -8 + ^
STACK CFI INIT 12f10 2 .cfa: $rsp 8 + .ra: .cfa -8 + ^
STACK CFI INIT 12f20 2 .cfa: $rsp 8 + .ra: .cfa -8 + ^
STACK CFI INIT 12f30 2 .cfa: $rsp 8 + .ra: .cfa -8 + ^
STACK CFI INIT 12f40 a .cfa: $rsp 8 + .ra: .cfa -8 + ^
STACK CFI INIT 12f50 a .cfa: $rsp 8 + .ra: .cfa -8 + ^
STACK CFI INIT 12f60 a .cfa: $rsp 8 + .ra: .cfa -8 + ^
STACK CFI INIT 12f70 a .cfa: $rsp 8 + .ra: .cfa -8 + ^
STACK CFI INIT 12f80 a .cfa: $rsp 8 + .ra: .cfa -8 + ^
STACK CFI INIT 12f90 13 .cfa: $rsp 8 + .ra: .cfa -8 + ^
STACK CFI 12f94 .cfa: $rsp 16 +
STACK CFI 12fa2 .cfa: $rsp 8 +
STACK CFI INIT 12fb0 13 .cfa: $rsp 8 + .ra: .cfa -8 + ^
STACK CFI 12fb4 .cfa: $rsp 16 +
STACK CFI 12fc2 .cfa: $rsp 8 +
STACK CFI INIT 12fd0 9d .cfa: $rsp 8 + .ra: .cfa -8 + ^
STACK CFI 12fd1 $rbp: .cfa -16 + ^ .cfa: $rsp 16 +
STACK CFI 12fd2 $rbx: .cfa -24 + ^ .cfa: $rsp 24 +
STACK CFI 12fe0 .cfa: $rsp 48 +
STACK CFI 13036 .cfa: $rsp 24 +
STACK CFI 13037 .cfa: $rsp 16 +
STACK CFI 13038 .cfa: $rsp 8 +
STACK CFI 13040 .cfa: $rsp 48 +
STACK CFI INIT 12cc0 c8 .cfa: $rsp 8 + .ra: .cfa -8 + ^
STACK CFI 12cc2 $r12: .cfa -16 + ^ .cfa: $rsp 16 +
STACK CFI 12cc3 $rbp: .cfa -24 + ^ .cfa: $rsp 24 +
STACK CFI 12cc7 $rbx: .cfa -32 + ^ .cfa: $rsp 32 +
STACK CFI 12cce .cfa: $rsp 48 +
STACK CFI 12d34 .cfa: $rsp 32 +
STACK CFI 12d35 .cfa: $rsp 24 +
STACK CFI 12d36 .cfa: $rsp 16 +
STACK CFI 12d38 .cfa: $rsp 8 +
STACK CFI 12d40 .cfa: $rsp 48 +
STACK CFI INIT 13070 1f .cfa: $rsp 8 + .ra: .cfa -8 + ^
STACK CFI 13075 $rbx: .cfa -16 + ^ .cfa: $rsp 16 +
STACK CFI 1308e .cfa: $rsp 8 +
STACK CFI INIT 12d90 14b .cfa: $rsp 8 + .ra: .cfa -8 + ^
STACK CFI 12d92 $r13: .cfa -16 + ^ .cfa: $rsp 16 +
STACK CFI 12d94 $r12: .cfa -24 + ^ .cfa: $rsp 24 +
STACK CFI 12d98 $rbp: .cfa -32 + ^ .cfa: $rsp 32 +
STACK CFI 12d99 $rbx: .cfa -40 + ^ .cfa: $rsp 40 +
STACK CFI 12da3 .cfa: $rsp 96 +
STACK CFI 12e76 .cfa: $rsp 40 +
STACK CFI 12e77 .cfa: $rsp 32 +
STACK CFI 12e78 .cfa: $rsp 24 +
STACK CFI 12e7a .cfa: $rsp 16 +
STACK CFI 12e7c .cfa: $rsp 8 +
STACK CFI 12e80 .cfa: $rsp 96 +
STACK CFI INIT 13090 45 .cfa: $rsp 8 + .ra: .cfa -8 + ^
STACK CFI 13091 $rbx: .cfa -16 + ^ .cfa: $rsp 16 +
STACK CFI 130a2 .cfa: $rsp 32 +
STACK CFI 130cb .cfa: $rsp 16 +
STACK CFI 130cf .cfa: $rsp 8 +
STACK CFI 130d0 .cfa: $rsp 32 +
STACK CFI INIT 130e0 45 .cfa: $rsp 8 + .ra: .cfa -8 + ^
STACK CFI 130e1 $rbx: .cfa -16 + ^ .cfa: $rsp 16 +
STACK CFI 130f2 .cfa: $rsp 32 +
STACK CFI 1311b .cfa: $rsp 16 +
STACK CFI 1311f .cfa: $rsp 8 +
STACK CFI 13120 .cfa: $rsp 32 +
STACK CFI INIT 13130 45 .cfa: $rsp 8 + .ra: .cfa -8 + ^
STACK CFI 13131 $rbx: .cfa -16 + ^ .cfa: $rsp 16 +
STACK CFI 13142 .cfa: $rsp 32 +
STACK CFI 1316b .cfa: $rsp 16 +
STACK CFI 1316f .cfa: $rsp 8 +
STACK CFI 13170 .cfa: $rsp 32 +
STACK CFI INIT 13180 45 .cfa: $rsp 8 + .ra: .cfa -8 + ^
STACK CFI 13181 $rbx: .cfa -16 + ^ .cfa: $rsp 16 +
STACK CFI 13192 .cfa: $rsp 32 +
STACK CFI 131bb .cfa: $rsp 16 +
STACK CFI 131bf .cfa: $rsp 8 +
STACK CFI 131c0 .cfa: $rsp 32 +
STACK CFI INIT 8460 d0 .cfa: $rsp 8 + .ra: .cfa -8 + ^
STACK CFI 8464 .cfa: $rsp 16 +
STACK CFI 852b .cfa: $rsp 8 +
STACK CFI INIT 131d0 c8 .cfa: $rsp 8 + .ra: .cfa -8 + ^
STACK CFI 131d2 $r12: .cfa -16 + ^ .cfa: $rsp 16 +
STACK CFI 131d3 $rbp: .cfa -24 + ^ .cfa: $rsp 24 +
STACK CFI 131d7 $rbx: .cfa -32 + ^ .cfa: $rsp 32 +
STACK CFI 131de .cfa: $rsp 48 +
STACK CFI 13244 .cfa: $rsp 32 +
STACK CFI 13245 .cfa: $rsp 24 +
STACK CFI 13246 .cfa: $rsp 16 +
STACK CFI 13248 .cfa: $rsp 8 +
STACK CFI 13250 .cfa: $rsp 48 +
STACK CFI INIT 132a0 1e1 .cfa: $rsp 8 + .ra: .cfa -8 + ^
STACK CFI 132a2 $r15: .cfa -16 + ^ .cfa: $rsp 16 +
STACK CFI 132a4 $r14: .cfa -24 + ^ .cfa: $rsp 24 +
STACK CFI 132aa $r13: .cfa -32 + ^ .cfa: $rsp 32 +
STACK CFI 132ac $r12: .cfa -40 + ^ .cfa: $rsp 40 +
STACK CFI 132b0 $rbp: .cfa -48 + ^ .cfa: $rsp 48 +
STACK CFI 132b1 $rbx: .cfa -56 + ^ .cfa: $rsp 56 +
STACK CFI 132c2 .cfa: $rsp 80 +
STACK CFI 13423 .cfa: $rsp 56 +
STACK CFI 13424 .cfa: $rsp 48 +
STACK CFI 13425 .cfa: $rsp 40 +
STACK CFI 13427 .cfa: $rsp 32 +
STACK CFI 13429 .cfa: $rsp 24 +
STACK CFI 1342b .cfa: $rsp 16 +
STACK CFI 1342d .cfa: $rsp 8 +
STACK CFI 1342e .cfa: $rsp 80 +
STACK CFI INIT 13490 8 .cfa: $rsp 8 + .ra: .cfa -8 + ^
STACK CFI INIT 134a0 114 .cfa: $rsp 8 + .ra: .cfa -8 + ^
STACK CFI 134a2 $r14: .cfa -16 + ^ .cfa: $rsp 16 +
STACK CFI 134a4 $r13: .cfa -24 + ^ .cfa: $rsp 24 +
STACK CFI 134ad $r12: .cfa -32 + ^ .cfa: $rsp 32 +
STACK CFI 134ae $rbp: .cfa -40 + ^ .cfa: $rsp 40 +
STACK CFI 134b2 $rbx: .cfa -48 + ^ .cfa: $rsp 48 +
STACK CFI 1351a .cfa: $rsp 40 +
STACK CFI 13523 .cfa: $rsp 32 +
STACK CFI 13525 .cfa: $rsp 24 +
STACK CFI 13527 .cfa: $rsp 16 +
STACK CFI 13529 .cfa: $rsp 8 +
STACK CFI 13530 .cfa: $rsp 48 +
STACK CFI 13571 .cfa: $rsp 40 +
STACK CFI 13572 .cfa: $rsp 32 +
STACK CFI 13574 .cfa: $rsp 24 +
STACK CFI 13576 .cfa: $rsp 16 +
STACK CFI 13578 .cfa: $rsp 8 +
STACK CFI 13580 .cfa: $rsp 48 +
STACK CFI INIT 135c0 115 .cfa: $rsp 8 + .ra: .cfa -8 + ^
STACK CFI 135c2 $r15: .cfa -16 + ^ .cfa: $rsp 16 +
STACK CFI 135c4 $r14: .cfa -24 + ^ .cfa: $rsp 24 +
STACK CFI 135c6 $r13: .cfa -32 + ^ .cfa: $rsp 32 +
STACK CFI 135c8 $r12: .cfa -40 + ^ .cfa: $rsp 40 +
STACK CFI 135c9 $rbp: .cfa -48 + ^ .cfa: $rsp 48 +
STACK CFI 135ca $rbx: .cfa -56 + ^ .cfa: $rsp 56 +
STACK CFI 135ce .cfa: $rsp 64 +
STACK CFI 1368e .cfa: $rsp 56 +
STACK CFI 1368f .cfa: $rsp 48 +
STACK CFI 13690 .cfa: $rsp 40 +
STACK CFI 13692 .cfa: $rsp 32 +
STACK CFI 13694 .cfa: $rsp 24 +
STACK CFI 13696 .cfa: $rsp 16 +
STACK CFI 13698 .cfa: $rsp 8 +
STACK CFI 136a0 .cfa: $rsp 64 +
STACK CFI 136a4 .cfa: $rsp 56 +
STACK CFI 136a7 .cfa: $rsp 48 +
STACK CFI 136a8 .cfa: $rsp 40 +
STACK CFI 136aa .cfa: $rsp 32 +
STACK CFI 136ac .cfa: $rsp 24 +
STACK CFI 136ae .cfa: $rsp 16 +
STACK CFI 136b0 .cfa: $rsp 8 +
STACK CFI 136b8 .cfa: $rsp 64 +
STACK CFI INIT 136e0 e9 .cfa: $rsp 8 + .ra: .cfa -8 + ^
STACK CFI 136e2 $r13: .cfa -16 + ^ .cfa: $rsp 16 +
STACK CFI 136e4 $r12: .cfa -24 + ^ .cfa: $rsp 24 +
STACK CFI 136e5 $rbp: .cfa -32 + ^ .cfa: $rsp 32 +
STACK CFI 136e6 $rbx: .cfa -40 + ^ .cfa: $rsp 40 +
STACK CFI 136f8 .cfa: $rsp 48 +
STACK CFI 137ae .cfa: $rsp 40 +
STACK CFI 137af .cfa: $rsp 32 +
STACK CFI 137b0 .cfa: $rsp 24 +
STACK CFI 137b2 .cfa: $rsp 16 +
STACK CFI 137b4 .cfa: $rsp 8 +
STACK CFI 137b5 .cfa: $rsp 48 +
STACK CFI 137c2 .cfa: $rsp 40 +
STACK CFI 137c3 .cfa: $rsp 32 +
STACK CFI 137c4 .cfa: $rsp 24 +
STACK CFI 137c6 .cfa: $rsp 16 +
STACK CFI 137c8 .cfa: $rsp 8 +
STACK CFI INIT 137d0 37 .cfa: $rsp 8 + .ra: .cfa -8 + ^
STACK CFI 137d4 .cfa: $rsp 16 +
STACK CFI 13806 .cfa: $rsp 8 +
STACK CFI INIT 13810 de .cfa: $rsp 8 + .ra: .cfa -8 + ^
STACK CFI 13812 $r15: .cfa -16 + ^ .cfa: $rsp 16 +
STACK CFI 13814 $r14: .cfa -24 + ^ .cfa: $rsp 24 +
STACK CFI 1381a $r13: .cfa -32 + ^ .cfa: $rsp 32 +
STACK CFI 1381c $r12: .cfa -40 + ^ .cfa: $rsp 40 +
STACK CFI 13820 $rbp: .cfa -48 + ^ .cfa: $rsp 48 +
STACK CFI 13821 $rbx: .cfa -56 + ^ .cfa: $rsp 56 +
STACK CFI 13828 .cfa: $rsp 80 +
STACK CFI 138de .cfa: $rsp 56 +
STACK CFI 138df .cfa: $rsp 48 +
STACK CFI 138e0 .cfa: $rsp 40 +
STACK CFI 138e2 .cfa: $rsp 32 +
STACK CFI 138e4 .cfa: $rsp 24 +
STACK CFI 138e6 .cfa: $rsp 16 +
STACK CFI 138e8 .cfa: $rsp 8 +
STACK CFI 138e9 .cfa: $rsp 80 +
STACK CFI INIT 138f0 782 .cfa: $rsp 8 + .ra: .cfa -8 + ^
STACK CFI 138f2 $r15: .cfa -16 + ^ .cfa: $rsp 16 +
STACK CFI 138f4 $r14: .cfa -24 + ^ .cfa: $rsp 24 +
STACK CFI 138f9 $r13: .cfa -32 + ^ .cfa: $rsp 32 +
STACK CFI 138fb $r12: .cfa -40 + ^ .cfa: $rsp 40 +
STACK CFI 13903 $rbp: .cfa -48 + ^ .cfa: $rsp 48 +
STACK CFI 13904 $rbx: .cfa -56 + ^ .cfa: $rsp 56 +
STACK CFI 1390e .cfa: $rsp 112 +
STACK CFI 13bab .cfa: $rsp 56 +
STACK CFI 13bac .cfa: $rsp 48 +
STACK CFI 13bad .cfa: $rsp 40 +
STACK CFI 13baf .cfa: $rsp 32 +
STACK CFI 13bb1 .cfa: $rsp 24 +
STACK CFI 13bb3 .cfa: $rsp 16 +
STACK CFI 13bb5 .cfa: $rsp 8 +
STACK CFI 13bc0 .cfa: $rsp 112 +
STACK CFI 13eeb .cfa: $rsp 56 +
STACK CFI 13eec .cfa: $rsp 48 +
STACK CFI 13eed .cfa: $rsp 40 +
STACK CFI 13eef .cfa: $rsp 32 +
STACK CFI 13ef1 .cfa: $rsp 24 +
STACK CFI 13ef3 .cfa: $rsp 16 +
STACK CFI 13ef5 .cfa: $rsp 8 +
STACK CFI 13f00 .cfa: $rsp 112 +
STACK CFI INIT 14a60 151 .cfa: $rsp 8 + .ra: .cfa -8 + ^
STACK CFI 14a62 $r15: .cfa -16 + ^ .cfa: $rsp 16 +
STACK CFI 14a64 $r14: .cfa -24 + ^ .cfa: $rsp 24 +
STACK CFI 14a66 $r13: .cfa -32 + ^ .cfa: $rsp 32 +
STACK CFI 14a68 $r12: .cfa -40 + ^ .cfa: $rsp 40 +
STACK CFI 14a69 $rbp: .cfa -48 + ^ .cfa: $rsp 48 +
STACK CFI 14a6a $rbx: .cfa -56 + ^ .cfa: $rsp 56 +
STACK CFI 14a71 .cfa: $rsp 64 +
STACK CFI 14ace .cfa: $rsp 56 +
STACK CFI 14ad2 .cfa: $rsp 48 +
STACK CFI 14ad3 .cfa: $rsp 40 +
STACK CFI 14ad5 .cfa: $rsp 32 +
STACK CFI 14ad7 .cfa: $rsp 24 +
STACK CFI 14ad9 .cfa: $rsp 16 +
STACK CFI 14adb .cfa: $rsp 8 +
STACK CFI 14ae0 .cfa: $rsp 64 +
STACK CFI INIT 14080 12 .cfa: $rsp 8 + .ra: .cfa -8 + ^
STACK CFI INIT 14bc0 3a .cfa: $rsp 8 + .ra: .cfa -8 + ^
STACK CFI 14bc7 $r12: .cfa -16 + ^ .cfa: $rsp 16 +
STACK CFI 14bcb $rbp: .cfa -24 + ^ .cfa: $rsp 24 +
STACK CFI 14bcc $rbx: .cfa -32 + ^ .cfa: $rsp 32 +
STACK CFI 14bf0 .cfa: $rsp 24 +
STACK CFI 14bf1 .cfa: $rsp 16 +
STACK CFI 14bf3 .cfa: $rsp 8 +
STACK CFI 14bf8 $r12: $r12 $rbp: $rbp $rbx: $rbx
STACK CFI INIT 14c00 3a .cfa: $rsp 8 + .ra: .cfa -8 + ^
STACK CFI 14c07 $r12: .cfa -16 + ^ .cfa: $rsp 16 +
STACK CFI 14c0b $rbp: .cfa -24 + ^ .cfa: $rsp 24 +
STACK CFI 14c0c $rbx: .cfa -32 + ^ .cfa: $rsp 32 +
STACK CFI 14c30 .cfa: $rsp 24 +
STACK CFI 14c31 .cfa: $rsp 16 +
STACK CFI 14c33 .cfa: $rsp 8 +
STACK CFI 14c38 $r12: $r12 $rbp: $rbp $rbx: $rbx
STACK CFI INIT 14c40 3a .cfa: $rsp 8 + .ra: .cfa -8 + ^
STACK CFI 14c47 $r12: .cfa -16 + ^ .cfa: $rsp 16 +
STACK CFI 14c4b $rbp: .cfa -24 + ^ .cfa: $rsp 24 +
STACK CFI 14c4c $rbx: .cfa -32 + ^ .cfa: $rsp 32 +
STACK CFI 14c70 .cfa: $rsp 24 +
STACK CFI 14c71 .cfa: $rsp 16 +
STACK CFI 14c73 .cfa: $rsp 8 +
STACK CFI 14c78 $r12: $r12 $rbp: $rbp $rbx: $rbx
STACK CFI INIT 140a0 22b .cfa: $rsp 8 + .ra: .cfa -8 + ^
STACK CFI 140a2 $r13: .cfa -16 + ^ .cfa: $rsp 16 +
STACK CFI 140a4 $r12: .cfa -24 + ^ .cfa: $rsp 24 +
STACK CFI 140ac $rbp: .cfa -32 + ^ .cfa: $rsp 32 +
STACK CFI 140ad $rbx: .cfa -40 + ^ .cfa: $rsp 40 +
STACK CFI 140b4 .cfa: $rsp 48 +
STACK CFI 142b2 .cfa: $rsp 40 +
STACK CFI 142b3 .cfa: $rsp 32 +
STACK CFI 142b4 .cfa: $rsp 24 +
STACK CFI 142b6 .cfa: $rsp 16 +
STACK CFI 142b8 .cfa: $rsp 8 +
STACK CFI 142c0 .cfa: $rsp 48 +
STACK CFI 142c4 .cfa: $rsp 40 +
STACK CFI 142c5 .cfa: $rsp 32 +
STACK CFI 142c6 .cfa: $rsp 24 +
STACK CFI 142c8 .cfa: $rsp 16 +
STACK CFI 142ca .cfa: $rsp 8 +
STACK CFI INIT 14c80 54 .cfa: $rsp 8 + .ra: .cfa -8 + ^
STACK CFI INIT 14ce0 12e .cfa: $rsp 8 + .ra: .cfa -8 + ^
STACK CFI 14ce2 $r15: .cfa -16 + ^ .cfa: $rsp 16 +
STACK CFI 14ce4 $r14: .cfa -24 + ^ .cfa: $rsp 24 +
STACK CFI 14ce9 $r13: .cfa -32 + ^ .cfa: $rsp 32 +
STACK CFI 14ceb $r12: .cfa -40 + ^ .cfa: $rsp 40 +
STACK CFI 14cef $rbp: .cfa -48 + ^ .cfa: $rsp 48 +
STACK CFI 14cf0 $rbx: .cfa -56 + ^ .cfa: $rsp 56 +
STACK CFI 14cf7 .cfa: $rsp 80 +
STACK CFI 14dbd .cfa: $rsp 56 +
STACK CFI 14dbe .cfa: $rsp 48 +
STACK CFI 14dbf .cfa: $rsp 40 +
STACK CFI 14dc1 .cfa: $rsp 32 +
STACK CFI 14dc3 .cfa: $rsp 24 +
STACK CFI 14dc5 .cfa: $rsp 16 +
STACK CFI 14dc7 .cfa: $rsp 8 +
STACK CFI 14dd0 .cfa: $rsp 80 +
STACK CFI INIT 142d0 56 .cfa: $rsp 8 + .ra: .cfa -8 + ^
STACK CFI 142d4 .cfa: $rsp 32 +
STACK CFI 14305 .cfa: $rsp 8 +
STACK CFI 14310 .cfa: $rsp 32 +
STACK CFI 14325 .cfa: $rsp 8 +
STACK CFI INIT 14e10 12e .cfa: $rsp 8 + .ra: .cfa -8 + ^
STACK CFI 14e12 $r15: .cfa -16 + ^ .cfa: $rsp 16 +
STACK CFI 14e14 $r14: .cfa -24 + ^ .cfa: $rsp 24 +
STACK CFI 14e19 $r13: .cfa -32 + ^ .cfa: $rsp 32 +
STACK CFI 14e1b $r12: .cfa -40 + ^ .cfa: $rsp 40 +
STACK CFI 14e1f $rbp: .cfa -48 + ^ .cfa: $rsp 48 +
STACK CFI 14e20 $rbx: .cfa -56 + ^ .cfa: $rsp 56 +
STACK CFI 14e27 .cfa: $rsp 80 +
STACK CFI 14eed .cfa: $rsp 56 +
STACK CFI 14eee .cfa: $rsp 48 +
STACK CFI 14eef .cfa: $rsp 40 +
STACK CFI 14ef1 .cfa: $rsp 32 +
STACK CFI 14ef3 .cfa: $rsp 24 +
STACK CFI 14ef5 .cfa: $rsp 16 +
STACK CFI 14ef7 .cfa: $rsp 8 +
STACK CFI 14f00 .cfa: $rsp 80 +
STACK CFI INIT 14330 7d .cfa: $rsp 8 + .ra: .cfa -8 + ^
STACK CFI 14331 $rbp: .cfa -16 + ^ .cfa: $rsp 16 +
STACK CFI 14332 $rbx: .cfa -24 + ^ .cfa: $rsp 24 +
STACK CFI 14340 .cfa: $rsp 48 +
STACK CFI 143aa .cfa: $rsp 24 +
STACK CFI 143ab .cfa: $rsp 16 +
STACK CFI 143ac .cfa: $rsp 8 +
STACK CFI INIT 14f40 1d7 .cfa: $rsp 8 + .ra: .cfa -8 + ^
STACK CFI 14f42 $r15: .cfa -16 + ^ .cfa: $rsp 16 +
STACK CFI 14f44 $r14: .cfa -24 + ^ .cfa: $rsp 24 +
STACK CFI 14f49 $r13: .cfa -32 + ^ .cfa: $rsp 32 +
STACK CFI 14f4b $r12: .cfa -40 + ^ .cfa: $rsp 40 +
STACK CFI 14f4f $rbp: .cfa -48 + ^ .cfa: $rsp 48 +
STACK CFI 14f50 $rbx: .cfa -56 + ^ .cfa: $rsp 56 +
STACK CFI 14f54 .cfa: $rsp 96 +
STACK CFI 14fcf .cfa: $rsp 56 +
STACK CFI 14fd0 .cfa: $rsp 48 +
STACK CFI 14fd1 .cfa: $rsp 40 +
STACK CFI 14fd3 .cfa: $rsp 32 +
STACK CFI 14fd5 .cfa: $rsp 24 +
STACK CFI 14fd7 .cfa: $rsp 16 +
STACK CFI 14fd9 .cfa: $rsp 8 +
STACK CFI 14fe0 .cfa: $rsp 96 +
STACK CFI 150e0 .cfa: $rsp 56 +
STACK CFI 150e6 .cfa: $rsp 48 +
STACK CFI 150e7 .cfa: $rsp 40 +
STACK CFI 150e9 .cfa: $rsp 32 +
STACK CFI 150eb .cfa: $rsp 24 +
STACK CFI 150ed .cfa: $rsp 16 +
STACK CFI 150ef .cfa: $rsp 8 +
STACK CFI 150f0 .cfa: $rsp 96 +
STACK CFI INIT 143b0 2f8 .cfa: $rsp 8 + .ra: .cfa -8 + ^
STACK CFI 143b2 $r15: .cfa -16 + ^ .cfa: $rsp 16 +
STACK CFI 143b4 $r14: .cfa -24 + ^ .cfa: $rsp 24 +
STACK CFI 143b6 $r13: .cfa -32 + ^ .cfa: $rsp 32 +
STACK CFI 143b8 $r12: .cfa -40 + ^ .cfa: $rsp 40 +
STACK CFI 143c0 $rbp: .cfa -48 + ^ .cfa: $rsp 48 +
STACK CFI 143c1 $rbx: .cfa -56 + ^ .cfa: $rsp 56 +
STACK CFI 143d5 .cfa: $rsp 192 +
STACK CFI 1450e .cfa: $rsp 56 +
STACK CFI 1450f .cfa: $rsp 48 +
STACK CFI 14510 .cfa: $rsp 40 +
STACK CFI 14512 .cfa: $rsp 32 +
STACK CFI 14514 .cfa: $rsp 24 +
STACK CFI 14516 .cfa: $rsp 16 +
STACK CFI 14518 .cfa: $rsp 8 +
STACK CFI 14520 .cfa: $rsp 192 +
STACK CFI INIT 146b0 3a .cfa: $rsp 8 + .ra: .cfa -8 + ^
STACK CFI 146b7 $r12: .cfa -16 + ^ .cfa: $rsp 16 +
STACK CFI 146bb $rbp: .cfa -24 + ^ .cfa: $rsp 24 +
STACK CFI 146bf $rbx: .cfa -32 + ^ .cfa: $rsp 32 +
STACK CFI 146dd .cfa: $rsp 24 +
STACK CFI 146de .cfa: $rsp 16 +
STACK CFI 146e0 .cfa: $rsp 8 +
STACK CFI 146e8 $r12: $r12 $rbp: $rbp $rbx: $rbx
STACK CFI INIT 15120 38f .cfa: $rsp 8 + .ra: .cfa -8 + ^
STACK CFI 1512b $r15: .cfa -16 + ^ .cfa: $rsp 16 +
STACK CFI 1512d $r14: .cfa -24 + ^ .cfa: $rsp 24 +
STACK CFI 15132 $r13: .cfa -32 + ^ .cfa: $rsp 32 +
STACK CFI 15134 $r12: .cfa -40 + ^ .cfa: $rsp 40 +
STACK CFI 15138 $rbp: .cfa -48 + ^ .cfa: $rsp 48 +
STACK CFI 15139 $rbx: .cfa -56 + ^ .cfa: $rsp 56 +
STACK CFI 15145 .cfa: $rsp 112 +
STACK CFI 151f0 .cfa: $rsp 56 +
STACK CFI 151f1 .cfa: $rsp 48 +
STACK CFI 151f2 .cfa: $rsp 40 +
STACK CFI 151f4 .cfa: $rsp 32 +
STACK CFI 151f6 .cfa: $rsp 24 +
STACK CFI 151f8 .cfa: $rsp 16 +
STACK CFI 151fa .cfa: $rsp 8 +
STACK CFI 15200 .cfa: $rsp 112 +
STACK CFI 152fb .cfa: $rsp 56 +
STACK CFI 152fc .cfa: $rsp 48 +
STACK CFI 152fd .cfa: $rsp 40 +
STACK CFI 152ff .cfa: $rsp 32 +
STACK CFI 15301 .cfa: $rsp 24 +
STACK CFI 15303 .cfa: $rsp 16 +
STACK CFI 15305 .cfa: $rsp 8 +
STACK CFI 15310 $r12: $r12 $r13: $r13 $r14: $r14 $r15: $r15 $rbp: $rbp $rbx: $rbx
STACK CFI 15318 $r12: .cfa -40 + ^ $r13: .cfa -32 + ^ $r14: .cfa -24 + ^ $r15: .cfa -16 + ^ $rbp: .cfa -48 + ^ $rbx: .cfa -56 + ^ .cfa: $rsp 112 +
STACK CFI 15440 .cfa: $rsp 56 +
STACK CFI 15441 .cfa: $rsp 48 +
STACK CFI 15442 .cfa: $rsp 40 +
STACK CFI 15444 .cfa: $rsp 32 +
STACK CFI 15446 .cfa: $rsp 24 +
STACK CFI 15448 .cfa: $rsp 16 +
STACK CFI 1544a .cfa: $rsp 8 +
STACK CFI 15450 .cfa: $rsp 112 +
STACK CFI INIT 146f0 27 .cfa: $rsp 8 + .ra: .cfa -8 + ^
STACK CFI 146f4 .cfa: $rsp 24 +
STACK CFI 1470a .cfa: $rsp 32 +
STACK CFI 14716 .cfa: $rsp 8 +
STACK CFI INIT 154b0 38f .cfa: $rsp 8 + .ra: .cfa -8 + ^
STACK CFI 154bb $r15: .cfa -16 + ^ .cfa: $rsp 16 +
STACK CFI 154bd $r14: .cfa -24 + ^ .cfa: $rsp 24 +
STACK CFI 154c2 $r13: .cfa -32 + ^ .cfa: $rsp 32 +
STACK CFI 154c4 $r12: .cfa -40 + ^ .cfa: $rsp 40 +
STACK CFI 154c8 $rbp: .cfa -48 + ^ .cfa: $rsp 48 +
STACK CFI 154c9 $rbx: .cfa -56 + ^ .cfa: $rsp 56 +
STACK CFI 154d5 .cfa: $rsp 112 +
STACK CFI 15580 .cfa: $rsp 56 +
STACK CFI 15581 .cfa: $rsp 48 +
STACK CFI 15582 .cfa: $rsp 40 +
STACK CFI 15584 .cfa: $rsp 32 +
STACK CFI 15586 .cfa: $rsp 24 +
STACK CFI 15588 .cfa: $rsp 16 +
STACK CFI 1558a .cfa: $rsp 8 +
STACK CFI 15590 .cfa: $rsp 112 +
STACK CFI 1568b .cfa: $rsp 56 +
STACK CFI 1568c .cfa: $rsp 48 +
STACK CFI 1568d .cfa: $rsp 40 +
STACK CFI 1568f .cfa: $rsp 32 +
STACK CFI 15691 .cfa: $rsp 24 +
STACK CFI 15693 .cfa: $rsp 16 +
STACK CFI 15695 .cfa: $rsp 8 +
STACK CFI 156a0 $r12: $r12 $r13: $r13 $r14: $r14 $r15: $r15 $rbp: $rbp $rbx: $rbx
STACK CFI 156a8 $r12: .cfa -40 + ^ $r13: .cfa -32 + ^ $r14: .cfa -24 + ^ $r15: .cfa -16 + ^ $rbp: .cfa -48 + ^ $rbx: .cfa -56 + ^ .cfa: $rsp 112 +
STACK CFI 157d0 .cfa: $rsp 56 +
STACK CFI 157d1 .cfa: $rsp 48 +
STACK CFI 157d2 .cfa: $rsp 40 +
STACK CFI 157d4 .cfa: $rsp 32 +
STACK CFI 157d6 .cfa: $rsp 24 +
STACK CFI 157d8 .cfa: $rsp 16 +
STACK CFI 157da .cfa: $rsp 8 +
STACK CFI 157e0 .cfa: $rsp 112 +
STACK CFI INIT 14720 27 .cfa: $rsp 8 + .ra: .cfa -8 + ^
STACK CFI 14724 .cfa: $rsp 24 +
STACK CFI 1473a .cfa: $rsp 32 +
STACK CFI 14746 .cfa: $rsp 8 +
STACK CFI INIT 15840 18c .cfa: $rsp 8 + .ra: .cfa -8 + ^
STACK CFI 15842 $r15: .cfa -16 + ^ .cfa: $rsp 16 +
STACK CFI 15844 $r14: .cfa -24 + ^ .cfa: $rsp 24 +
STACK CFI 15846 $r13: .cfa -32 + ^ .cfa: $rsp 32 +
STACK CFI 15848 $r12: .cfa -40 + ^ .cfa: $rsp 40 +
STACK CFI 15849 $rbp: .cfa -48 + ^ .cfa: $rsp 48 +
STACK CFI 1584a $rbx: .cfa -56 + ^ .cfa: $rsp 56 +
STACK CFI 1584e .cfa: $rsp 80 +
STACK CFI 1590a .cfa: $rsp 56 +
STACK CFI 15910 .cfa: $rsp 48 +
STACK CFI 15911 .cfa: $rsp 40 +
STACK CFI 15913 .cfa: $rsp 32 +
STACK CFI 15915 .cfa: $rsp 24 +
STACK CFI 15917 .cfa: $rsp 16 +
STACK CFI 15919 .cfa: $rsp 8 +
STACK CFI 15920 .cfa: $rsp 80 +
STACK CFI 15924 .cfa: $rsp 56 +
STACK CFI 1592a .cfa: $rsp 48 +
STACK CFI 1592b .cfa: $rsp 40 +
STACK CFI 1592d .cfa: $rsp 32 +
STACK CFI 1592f .cfa: $rsp 24 +
STACK CFI 15931 .cfa: $rsp 16 +
STACK CFI 15933 .cfa: $rsp 8 +
STACK CFI 15938 .cfa: $rsp 80 +
STACK CFI 159bc .cfa: $rsp 56 +
STACK CFI 159c2 .cfa: $rsp 48 +
STACK CFI 159c3 .cfa: $rsp 40 +
STACK CFI 159c5 .cfa: $rsp 32 +
STACK CFI 159c7 .cfa: $rsp 24 +
STACK CFI 159c9 .cfa: $rsp 16 +
STACK CFI 159cb .cfa: $rsp 8 +
STACK CFI INIT 159d0 2c1 .cfa: $rsp 8 + .ra: .cfa -8 + ^
STACK CFI 159d2 $r15: .cfa -16 + ^ .cfa: $rsp 16 +
STACK CFI 159d8 $r14: .cfa -24 + ^ .cfa: $rsp 24 +
STACK CFI 159da $r13: .cfa -32 + ^ .cfa: $rsp 32 +
STACK CFI 159dc $r12: .cfa -40 + ^ .cfa: $rsp 40 +
STACK CFI 159e0 $rbp: .cfa -48 + ^ .cfa: $rsp 48 +
STACK CFI 159e1 $rbx: .cfa -56 + ^ .cfa: $rsp 56 +
STACK CFI 159e8 .cfa: $rsp 80 +
STACK CFI 15ac2 .cfa: $rsp 56 +
STACK CFI 15ac6 .cfa: $rsp 48 +
STACK CFI 15ac7 .cfa: $rsp 40 +
STACK CFI 15ac9 .cfa: $rsp 32 +
STACK CFI 15acb .cfa: $rsp 24 +
STACK CFI 15acd .cfa: $rsp 16 +
STACK CFI 15acf .cfa: $rsp 8 +
STACK CFI 15ad0 .cfa: $rsp 80 +
STACK CFI 15be9 .cfa: $rsp 56 +
STACK CFI 15bea .cfa: $rsp 48 +
STACK CFI 15beb .cfa: $rsp 40 +
STACK CFI 15bed .cfa: $rsp 32 +
STACK CFI 15bef .cfa: $rsp 24 +
STACK CFI 15bf1 .cfa: $rsp 16 +
STACK CFI 15bf3 .cfa: $rsp 8 +
STACK CFI 15bf8 .cfa: $rsp 80 +
STACK CFI 15c40 .cfa: $rsp 56 +
STACK CFI 15c46 .cfa: $rsp 48 +
STACK CFI 15c47 .cfa: $rsp 40 +
STACK CFI 15c49 .cfa: $rsp 32 +
STACK CFI 15c4b .cfa: $rsp 24 +
STACK CFI 15c4d .cfa: $rsp 16 +
STACK CFI 15c4f .cfa: $rsp 8 +
STACK CFI 15c50 .cfa: $rsp 80 +
STACK CFI 15c54 .cfa: $rsp 56 +
STACK CFI 15c5b .cfa: $rsp 48 +
STACK CFI 15c5c .cfa: $rsp 40 +
STACK CFI 15c5e .cfa: $rsp 32 +
STACK CFI 15c60 .cfa: $rsp 24 +
STACK CFI 15c62 .cfa: $rsp 16 +
STACK CFI 15c64 .cfa: $rsp 8 +
STACK CFI 15c70 .cfa: $rsp 80 +
STACK CFI INIT 14750 247 .cfa: $rsp 8 + .ra: .cfa -8 + ^
STACK CFI 14752 $r15: .cfa -16 + ^ .cfa: $rsp 16 +
STACK CFI 14754 $r14: .cfa -24 + ^ .cfa: $rsp 24 +
STACK CFI 14756 $r13: .cfa -32 + ^ .cfa: $rsp 32 +
STACK CFI 14758 $r12: .cfa -40 + ^ .cfa: $rsp 40 +
STACK CFI 1475c $rbp: .cfa -48 + ^ .cfa: $rsp 48 +
STACK CFI 1475d $rbx: .cfa -56 + ^ .cfa: $rsp 56 +
STACK CFI 1476b .cfa: $rsp 112 +
STACK CFI 14880 .cfa: $rsp 56 +
STACK CFI 14881 .cfa: $rsp 48 +
STACK CFI 14882 .cfa: $rsp 40 +
STACK CFI 14884 .cfa: $rsp 32 +
STACK CFI 14886 .cfa: $rsp 24 +
STACK CFI 14888 .cfa: $rsp 16 +
STACK CFI 1488a .cfa: $rsp 8 +
STACK CFI 14890 .cfa: $rsp 112 +
STACK CFI INIT 149a0 b3 .cfa: $rsp 8 + .ra: .cfa -8 + ^
STACK CFI 149a1 $rbp: .cfa -16 + ^ .cfa: $rsp 16 +
STACK CFI 149a2 $rbx: .cfa -24 + ^ .cfa: $rsp 24 +
STACK CFI 149b0 .cfa: $rsp 96 +
STACK CFI 14a2d .cfa: $rsp 24 +
STACK CFI 14a2e .cfa: $rsp 16 +
STACK CFI 14a2f .cfa: $rsp 8 +
STACK CFI 14a30 .cfa: $rsp 96 +
STACK CFI INIT 8530 2e .cfa: $rsp 8 + .ra: .cfa -8 + ^
STACK CFI 853b .cfa: $rsp 16 +
STACK CFI 8559 .cfa: $rsp 8 +
STACK CFI INIT 15ca0 c8 .cfa: $rsp 8 + .ra: .cfa -8 + ^
STACK CFI 15ca2 $r12: .cfa -16 + ^ .cfa: $rsp 16 +
STACK CFI 15ca3 $rbp: .cfa -24 + ^ .cfa: $rsp 24 +
STACK CFI 15ca7 $rbx: .cfa -32 + ^ .cfa: $rsp 32 +
STACK CFI 15cae .cfa: $rsp 48 +
STACK CFI 15d14 .cfa: $rsp 32 +
STACK CFI 15d15 .cfa: $rsp 24 +
STACK CFI 15d16 .cfa: $rsp 16 +
STACK CFI 15d18 .cfa: $rsp 8 +
STACK CFI 15d20 .cfa: $rsp 48 +
STACK CFI INIT 15d70 58 .cfa: $rsp 8 + .ra: .cfa -8 + ^
STACK CFI 15d72 $r12: .cfa -16 + ^ .cfa: $rsp 16 +
STACK CFI 15d73 $rbp: .cfa -24 + ^ .cfa: $rsp 24 +
STACK CFI 15d74 $rbx: .cfa -32 + ^ .cfa: $rsp 32 +
STACK CFI 15dc4 .cfa: $rsp 24 +
STACK CFI 15dc5 .cfa: $rsp 16 +
STACK CFI 15dc7 .cfa: $rsp 8 +
STACK CFI INIT 15dd0 58 .cfa: $rsp 8 + .ra: .cfa -8 + ^
STACK CFI 15dd2 $r12: .cfa -16 + ^ .cfa: $rsp 16 +
STACK CFI 15dd3 $rbp: .cfa -24 + ^ .cfa: $rsp 24 +
STACK CFI 15dd4 $rbx: .cfa -32 + ^ .cfa: $rsp 32 +
STACK CFI 15e24 .cfa: $rsp 24 +
STACK CFI 15e25 .cfa: $rsp 16 +
STACK CFI 15e27 .cfa: $rsp 8 +
STACK CFI INIT 168b0 6 .cfa: $rsp 8 + .ra: .cfa -8 + ^
STACK CFI INIT 168c0 6 .cfa: $rsp 8 + .ra: .cfa -8 + ^
STACK CFI INIT 168d0 6 .cfa: $rsp 8 + .ra: .cfa -8 + ^
STACK CFI INIT 168e0 6 .cfa: $rsp 8 + .ra: .cfa -8 + ^
STACK CFI INIT 168f0 6 .cfa: $rsp 8 + .ra: .cfa -8 + ^
STACK CFI INIT 16900 6 .cfa: $rsp 8 + .ra: .cfa -8 + ^
STACK CFI INIT 15e30 c8 .cfa: $rsp 8 + .ra: .cfa -8 + ^
STACK CFI 15e32 $r12: .cfa -16 + ^ .cfa: $rsp 16 +
STACK CFI 15e33 $rbp: .cfa -24 + ^ .cfa: $rsp 24 +
STACK CFI 15e37 $rbx: .cfa -32 + ^ .cfa: $rsp 32 +
STACK CFI 15e3e .cfa: $rsp 48 +
STACK CFI 15ea4 .cfa: $rsp 32 +
STACK CFI 15ea5 .cfa: $rsp 24 +
STACK CFI 15ea6 .cfa: $rsp 16 +
STACK CFI 15ea8 .cfa: $rsp 8 +
STACK CFI 15eb0 .cfa: $rsp 48 +
STACK CFI INIT 15f00 212 .cfa: $rsp 8 + .ra: .cfa -8 + ^
STACK CFI INIT 16120 22 .cfa: $rsp 8 + .ra: .cfa -8 + ^
STACK CFI INIT 16150 8b .cfa: $rsp 8 + .ra: .cfa -8 + ^
STACK CFI 16151 $rbp: .cfa -16 + ^ .cfa: $rsp 16 +
STACK CFI 16152 $rbx: .cfa -24 + ^ .cfa: $rsp 24 +
STACK CFI 1615d .cfa: $rsp 32 +
STACK CFI 161d8 .cfa: $rsp 24 +
STACK CFI 161d9 .cfa: $rsp 16 +
STACK CFI 161da .cfa: $rsp 8 +
STACK CFI INIT 161e0 44 .cfa: $rsp 8 + .ra: .cfa -8 + ^
STACK CFI 161fb $rbx: .cfa -16 + ^ .cfa: $rsp 16 +
STACK CFI 1621c .cfa: $rsp 8 +
STACK CFI 16220 $rbx: $rbx
STACK CFI INIT 16230 261 .cfa: $rsp 8 + .ra: .cfa -8 + ^
STACK CFI 16232 $r15: .cfa -16 + ^ .cfa: $rsp 16 +
STACK CFI 16234 $r14: .cfa -24 + ^ .cfa: $rsp 24 +
STACK CFI 16236 $r13: .cfa -32 + ^ .cfa: $rsp 32 +
STACK CFI 16238 $r12: .cfa -40 + ^ .cfa: $rsp 40 +
STACK CFI 16239 $rbp: .cfa -48 + ^ .cfa: $rsp 48 +
STACK CFI 1623a $rbx: .cfa -56 + ^ .cfa: $rsp 56 +
STACK CFI 16241 .cfa: $rsp 112 +
STACK CFI 16340 .cfa: $rsp 56 +
STACK CFI 16341 .cfa: $rsp 48 +
STACK CFI 16342 .cfa: $rsp 40 +
STACK CFI 16344 .cfa: $rsp 32 +
STACK CFI 16346 .cfa: $rsp 24 +
STACK CFI 16348 .cfa: $rsp 16 +
STACK CFI 1634a .cfa: $rsp 8 +
STACK CFI 16350 .cfa: $rsp 112 +
STACK CFI INIT 164a0 111 .cfa: $rsp 8 + .ra: .cfa -8 + ^
STACK CFI 164a2 $r15: .cfa -16 + ^ .cfa: $rsp 16 +
STACK CFI 164a4 $r14: .cfa -24 + ^ .cfa: $rsp 24 +
STACK CFI 164a6 $r13: .cfa -32 + ^ .cfa: $rsp 32 +
STACK CFI 164a8 $r12: .cfa -40 + ^ .cfa: $rsp 40 +
STACK CFI 164a9 $rbp: .cfa -48 + ^ .cfa: $rsp 48 +
STACK CFI 164aa $rbx: .cfa -56 + ^ .cfa: $rsp 56 +
STACK CFI 164b1 .cfa: $rsp 128 +
STACK CFI 1654c .cfa: $rsp 56 +
STACK CFI 1654d .cfa: $rsp 48 +
STACK CFI 1654e .cfa: $rsp 40 +
STACK CFI 16550 .cfa: $rsp 32 +
STACK CFI 16552 .cfa: $rsp 24 +
STACK CFI 16554 .cfa: $rsp 16 +
STACK CFI 16556 .cfa: $rsp 8 +
STACK CFI 16560 .cfa: $rsp 128 +
STACK CFI INIT 16910 13e .cfa: $rsp 8 + .ra: .cfa -8 + ^
STACK CFI 16912 $r15: .cfa -16 + ^ .cfa: $rsp 16 +
STACK CFI 16914 $r14: .cfa -24 + ^ .cfa: $rsp 24 +
STACK CFI 16916 $r13: .cfa -32 + ^ .cfa: $rsp 32 +
STACK CFI 16918 $r12: .cfa -40 + ^ .cfa: $rsp 40 +
STACK CFI 1691c $rbp: .cfa -48 + ^ .cfa: $rsp 48 +
STACK CFI 1691d $rbx: .cfa -56 + ^ .cfa: $rsp 56 +
STACK CFI 16931 .cfa: $rsp 80 +
STACK CFI 16a05 .cfa: $rsp 56 +
STACK CFI 16a06 .cfa: $rsp 48 +
STACK CFI 16a07 .cfa: $rsp 40 +
STACK CFI 16a09 .cfa: $rsp 32 +
STACK CFI 16a0b .cfa: $rsp 24 +
STACK CFI 16a0d .cfa: $rsp 16 +
STACK CFI 16a0f .cfa: $rsp 8 +
STACK CFI 16a10 .cfa: $rsp 80 +
STACK CFI INIT 165c0 25a .cfa: $rsp 8 + .ra: .cfa -8 + ^
STACK CFI 165c2 $r13: .cfa -16 + ^ .cfa: $rsp 16 +
STACK CFI 165c4 $r12: .cfa -24 + ^ .cfa: $rsp 24 +
STACK CFI 165c5 $rbp: .cfa -32 + ^ .cfa: $rsp 32 +
STACK CFI 165c6 $rbx: .cfa -40 + ^ .cfa: $rsp 40 +
STACK CFI 165cd .cfa: $rsp 80 +
STACK CFI 16630 .cfa: $rsp 40 +
STACK CFI 16631 .cfa: $rsp 32 +
STACK CFI 16632 .cfa: $rsp 24 +
STACK CFI 16634 .cfa: $rsp 16 +
STACK CFI 16636 .cfa: $rsp 8 +
STACK CFI 16640 .cfa: $rsp 80 +
STACK CFI INIT 16820 85 .cfa: $rsp 8 + .ra: .cfa -8 + ^
STACK CFI 16821 $rbp: .cfa -16 + ^ .cfa: $rsp 16 +
STACK CFI 16822 $rbx: .cfa -24 + ^ .cfa: $rsp 24 +
STACK CFI 1682d .cfa: $rsp 32 +
STACK CFI 16860 .cfa: $rsp 24 +
STACK CFI 16861 .cfa: $rsp 16 +
STACK CFI 16862 .cfa: $rsp 8 +
STACK CFI 16868 .cfa: $rsp 32 +
STACK CFI 16878 .cfa: $rsp 24 +
STACK CFI 16879 .cfa: $rsp 16 +
STACK CFI 1687a .cfa: $rsp 8 +
STACK CFI 16880 .cfa: $rsp 32 +
STACK CFI INIT 16a50 c3 .cfa: $rsp 8 + .ra: .cfa -8 + ^
STACK CFI 16a57 .cfa: $rsp 224 +
STACK CFI 16b0d .cfa: $rsp 8 +
STACK CFI 16b0e .cfa: $rsp 224 +
STACK CFI INIT 16b20 c8 .cfa: $rsp 8 + .ra: .cfa -8 + ^
STACK CFI 16b22 $r12: .cfa -16 + ^ .cfa: $rsp 16 +
STACK CFI 16b23 $rbp: .cfa -24 + ^ .cfa: $rsp 24 +
STACK CFI 16b27 $rbx: .cfa -32 + ^ .cfa: $rsp 32 +
STACK CFI 16b2e .cfa: $rsp 48 +
STACK CFI 16b94 .cfa: $rsp 32 +
STACK CFI 16b95 .cfa: $rsp 24 +
STACK CFI 16b96 .cfa: $rsp 16 +
STACK CFI 16b98 .cfa: $rsp 8 +
STACK CFI 16ba0 .cfa: $rsp 48 +
STACK CFI INIT 16bf0 f1 .cfa: $rsp 8 + .ra: .cfa -8 + ^
STACK CFI 16bf2 $r14: .cfa -16 + ^ .cfa: $rsp 16 +
STACK CFI 16bf4 $r13: .cfa -24 + ^ .cfa: $rsp 24 +
STACK CFI 16bf8 $r12: .cfa -32 + ^ .cfa: $rsp 32 +
STACK CFI 16bf9 $rbp: .cfa -40 + ^ .cfa: $rsp 40 +
STACK CFI 16bfd $rbx: .cfa -48 + ^ .cfa: $rsp 48 +
STACK CFI 16c0a .cfa: $rsp 112 +
STACK CFI 16cc5 .cfa: $rsp 48 +
STACK CFI 16cc6 .cfa: $rsp 40 +
STACK CFI 16cc7 .cfa: $rsp 32 +
STACK CFI 16cc9 .cfa: $rsp 24 +
STACK CFI 16ccb .cfa: $rsp 16 +
STACK CFI 16ccd .cfa: $rsp 8 +
STACK CFI 16cd0 .cfa: $rsp 112 +
STACK CFI INIT 16cf0 dd .cfa: $rsp 8 + .ra: .cfa -8 + ^
STACK CFI 16cf9 $r12: .cfa -16 + ^ .cfa: $rsp 16 +
STACK CFI 16cfd $rbp: .cfa -24 + ^ .cfa: $rsp 24 +
STACK CFI 16cfe $rbx: .cfa -32 + ^ .cfa: $rsp 32 +
STACK CFI 16dbc .cfa: $rsp 24 +
STACK CFI 16dbd .cfa: $rsp 16 +
STACK CFI 16dbf .cfa: $rsp 8 +
STACK CFI 16dc8 .cfa: $rsp 32 +
STACK CFI 16dc9 .cfa: $rsp 24 +
STACK CFI 16dca .cfa: $rsp 16 +
STACK CFI 16dcc .cfa: $rsp 8 +
STACK CFI INIT 16dd0 17 .cfa: $rsp 8 + .ra: .cfa -8 + ^
STACK CFI 16dd1 $rbx: .cfa -16 + ^ .cfa: $rsp 16 +
STACK CFI 16de2 .cfa: $rsp 8 +
STACK CFI INIT 16df0 323 .cfa: $rsp 8 + .ra: .cfa -8 + ^
STACK CFI 16df2 $r14: .cfa -16 + ^ .cfa: $rsp 16 +
STACK CFI 16df4 $r13: .cfa -24 + ^ .cfa: $rsp 24 +
STACK CFI 16df9 $r12: .cfa -32 + ^ .cfa: $rsp 32 +
STACK CFI 16dfa $rbp: .cfa -40 + ^ .cfa: $rsp 40 +
STACK CFI 16dfe $rbx: .cfa -48 + ^ .cfa: $rsp 48 +
STACK CFI 16e0a .cfa: $rsp 128 +
STACK CFI 16e98 .cfa: $rsp 48 +
STACK CFI 16e99 .cfa: $rsp 40 +
STACK CFI 16e9a .cfa: $rsp 32 +
STACK CFI 16e9c .cfa: $rsp 24 +
STACK CFI 16e9e .cfa: $rsp 16 +
STACK CFI 16ea0 .cfa: $rsp 8 +
STACK CFI 16ea8 .cfa: $rsp 128 +
STACK CFI INIT 17b30 12e .cfa: $rsp 8 + .ra: .cfa -8 + ^
STACK CFI 17b32 $r15: .cfa -16 + ^ .cfa: $rsp 16 +
STACK CFI 17b34 $r14: .cfa -24 + ^ .cfa: $rsp 24 +
STACK CFI 17b39 $r13: .cfa -32 + ^ .cfa: $rsp 32 +
STACK CFI 17b3b $r12: .cfa -40 + ^ .cfa: $rsp 40 +
STACK CFI 17b3f $rbp: .cfa -48 + ^ .cfa: $rsp 48 +
STACK CFI 17b40 $rbx: .cfa -56 + ^ .cfa: $rsp 56 +
STACK CFI 17b47 .cfa: $rsp 80 +
STACK CFI 17c0d .cfa: $rsp 56 +
STACK CFI 17c0e .cfa: $rsp 48 +
STACK CFI 17c0f .cfa: $rsp 40 +
STACK CFI 17c11 .cfa: $rsp 32 +
STACK CFI 17c13 .cfa: $rsp 24 +
STACK CFI 17c15 .cfa: $rsp 16 +
STACK CFI 17c17 .cfa: $rsp 8 +
STACK CFI 17c20 .cfa: $rsp 80 +
STACK CFI INIT 17120 c3 .cfa: $rsp 8 + .ra: .cfa -8 + ^
STACK CFI 17122 $r13: .cfa -16 + ^ .cfa: $rsp 16 +
STACK CFI 17124 $r12: .cfa -24 + ^ .cfa: $rsp 24 +
STACK CFI 17128 $rbp: .cfa -32 + ^ .cfa: $rsp 32 +
STACK CFI 17129 $rbx: .cfa -40 + ^ .cfa: $rsp 40 +
STACK CFI 17133 .cfa: $rsp 96 +
STACK CFI 171bd .cfa: $rsp 40 +
STACK CFI 171be .cfa: $rsp 32 +
STACK CFI 171bf .cfa: $rsp 24 +
STACK CFI 171c1 .cfa: $rsp 16 +
STACK CFI 171c3 .cfa: $rsp 8 +
STACK CFI 171c8 .cfa: $rsp 96 +
STACK CFI INIT 17c60 12e .cfa: $rsp 8 + .ra: .cfa -8 + ^
STACK CFI 17c62 $r15: .cfa -16 + ^ .cfa: $rsp 16 +
STACK CFI 17c64 $r14: .cfa -24 + ^ .cfa: $rsp 24 +
STACK CFI 17c69 $r13: .cfa -32 + ^ .cfa: $rsp 32 +
STACK CFI 17c6b $r12: .cfa -40 + ^ .cfa: $rsp 40 +
STACK CFI 17c6f $rbp: .cfa -48 + ^ .cfa: $rsp 48 +
STACK CFI 17c70 $rbx: .cfa -56 + ^ .cfa: $rsp 56 +
STACK CFI 17c77 .cfa: $rsp 80 +
STACK CFI 17d3d .cfa: $rsp 56 +
STACK CFI 17d3e .cfa: $rsp 48 +
STACK CFI 17d3f .cfa: $rsp 40 +
STACK CFI 17d41 .cfa: $rsp 32 +
STACK CFI 17d43 .cfa: $rsp 24 +
STACK CFI 17d45 .cfa: $rsp 16 +
STACK CFI 17d47 .cfa: $rsp 8 +
STACK CFI 17d50 .cfa: $rsp 80 +
STACK CFI INIT 17d90 2b .cfa: $rsp 8 + .ra: .cfa -8 + ^
STACK CFI INIT 171f0 66 .cfa: $rsp 8 + .ra: .cfa -8 + ^
STACK CFI 171f1 $rbp: .cfa -16 + ^ .cfa: $rsp 16 +
STACK CFI 171f2 $rbx: .cfa -24 + ^ .cfa: $rsp 24 +
STACK CFI 171fc .cfa: $rsp 48 +
STACK CFI 17249 .cfa: $rsp 24 +
STACK CFI 1724f .cfa: $rsp 16 +
STACK CFI 17250 .cfa: $rsp 8 +
STACK CFI 17251 .cfa: $rsp 48 +
STACK CFI INIT 17260 64 .cfa: $rsp 8 + .ra: .cfa -8 + ^
STACK CFI 17264 .cfa: $rsp 32 +
STACK CFI 172be .cfa: $rsp 8 +
STACK CFI 172bf .cfa: $rsp 32 +
STACK CFI INIT 172d0 16d .cfa: $rsp 8 + .ra: .cfa -8 + ^
STACK CFI 172d2 $r13: .cfa -16 + ^ .cfa: $rsp 16 +
STACK CFI 172d4 $r12: .cfa -24 + ^ .cfa: $rsp 24 +
STACK CFI 172d8 $rbp: .cfa -32 + ^ .cfa: $rsp 32 +
STACK CFI 172d9 $rbx: .cfa -40 + ^ .cfa: $rsp 40 +
STACK CFI 172e0 .cfa: $rsp 128 +
STACK CFI 173dd .cfa: $rsp 40 +
STACK CFI 173de .cfa: $rsp 32 +
STACK CFI 173df .cfa: $rsp 24 +
STACK CFI 173e1 .cfa: $rsp 16 +
STACK CFI 173e3 .cfa: $rsp 8 +
STACK CFI 173e8 .cfa: $rsp 128 +
STACK CFI INIT 17440 e4 .cfa: $rsp 8 + .ra: .cfa -8 + ^
STACK CFI 17442 $r12: .cfa -16 + ^ .cfa: $rsp 16 +
STACK CFI 17443 $rbp: .cfa -24 + ^ .cfa: $rsp 24 +
STACK CFI 17447 $rbx: .cfa -32 + ^ .cfa: $rsp 32 +
STACK CFI 1744e .cfa: $rsp 48 +
STACK CFI 17501 .cfa: $rsp 32 +
STACK CFI 17502 .cfa: $rsp 24 +
STACK CFI 17503 .cfa: $rsp 16 +
STACK CFI 17505 .cfa: $rsp 8 +
STACK CFI 17510 .cfa: $rsp 48 +
STACK CFI INIT 17dc0 a8 .cfa: $rsp 8 + .ra: .cfa -8 + ^
STACK CFI 17dcb $r14: .cfa -16 + ^ .cfa: $rsp 16 +
STACK CFI 17dd1 $r13: .cfa -24 + ^ .cfa: $rsp 24 +
STACK CFI 17dd6 $r12: .cfa -32 + ^ .cfa: $rsp 32 +
STACK CFI 17ddd $rbp: .cfa -40 + ^ .cfa: $rsp 40 +
STACK CFI 17dde $rbx: .cfa -48 + ^ .cfa: $rsp 48 +
STACK CFI 17e49 .cfa: $rsp 40 +
STACK CFI 17e4a .cfa: $rsp 32 +
STACK CFI 17e4c .cfa: $rsp 24 +
STACK CFI 17e4e .cfa: $rsp 16 +
STACK CFI 17e50 .cfa: $rsp 8 +
STACK CFI 17e58 $r12: $r12 $r13: $r13 $r14: $r14 $rbp: $rbp $rbx: $rbx
STACK CFI 17e60 $r12: .cfa -32 + ^ $r13: .cfa -24 + ^ $r14: .cfa -16 + ^ $rbp: .cfa -40 + ^ $rbx: .cfa -48 + ^ .cfa: $rsp 48 +
STACK CFI INIT 17e70 2ad .cfa: $rsp 8 + .ra: .cfa -8 + ^
STACK CFI 17e8a $r15: .cfa -16 + ^ .cfa: $rsp 16 +
STACK CFI 17e92 $r14: .cfa -24 + ^ .cfa: $rsp 24 +
STACK CFI 17e98 $r13: .cfa -32 + ^ .cfa: $rsp 32 +
STACK CFI 17e9e $r12: .cfa -40 + ^ .cfa: $rsp 40 +
STACK CFI 17ea2 $rbp: .cfa -48 + ^ .cfa: $rsp 48 +
STACK CFI 17ea3 $rbx: .cfa -56 + ^ .cfa: $rsp 56 +
STACK CFI 17eb4 .cfa: $rsp 80 +
STACK CFI 17ff0 $r12: $r12 $r13: $r13 $r14: $r14 $r15: $r15 $rbp: $rbp $rbx: $rbx .cfa: $rsp 8 +
STACK CFI 17ff8 $r12: .cfa -40 + ^ $r13: .cfa -32 + ^ $r14: .cfa -24 + ^ $r15: .cfa -16 + ^ $rbp: .cfa -48 + ^ $rbx: .cfa -56 + ^ .cfa: $rsp 80 +
STACK CFI 1805c .cfa: $rsp 56 +
STACK CFI 1805d .cfa: $rsp 48 +
STACK CFI 1805e .cfa: $rsp 40 +
STACK CFI 18060 .cfa: $rsp 32 +
STACK CFI 18062 .cfa: $rsp 24 +
STACK CFI 18064 .cfa: $rsp 16 +
STACK CFI 18066 .cfa: $rsp 8 +
STACK CFI 18070 $r12: $r12 $r13: $r13 $r14: $r14 $r15: $r15 $rbp: $rbp $rbx: $rbx
STACK CFI 18078 $r12: .cfa -40 + ^ $r13: .cfa -32 + ^ $r14: .cfa -24 + ^ $r15: .cfa -16 + ^ $rbp: .cfa -48 + ^ $rbx: .cfa -56 + ^ .cfa: $rsp 80 +
STACK CFI 1807c .cfa: $rsp 56 +
STACK CFI 18080 .cfa: $rsp 48 +
STACK CFI 18081 .cfa: $rsp 40 +
STACK CFI 18083 .cfa: $rsp 32 +
STACK CFI 18085 .cfa: $rsp 24 +
STACK CFI 18087 .cfa: $rsp 16 +
STACK CFI 18089 .cfa: $rsp 8 +
STACK CFI 1808a .cfa: $rsp 80 +
STACK CFI INIT 18120 2f3 .cfa: $rsp 8 + .ra: .cfa -8 + ^
STACK CFI 18127 $r15: .cfa -16 + ^ .cfa: $rsp 16 +
STACK CFI 18129 $r14: .cfa -24 + ^ .cfa: $rsp 24 +
STACK CFI 1812b $r13: .cfa -32 + ^ .cfa: $rsp 32 +
STACK CFI 1812d $r12: .cfa -40 + ^ .cfa: $rsp 40 +
STACK CFI 18131 $rbp: .cfa -48 + ^ .cfa: $rsp 48 +
STACK CFI 18132 $rbx: .cfa -56 + ^ .cfa: $rsp 56 +
STACK CFI 18136 .cfa: $rsp 144 +
STACK CFI 18190 .cfa: $rsp 56 +
STACK CFI 18191 .cfa: $rsp 48 +
STACK CFI 18192 .cfa: $rsp 40 +
STACK CFI 18194 .cfa: $rsp 32 +
STACK CFI 18196 .cfa: $rsp 24 +
STACK CFI 18198 .cfa: $rsp 16 +
STACK CFI 1819a .cfa: $rsp 8 +
STACK CFI 181a0 $r12: $r12 $r13: $r13 $r14: $r14 $r15: $r15 $rbp: $rbp $rbx: $rbx
STACK CFI 181a8 $r12: .cfa -40 + ^ $r13: .cfa -32 + ^ $r14: .cfa -24 + ^ $r15: .cfa -16 + ^ $rbp: .cfa -48 + ^ $rbx: .cfa -56 + ^ .cfa: $rsp 144 +
STACK CFI 18345 .cfa: $rsp 152 +
STACK CFI 1834a .cfa: $rsp 160 +
STACK CFI 1835d .cfa: $rsp 152 +
STACK CFI 1835e .cfa: $rsp 144 +
STACK CFI 18386 .cfa: $rsp 56 +
STACK CFI 18387 $rbx: $rbx .cfa: $rsp 48 +
STACK CFI 18391 $rbp: $rbp .cfa: $rsp 40 +
STACK CFI 18399 $r12: $r12 .cfa: $rsp 32 +
STACK CFI 1839b $r13: $r13 .cfa: $rsp 24 +
STACK CFI 1839d $r14: $r14 .cfa: $rsp 16 +
STACK CFI 1839f $r15: $r15 .cfa: $rsp 8 +
STACK CFI 183a8 $r12: .cfa -40 + ^ $r13: .cfa -32 + ^ $r14: .cfa -24 + ^ $r15: .cfa -16 + ^ $rbp: .cfa -48 + ^ $rbx: .cfa -56 + ^ .cfa: $rsp 144 +
STACK CFI INIT 18420 78 .cfa: $rsp 8 + .ra: .cfa -8 + ^
STACK CFI 1843e $r14: .cfa -16 + ^ .cfa: $rsp 16 +
STACK CFI 18440 $r13: .cfa -24 + ^ .cfa: $rsp 24 +
STACK CFI 18442 $r12: .cfa -32 + ^ .cfa: $rsp 32 +
STACK CFI 18443 $rbp: .cfa -40 + ^ .cfa: $rsp 40 +
STACK CFI 18447 $rbx: .cfa -48 + ^ .cfa: $rsp 48 +
STACK CFI 1847c $rbx: $rbx .cfa: $rsp 40 +
STACK CFI 18486 $rbp: $rbp .cfa: $rsp 32 +
STACK CFI 1848f $r12: $r12 .cfa: $rsp 24 +
STACK CFI 18491 $r13: $r13 .cfa: $rsp 16 +
STACK CFI 18493 $r14: $r14 .cfa: $rsp 8 +
STACK CFI INIT 184a0 6b3 .cfa: $rsp 8 + .ra: .cfa -8 + ^
STACK CFI 184a2 $r15: .cfa -16 + ^ .cfa: $rsp 16 +
STACK CFI 184a4 $r14: .cfa -24 + ^ .cfa: $rsp 24 +
STACK CFI 184a6 $r13: .cfa -32 + ^ .cfa: $rsp 32 +
STACK CFI 184a8 $r12: .cfa -40 + ^ .cfa: $rsp 40 +
STACK CFI 184ac $rbp: .cfa -48 + ^ .cfa: $rsp 48 +
STACK CFI 184ad $rbx: .cfa -56 + ^ .cfa: $rsp 56 +
STACK CFI 184b4 .cfa: $rsp 160 +
STACK CFI 1857b .cfa: $rsp 56 +
STACK CFI 1857c .cfa: $rsp 48 +
STACK CFI 1857d .cfa: $rsp 40 +
STACK CFI 1857f .cfa: $rsp 32 +
STACK CFI 18581 .cfa: $rsp 24 +
STACK CFI 18583 .cfa: $rsp 16 +
STACK CFI 18585 .cfa: $rsp 8 +
STACK CFI 18590 .cfa: $rsp 160 +
STACK CFI 18641 .cfa: $rsp 56 +
STACK CFI 18642 .cfa: $rsp 48 +
STACK CFI 18643 .cfa: $rsp 40 +
STACK CFI 18645 .cfa: $rsp 32 +
STACK CFI 18647 .cfa: $rsp 24 +
STACK CFI 18649 .cfa: $rsp 16 +
STACK CFI 1864b .cfa: $rsp 8 +
STACK CFI 18650 .cfa: $rsp 160 +
STACK CFI 18944 .cfa: $rsp 168 +
STACK CFI 18949 .cfa: $rsp 176 +
STACK CFI 1899e .cfa: $rsp 56 +
STACK CFI 1899f .cfa: $rsp 48 +
STACK CFI 189a0 .cfa: $rsp 40 +
STACK CFI 189a2 .cfa: $rsp 32 +
STACK CFI 189a4 .cfa: $rsp 24 +
STACK CFI 189a6 .cfa: $rsp 16 +
STACK CFI 189a8 .cfa: $rsp 8 +
STACK CFI 189b0 .cfa: $rsp 160 +
STACK CFI 18ad7 .cfa: $rsp 168 +
STACK CFI 18ad9 .cfa: $rsp 176 +
STACK CFI 18b04 .cfa: $rsp 168 +
STACK CFI 18b05 .cfa: $rsp 160 +
STACK CFI INIT 18b60 d7 .cfa: $rsp 8 + .ra: .cfa -8 + ^
STACK CFI 18b62 $r15: .cfa -16 + ^ .cfa: $rsp 16 +
STACK CFI 18b64 $r14: .cfa -24 + ^ .cfa: $rsp 24 +
STACK CFI 18b69 $r13: .cfa -32 + ^ .cfa: $rsp 32 +
STACK CFI 18b6b $r12: .cfa -40 + ^ .cfa: $rsp 40 +
STACK CFI 18b6f $rbp: .cfa -48 + ^ .cfa: $rsp 48 +
STACK CFI 18b70 $rbx: .cfa -56 + ^ .cfa: $rsp 56 +
STACK CFI 18b77 .cfa: $rsp 64 +
STACK CFI 18bfe .cfa: $rsp 56 +
STACK CFI 18c03 .cfa: $rsp 48 +
STACK CFI 18c04 .cfa: $rsp 40 +
STACK CFI 18c06 .cfa: $rsp 32 +
STACK CFI 18c08 .cfa: $rsp 24 +
STACK CFI 18c0a .cfa: $rsp 16 +
STACK CFI 18c0c .cfa: $rsp 8 +
STACK CFI 18c10 .cfa: $rsp 64 +
STACK CFI INIT 18c40 cb .cfa: $rsp 8 + .ra: .cfa -8 + ^
STACK CFI 18c42 $r15: .cfa -16 + ^ .cfa: $rsp 16 +
STACK CFI 18c44 $r14: .cfa -24 + ^ .cfa: $rsp 24 +
STACK CFI 18c49 $r13: .cfa -32 + ^ .cfa: $rsp 32 +
STACK CFI 18c4b $r12: .cfa -40 + ^ .cfa: $rsp 40 +
STACK CFI 18c4f $rbp: .cfa -48 + ^ .cfa: $rsp 48 +
STACK CFI 18c50 $rbx: .cfa -56 + ^ .cfa: $rsp 56 +
STACK CFI 18c5d .cfa: $rsp 64 +
STACK CFI 18cfc .cfa: $rsp 56 +
STACK CFI 18d01 .cfa: $rsp 48 +
STACK CFI 18d02 .cfa: $rsp 40 +
STACK CFI 18d04 .cfa: $rsp 32 +
STACK CFI 18d06 .cfa: $rsp 24 +
STACK CFI 18d08 .cfa: $rsp 16 +
STACK CFI 18d0a .cfa: $rsp 8 +
STACK CFI INIT 18d10 239 .cfa: $rsp 8 + .ra: .cfa -8 + ^
STACK CFI 18d12 $r15: .cfa -16 + ^ .cfa: $rsp 16 +
STACK CFI 18d14 $r14: .cfa -24 + ^ .cfa: $rsp 24 +
STACK CFI 18d16 $r13: .cfa -32 + ^ .cfa: $rsp 32 +
STACK CFI 18d18 $r12: .cfa -40 + ^ .cfa: $rsp 40 +
STACK CFI 18d19 $rbp: .cfa -48 + ^ .cfa: $rsp 48 +
STACK CFI 18d1a $rbx: .cfa -56 + ^ .cfa: $rsp 56 +
STACK CFI 18d27 .cfa: $rsp 112 +
STACK CFI 18ece .cfa: $rsp 56 +
STACK CFI 18ecf .cfa: $rsp 48 +
STACK CFI 18ed0 .cfa: $rsp 40 +
STACK CFI 18ed2 .cfa: $rsp 32 +
STACK CFI 18ed4 .cfa: $rsp 24 +
STACK CFI 18ed6 .cfa: $rsp 16 +
STACK CFI 18ed8 .cfa: $rsp 8 +
STACK CFI 18ee0 .cfa: $rsp 112 +
STACK CFI 18f04 .cfa: $rsp 56 +
STACK CFI 18f05 .cfa: $rsp 48 +
STACK CFI 18f0a .cfa: $rsp 40 +
STACK CFI 18f0c .cfa: $rsp 32 +
STACK CFI 18f0e .cfa: $rsp 24 +
STACK CFI 18f10 .cfa: $rsp 16 +
STACK CFI 18f12 .cfa: $rsp 8 +
STACK CFI 18f20 .cfa: $rsp 112 +
STACK CFI 18f37 .cfa: $rsp 56 +
STACK CFI 18f3b .cfa: $rsp 48 +
STACK CFI 18f3c .cfa: $rsp 40 +
STACK CFI 18f3e .cfa: $rsp 32 +
STACK CFI 18f40 .cfa: $rsp 24 +
STACK CFI 18f42 .cfa: $rsp 16 +
STACK CFI 18f44 .cfa: $rsp 8 +
STACK CFI INIT 18f50 ce .cfa: $rsp 8 + .ra: .cfa -8 + ^
STACK CFI 18f55 $r15: .cfa -16 + ^ .cfa: $rsp 16 +
STACK CFI 18f57 $r14: .cfa -24 + ^ .cfa: $rsp 24 +
STACK CFI 18f5c $r13: .cfa -32 + ^ .cfa: $rsp 32 +
STACK CFI 18f5e $r12: .cfa -40 + ^ .cfa: $rsp 40 +
STACK CFI 18f63 $rbp: .cfa -48 + ^ .cfa: $rsp 48 +
STACK CFI 18f6b $rbx: .cfa -56 + ^ .cfa: $rsp 56 +
STACK CFI 18f7e .cfa: $rsp 80 +
STACK CFI 18fc5 .cfa: $rsp 88 +
STACK CFI 18fca .cfa: $rsp 96 +
STACK CFI 18fea .cfa: $rsp 56 +
STACK CFI 18feb .cfa: $rsp 48 +
STACK CFI 18fec .cfa: $rsp 40 +
STACK CFI 18fee .cfa: $rsp 32 +
STACK CFI 18ff0 .cfa: $rsp 24 +
STACK CFI 18ff2 .cfa: $rsp 16 +
STACK CFI 18ff4 .cfa: $rsp 8 +
STACK CFI 18ff8 .cfa: $rsp 80 +
STACK CFI INIT 19020 12b .cfa: $rsp 8 + .ra: .cfa -8 + ^
STACK CFI 19026 $r13: .cfa -16 + ^ .cfa: $rsp 16 +
STACK CFI 19028 $r12: .cfa -24 + ^ .cfa: $rsp 24 +
STACK CFI 1902c $rbp: .cfa -32 + ^ .cfa: $rsp 32 +
STACK CFI 1902d $rbx: .cfa -40 + ^ .cfa: $rsp 40 +
STACK CFI 190e1 .cfa: $rsp 32 +
STACK CFI 190e2 .cfa: $rsp 24 +
STACK CFI 190e4 .cfa: $rsp 16 +
STACK CFI 190e6 .cfa: $rsp 8 +
STACK CFI 190f0 .cfa: $rsp 40 +
STACK CFI INIT 17530 1d6 .cfa: $rsp 8 + .ra: .cfa -8 + ^
STACK CFI 17532 $r14: .cfa -16 + ^ .cfa: $rsp 16 +
STACK CFI 17534 $r13: .cfa -24 + ^ .cfa: $rsp 24 +
STACK CFI 1753c $r12: .cfa -32 + ^ .cfa: $rsp 32 +
STACK CFI 1753d $rbp: .cfa -40 + ^ .cfa: $rsp 40 +
STACK CFI 17541 $rbx: .cfa -48 + ^ .cfa: $rsp 48 +
STACK CFI 17688 .cfa: $rsp 56 +
STACK CFI 17691 .cfa: $rsp 64 +
STACK CFI 176a0 .cfa: $rsp 56 +
STACK CFI 176a1 .cfa: $rsp 48 +
STACK CFI 176be .cfa: $rsp 56 +
STACK CFI 176d3 .cfa: $rsp 64 +
STACK CFI 176e1 .cfa: $rsp 56 +
STACK CFI 176e2 .cfa: $rsp 48 +
STACK CFI 176e5 .cfa: $rsp 40 +
STACK CFI 176e6 .cfa: $rsp 32 +
STACK CFI 176e8 .cfa: $rsp 24 +
STACK CFI 176ea .cfa: $rsp 16 +
STACK CFI 176ec .cfa: $rsp 8 +
STACK CFI 176ed .cfa: $rsp 48 +
STACK CFI INIT 17710 41c .cfa: $rsp 8 + .ra: .cfa -8 + ^
STACK CFI 17712 $r15: .cfa -16 + ^ .cfa: $rsp 16 +
STACK CFI 17714 $r14: .cfa -24 + ^ .cfa: $rsp 24 +
STACK CFI 17716 $r13: .cfa -32 + ^ .cfa: $rsp 32 +
STACK CFI 17718 $r12: .cfa -40 + ^ .cfa: $rsp 40 +
STACK CFI 1771c $rbp: .cfa -48 + ^ .cfa: $rsp 48 +
STACK CFI 1771d $rbx: .cfa -56 + ^ .cfa: $rsp 56 +
STACK CFI 17721 .cfa: $rsp 80 +
STACK CFI 1776d .cfa: $rsp 88 +
STACK CFI 1777a .cfa: $rsp 96 +
STACK CFI 17786 .cfa: $rsp 88 +
STACK CFI 17787 .cfa: $rsp 80 +
STACK CFI 178f9 .cfa: $rsp 56 +
STACK CFI 178fa .cfa: $rsp 48 +
STACK CFI 178fb .cfa: $rsp 40 +
STACK CFI 178fd .cfa: $rsp 32 +
STACK CFI 178ff .cfa: $rsp 24 +
STACK CFI 17901 .cfa: $rsp 16 +
STACK CFI 17903 .cfa: $rsp 8 +
STACK CFI 17904 .cfa: $rsp 80 +
STACK CFI 17972 .cfa: $rsp 88 +
STACK CFI 1797a .cfa: $rsp 96 +
STACK CFI 17988 .cfa: $rsp 88 +
STACK CFI 17989 .cfa: $rsp 80 +
STACK CFI INIT 8560 2e .cfa: $rsp 8 + .ra: .cfa -8 + ^
STACK CFI 856b .cfa: $rsp 16 +
STACK CFI 8589 .cfa: $rsp 8 +
STACK CFI INIT 19620 e .cfa: $rsp 8 + .ra: .cfa -8 + ^
STACK CFI INIT 19630 12 .cfa: $rsp 8 + .ra: .cfa -8 + ^
STACK CFI INIT 19150 2 .cfa: $rsp 8 + .ra: .cfa -8 + ^
STACK CFI INIT 19160 17 .cfa: $rsp 8 + .ra: .cfa -8 + ^
STACK CFI 19161 $rbx: .cfa -16 + ^ .cfa: $rsp 16 +
STACK CFI 19172 .cfa: $rsp 8 +
STACK CFI INIT 19180 48 .cfa: $rsp 8 + .ra: .cfa -8 + ^
STACK CFI INIT 191d0 34 .cfa: $rsp 8 + .ra: .cfa -8 + ^
STACK CFI INIT 19210 34 .cfa: $rsp 8 + .ra: .cfa -8 + ^
STACK CFI INIT 19250 8d .cfa: $rsp 8 + .ra: .cfa -8 + ^
STACK CFI 19252 $r13: .cfa -16 + ^ .cfa: $rsp 16 +
STACK CFI 19254 $r12: .cfa -24 + ^ .cfa: $rsp 24 +
STACK CFI 19258 $rbp: .cfa -32 + ^ .cfa: $rsp 32 +
STACK CFI 19259 $rbx: .cfa -40 + ^ .cfa: $rsp 40 +
STACK CFI 19260 .cfa: $rsp 48 +
STACK CFI 1928d .cfa: $rsp 40 +
STACK CFI 19291 .cfa: $rsp 32 +
STACK CFI 19292 .cfa: $rsp 24 +
STACK CFI 19294 .cfa: $rsp 16 +
STACK CFI 19296 .cfa: $rsp 8 +
STACK CFI 192a0 .cfa: $rsp 48 +
STACK CFI 192d0 .cfa: $rsp 40 +
STACK CFI 192d6 .cfa: $rsp 32 +
STACK CFI 192d7 .cfa: $rsp 24 +
STACK CFI 192d9 .cfa: $rsp 16 +
STACK CFI 192db .cfa: $rsp 8 +
STACK CFI INIT 192e0 2c .cfa: $rsp 8 + .ra: .cfa -8 + ^
STACK CFI INIT 19310 45 .cfa: $rsp 8 + .ra: .cfa -8 + ^
STACK CFI INIT 19360 2af .cfa: $rsp 8 + .ra: .cfa -8 + ^
STACK CFI 19367 $r12: .cfa -16 + ^ .cfa: $rsp 16 +
STACK CFI 1936a $rbp: .cfa -24 + ^ .cfa: $rsp 24 +
STACK CFI 1936b $rbx: .cfa -32 + ^ .cfa: $rsp 32 +
STACK CFI 1937b .cfa: $rsp 48 +
STACK CFI 19398 $r12: $r12 $rbp: $rbp $rbx: $rbx .cfa: $rsp 8 +
STACK CFI 19400 $r12: .cfa -16 + ^ $rbp: .cfa -24 + ^ $rbx: .cfa -32 + ^ .cfa: $rsp 48 +
STACK CFI 1944f .cfa: $rsp 32 +
STACK CFI 19450 .cfa: $rsp 24 +
STACK CFI 19451 .cfa: $rsp 16 +
STACK CFI 19453 .cfa: $rsp 8 +
STACK CFI 19458 .cfa: $rsp 48 +
STACK CFI INIT 19610 4 .cfa: $rsp 8 + .ra: .cfa -8 + ^
STACK CFI INIT 19c30 6 .cfa: $rsp 8 + .ra: .cfa -8 + ^
STACK CFI INIT 19c40 3 .cfa: $rsp 8 + .ra: .cfa -8 + ^
STACK CFI INIT 19c50 2 .cfa: $rsp 8 + .ra: .cfa -8 + ^
STACK CFI INIT 19c60 2 .cfa: $rsp 8 + .ra: .cfa -8 + ^
STACK CFI INIT 19c70 6 .cfa: $rsp 8 + .ra: .cfa -8 + ^
STACK CFI INIT 19c80 6 .cfa: $rsp 8 + .ra: .cfa -8 + ^
STACK CFI INIT 19650 2c .cfa: $rsp 8 + .ra: .cfa -8 + ^
STACK CFI INIT 19680 3d .cfa: $rsp 8 + .ra: .cfa -8 + ^
STACK CFI INIT 196c0 3d .cfa: $rsp 8 + .ra: .cfa -8 + ^
STACK CFI INIT 19700 3d .cfa: $rsp 8 + .ra: .cfa -8 + ^
STACK CFI INIT 19740 3d .cfa: $rsp 8 + .ra: .cfa -8 + ^
STACK CFI INIT 19780 3d .cfa: $rsp 8 + .ra: .cfa -8 + ^
STACK CFI INIT 197c0 3d .cfa: $rsp 8 + .ra: .cfa -8 + ^
STACK CFI INIT 19800 fb .cfa: $rsp 8 + .ra: .cfa -8 + ^
STACK CFI 19801 $rbp: .cfa -16 + ^ .cfa: $rsp 16 +
STACK CFI 19802 $rbx: .cfa -24 + ^ .cfa: $rsp 24 +
STACK CFI 19809 .cfa: $rsp 32 +
STACK CFI 1986a .cfa: $rsp 24 +
STACK CFI 1986b .cfa: $rsp 16 +
STACK CFI 1986c .cfa: $rsp 8 +
STACK CFI 19870 .cfa: $rsp 32 +
STACK CFI 1989a .cfa: $rsp 24 +
STACK CFI 1989b .cfa: $rsp 16 +
STACK CFI 1989c .cfa: $rsp 8 +
STACK CFI 198a0 .cfa: $rsp 32 +
STACK CFI 198ed .cfa: $rsp 24 +
STACK CFI 198ee .cfa: $rsp 16 +
STACK CFI 198ef .cfa: $rsp 8 +
STACK CFI 198f0 .cfa: $rsp 32 +
STACK CFI INIT 19900 e5 .cfa: $rsp 8 + .ra: .cfa -8 + ^
STACK CFI 19909 $r12: .cfa -16 + ^ .cfa: $rsp 16 +
STACK CFI 1990a $rbp: .cfa -24 + ^ .cfa: $rsp 24 +
STACK CFI 1990b $rbx: .cfa -32 + ^ .cfa: $rsp 32 +
STACK CFI 19987 .cfa: $rsp 24 +
STACK CFI 19988 .cfa: $rsp 16 +
STACK CFI 1998a .cfa: $rsp 8 +
STACK CFI 19990 .cfa: $rsp 32 +
STACK CFI 199e1 .cfa: $rsp 24 +
STACK CFI 199e2 .cfa: $rsp 16 +
STACK CFI 199e4 .cfa: $rsp 8 +
STACK CFI INIT 199f0 17 .cfa: $rsp 8 + .ra: .cfa -8 + ^
STACK CFI 199f1 $rbx: .cfa -16 + ^ .cfa: $rsp 16 +
STACK CFI 19a02 .cfa: $rsp 8 +
STACK CFI INIT 19c90 1c1 .cfa: $rsp 8 + .ra: .cfa -8 + ^
STACK CFI 19c92 $r15: .cfa -16 + ^ .cfa: $rsp 16 +
STACK CFI 19c94 $r14: .cfa -24 + ^ .cfa: $rsp 24 +
STACK CFI 19c99 $r13: .cfa -32 + ^ .cfa: $rsp 32 +
STACK CFI 19c9b $r12: .cfa -40 + ^ .cfa: $rsp 40 +
STACK CFI 19c9c $rbp: .cfa -48 + ^ .cfa: $rsp 48 +
STACK CFI 19c9d $rbx: .cfa -56 + ^ .cfa: $rsp 56 +
STACK CFI 19ca4 .cfa: $rsp 64 +
STACK CFI 19d13 .cfa: $rsp 56 +
STACK CFI 19d14 .cfa: $rsp 48 +
STACK CFI 19d15 .cfa: $rsp 40 +
STACK CFI 19d17 .cfa: $rsp 32 +
STACK CFI 19d19 .cfa: $rsp 24 +
STACK CFI 19d1b .cfa: $rsp 16 +
STACK CFI 19d1d .cfa: $rsp 8 +
STACK CFI 19d20 .cfa: $rsp 64 +
STACK CFI INIT 19a10 217 .cfa: $rsp 8 + .ra: .cfa -8 + ^
STACK CFI 19a12 $r13: .cfa -16 + ^ .cfa: $rsp 16 +
STACK CFI 19a14 $r12: .cfa -24 + ^ .cfa: $rsp 24 +
STACK CFI 19a18 $rbp: .cfa -32 + ^ .cfa: $rsp 32 +
STACK CFI 19a19 $rbx: .cfa -40 + ^ .cfa: $rsp 40 +
STACK CFI 19a20 .cfa: $rsp 96 +
STACK CFI 19ae7 .cfa: $rsp 40 +
STACK CFI 19ae8 .cfa: $rsp 32 +
STACK CFI 19ae9 .cfa: $rsp 24 +
STACK CFI 19aeb .cfa: $rsp 16 +
STACK CFI 19aed .cfa: $rsp 8 +
STACK CFI 19af0 .cfa: $rsp 96 +
STACK CFI INIT 20fa0 2 .cfa: $rsp 8 + .ra: .cfa -8 + ^
STACK CFI INIT 20fb0 2 .cfa: $rsp 8 + .ra: .cfa -8 + ^
STACK CFI INIT 20fc0 2 .cfa: $rsp 8 + .ra: .cfa -8 + ^
STACK CFI INIT 20fd0 2 .cfa: $rsp 8 + .ra: .cfa -8 + ^
STACK CFI INIT 20fe0 2 .cfa: $rsp 8 + .ra: .cfa -8 + ^
STACK CFI INIT 20ff0 2 .cfa: $rsp 8 + .ra: .cfa -8 + ^
STACK CFI INIT 21000 3 .cfa: $rsp 8 + .ra: .cfa -8 + ^
STACK CFI INIT 21010 3 .cfa: $rsp 8 + .ra: .cfa -8 + ^
STACK CFI INIT 21020 2 .cfa: $rsp 8 + .ra: .cfa -8 + ^
STACK CFI INIT 21030 2 .cfa: $rsp 8 + .ra: .cfa -8 + ^
STACK CFI INIT 21040 2 .cfa: $rsp 8 + .ra: .cfa -8 + ^
STACK CFI INIT 21050 2 .cfa: $rsp 8 + .ra: .cfa -8 + ^
STACK CFI INIT 21060 2 .cfa: $rsp 8 + .ra: .cfa -8 + ^
STACK CFI INIT 21070 2 .cfa: $rsp 8 + .ra: .cfa -8 + ^
STACK CFI INIT 21080 2 .cfa: $rsp 8 + .ra: .cfa -8 + ^
STACK CFI INIT 21090 2 .cfa: $rsp 8 + .ra: .cfa -8 + ^
STACK CFI INIT 210a0 2 .cfa: $rsp 8 + .ra: .cfa -8 + ^
STACK CFI INIT 210b0 2 .cfa: $rsp 8 + .ra: .cfa -8 + ^
STACK CFI INIT 210c0 e .cfa: $rsp 8 + .ra: .cfa -8 + ^
STACK CFI INIT 210d0 2 .cfa: $rsp 8 + .ra: .cfa -8 + ^
STACK CFI INIT 210e0 e .cfa: $rsp 8 + .ra: .cfa -8 + ^
STACK CFI INIT 210f0 2 .cfa: $rsp 8 + .ra: .cfa -8 + ^
STACK CFI INIT 21100 1c .cfa: $rsp 8 + .ra: .cfa -8 + ^
STACK CFI INIT 21120 2 .cfa: $rsp 8 + .ra: .cfa -8 + ^
STACK CFI INIT 21130 1c .cfa: $rsp 8 + .ra: .cfa -8 + ^
STACK CFI INIT 21150 4 .cfa: $rsp 8 + .ra: .cfa -8 + ^
STACK CFI INIT 21160 5 .cfa: $rsp 8 + .ra: .cfa -8 + ^
STACK CFI INIT 21170 2 .cfa: $rsp 8 + .ra: .cfa -8 + ^
STACK CFI INIT 21180 18 .cfa: $rsp 8 + .ra: .cfa -8 + ^
STACK CFI INIT 211a0 19 .cfa: $rsp 8 + .ra: .cfa -8 + ^
STACK CFI INIT 211c0 19 .cfa: $rsp 8 + .ra: .cfa -8 + ^
STACK CFI INIT 211e0 a .cfa: $rsp 8 + .ra: .cfa -8 + ^
STACK CFI INIT 211f0 a .cfa: $rsp 8 + .ra: .cfa -8 + ^
STACK CFI INIT 21200 a .cfa: $rsp 8 + .ra: .cfa -8 + ^
STACK CFI INIT 21210 a .cfa: $rsp 8 + .ra: .cfa -8 + ^
STACK CFI INIT 21220 a .cfa: $rsp 8 + .ra: .cfa -8 + ^
STACK CFI INIT 21230 2a .cfa: $rsp 8 + .ra: .cfa -8 + ^
STACK CFI INIT 21260 32 .cfa: $rsp 8 + .ra: .cfa -8 + ^
STACK CFI 21268 $rbx: .cfa -16 + ^ .cfa: $rsp 16 +
STACK CFI 2128d .cfa: $rsp 8 +
STACK CFI INIT 212a0 2a .cfa: $rsp 8 + .ra: .cfa -8 + ^
STACK CFI INIT 212d0 32 .cfa: $rsp 8 + .ra: .cfa -8 + ^
STACK CFI 212d8 $rbx: .cfa -16 + ^ .cfa: $rsp 16 +
STACK CFI 212fd .cfa: $rsp 8 +
STACK CFI INIT 21310 42 .cfa: $rsp 8 + .ra: .cfa -8 + ^
STACK CFI 21318 $rbx: .cfa -16 + ^ .cfa: $rsp 16 +
STACK CFI 21342 .cfa: $rsp 8 +
STACK CFI 21350 .cfa: $rsp 16 +
STACK CFI 21351 .cfa: $rsp 8 +
STACK CFI INIT 21360 3a .cfa: $rsp 8 + .ra: .cfa -8 + ^
STACK CFI 21361 $rbx: .cfa -16 + ^ .cfa: $rsp 16 +
STACK CFI 2138e .cfa: $rsp 8 +
STACK CFI 21398 .cfa: $rsp 16 +
STACK CFI 21399 .cfa: $rsp 8 +
STACK CFI INIT 213a0 21 .cfa: $rsp 8 + .ra: .cfa -8 + ^
STACK CFI 213a4 .cfa: $rsp 16 +
STACK CFI 213c0 .cfa: $rsp 8 +
STACK CFI INIT 213d0 21 .cfa: $rsp 8 + .ra: .cfa -8 + ^
STACK CFI 213d4 .cfa: $rsp 16 +
STACK CFI 213f0 .cfa: $rsp 8 +
STACK CFI INIT 21400 2c .cfa: $rsp 8 + .ra: .cfa -8 + ^
STACK CFI 21401 $rbx: .cfa -16 + ^ .cfa: $rsp 16 +
STACK CFI 2142b .cfa: $rsp 8 +
STACK CFI INIT 21430 2c .cfa: $rsp 8 + .ra: .cfa -8 + ^
STACK CFI 21431 $rbx: .cfa -16 + ^ .cfa: $rsp 16 +
STACK CFI 2145b .cfa: $rsp 8 +
STACK CFI INIT 21460 24 .cfa: $rsp 8 + .ra: .cfa -8 + ^
STACK CFI 21461 $rbx: .cfa -16 + ^ .cfa: $rsp 16 +
STACK CFI 21483 .cfa: $rsp 8 +
STACK CFI INIT 19e60 28 .cfa: $rsp 8 + .ra: .cfa -8 + ^
STACK CFI INIT 19e90 32 .cfa: $rsp 8 + .ra: .cfa -8 + ^
STACK CFI 19e94 .cfa: $rsp 24 +
STACK CFI 19ea0 .cfa: $rsp 32 +
STACK CFI 19ec1 .cfa: $rsp 8 +
STACK CFI INIT 19ed0 32 .cfa: $rsp 8 + .ra: .cfa -8 + ^
STACK CFI 19ed4 .cfa: $rsp 24 +
STACK CFI 19ee0 .cfa: $rsp 32 +
STACK CFI 19f01 .cfa: $rsp 8 +
STACK CFI INIT 19f10 35 .cfa: $rsp 8 + .ra: .cfa -8 + ^
STACK CFI 19f14 .cfa: $rsp 24 +
STACK CFI 19f23 .cfa: $rsp 32 +
STACK CFI 19f44 .cfa: $rsp 8 +
STACK CFI INIT 19f50 35 .cfa: $rsp 8 + .ra: .cfa -8 + ^
STACK CFI 19f54 .cfa: $rsp 24 +
STACK CFI 19f63 .cfa: $rsp 32 +
STACK CFI 19f84 .cfa: $rsp 8 +
STACK CFI INIT 19f90 32 .cfa: $rsp 8 + .ra: .cfa -8 + ^
STACK CFI 19f94 .cfa: $rsp 24 +
STACK CFI 19fa0 .cfa: $rsp 32 +
STACK CFI 19fc1 .cfa: $rsp 8 +
STACK CFI INIT 19fd0 33 .cfa: $rsp 8 + .ra: .cfa -8 + ^
STACK CFI 19fd4 .cfa: $rsp 24 +
STACK CFI 19fe1 .cfa: $rsp 32 +
STACK CFI 1a002 .cfa: $rsp 8 +
STACK CFI INIT 1a010 35 .cfa: $rsp 8 + .ra: .cfa -8 + ^
STACK CFI 1a014 .cfa: $rsp 24 +
STACK CFI 1a023 .cfa: $rsp 32 +
STACK CFI 1a044 .cfa: $rsp 8 +
STACK CFI INIT 1a050 35 .cfa: $rsp 8 + .ra: .cfa -8 + ^
STACK CFI 1a054 .cfa: $rsp 24 +
STACK CFI 1a063 .cfa: $rsp 32 +
STACK CFI 1a084 .cfa: $rsp 8 +
STACK CFI INIT 1a090 32 .cfa: $rsp 8 + .ra: .cfa -8 + ^
STACK CFI 1a094 .cfa: $rsp 24 +
STACK CFI 1a0a0 .cfa: $rsp 32 +
STACK CFI 1a0c1 .cfa: $rsp 8 +
STACK CFI INIT 21490 30 .cfa: $rsp 8 + .ra: .cfa -8 + ^
STACK CFI 21491 $rbx: .cfa -16 + ^ .cfa: $rsp 16 +
STACK CFI 214bf .cfa: $rsp 8 +
STACK CFI INIT 214c0 3d .cfa: $rsp 8 + .ra: .cfa -8 + ^
STACK CFI 214c1 $rbx: .cfa -16 + ^ .cfa: $rsp 16 +
STACK CFI 214ef .cfa: $rsp 8 +
STACK CFI 214f0 .cfa: $rsp 16 +
STACK CFI 214f9 .cfa: $rsp 8 +
STACK CFI INIT 21500 3d .cfa: $rsp 8 + .ra: .cfa -8 + ^
STACK CFI 21501 $rbx: .cfa -16 + ^ .cfa: $rsp 16 +
STACK CFI 2152f .cfa: $rsp 8 +
STACK CFI 21530 .cfa: $rsp 16 +
STACK CFI 21539 .cfa: $rsp 8 +
STACK CFI INIT 21540 27 .cfa: $rsp 8 + .ra: .cfa -8 + ^
STACK CFI 21544 .cfa: $rsp 16 +
STACK CFI 21566 .cfa: $rsp 8 +
STACK CFI INIT 21570 27 .cfa: $rsp 8 + .ra: .cfa -8 + ^
STACK CFI 21574 .cfa: $rsp 16 +
STACK CFI 21596 .cfa: $rsp 8 +
STACK CFI INIT 215a0 56 .cfa: $rsp 8 + .ra: .cfa -8 + ^
STACK CFI 215a1 $rbx: .cfa -16 + ^ .cfa: $rsp 16 +
STACK CFI 215d1 .cfa: $rsp 8 +
STACK CFI 215d8 .cfa: $rsp 16 +
STACK CFI 215f5 .cfa: $rsp 8 +
STACK CFI INIT 1a0d0 2d .cfa: $rsp 8 + .ra: .cfa -8 + ^
STACK CFI 1a0d7 .cfa: $rsp 16 +
STACK CFI 1a0fc .cfa: $rsp 8 +
STACK CFI INIT 1a100 c8 .cfa: $rsp 8 + .ra: .cfa -8 + ^
STACK CFI 1a102 $r12: .cfa -16 + ^ .cfa: $rsp 16 +
STACK CFI 1a103 $rbp: .cfa -24 + ^ .cfa: $rsp 24 +
STACK CFI 1a107 $rbx: .cfa -32 + ^ .cfa: $rsp 32 +
STACK CFI 1a10e .cfa: $rsp 48 +
STACK CFI 1a174 .cfa: $rsp 32 +
STACK CFI 1a175 .cfa: $rsp 24 +
STACK CFI 1a176 .cfa: $rsp 16 +
STACK CFI 1a178 .cfa: $rsp 8 +
STACK CFI 1a180 .cfa: $rsp 48 +
STACK CFI INIT 21600 62 .cfa: $rsp 8 + .ra: .cfa -8 + ^
STACK CFI 21601 $rbp: .cfa -16 + ^ .cfa: $rsp 16 +
STACK CFI 21602 $rbx: .cfa -24 + ^ .cfa: $rsp 24 +
STACK CFI 2160e .cfa: $rsp 32 +
STACK CFI 21644 .cfa: $rsp 24 +
STACK CFI 21648 .cfa: $rsp 16 +
STACK CFI 21649 .cfa: $rsp 8 +
STACK CFI 2164a .cfa: $rsp 32 +
STACK CFI INIT 21670 62 .cfa: $rsp 8 + .ra: .cfa -8 + ^
STACK CFI 21671 $rbp: .cfa -16 + ^ .cfa: $rsp 16 +
STACK CFI 21672 $rbx: .cfa -24 + ^ .cfa: $rsp 24 +
STACK CFI 2167e .cfa: $rsp 32 +
STACK CFI 216b4 .cfa: $rsp 24 +
STACK CFI 216b8 .cfa: $rsp 16 +
STACK CFI 216b9 .cfa: $rsp 8 +
STACK CFI 216ba .cfa: $rsp 32 +
STACK CFI INIT 216e0 56 .cfa: $rsp 8 + .ra: .cfa -8 + ^
STACK CFI 216e1 $rbx: .cfa -16 + ^ .cfa: $rsp 16 +
STACK CFI 21711 .cfa: $rsp 8 +
STACK CFI 21718 .cfa: $rsp 16 +
STACK CFI 21735 .cfa: $rsp 8 +
STACK CFI INIT 21740 44 .cfa: $rsp 8 + .ra: .cfa -8 + ^
STACK CFI 21748 $rbx: .cfa -16 + ^ .cfa: $rsp 16 +
STACK CFI 2177f .cfa: $rsp 8 +
STACK CFI INIT 21790 4e .cfa: $rsp 8 + .ra: .cfa -8 + ^
STACK CFI 21791 $rbp: .cfa -16 + ^ .cfa: $rsp 16 +
STACK CFI 21792 $rbx: .cfa -24 + ^ .cfa: $rsp 24 +
STACK CFI 21799 .cfa: $rsp 32 +
STACK CFI 217cf .cfa: $rsp 24 +
STACK CFI 217d8 .cfa: $rsp 16 +
STACK CFI 217d9 .cfa: $rsp 8 +
STACK CFI INIT 1a1d0 125 .cfa: $rsp 8 + .ra: .cfa -8 + ^
STACK CFI 1a1d9 $r14: .cfa -16 + ^ .cfa: $rsp 16 +
STACK CFI 1a1de $r13: .cfa -24 + ^ .cfa: $rsp 24 +
STACK CFI 1a1e0 $r12: .cfa -32 + ^ .cfa: $rsp 32 +
STACK CFI 1a1e4 $rbp: .cfa -40 + ^ .cfa: $rsp 40 +
STACK CFI 1a1e5 $rbx: .cfa -48 + ^ .cfa: $rsp 48 +
STACK CFI 1a2ed .cfa: $rsp 40 +
STACK CFI 1a2ee .cfa: $rsp 32 +
STACK CFI 1a2f0 .cfa: $rsp 24 +
STACK CFI 1a2f2 .cfa: $rsp 16 +
STACK CFI 1a2f4 .cfa: $rsp 8 +
STACK CFI INIT 1a300 2b .cfa: $rsp 8 + .ra: .cfa -8 + ^
STACK CFI INIT 1a330 2c6 .cfa: $rsp 8 + .ra: .cfa -8 + ^
STACK CFI 1a334 .cfa: $rsp 32 +
STACK CFI 1a3c4 .cfa: $rsp 8 +
STACK CFI 1a3c8 .cfa: $rsp 32 +
STACK CFI 1a407 .cfa: $rsp 8 +
STACK CFI 1a410 .cfa: $rsp 32 +
STACK CFI INIT 1a600 3b .cfa: $rsp 8 + .ra: .cfa -8 + ^
STACK CFI 1a602 $r12: .cfa -16 + ^ .cfa: $rsp 16 +
STACK CFI 1a603 $rbp: .cfa -24 + ^ .cfa: $rsp 24 +
STACK CFI 1a608 $rbx: .cfa -32 + ^ .cfa: $rsp 32 +
STACK CFI 1a637 .cfa: $rsp 24 +
STACK CFI 1a638 .cfa: $rsp 16 +
STACK CFI 1a63a .cfa: $rsp 8 +
STACK CFI INIT 1a640 bc .cfa: $rsp 8 + .ra: .cfa -8 + ^
STACK CFI 1a641 $rbp: .cfa -16 + ^ .cfa: $rsp 16 +
STACK CFI 1a642 $rbx: .cfa -24 + ^ .cfa: $rsp 24 +
STACK CFI 1a649 .cfa: $rsp 48 +
STACK CFI 1a6e8 .cfa: $rsp 24 +
STACK CFI 1a6e9 .cfa: $rsp 16 +
STACK CFI 1a6ea .cfa: $rsp 8 +
STACK CFI 1a6f0 .cfa: $rsp 48 +
STACK CFI INIT 1a700 100f .cfa: $rsp 8 + .ra: .cfa -8 + ^
STACK CFI 1a702 $r15: .cfa -16 + ^ .cfa: $rsp 16 +
STACK CFI 1a704 $r14: .cfa -24 + ^ .cfa: $rsp 24 +
STACK CFI 1a709 $r13: .cfa -32 + ^ .cfa: $rsp 32 +
STACK CFI 1a70b $r12: .cfa -40 + ^ .cfa: $rsp 40 +
STACK CFI 1a70f $rbp: .cfa -48 + ^ .cfa: $rsp 48 +
STACK CFI 1a710 $rbx: .cfa -56 + ^ .cfa: $rsp 56 +
STACK CFI 1a71a .cfa: $rsp 128 +
STACK CFI 1a998 .cfa: $rsp 56 +
STACK CFI 1a999 .cfa: $rsp 48 +
STACK CFI 1a99a .cfa: $rsp 40 +
STACK CFI 1a99c .cfa: $rsp 32 +
STACK CFI 1a99e .cfa: $rsp 24 +
STACK CFI 1a9a0 .cfa: $rsp 16 +
STACK CFI 1a9a2 .cfa: $rsp 8 +
STACK CFI 1a9a8 .cfa: $rsp 128 +
STACK CFI INIT 1b710 85 .cfa: $rsp 8 + .ra: .cfa -8 + ^
STACK CFI 1b712 $r14: .cfa -16 + ^ .cfa: $rsp 16 +
STACK CFI 1b714 $r13: .cfa -24 + ^ .cfa: $rsp 24 +
STACK CFI 1b719 $r12: .cfa -32 + ^ .cfa: $rsp 32 +
STACK CFI 1b71a $rbp: .cfa -40 + ^ .cfa: $rsp 40 +
STACK CFI 1b71f $rbx: .cfa -48 + ^ .cfa: $rsp 48 +
STACK CFI 1b75d .cfa: $rsp 40 +
STACK CFI 1b75e .cfa: $rsp 32 +
STACK CFI 1b760 .cfa: $rsp 24 +
STACK CFI 1b762 .cfa: $rsp 16 +
STACK CFI 1b764 .cfa: $rsp 8 +
STACK CFI 1b768 .cfa: $rsp 48 +
STACK CFI 1b789 .cfa: $rsp 40 +
STACK CFI 1b78a .cfa: $rsp 32 +
STACK CFI 1b78c .cfa: $rsp 24 +
STACK CFI 1b792 .cfa: $rsp 16 +
STACK CFI 1b794 .cfa: $rsp 8 +
STACK CFI INIT 1b7a0 99 .cfa: $rsp 8 + .ra: .cfa -8 + ^
STACK CFI INIT 1b840 22 .cfa: $rsp 8 + .ra: .cfa -8 + ^
STACK CFI 1b841 $rbx: .cfa -16 + ^ .cfa: $rsp 16 +
STACK CFI 1b85a .cfa: $rsp 8 +
STACK CFI 1b860 .cfa: $rsp 16 +
STACK CFI 1b861 .cfa: $rsp 8 +
STACK CFI INIT 217e0 11f .cfa: $rsp 8 + .ra: .cfa -8 + ^
STACK CFI 217e2 $r15: .cfa -16 + ^ .cfa: $rsp 16 +
STACK CFI 217e4 $r14: .cfa -24 + ^ .cfa: $rsp 24 +
STACK CFI 217e6 $r13: .cfa -32 + ^ .cfa: $rsp 32 +
STACK CFI 217e8 $r12: .cfa -40 + ^ .cfa: $rsp 40 +
STACK CFI 217ec $rbp: .cfa -48 + ^ .cfa: $rsp 48 +
STACK CFI 217ed $rbx: .cfa -56 + ^ .cfa: $rsp 56 +
STACK CFI 217f1 .cfa: $rsp 64 +
STACK CFI 218de .cfa: $rsp 56 +
STACK CFI 218df .cfa: $rsp 48 +
STACK CFI 218e0 .cfa: $rsp 40 +
STACK CFI 218e2 .cfa: $rsp 32 +
STACK CFI 218e4 .cfa: $rsp 24 +
STACK CFI 218e6 .cfa: $rsp 16 +
STACK CFI 218e8 .cfa: $rsp 8 +
STACK CFI 218f0 .cfa: $rsp 64 +
STACK CFI 218f4 .cfa: $rsp 56 +
STACK CFI 218f5 .cfa: $rsp 48 +
STACK CFI 218f6 .cfa: $rsp 40 +
STACK CFI 218f8 .cfa: $rsp 32 +
STACK CFI 218fa .cfa: $rsp 24 +
STACK CFI 218fc .cfa: $rsp 16 +
STACK CFI 218fe .cfa: $rsp 8 +
STACK CFI INIT 21900 11b .cfa: $rsp 8 + .ra: .cfa -8 + ^
STACK CFI 21902 $r15: .cfa -16 + ^ .cfa: $rsp 16 +
STACK CFI 21904 $r14: .cfa -24 + ^ .cfa: $rsp 24 +
STACK CFI 21906 $r13: .cfa -32 + ^ .cfa: $rsp 32 +
STACK CFI 21908 $r12: .cfa -40 + ^ .cfa: $rsp 40 +
STACK CFI 2190c $rbp: .cfa -48 + ^ .cfa: $rsp 48 +
STACK CFI 2190d $rbx: .cfa -56 + ^ .cfa: $rsp 56 +
STACK CFI 21911 .cfa: $rsp 64 +
STACK CFI 21a04 .cfa: $rsp 56 +
STACK CFI 21a0d .cfa: $rsp 48 +
STACK CFI 21a0e .cfa: $rsp 40 +
STACK CFI 21a10 .cfa: $rsp 32 +
STACK CFI 21a12 .cfa: $rsp 24 +
STACK CFI 21a14 .cfa: $rsp 16 +
STACK CFI 21a16 .cfa: $rsp 8 +
STACK CFI INIT 1b870 2bf .cfa: $rsp 8 + .ra: .cfa -8 + ^
STACK CFI 1b872 $r12: .cfa -16 + ^ .cfa: $rsp 16 +
STACK CFI 1b873 $rbp: .cfa -24 + ^ .cfa: $rsp 24 +
STACK CFI 1b87b $rbx: .cfa -32 + ^ .cfa: $rsp 32 +
STACK CFI 1b886 .cfa: $rsp 80 +
STACK CFI 1b960 .cfa: $rsp 32 +
STACK CFI 1b961 .cfa: $rsp 24 +
STACK CFI 1b962 .cfa: $rsp 16 +
STACK CFI 1b964 .cfa: $rsp 8 +
STACK CFI 1b968 .cfa: $rsp 80 +
STACK CFI INIT 1bb30 77 .cfa: $rsp 8 + .ra: .cfa -8 + ^
STACK CFI INIT 1bbb0 9c .cfa: $rsp 8 + .ra: .cfa -8 + ^
STACK CFI 1bbb1 $rbp: .cfa -16 + ^ .cfa: $rsp 16 +
STACK CFI 1bbb2 $rbx: .cfa -24 + ^ .cfa: $rsp 24 +
STACK CFI 1bc4a .cfa: $rsp 16 +
STACK CFI 1bc4b .cfa: $rsp 8 +
STACK CFI INIT 1bc50 23 .cfa: $rsp 8 + .ra: .cfa -8 + ^
STACK CFI INIT 1bc80 435 .cfa: $rsp 8 + .ra: .cfa -8 + ^
STACK CFI 1bc82 $r15: .cfa -16 + ^ .cfa: $rsp 16 +
STACK CFI 1bc84 $r14: .cfa -24 + ^ .cfa: $rsp 24 +
STACK CFI 1bc86 $r13: .cfa -32 + ^ .cfa: $rsp 32 +
STACK CFI 1bc88 $r12: .cfa -40 + ^ .cfa: $rsp 40 +
STACK CFI 1bc89 $rbp: .cfa -48 + ^ .cfa: $rsp 48 +
STACK CFI 1bc8a $rbx: .cfa -56 + ^ .cfa: $rsp 56 +
STACK CFI 1bc91 .cfa: $rsp 176 +
STACK CFI 1c025 .cfa: $rsp 56 +
STACK CFI 1c026 .cfa: $rsp 48 +
STACK CFI 1c027 .cfa: $rsp 40 +
STACK CFI 1c029 .cfa: $rsp 32 +
STACK CFI 1c02b .cfa: $rsp 24 +
STACK CFI 1c02d .cfa: $rsp 16 +
STACK CFI 1c02f .cfa: $rsp 8 +
STACK CFI 1c030 .cfa: $rsp 176 +
STACK CFI INIT 1c0c0 569 .cfa: $rsp 8 + .ra: .cfa -8 + ^
STACK CFI 1c0c2 $r15: .cfa -16 + ^ .cfa: $rsp 16 +
STACK CFI 1c0c4 $r14: .cfa -24 + ^ .cfa: $rsp 24 +
STACK CFI 1c0c9 $r13: .cfa -32 + ^ .cfa: $rsp 32 +
STACK CFI 1c0cb $r12: .cfa -40 + ^ .cfa: $rsp 40 +
STACK CFI 1c0cf $rbp: .cfa -48 + ^ .cfa: $rsp 48 +
STACK CFI 1c0d0 $rbx: .cfa -56 + ^ .cfa: $rsp 56 +
STACK CFI 1c0da .cfa: $rsp 144 +
STACK CFI 1c176 .cfa: $rsp 56 +
STACK CFI 1c177 .cfa: $rsp 48 +
STACK CFI 1c178 .cfa: $rsp 40 +
STACK CFI 1c17a .cfa: $rsp 32 +
STACK CFI 1c17c .cfa: $rsp 24 +
STACK CFI 1c17e .cfa: $rsp 16 +
STACK CFI 1c180 .cfa: $rsp 8 +
STACK CFI 1c188 .cfa: $rsp 144 +
STACK CFI INIT 1c630 1dc .cfa: $rsp 8 + .ra: .cfa -8 + ^
STACK CFI 1c632 $r15: .cfa -16 + ^ .cfa: $rsp 16 +
STACK CFI 1c634 $r14: .cfa -24 + ^ .cfa: $rsp 24 +
STACK CFI 1c636 $r13: .cfa -32 + ^ .cfa: $rsp 32 +
STACK CFI 1c638 $r12: .cfa -40 + ^ .cfa: $rsp 40 +
STACK CFI 1c63c $rbp: .cfa -48 + ^ .cfa: $rsp 48 +
STACK CFI 1c63d $rbx: .cfa -56 + ^ .cfa: $rsp 56 +
STACK CFI 1c641 .cfa: $rsp 176 +
STACK CFI 1c74f .cfa: $rsp 184 +
STACK CFI 1c753 .cfa: $rsp 192 +
STACK CFI 1c768 .cfa: $rsp 184 +
STACK CFI 1c769 .cfa: $rsp 176 +
STACK CFI 1c7fc .cfa: $rsp 56 +
STACK CFI 1c7fd .cfa: $rsp 48 +
STACK CFI 1c7fe .cfa: $rsp 40 +
STACK CFI 1c800 .cfa: $rsp 32 +
STACK CFI 1c802 .cfa: $rsp 24 +
STACK CFI 1c804 .cfa: $rsp 16 +
STACK CFI 1c806 .cfa: $rsp 8 +
STACK CFI 1c807 .cfa: $rsp 176 +
STACK CFI INIT 1c810 1b .cfa: $rsp 8 + .ra: .cfa -8 + ^
STACK CFI 1c811 $rbx: .cfa -16 + ^ .cfa: $rsp 16 +
STACK CFI 1c82a .cfa: $rsp 8 +
STACK CFI INIT 1c830 10 .cfa: $rsp 8 + .ra: .cfa -8 + ^
STACK CFI INIT 1c840 13f .cfa: $rsp 8 + .ra: .cfa -8 + ^
STACK CFI 1c842 $r14: .cfa -16 + ^ .cfa: $rsp 16 +
STACK CFI 1c844 $r13: .cfa -24 + ^ .cfa: $rsp 24 +
STACK CFI 1c84b $r12: .cfa -32 + ^ .cfa: $rsp 32 +
STACK CFI 1c84c $rbp: .cfa -40 + ^ .cfa: $rsp 40 +
STACK CFI 1c854 $rbx: .cfa -48 + ^ .cfa: $rsp 48 +
STACK CFI 1c858 .cfa: $rsp 64 +
STACK CFI 1c946 .cfa: $rsp 48 +
STACK CFI 1c947 .cfa: $rsp 40 +
STACK CFI 1c948 .cfa: $rsp 32 +
STACK CFI 1c94a .cfa: $rsp 24 +
STACK CFI 1c94c .cfa: $rsp 16 +
STACK CFI 1c94e .cfa: $rsp 8 +
STACK CFI 1c950 .cfa: $rsp 64 +
STACK CFI INIT 1c980 53 .cfa: $rsp 8 + .ra: .cfa -8 + ^
STACK CFI INIT 1c9e0 13f .cfa: $rsp 8 + .ra: .cfa -8 + ^
STACK CFI 1c9e2 $r15: .cfa -16 + ^ .cfa: $rsp 16 +
STACK CFI 1c9e4 $r14: .cfa -24 + ^ .cfa: $rsp 24 +
STACK CFI 1c9e9 $r13: .cfa -32 + ^ .cfa: $rsp 32 +
STACK CFI 1c9eb $r12: .cfa -40 + ^ .cfa: $rsp 40 +
STACK CFI 1c9ef $rbp: .cfa -48 + ^ .cfa: $rsp 48 +
STACK CFI 1c9f0 $rbx: .cfa -56 + ^ .cfa: $rsp 56 +
STACK CFI 1c9fa .cfa: $rsp 64 +
STACK CFI 1ca77 .cfa: $rsp 56 +
STACK CFI 1ca7d .cfa: $rsp 48 +
STACK CFI 1ca7e .cfa: $rsp 40 +
STACK CFI 1ca80 .cfa: $rsp 32 +
STACK CFI 1ca82 .cfa: $rsp 24 +
STACK CFI 1ca84 .cfa: $rsp 16 +
STACK CFI 1ca86 .cfa: $rsp 8 +
STACK CFI 1ca90 .cfa: $rsp 64 +
STACK CFI 1cab8 .cfa: $rsp 56 +
STACK CFI 1cabb .cfa: $rsp 48 +
STACK CFI 1cabc .cfa: $rsp 40 +
STACK CFI 1cabe .cfa: $rsp 32 +
STACK CFI 1cac0 .cfa: $rsp 24 +
STACK CFI 1cac2 .cfa: $rsp 16 +
STACK CFI 1cac4 .cfa: $rsp 8 +
STACK CFI 1cac8 .cfa: $rsp 64 +
STACK CFI INIT 1cb20 43a .cfa: $rsp 8 + .ra: .cfa -8 + ^
STACK CFI 1cb22 $r15: .cfa -16 + ^ .cfa: $rsp 16 +
STACK CFI 1cb24 $r14: .cfa -24 + ^ .cfa: $rsp 24 +
STACK CFI 1cb26 $r13: .cfa -32 + ^ .cfa: $rsp 32 +
STACK CFI 1cb28 $r12: .cfa -40 + ^ .cfa: $rsp 40 +
STACK CFI 1cb29 $rbp: .cfa -48 + ^ .cfa: $rsp 48 +
STACK CFI 1cb2a $rbx: .cfa -56 + ^ .cfa: $rsp 56 +
STACK CFI 1cb2e .cfa: $rsp 160 +
STACK CFI 1cc26 .cfa: $rsp 56 +
STACK CFI 1cc27 .cfa: $rsp 48 +
STACK CFI 1cc28 .cfa: $rsp 40 +
STACK CFI 1cc2a .cfa: $rsp 32 +
STACK CFI 1cc2c .cfa: $rsp 24 +
STACK CFI 1cc2e .cfa: $rsp 16 +
STACK CFI 1cc30 .cfa: $rsp 8 +
STACK CFI 1cc38 .cfa: $rsp 160 +
STACK CFI INIT 1cf60 ae .cfa: $rsp 8 + .ra: .cfa -8 + ^
STACK CFI 1cf62 $r13: .cfa -16 + ^ .cfa: $rsp 16 +
STACK CFI 1cf64 $r12: .cfa -24 + ^ .cfa: $rsp 24 +
STACK CFI 1cf68 $rbp: .cfa -32 + ^ .cfa: $rsp 32 +
STACK CFI 1cf69 $rbx: .cfa -40 + ^ .cfa: $rsp 40 +
STACK CFI 1cf78 .cfa: $rsp 48 +
STACK CFI 1cfd8 .cfa: $rsp 40 +
STACK CFI 1cfd9 .cfa: $rsp 32 +
STACK CFI 1cfda .cfa: $rsp 24 +
STACK CFI 1cfdc .cfa: $rsp 16 +
STACK CFI 1cfde .cfa: $rsp 8 +
STACK CFI 1cfe0 .cfa: $rsp 48 +
STACK CFI 1cfe4 .cfa: $rsp 40 +
STACK CFI 1cff3 .cfa: $rsp 32 +
STACK CFI 1cff4 .cfa: $rsp 24 +
STACK CFI 1cff6 .cfa: $rsp 16 +
STACK CFI 1cff8 .cfa: $rsp 8 +
STACK CFI 1d000 .cfa: $rsp 48 +
STACK CFI INIT 1d010 4b .cfa: $rsp 8 + .ra: .cfa -8 + ^
STACK CFI 1d011 $rbp: .cfa -16 + ^ .cfa: $rsp 16 +
STACK CFI 1d012 $rbx: .cfa -24 + ^ .cfa: $rsp 24 +
STACK CFI 1d016 .cfa: $rsp 32 +
STACK CFI 1d048 .cfa: $rsp 24 +
STACK CFI 1d049 .cfa: $rsp 16 +
STACK CFI 1d04a .cfa: $rsp 8 +
STACK CFI 1d050 .cfa: $rsp 32 +
STACK CFI 1d054 .cfa: $rsp 24 +
STACK CFI 1d055 .cfa: $rsp 16 +
STACK CFI 1d056 .cfa: $rsp 8 +
STACK CFI INIT 1d060 2e .cfa: $rsp 8 + .ra: .cfa -8 + ^
STACK CFI INIT 1d090 49 .cfa: $rsp 8 + .ra: .cfa -8 + ^
STACK CFI 1d092 $r12: .cfa -16 + ^ .cfa: $rsp 16 +
STACK CFI 1d093 $rbp: .cfa -24 + ^ .cfa: $rsp 24 +
STACK CFI 1d097 $rbx: .cfa -32 + ^ .cfa: $rsp 32 +
STACK CFI 1d0b3 .cfa: $rsp 40 +
STACK CFI 1d0b5 .cfa: $rsp 48 +
STACK CFI 1d0d3 .cfa: $rsp 40 +
STACK CFI 1d0d4 .cfa: $rsp 32 +
STACK CFI 1d0d5 .cfa: $rsp 24 +
STACK CFI 1d0d6 .cfa: $rsp 16 +
STACK CFI 1d0d8 .cfa: $rsp 8 +
STACK CFI INIT 1d0e0 54 .cfa: $rsp 8 + .ra: .cfa -8 + ^
STACK CFI 1d0e2 $r13: .cfa -16 + ^ .cfa: $rsp 16 +
STACK CFI 1d0e4 $r12: .cfa -24 + ^ .cfa: $rsp 24 +
STACK CFI 1d0e8 $rbp: .cfa -32 + ^ .cfa: $rsp 32 +
STACK CFI 1d0e9 $rbx: .cfa -40 + ^ .cfa: $rsp 40 +
STACK CFI 1d0f3 .cfa: $rsp 48 +
STACK CFI 1d10a .cfa: $rsp 56 +
STACK CFI 1d110 .cfa: $rsp 64 +
STACK CFI 1d12d .cfa: $rsp 40 +
STACK CFI 1d12e .cfa: $rsp 32 +
STACK CFI 1d12f .cfa: $rsp 24 +
STACK CFI 1d131 .cfa: $rsp 16 +
STACK CFI 1d133 .cfa: $rsp 8 +
STACK CFI INIT 1d140 54 .cfa: $rsp 8 + .ra: .cfa -8 + ^
STACK CFI 1d142 $r13: .cfa -16 + ^ .cfa: $rsp 16 +
STACK CFI 1d144 $r12: .cfa -24 + ^ .cfa: $rsp 24 +
STACK CFI 1d148 $rbp: .cfa -32 + ^ .cfa: $rsp 32 +
STACK CFI 1d149 $rbx: .cfa -40 + ^ .cfa: $rsp 40 +
STACK CFI 1d153 .cfa: $rsp 48 +
STACK CFI 1d16a .cfa: $rsp 56 +
STACK CFI 1d170 .cfa: $rsp 64 +
STACK CFI 1d18d .cfa: $rsp 40 +
STACK CFI 1d18e .cfa: $rsp 32 +
STACK CFI 1d18f .cfa: $rsp 24 +
STACK CFI 1d191 .cfa: $rsp 16 +
STACK CFI 1d193 .cfa: $rsp 8 +
STACK CFI INIT 1d1a0 54 .cfa: $rsp 8 + .ra: .cfa -8 + ^
STACK CFI 1d1a2 $r13: .cfa -16 + ^ .cfa: $rsp 16 +
STACK CFI 1d1a4 $r12: .cfa -24 + ^ .cfa: $rsp 24 +
STACK CFI 1d1a8 $rbp: .cfa -32 + ^ .cfa: $rsp 32 +
STACK CFI 1d1a9 $rbx: .cfa -40 + ^ .cfa: $rsp 40 +
STACK CFI 1d1b3 .cfa: $rsp 48 +
STACK CFI 1d1ca .cfa: $rsp 56 +
STACK CFI 1d1d0 .cfa: $rsp 64 +
STACK CFI 1d1ed .cfa: $rsp 40 +
STACK CFI 1d1ee .cfa: $rsp 32 +
STACK CFI 1d1ef .cfa: $rsp 24 +
STACK CFI 1d1f1 .cfa: $rsp 16 +
STACK CFI 1d1f3 .cfa: $rsp 8 +
STACK CFI INIT 1d200 54 .cfa: $rsp 8 + .ra: .cfa -8 + ^
STACK CFI 1d202 $r13: .cfa -16 + ^ .cfa: $rsp 16 +
STACK CFI 1d204 $r12: .cfa -24 + ^ .cfa: $rsp 24 +
STACK CFI 1d208 $rbp: .cfa -32 + ^ .cfa: $rsp 32 +
STACK CFI 1d209 $rbx: .cfa -40 + ^ .cfa: $rsp 40 +
STACK CFI 1d213 .cfa: $rsp 48 +
STACK CFI 1d22a .cfa: $rsp 56 +
STACK CFI 1d230 .cfa: $rsp 64 +
STACK CFI 1d24d .cfa: $rsp 40 +
STACK CFI 1d24e .cfa: $rsp 32 +
STACK CFI 1d24f .cfa: $rsp 24 +
STACK CFI 1d251 .cfa: $rsp 16 +
STACK CFI 1d253 .cfa: $rsp 8 +
STACK CFI INIT 1d260 1b .cfa: $rsp 8 + .ra: .cfa -8 + ^
STACK CFI 1d264 .cfa: $rsp 16 +
STACK CFI 1d27a .cfa: $rsp 8 +
STACK CFI INIT 1d280 1a8 .cfa: $rsp 8 + .ra: .cfa -8 + ^
STACK CFI 1d282 $r13: .cfa -16 + ^ .cfa: $rsp 16 +
STACK CFI 1d284 $r12: .cfa -24 + ^ .cfa: $rsp 24 +
STACK CFI 1d288 $rbp: .cfa -32 + ^ .cfa: $rsp 32 +
STACK CFI 1d289 $rbx: .cfa -40 + ^ .cfa: $rsp 40 +
STACK CFI 1d296 .cfa: $rsp 64 +
STACK CFI 1d3ab .cfa: $rsp 40 +
STACK CFI 1d3ac .cfa: $rsp 32 +
STACK CFI 1d3ad .cfa: $rsp 24 +
STACK CFI 1d3af .cfa: $rsp 16 +
STACK CFI 1d3b1 .cfa: $rsp 8 +
STACK CFI 1d3b8 .cfa: $rsp 64 +
STACK CFI INIT 1d430 194 .cfa: $rsp 8 + .ra: .cfa -8 + ^
STACK CFI 1d432 $r14: .cfa -16 + ^ .cfa: $rsp 16 +
STACK CFI 1d434 $r13: .cfa -24 + ^ .cfa: $rsp 24 +
STACK CFI 1d436 $r12: .cfa -32 + ^ .cfa: $rsp 32 +
STACK CFI 1d437 $rbp: .cfa -40 + ^ .cfa: $rsp 40 +
STACK CFI 1d43b $rbx: .cfa -48 + ^ .cfa: $rsp 48 +
STACK CFI 1d442 .cfa: $rsp 80 +
STACK CFI 1d587 .cfa: $rsp 48 +
STACK CFI 1d588 .cfa: $rsp 40 +
STACK CFI 1d589 .cfa: $rsp 32 +
STACK CFI 1d58b .cfa: $rsp 24 +
STACK CFI 1d58d .cfa: $rsp 16 +
STACK CFI 1d58f .cfa: $rsp 8 +
STACK CFI 1d590 .cfa: $rsp 80 +
STACK CFI INIT 1d5d0 5ea .cfa: $rsp 8 + .ra: .cfa -8 + ^
STACK CFI 1d5d2 $r15: .cfa -16 + ^ .cfa: $rsp 16 +
STACK CFI 1d5d4 $r14: .cfa -24 + ^ .cfa: $rsp 24 +
STACK CFI 1d5d6 $r13: .cfa -32 + ^ .cfa: $rsp 32 +
STACK CFI 1d5d8 $r12: .cfa -40 + ^ .cfa: $rsp 40 +
STACK CFI 1d5dc $rbp: .cfa -48 + ^ .cfa: $rsp 48 +
STACK CFI 1d5dd $rbx: .cfa -56 + ^ .cfa: $rsp 56 +
STACK CFI 1d5e4 .cfa: $rsp 144 +
STACK CFI 1d84b .cfa: $rsp 56 +
STACK CFI 1d84c .cfa: $rsp 48 +
STACK CFI 1d84d .cfa: $rsp 40 +
STACK CFI 1d84f .cfa: $rsp 32 +
STACK CFI 1d851 .cfa: $rsp 24 +
STACK CFI 1d853 .cfa: $rsp 16 +
STACK CFI 1d855 .cfa: $rsp 8 +
STACK CFI 1d860 .cfa: $rsp 144 +
STACK CFI INIT 21a20 2be .cfa: $rsp 8 + .ra: .cfa -8 + ^
STACK CFI 21a9a $r15: .cfa -16 + ^ .cfa: $rsp 16 +
STACK CFI 21a9c $r14: .cfa -24 + ^ .cfa: $rsp 24 +
STACK CFI 21a9e $r13: .cfa -32 + ^ .cfa: $rsp 32 +
STACK CFI 21aa0 $r12: .cfa -40 + ^ .cfa: $rsp 40 +
STACK CFI 21aa4 $rbp: .cfa -48 + ^ .cfa: $rsp 48 +
STACK CFI 21aa5 $rbx: .cfa -56 + ^ .cfa: $rsp 56 +
STACK CFI 21aac .cfa: $rsp 96 +
STACK CFI 21caa .cfa: $rsp 56 +
STACK CFI 21cab .cfa: $rsp 48 +
STACK CFI 21cac .cfa: $rsp 40 +
STACK CFI 21cae .cfa: $rsp 32 +
STACK CFI 21cb0 .cfa: $rsp 24 +
STACK CFI 21cb2 .cfa: $rsp 16 +
STACK CFI 21cb4 .cfa: $rsp 8 +
STACK CFI 21cb5 .cfa: $rsp 96 +
STACK CFI INIT 21ce0 3e4 .cfa: $rsp 8 + .ra: .cfa -8 + ^
STACK CFI 21ce2 $r15: .cfa -16 + ^ .cfa: $rsp 16 +
STACK CFI 21ce4 $r14: .cfa -24 + ^ .cfa: $rsp 24 +
STACK CFI 21cf0 $r13: .cfa -32 + ^ .cfa: $rsp 32 +
STACK CFI 21cf2 $r12: .cfa -40 + ^ .cfa: $rsp 40 +
STACK CFI 21cf6 $rbp: .cfa -48 + ^ .cfa: $rsp 48 +
STACK CFI 21cf7 $rbx: .cfa -56 + ^ .cfa: $rsp 56 +
STACK CFI 21d07 .cfa: $rsp 96 +
STACK CFI 22023 .cfa: $rsp 56 +
STACK CFI 22024 .cfa: $rsp 48 +
STACK CFI 22025 .cfa: $rsp 40 +
STACK CFI 22027 .cfa: $rsp 32 +
STACK CFI 22029 .cfa: $rsp 24 +
STACK CFI 2202b .cfa: $rsp 16 +
STACK CFI 2202d .cfa: $rsp 8 +
STACK CFI 2202e .cfa: $rsp 96 +
STACK CFI INIT 1dbc0 379 .cfa: $rsp 8 + .ra: .cfa -8 + ^
STACK CFI 1dbc2 $r15: .cfa -16 + ^ .cfa: $rsp 16 +
STACK CFI 1dbc4 $r14: .cfa -24 + ^ .cfa: $rsp 24 +
STACK CFI 1dbc6 $r13: .cfa -32 + ^ .cfa: $rsp 32 +
STACK CFI 1dbc8 $r12: .cfa -40 + ^ .cfa: $rsp 40 +
STACK CFI 1dbc9 $rbp: .cfa -48 + ^ .cfa: $rsp 48 +
STACK CFI 1dbca $rbx: .cfa -56 + ^ .cfa: $rsp 56 +
STACK CFI 1dbce .cfa: $rsp 128 +
STACK CFI 1dc00 .cfa: $rsp 56 +
STACK CFI 1dc01 .cfa: $rsp 48 +
STACK CFI 1dc02 .cfa: $rsp 40 +
STACK CFI 1dc04 .cfa: $rsp 32 +
STACK CFI 1dc06 .cfa: $rsp 24 +
STACK CFI 1dc08 .cfa: $rsp 16 +
STACK CFI 1dc0a .cfa: $rsp 8 +
STACK CFI 1dc0b .cfa: $rsp 128 +
STACK CFI INIT 220d0 55 .cfa: $rsp 8 + .ra: .cfa -8 + ^
STACK CFI 220d2 $r12: .cfa -16 + ^ .cfa: $rsp 16 +
STACK CFI 220d6 $rbp: .cfa -24 + ^ .cfa: $rsp 24 +
STACK CFI 220d7 $rbx: .cfa -32 + ^ .cfa: $rsp 32 +
STACK CFI 2210e .cfa: $rsp 24 +
STACK CFI 2210f .cfa: $rsp 16 +
STACK CFI 22111 .cfa: $rsp 8 +
STACK CFI 22120 .cfa: $rsp 32 +
STACK CFI 22121 .cfa: $rsp 24 +
STACK CFI 22122 .cfa: $rsp 16 +
STACK CFI 22124 .cfa: $rsp 8 +
STACK CFI INIT 22130 3a .cfa: $rsp 8 + .ra: .cfa -8 + ^
STACK CFI 22137 $r12: .cfa -16 + ^ .cfa: $rsp 16 +
STACK CFI 2213b $rbp: .cfa -24 + ^ .cfa: $rsp 24 +
STACK CFI 2213c $rbx: .cfa -32 + ^ .cfa: $rsp 32 +
STACK CFI 22160 .cfa: $rsp 24 +
STACK CFI 22161 .cfa: $rsp 16 +
STACK CFI 22163 .cfa: $rsp 8 +
STACK CFI 22168 $r12: $r12 $rbp: $rbp $rbx: $rbx
STACK CFI INIT 1df40 79 .cfa: $rsp 8 + .ra: .cfa -8 + ^
STACK CFI 1df42 $r12: .cfa -16 + ^ .cfa: $rsp 16 +
STACK CFI 1df43 $rbp: .cfa -24 + ^ .cfa: $rsp 24 +
STACK CFI 1df47 $rbx: .cfa -32 + ^ .cfa: $rsp 32 +
STACK CFI 1dfb5 .cfa: $rsp 24 +
STACK CFI 1dfb6 .cfa: $rsp 16 +
STACK CFI 1dfb8 .cfa: $rsp 8 +
STACK CFI INIT 22170 286 .cfa: $rsp 8 + .ra: .cfa -8 + ^
STACK CFI 22172 $r15: .cfa -16 + ^ .cfa: $rsp 16 +
STACK CFI 22174 $r14: .cfa -24 + ^ .cfa: $rsp 24 +
STACK CFI 22179 $r13: .cfa -32 + ^ .cfa: $rsp 32 +
STACK CFI 2217b $r12: .cfa -40 + ^ .cfa: $rsp 40 +
STACK CFI 2217c $rbp: .cfa -48 + ^ .cfa: $rsp 48 +
STACK CFI 2217d $rbx: .cfa -56 + ^ .cfa: $rsp 56 +
STACK CFI 22181 .cfa: $rsp 96 +
STACK CFI 22367 .cfa: $rsp 56 +
STACK CFI 2236c .cfa: $rsp 48 +
STACK CFI 2236d .cfa: $rsp 40 +
STACK CFI 2236f .cfa: $rsp 32 +
STACK CFI 22371 .cfa: $rsp 24 +
STACK CFI 22373 .cfa: $rsp 16 +
STACK CFI 22375 .cfa: $rsp 8 +
STACK CFI 22380 .cfa: $rsp 96 +
STACK CFI INIT 22400 1ad .cfa: $rsp 8 + .ra: .cfa -8 + ^
STACK CFI 22402 $r15: .cfa -16 + ^ .cfa: $rsp 16 +
STACK CFI 22404 $r14: .cfa -24 + ^ .cfa: $rsp 24 +
STACK CFI 22406 $r13: .cfa -32 + ^ .cfa: $rsp 32 +
STACK CFI 22408 $r12: .cfa -40 + ^ .cfa: $rsp 40 +
STACK CFI 2240c $rbp: .cfa -48 + ^ .cfa: $rsp 48 +
STACK CFI 2240d $rbx: .cfa -56 + ^ .cfa: $rsp 56 +
STACK CFI 22414 .cfa: $rsp 64 +
STACK CFI 2247a .cfa: $rsp 56 +
STACK CFI 2247b .cfa: $rsp 48 +
STACK CFI 2247c .cfa: $rsp 40 +
STACK CFI 2247e .cfa: $rsp 32 +
STACK CFI 22480 .cfa: $rsp 24 +
STACK CFI 22482 .cfa: $rsp 16 +
STACK CFI 22484 .cfa: $rsp 8 +
STACK CFI 22488 .cfa: $rsp 64 +
STACK CFI INIT 1dfc0 3cc .cfa: $rsp 8 + .ra: .cfa -8 + ^
STACK CFI 1dfc2 $r15: .cfa -16 + ^ .cfa: $rsp 16 +
STACK CFI 1dfc4 $r14: .cfa -24 + ^ .cfa: $rsp 24 +
STACK CFI 1dfc6 $r13: .cfa -32 + ^ .cfa: $rsp 32 +
STACK CFI 1dfc8 $r12: .cfa -40 + ^ .cfa: $rsp 40 +
STACK CFI 1dfc9 $rbp: .cfa -48 + ^ .cfa: $rsp 48 +
STACK CFI 1dfca $rbx: .cfa -56 + ^ .cfa: $rsp 56 +
STACK CFI 1dfd4 .cfa: $rsp 192 +
STACK CFI 1e1d3 .cfa: $rsp 56 +
STACK CFI 1e1d4 .cfa: $rsp 48 +
STACK CFI 1e1d5 .cfa: $rsp 40 +
STACK CFI 1e1d7 .cfa: $rsp 32 +
STACK CFI 1e1d9 .cfa: $rsp 24 +
STACK CFI 1e1db .cfa: $rsp 16 +
STACK CFI 1e1dd .cfa: $rsp 8 +
STACK CFI 1e1e0 .cfa: $rsp 192 +
STACK CFI INIT 225b0 b2 .cfa: $rsp 8 + .ra: .cfa -8 + ^
STACK CFI 225b2 $r14: .cfa -16 + ^ .cfa: $rsp 16 +
STACK CFI 225b4 $r13: .cfa -24 + ^ .cfa: $rsp 24 +
STACK CFI 225b6 $r12: .cfa -32 + ^ .cfa: $rsp 32 +
STACK CFI 225b7 $rbp: .cfa -40 + ^ .cfa: $rsp 40 +
STACK CFI 225bb $rbx: .cfa -48 + ^ .cfa: $rsp 48 +
STACK CFI 225ce .cfa: $rsp 64 +
STACK CFI 225e7 .cfa: $rsp 48 +
STACK CFI 225eb .cfa: $rsp 40 +
STACK CFI 225ec .cfa: $rsp 32 +
STACK CFI 225ee .cfa: $rsp 24 +
STACK CFI 225f0 .cfa: $rsp 16 +
STACK CFI 225f2 .cfa: $rsp 8 +
STACK CFI 225f8 .cfa: $rsp 64 +
STACK CFI INIT 22670 de .cfa: $rsp 8 + .ra: .cfa -8 + ^
STACK CFI 22672 $r13: .cfa -16 + ^ .cfa: $rsp 16 +
STACK CFI 22674 $r12: .cfa -24 + ^ .cfa: $rsp 24 +
STACK CFI 22678 $rbp: .cfa -32 + ^ .cfa: $rsp 32 +
STACK CFI 22679 $rbx: .cfa -40 + ^ .cfa: $rsp 40 +
STACK CFI 22685 .cfa: $rsp 48 +
STACK CFI 22700 .cfa: $rsp 40 +
STACK CFI 22706 .cfa: $rsp 32 +
STACK CFI 22707 .cfa: $rsp 24 +
STACK CFI 22709 .cfa: $rsp 16 +
STACK CFI 2270b .cfa: $rsp 8 +
STACK CFI 22710 .cfa: $rsp 48 +
STACK CFI 2272a .cfa: $rsp 40 +
STACK CFI 22730 .cfa: $rsp 32 +
STACK CFI 22731 .cfa: $rsp 24 +
STACK CFI 22733 .cfa: $rsp 16 +
STACK CFI 22735 .cfa: $rsp 8 +
STACK CFI 22740 .cfa: $rsp 48 +
STACK CFI INIT 1e390 206 .cfa: $rsp 8 + .ra: .cfa -8 + ^
STACK CFI 1e392 $r15: .cfa -16 + ^ .cfa: $rsp 16 +
STACK CFI 1e394 $r14: .cfa -24 + ^ .cfa: $rsp 24 +
STACK CFI 1e3a0 $r13: .cfa -32 + ^ .cfa: $rsp 32 +
STACK CFI 1e3a2 $r12: .cfa -40 + ^ .cfa: $rsp 40 +
STACK CFI 1e3aa $rbp: .cfa -48 + ^ .cfa: $rsp 48 +
STACK CFI 1e3ab $rbx: .cfa -56 + ^ .cfa: $rsp 56 +
STACK CFI 1e3b4 .cfa: $rsp 240 +
STACK CFI 1e52a .cfa: $rsp 56 +
STACK CFI 1e52b .cfa: $rsp 48 +
STACK CFI 1e52c .cfa: $rsp 40 +
STACK CFI 1e52e .cfa: $rsp 32 +
STACK CFI 1e530 .cfa: $rsp 24 +
STACK CFI 1e532 .cfa: $rsp 16 +
STACK CFI 1e534 .cfa: $rsp 8 +
STACK CFI 1e535 .cfa: $rsp 240 +
STACK CFI INIT 22750 ef .cfa: $rsp 8 + .ra: .cfa -8 + ^
STACK CFI 22752 $r15: .cfa -16 + ^ .cfa: $rsp 16 +
STACK CFI 22754 $r14: .cfa -24 + ^ .cfa: $rsp 24 +
STACK CFI 22756 $r13: .cfa -32 + ^ .cfa: $rsp 32 +
STACK CFI 22758 $r12: .cfa -40 + ^ .cfa: $rsp 40 +
STACK CFI 2275c $rbp: .cfa -48 + ^ .cfa: $rsp 48 +
STACK CFI 2275d $rbx: .cfa -56 + ^ .cfa: $rsp 56 +
STACK CFI 22769 .cfa: $rsp 64 +
STACK CFI 227d9 .cfa: $rsp 56 +
STACK CFI 227df .cfa: $rsp 48 +
STACK CFI 227e0 .cfa: $rsp 40 +
STACK CFI 227e2 .cfa: $rsp 32 +
STACK CFI 227e4 .cfa: $rsp 24 +
STACK CFI 227e6 .cfa: $rsp 16 +
STACK CFI 227e8 .cfa: $rsp 8 +
STACK CFI 227f0 .cfa: $rsp 64 +
STACK CFI 2280a .cfa: $rsp 56 +
STACK CFI 22810 .cfa: $rsp 48 +
STACK CFI 22811 .cfa: $rsp 40 +
STACK CFI 22813 .cfa: $rsp 32 +
STACK CFI 22815 .cfa: $rsp 24 +
STACK CFI 22817 .cfa: $rsp 16 +
STACK CFI 22819 .cfa: $rsp 8 +
STACK CFI 2281a .cfa: $rsp 64 +
STACK CFI INIT 22840 ef .cfa: $rsp 8 + .ra: .cfa -8 + ^
STACK CFI 22842 $r15: .cfa -16 + ^ .cfa: $rsp 16 +
STACK CFI 22844 $r14: .cfa -24 + ^ .cfa: $rsp 24 +
STACK CFI 22846 $r13: .cfa -32 + ^ .cfa: $rsp 32 +
STACK CFI 22848 $r12: .cfa -40 + ^ .cfa: $rsp 40 +
STACK CFI 2284c $rbp: .cfa -48 + ^ .cfa: $rsp 48 +
STACK CFI 2284d $rbx: .cfa -56 + ^ .cfa: $rsp 56 +
STACK CFI 22859 .cfa: $rsp 64 +
STACK CFI 228c8 .cfa: $rsp 56 +
STACK CFI 228ce .cfa: $rsp 48 +
STACK CFI 228cf .cfa: $rsp 40 +
STACK CFI 228d1 .cfa: $rsp 32 +
STACK CFI 228d3 .cfa: $rsp 24 +
STACK CFI 228d5 .cfa: $rsp 16 +
STACK CFI 228d7 .cfa: $rsp 8 +
STACK CFI 228e0 .cfa: $rsp 64 +
STACK CFI 228fa .cfa: $rsp 56 +
STACK CFI 22900 .cfa: $rsp 48 +
STACK CFI 22901 .cfa: $rsp 40 +
STACK CFI 22903 .cfa: $rsp 32 +
STACK CFI 22905 .cfa: $rsp 24 +
STACK CFI 22907 .cfa: $rsp 16 +
STACK CFI 22909 .cfa: $rsp 8 +
STACK CFI 2290a .cfa: $rsp 64 +
STACK CFI INIT 1e5a0 375 .cfa: $rsp 8 + .ra: .cfa -8 + ^
STACK CFI 1e5a2 $r15: .cfa -16 + ^ .cfa: $rsp 16 +
STACK CFI 1e5a4 $r14: .cfa -24 + ^ .cfa: $rsp 24 +
STACK CFI 1e5a6 $r13: .cfa -32 + ^ .cfa: $rsp 32 +
STACK CFI 1e5a8 $r12: .cfa -40 + ^ .cfa: $rsp 40 +
STACK CFI 1e5a9 $rbp: .cfa -48 + ^ .cfa: $rsp 48 +
STACK CFI 1e5aa $rbx: .cfa -56 + ^ .cfa: $rsp 56 +
STACK CFI 1e5b4 .cfa: $rsp 128 +
STACK CFI 1e5ed .cfa: $rsp 56 +
STACK CFI 1e5ee .cfa: $rsp 48 +
STACK CFI 1e5ef .cfa: $rsp 40 +
STACK CFI 1e5f1 .cfa: $rsp 32 +
STACK CFI 1e5f3 .cfa: $rsp 24 +
STACK CFI 1e5f5 .cfa: $rsp 16 +
STACK CFI 1e5f7 .cfa: $rsp 8 +
STACK CFI 1e600 .cfa: $rsp 128 +
STACK CFI INIT 22930 89 .cfa: $rsp 8 + .ra: .cfa -8 + ^
STACK CFI 22931 $rbp: .cfa -16 + ^ .cfa: $rsp 16 +
STACK CFI 22932 $rbx: .cfa -24 + ^ .cfa: $rsp 24 +
STACK CFI 22936 .cfa: $rsp 32 +
STACK CFI 2298a .cfa: $rsp 24 +
STACK CFI 2298b .cfa: $rsp 16 +
STACK CFI 2298c .cfa: $rsp 8 +
STACK CFI 22990 .cfa: $rsp 32 +
STACK CFI INIT 229c0 e0 .cfa: $rsp 8 + .ra: .cfa -8 + ^
STACK CFI 229c2 $r13: .cfa -16 + ^ .cfa: $rsp 16 +
STACK CFI 229c8 $r12: .cfa -24 + ^ .cfa: $rsp 24 +
STACK CFI 229c9 $rbp: .cfa -32 + ^ .cfa: $rsp 32 +
STACK CFI 229ca $rbx: .cfa -40 + ^ .cfa: $rsp 40 +
STACK CFI 229d4 .cfa: $rsp 48 +
STACK CFI 22a18 .cfa: $rsp 40 +
STACK CFI 22a19 .cfa: $rsp 32 +
STACK CFI 22a1a .cfa: $rsp 24 +
STACK CFI 22a1c .cfa: $rsp 16 +
STACK CFI 22a1e .cfa: $rsp 8 +
STACK CFI 22a20 .cfa: $rsp 48 +
STACK CFI 22a6e .cfa: $rsp 40 +
STACK CFI 22a75 .cfa: $rsp 32 +
STACK CFI 22a76 .cfa: $rsp 24 +
STACK CFI 22a78 .cfa: $rsp 16 +
STACK CFI 22a7a .cfa: $rsp 8 +
STACK CFI 22a80 .cfa: $rsp 48 +
STACK CFI 22a84 .cfa: $rsp 40 +
STACK CFI 22a8a .cfa: $rsp 32 +
STACK CFI 22a8b .cfa: $rsp 24 +
STACK CFI 22a8d .cfa: $rsp 16 +
STACK CFI 22a8f .cfa: $rsp 8 +
STACK CFI 22a90 .cfa: $rsp 48 +
STACK CFI 22a94 .cfa: $rsp 40 +
STACK CFI 22a9a .cfa: $rsp 32 +
STACK CFI 22a9b .cfa: $rsp 24 +
STACK CFI 22a9d .cfa: $rsp 16 +
STACK CFI 22a9f .cfa: $rsp 8 +
STACK CFI INIT 1e920 a5 .cfa: $rsp 8 + .ra: .cfa -8 + ^
STACK CFI 1e922 $r13: .cfa -16 + ^ .cfa: $rsp 16 +
STACK CFI 1e924 $r12: .cfa -24 + ^ .cfa: $rsp 24 +
STACK CFI 1e928 $rbp: .cfa -32 + ^ .cfa: $rsp 32 +
STACK CFI 1e929 $rbx: .cfa -40 + ^ .cfa: $rsp 40 +
STACK CFI 1e938 .cfa: $rsp 64 +
STACK CFI 1e984 .cfa: $rsp 40 +
STACK CFI 1e988 .cfa: $rsp 32 +
STACK CFI 1e989 .cfa: $rsp 24 +
STACK CFI 1e98b .cfa: $rsp 16 +
STACK CFI 1e98d .cfa: $rsp 8 +
STACK CFI 1e990 .cfa: $rsp 64 +
STACK CFI 1e9be .cfa: $rsp 40 +
STACK CFI 1e9bf .cfa: $rsp 32 +
STACK CFI 1e9c0 .cfa: $rsp 24 +
STACK CFI 1e9c2 .cfa: $rsp 16 +
STACK CFI 1e9c4 .cfa: $rsp 8 +
STACK CFI INIT 1e9d0 b2 .cfa: $rsp 8 + .ra: .cfa -8 + ^
STACK CFI 1e9d1 $rbp: .cfa -16 + ^ .cfa: $rsp 16 +
STACK CFI 1e9d2 $rbx: .cfa -24 + ^ .cfa: $rsp 24 +
STACK CFI 1e9dd .cfa: $rsp 64 +
STACK CFI 1ea71 .cfa: $rsp 24 +
STACK CFI 1ea72 .cfa: $rsp 16 +
STACK CFI 1ea73 .cfa: $rsp 8 +
STACK CFI 1ea78 .cfa: $rsp 64 +
STACK CFI INIT 1ea90 31 .cfa: $rsp 8 + .ra: .cfa -8 + ^
STACK CFI 1ea92 $r12: .cfa -16 + ^ .cfa: $rsp 16 +
STACK CFI 1ea93 $rbp: .cfa -24 + ^ .cfa: $rsp 24 +
STACK CFI 1ea97 $rbx: .cfa -32 + ^ .cfa: $rsp 32 +
STACK CFI 1eab8 .cfa: $rsp 24 +
STACK CFI 1eab9 .cfa: $rsp 16 +
STACK CFI 1eabb .cfa: $rsp 8 +
STACK CFI INIT 1ead0 55 .cfa: $rsp 8 + .ra: .cfa -8 + ^
STACK CFI 1ead9 $r12: .cfa -16 + ^ .cfa: $rsp 16 +
STACK CFI 1eada $rbp: .cfa -24 + ^ .cfa: $rsp 24 +
STACK CFI 1eade $rbx: .cfa -32 + ^ .cfa: $rsp 32 +
STACK CFI 1eb0f $rbx: $rbx .cfa: $rsp 24 +
STACK CFI 1eb10 $rbp: $rbp .cfa: $rsp 16 +
STACK CFI 1eb12 $r12: $r12 .cfa: $rsp 8 +
STACK CFI INIT 1eb30 55 .cfa: $rsp 8 + .ra: .cfa -8 + ^
STACK CFI 1eb39 $r12: .cfa -16 + ^ .cfa: $rsp 16 +
STACK CFI 1eb3a $rbp: .cfa -24 + ^ .cfa: $rsp 24 +
STACK CFI 1eb3e $rbx: .cfa -32 + ^ .cfa: $rsp 32 +
STACK CFI 1eb6f $rbx: $rbx .cfa: $rsp 24 +
STACK CFI 1eb70 $rbp: $rbp .cfa: $rsp 16 +
STACK CFI 1eb72 $r12: $r12 .cfa: $rsp 8 +
STACK CFI INIT 1eb90 82 .cfa: $rsp 8 + .ra: .cfa -8 + ^
STACK CFI 1eb91 $rbp: .cfa -16 + ^ .cfa: $rsp 16 +
STACK CFI 1eb92 $rbx: .cfa -24 + ^ .cfa: $rsp 24 +
STACK CFI 1eb99 .cfa: $rsp 32 +
STACK CFI 1ebb7 .cfa: $rsp 24 +
STACK CFI 1ebbd .cfa: $rsp 16 +
STACK CFI 1ebbe .cfa: $rsp 8 +
STACK CFI 1ebd0 .cfa: $rsp 32 +
STACK CFI 1ebec .cfa: $rsp 24 +
STACK CFI 1ebef .cfa: $rsp 16 +
STACK CFI 1ebf0 .cfa: $rsp 8 +
STACK CFI 1ebf8 .cfa: $rsp 32 +
STACK CFI INIT 1ec20 122 .cfa: $rsp 8 + .ra: .cfa -8 + ^
STACK CFI 1ec22 $r15: .cfa -16 + ^ .cfa: $rsp 16 +
STACK CFI 1ec24 $r14: .cfa -24 + ^ .cfa: $rsp 24 +
STACK CFI 1ec26 $r13: .cfa -32 + ^ .cfa: $rsp 32 +
STACK CFI 1ec28 $r12: .cfa -40 + ^ .cfa: $rsp 40 +
STACK CFI 1ec2c $rbp: .cfa -48 + ^ .cfa: $rsp 48 +
STACK CFI 1ec2d $rbx: .cfa -56 + ^ .cfa: $rsp 56 +
STACK CFI 1ec34 .cfa: $rsp 96 +
STACK CFI 1ed27 .cfa: $rsp 56 +
STACK CFI 1ed28 .cfa: $rsp 48 +
STACK CFI 1ed29 .cfa: $rsp 40 +
STACK CFI 1ed2b .cfa: $rsp 32 +
STACK CFI 1ed2d .cfa: $rsp 24 +
STACK CFI 1ed2f .cfa: $rsp 16 +
STACK CFI 1ed31 .cfa: $rsp 8 +
STACK CFI 1ed38 .cfa: $rsp 96 +
STACK CFI INIT 22aa0 21f .cfa: $rsp 8 + .ra: .cfa -8 + ^
STACK CFI 22aa2 $r15: .cfa -16 + ^ .cfa: $rsp 16 +
STACK CFI 22aa4 $r14: .cfa -24 + ^ .cfa: $rsp 24 +
STACK CFI 22aa6 $r13: .cfa -32 + ^ .cfa: $rsp 32 +
STACK CFI 22aa8 $r12: .cfa -40 + ^ .cfa: $rsp 40 +
STACK CFI 22aac $rbp: .cfa -48 + ^ .cfa: $rsp 48 +
STACK CFI 22aad $rbx: .cfa -56 + ^ .cfa: $rsp 56 +
STACK CFI 22ab4 .cfa: $rsp 64 +
STACK CFI 22b4d .cfa: $rsp 56 +
STACK CFI 22b4e .cfa: $rsp 48 +
STACK CFI 22b4f .cfa: $rsp 40 +
STACK CFI 22b51 .cfa: $rsp 32 +
STACK CFI 22b53 .cfa: $rsp 24 +
STACK CFI 22b55 .cfa: $rsp 16 +
STACK CFI 22b57 .cfa: $rsp 8 +
STACK CFI 22b60 .cfa: $rsp 64 +
STACK CFI INIT 1ed50 a82 .cfa: $rsp 8 + .ra: .cfa -8 + ^
STACK CFI 1ed52 $r14: .cfa -16 + ^ .cfa: $rsp 16 +
STACK CFI 1ed54 $r13: .cfa -24 + ^ .cfa: $rsp 24 +
STACK CFI 1ed56 $r12: .cfa -32 + ^ .cfa: $rsp 32 +
STACK CFI 1ed57 $rbp: .cfa -40 + ^ .cfa: $rsp 40 +
STACK CFI 1ed5b $rbx: .cfa -48 + ^ .cfa: $rsp 48 +
STACK CFI 1ed5f .cfa: $rsp 112 +
STACK CFI 1edf1 .cfa: $rsp 48 +
STACK CFI 1edf2 .cfa: $rsp 40 +
STACK CFI 1edf3 .cfa: $rsp 32 +
STACK CFI 1edf5 .cfa: $rsp 24 +
STACK CFI 1edf7 .cfa: $rsp 16 +
STACK CFI 1edf9 .cfa: $rsp 8 +
STACK CFI 1ee00 .cfa: $rsp 112 +
STACK CFI INIT 1f7e0 46 .cfa: $rsp 8 + .ra: .cfa -8 + ^
STACK CFI 1f7e1 $rbx: .cfa -16 + ^ .cfa: $rsp 16 +
STACK CFI 1f825 .cfa: $rsp 8 +
STACK CFI INIT 1f830 39 .cfa: $rsp 8 + .ra: .cfa -8 + ^
STACK CFI 1f831 $rbx: .cfa -16 + ^ .cfa: $rsp 16 +
STACK CFI 1f868 .cfa: $rsp 8 +
STACK CFI INIT 1f870 9dc .cfa: $rsp 8 + .ra: .cfa -8 + ^
STACK CFI 1f871 $rbp: .cfa -16 + ^ .cfa: $rsp 16 +
STACK CFI 1f874 .cfa: $rbp 16 +
STACK CFI 1f884 $r12: .cfa -48 + ^ $r13: .cfa -40 + ^ $r14: .cfa -32 + ^ $r15: .cfa -24 + ^ $rbx: .cfa -56 + ^
STACK CFI 1f921 .cfa: $rsp 8 +
STACK CFI 1f928 .cfa: $rbp 16 +
STACK CFI INIT 20250 a26 .cfa: $rsp 8 + .ra: .cfa -8 + ^
STACK CFI 20252 $r15: .cfa -16 + ^ .cfa: $rsp 16 +
STACK CFI 20254 $r14: .cfa -24 + ^ .cfa: $rsp 24 +
STACK CFI 20256 $r13: .cfa -32 + ^ .cfa: $rsp 32 +
STACK CFI 20258 $r12: .cfa -40 + ^ .cfa: $rsp 40 +
STACK CFI 20259 $rbp: .cfa -48 + ^ .cfa: $rsp 48 +
STACK CFI 2025a $rbx: .cfa -56 + ^ .cfa: $rsp 56 +
STACK CFI 20264 .cfa: $rsp 784 +
STACK CFI 20400 .cfa: $rsp 56 +
STACK CFI 20401 .cfa: $rsp 48 +
STACK CFI 20402 .cfa: $rsp 40 +
STACK CFI 20404 .cfa: $rsp 32 +
STACK CFI 20406 .cfa: $rsp 24 +
STACK CFI 20408 .cfa: $rsp 16 +
STACK CFI 2040a .cfa: $rsp 8 +
STACK CFI 20410 .cfa: $rsp 784 +
STACK CFI INIT 20c80 314 .cfa: $rsp 8 + .ra: .cfa -8 + ^
STACK CFI 20c82 $r15: .cfa -16 + ^ .cfa: $rsp 16 +
STACK CFI 20c84 $r14: .cfa -24 + ^ .cfa: $rsp 24 +
STACK CFI 20c8d $r13: .cfa -32 + ^ .cfa: $rsp 32 +
STACK CFI 20c8f $r12: .cfa -40 + ^ .cfa: $rsp 40 +
STACK CFI 20c90 $rbp: .cfa -48 + ^ .cfa: $rsp 48 +
STACK CFI 20c91 $rbx: .cfa -56 + ^ .cfa: $rsp 56 +
STACK CFI 20c9c .cfa: $rsp 112 +
STACK CFI 20d5e .cfa: $rsp 56 +
STACK CFI 20d5f .cfa: $rsp 48 +
STACK CFI 20d60 .cfa: $rsp 40 +
STACK CFI 20d62 .cfa: $rsp 32 +
STACK CFI 20d64 .cfa: $rsp 24 +
STACK CFI 20d66 .cfa: $rsp 16 +
STACK CFI 20d68 .cfa: $rsp 8 +
STACK CFI 20d70 .cfa: $rsp 112 +
STACK CFI INIT 22cc0 c8 .cfa: $rsp 8 + .ra: .cfa -8 + ^
STACK CFI 22cc2 $r12: .cfa -16 + ^ .cfa: $rsp 16 +
STACK CFI 22cc3 $rbp: .cfa -24 + ^ .cfa: $rsp 24 +
STACK CFI 22cc7 $rbx: .cfa -32 + ^ .cfa: $rsp 32 +
STACK CFI 22cce .cfa: $rsp 48 +
STACK CFI 22d34 .cfa: $rsp 32 +
STACK CFI 22d35 .cfa: $rsp 24 +
STACK CFI 22d36 .cfa: $rsp 16 +
STACK CFI 22d38 .cfa: $rsp 8 +
STACK CFI 22d40 .cfa: $rsp 48 +
STACK CFI INIT 22d90 149 .cfa: $rsp 8 + .ra: .cfa -8 + ^
STACK CFI 22d92 $r13: .cfa -16 + ^ .cfa: $rsp 16 +
STACK CFI 22d98 $r12: .cfa -24 + ^ .cfa: $rsp 24 +
STACK CFI 22d99 $rbp: .cfa -32 + ^ .cfa: $rsp 32 +
STACK CFI 22d9a $rbx: .cfa -40 + ^ .cfa: $rsp 40 +
STACK CFI 22da4 .cfa: $rsp 96 +
STACK CFI 22e43 .cfa: $rsp 40 +
STACK CFI 22e44 .cfa: $rsp 32 +
STACK CFI 22e45 .cfa: $rsp 24 +
STACK CFI 22e47 .cfa: $rsp 16 +
STACK CFI 22e49 .cfa: $rsp 8 +
STACK CFI 22e50 .cfa: $rsp 96 +
STACK CFI INIT 22ee0 2bb .cfa: $rsp 8 + .ra: .cfa -8 + ^
STACK CFI 22ee2 $r13: .cfa -16 + ^ .cfa: $rsp 16 +
STACK CFI 22ee4 $r12: .cfa -24 + ^ .cfa: $rsp 24 +
STACK CFI 22ee5 $rbp: .cfa -32 + ^ .cfa: $rsp 32 +
STACK CFI 22ee6 $rbx: .cfa -40 + ^ .cfa: $rsp 40 +
STACK CFI 22eed .cfa: $rsp 48 +
STACK CFI 23184 .cfa: $rsp 40 +
STACK CFI 23185 .cfa: $rsp 32 +
STACK CFI 23186 .cfa: $rsp 24 +
STACK CFI 23188 .cfa: $rsp 16 +
STACK CFI 2318a .cfa: $rsp 8 +
STACK CFI 23190 .cfa: $rsp 48 +
STACK CFI 23194 .cfa: $rsp 40 +
STACK CFI 23195 .cfa: $rsp 32 +
STACK CFI 23196 .cfa: $rsp 24 +
STACK CFI 23198 .cfa: $rsp 16 +
STACK CFI 2319a .cfa: $rsp 8 +
STACK CFI INIT 231a0 73 .cfa: $rsp 8 + .ra: .cfa -8 + ^
STACK CFI 231a4 .cfa: $rsp 48 +
STACK CFI 231e6 .cfa: $rsp 8 +
STACK CFI 231f0 .cfa: $rsp 48 +
STACK CFI INIT 23220 73 .cfa: $rsp 8 + .ra: .cfa -8 + ^
STACK CFI 23224 .cfa: $rsp 48 +
STACK CFI 23266 .cfa: $rsp 8 +
STACK CFI 23270 .cfa: $rsp 48 +
STACK CFI INIT 232a0 5 .cfa: $rsp 8 + .ra: .cfa -8 + ^
STACK CFI INIT 232b0 1de .cfa: $rsp 8 + .ra: .cfa -8 + ^
STACK CFI 232b2 $r12: .cfa -16 + ^ .cfa: $rsp 16 +
STACK CFI 232b3 $rbp: .cfa -24 + ^ .cfa: $rsp 24 +
STACK CFI 232b7 $rbx: .cfa -32 + ^ .cfa: $rsp 32 +
STACK CFI 232cc .cfa: $rsp 128 +
STACK CFI 2330e .cfa: $rsp 32 +
STACK CFI 2330f .cfa: $rsp 24 +
STACK CFI 23310 .cfa: $rsp 16 +
STACK CFI 23312 .cfa: $rsp 8 +
STACK CFI 23318 .cfa: $rsp 128 +
STACK CFI INIT 271e0 125 .cfa: $rsp 8 + .ra: .cfa -8 + ^
STACK CFI 271e2 $r12: .cfa -16 + ^ .cfa: $rsp 16 +
STACK CFI 271e3 $rbp: .cfa -24 + ^ .cfa: $rsp 24 +
STACK CFI 271e7 $rbx: .cfa -32 + ^ .cfa: $rsp 32 +
STACK CFI 272f6 .cfa: $rsp 24 +
STACK CFI 272f7 .cfa: $rsp 16 +
STACK CFI 272f9 .cfa: $rsp 8 +
STACK CFI 27300 .cfa: $rsp 32 +
STACK CFI 27301 .cfa: $rsp 24 +
STACK CFI 27302 .cfa: $rsp 16 +
STACK CFI 27304 .cfa: $rsp 8 +
STACK CFI INIT 27310 125 .cfa: $rsp 8 + .ra: .cfa -8 + ^
STACK CFI 27312 $r12: .cfa -16 + ^ .cfa: $rsp 16 +
STACK CFI 27313 $rbp: .cfa -24 + ^ .cfa: $rsp 24 +
STACK CFI 27317 $rbx: .cfa -32 + ^ .cfa: $rsp 32 +
STACK CFI 27426 .cfa: $rsp 24 +
STACK CFI 27427 .cfa: $rsp 16 +
STACK CFI 27429 .cfa: $rsp 8 +
STACK CFI 27430 .cfa: $rsp 32 +
STACK CFI 27431 .cfa: $rsp 24 +
STACK CFI 27432 .cfa: $rsp 16 +
STACK CFI 27434 .cfa: $rsp 8 +
STACK CFI INIT 27440 55 .cfa: $rsp 8 + .ra: .cfa -8 + ^
STACK CFI 27442 $r12: .cfa -16 + ^ .cfa: $rsp 16 +
STACK CFI 27443 $rbp: .cfa -24 + ^ .cfa: $rsp 24 +
STACK CFI 27444 $rbx: .cfa -32 + ^ .cfa: $rsp 32 +
STACK CFI 2747f .cfa: $rsp 24 +
STACK CFI 27480 .cfa: $rsp 16 +
STACK CFI 27482 .cfa: $rsp 8 +
STACK CFI 27490 .cfa: $rsp 32 +
STACK CFI 27491 .cfa: $rsp 24 +
STACK CFI 27492 .cfa: $rsp 16 +
STACK CFI 27494 .cfa: $rsp 8 +
STACK CFI INIT 274a0 231 .cfa: $rsp 8 + .ra: .cfa -8 + ^
STACK CFI 274a2 $r15: .cfa -16 + ^ .cfa: $rsp 16 +
STACK CFI 274a4 $r14: .cfa -24 + ^ .cfa: $rsp 24 +
STACK CFI 274a6 $r13: .cfa -32 + ^ .cfa: $rsp 32 +
STACK CFI 274a8 $r12: .cfa -40 + ^ .cfa: $rsp 40 +
STACK CFI 274ac $rbp: .cfa -48 + ^ .cfa: $rsp 48 +
STACK CFI 274ad $rbx: .cfa -56 + ^ .cfa: $rsp 56 +
STACK CFI 274b4 .cfa: $rsp 64 +
STACK CFI 27509 .cfa: $rsp 56 +
STACK CFI 2750d .cfa: $rsp 48 +
STACK CFI 2750e .cfa: $rsp 40 +
STACK CFI 27510 .cfa: $rsp 32 +
STACK CFI 27512 .cfa: $rsp 24 +
STACK CFI 27514 .cfa: $rsp 16 +
STACK CFI 27516 .cfa: $rsp 8 +
STACK CFI 27520 .cfa: $rsp 64 +
STACK CFI INIT 276e0 503 .cfa: $rsp 8 + .ra: .cfa -8 + ^
STACK CFI 276e2 $r15: .cfa -16 + ^ .cfa: $rsp 16 +
STACK CFI 276e4 $r14: .cfa -24 + ^ .cfa: $rsp 24 +
STACK CFI 276e6 $r13: .cfa -32 + ^ .cfa: $rsp 32 +
STACK CFI 276e8 $r12: .cfa -40 + ^ .cfa: $rsp 40 +
STACK CFI 276ec $rbp: .cfa -48 + ^ .cfa: $rsp 48 +
STACK CFI 276ed $rbx: .cfa -56 + ^ .cfa: $rsp 56 +
STACK CFI 276f4 .cfa: $rsp 176 +
STACK CFI 2799a .cfa: $rsp 56 +
STACK CFI 2799b .cfa: $rsp 48 +
STACK CFI 2799c .cfa: $rsp 40 +
STACK CFI 2799e .cfa: $rsp 32 +
STACK CFI 279a0 .cfa: $rsp 24 +
STACK CFI 279a2 .cfa: $rsp 16 +
STACK CFI 279a4 .cfa: $rsp 8 +
STACK CFI 279a8 .cfa: $rsp 176 +
STACK CFI INIT 27bf0 246 .cfa: $rsp 8 + .ra: .cfa -8 + ^
STACK CFI 27bf2 $r15: .cfa -16 + ^ .cfa: $rsp 16 +
STACK CFI 27bf4 $r14: .cfa -24 + ^ .cfa: $rsp 24 +
STACK CFI 27bf6 $r13: .cfa -32 + ^ .cfa: $rsp 32 +
STACK CFI 27bf8 $r12: .cfa -40 + ^ .cfa: $rsp 40 +
STACK CFI 27bfc $rbp: .cfa -48 + ^ .cfa: $rsp 48 +
STACK CFI 27bfd $rbx: .cfa -56 + ^ .cfa: $rsp 56 +
STACK CFI 27c04 .cfa: $rsp 64 +
STACK CFI 27c59 .cfa: $rsp 56 +
STACK CFI 27c5d .cfa: $rsp 48 +
STACK CFI 27c5e .cfa: $rsp 40 +
STACK CFI 27c60 .cfa: $rsp 32 +
STACK CFI 27c62 .cfa: $rsp 24 +
STACK CFI 27c64 .cfa: $rsp 16 +
STACK CFI 27c66 .cfa: $rsp 8 +
STACK CFI 27c70 .cfa: $rsp 64 +
STACK CFI INIT 27e40 54e .cfa: $rsp 8 + .ra: .cfa -8 + ^
STACK CFI 27e42 $r15: .cfa -16 + ^ .cfa: $rsp 16 +
STACK CFI 27e44 $r14: .cfa -24 + ^ .cfa: $rsp 24 +
STACK CFI 27e46 $r13: .cfa -32 + ^ .cfa: $rsp 32 +
STACK CFI 27e48 $r12: .cfa -40 + ^ .cfa: $rsp 40 +
STACK CFI 27e49 $rbp: .cfa -48 + ^ .cfa: $rsp 48 +
STACK CFI 27e4a $rbx: .cfa -56 + ^ .cfa: $rsp 56 +
STACK CFI 27e53 .cfa: $rsp 176 +
STACK CFI 2811a .cfa: $rsp 56 +
STACK CFI 2811b .cfa: $rsp 48 +
STACK CFI 2811c .cfa: $rsp 40 +
STACK CFI 2811e .cfa: $rsp 32 +
STACK CFI 28120 .cfa: $rsp 24 +
STACK CFI 28122 .cfa: $rsp 16 +
STACK CFI 28124 .cfa: $rsp 8 +
STACK CFI 28128 .cfa: $rsp 176 +
STACK CFI INIT 28390 2ba .cfa: $rsp 8 + .ra: .cfa -8 + ^
STACK CFI 2839b $r15: .cfa -16 + ^ .cfa: $rsp 16 +
STACK CFI 2839d $r14: .cfa -24 + ^ .cfa: $rsp 24 +
STACK CFI 2839f $r13: .cfa -32 + ^ .cfa: $rsp 32 +
STACK CFI 283a1 $r12: .cfa -40 + ^ .cfa: $rsp 40 +
STACK CFI 283a5 $rbp: .cfa -48 + ^ .cfa: $rsp 48 +
STACK CFI 283a6 $rbx: .cfa -56 + ^ .cfa: $rsp 56 +
STACK CFI 283b3 .cfa: $rsp 80 +
STACK CFI 28450 .cfa: $rsp 56 +
STACK CFI 28451 .cfa: $rsp 48 +
STACK CFI 28452 .cfa: $rsp 40 +
STACK CFI 28454 .cfa: $rsp 32 +
STACK CFI 28456 .cfa: $rsp 24 +
STACK CFI 28458 .cfa: $rsp 16 +
STACK CFI 2845a .cfa: $rsp 8 +
STACK CFI 28460 $r12: $r12 $r13: $r13 $r14: $r14 $r15: $r15 $rbp: $rbp $rbx: $rbx
STACK CFI 28468 $r12: .cfa -40 + ^ $r13: .cfa -32 + ^ $r14: .cfa -24 + ^ $r15: .cfa -16 + ^ $rbp: .cfa -48 + ^ $rbx: .cfa -56 + ^ .cfa: $rsp 80 +
STACK CFI 284d8 .cfa: $rsp 56 +
STACK CFI 284d9 .cfa: $rsp 48 +
STACK CFI 284da .cfa: $rsp 40 +
STACK CFI 284dc .cfa: $rsp 32 +
STACK CFI 284de .cfa: $rsp 24 +
STACK CFI 284e0 .cfa: $rsp 16 +
STACK CFI 284e2 .cfa: $rsp 8 +
STACK CFI 284e8 .cfa: $rsp 80 +
STACK CFI 28602 .cfa: $rsp 56 +
STACK CFI 28603 .cfa: $rsp 48 +
STACK CFI 28604 .cfa: $rsp 40 +
STACK CFI 28606 .cfa: $rsp 32 +
STACK CFI 28608 .cfa: $rsp 24 +
STACK CFI 2860a .cfa: $rsp 16 +
STACK CFI 2860c .cfa: $rsp 8 +
STACK CFI 28610 .cfa: $rsp 80 +
STACK CFI INIT 28650 21a .cfa: $rsp 8 + .ra: .cfa -8 + ^
STACK CFI 28657 $r15: .cfa -16 + ^ .cfa: $rsp 16 +
STACK CFI 28659 $r14: .cfa -24 + ^ .cfa: $rsp 24 +
STACK CFI 2865b $r13: .cfa -32 + ^ .cfa: $rsp 32 +
STACK CFI 2865d $r12: .cfa -40 + ^ .cfa: $rsp 40 +
STACK CFI 2865e $rbp: .cfa -48 + ^ .cfa: $rsp 48 +
STACK CFI 2865f $rbx: .cfa -56 + ^ .cfa: $rsp 56 +
STACK CFI 28663 .cfa: $rsp 80 +
STACK CFI 286b1 .cfa: $rsp 56 +
STACK CFI 286b2 .cfa: $rsp 48 +
STACK CFI 286b3 .cfa: $rsp 40 +
STACK CFI 286b5 .cfa: $rsp 32 +
STACK CFI 286b7 .cfa: $rsp 24 +
STACK CFI 286b9 .cfa: $rsp 16 +
STACK CFI 286bb .cfa: $rsp 8 +
STACK CFI 286c0 $r12: $r12 $r13: $r13 $r14: $r14 $r15: $r15 $rbp: $rbp $rbx: $rbx
STACK CFI 286c8 $r12: .cfa -40 + ^ $r13: .cfa -32 + ^ $r14: .cfa -24 + ^ $r15: .cfa -16 + ^ $rbp: .cfa -48 + ^ $rbx: .cfa -56 + ^ .cfa: $rsp 80 +
STACK CFI 28839 .cfa: $rsp 56 +
STACK CFI 2883a .cfa: $rsp 48 +
STACK CFI 2883b .cfa: $rsp 40 +
STACK CFI 2883d .cfa: $rsp 32 +
STACK CFI 2883f .cfa: $rsp 24 +
STACK CFI 28841 .cfa: $rsp 16 +
STACK CFI 28843 .cfa: $rsp 8 +
STACK CFI 28848 .cfa: $rsp 80 +
STACK CFI INIT 28870 3a0 .cfa: $rsp 8 + .ra: .cfa -8 + ^
STACK CFI 28872 $r15: .cfa -16 + ^ .cfa: $rsp 16 +
STACK CFI 28874 $r14: .cfa -24 + ^ .cfa: $rsp 24 +
STACK CFI 28876 $r13: .cfa -32 + ^ .cfa: $rsp 32 +
STACK CFI 28878 $r12: .cfa -40 + ^ .cfa: $rsp 40 +
STACK CFI 28879 $rbp: .cfa -48 + ^ .cfa: $rsp 48 +
STACK CFI 2887a $rbx: .cfa -56 + ^ .cfa: $rsp 56 +
STACK CFI 28881 .cfa: $rsp 400 +
STACK CFI 288ce .cfa: $rsp 56 +
STACK CFI 288cf .cfa: $rsp 48 +
STACK CFI 288d0 .cfa: $rsp 40 +
STACK CFI 288d2 .cfa: $rsp 32 +
STACK CFI 288d4 .cfa: $rsp 24 +
STACK CFI 288d6 .cfa: $rsp 16 +
STACK CFI 288d8 .cfa: $rsp 8 +
STACK CFI 288e0 .cfa: $rsp 400 +
STACK CFI INIT 28c10 395 .cfa: $rsp 8 + .ra: .cfa -8 + ^
STACK CFI 28c12 $r15: .cfa -16 + ^ .cfa: $rsp 16 +
STACK CFI 28c14 $r14: .cfa -24 + ^ .cfa: $rsp 24 +
STACK CFI 28c16 $r13: .cfa -32 + ^ .cfa: $rsp 32 +
STACK CFI 28c18 $r12: .cfa -40 + ^ .cfa: $rsp 40 +
STACK CFI 28c19 $rbp: .cfa -48 + ^ .cfa: $rsp 48 +
STACK CFI 28c1a $rbx: .cfa -56 + ^ .cfa: $rsp 56 +
STACK CFI 28c21 .cfa: $rsp 400 +
STACK CFI 28c6e .cfa: $rsp 56 +
STACK CFI 28c6f .cfa: $rsp 48 +
STACK CFI 28c70 .cfa: $rsp 40 +
STACK CFI 28c72 .cfa: $rsp 32 +
STACK CFI 28c74 .cfa: $rsp 24 +
STACK CFI 28c76 .cfa: $rsp 16 +
STACK CFI 28c78 .cfa: $rsp 8 +
STACK CFI 28c80 .cfa: $rsp 400 +
STACK CFI INIT 28fb0 2ba .cfa: $rsp 8 + .ra: .cfa -8 + ^
STACK CFI 28fbb $r15: .cfa -16 + ^ .cfa: $rsp 16 +
STACK CFI 28fbd $r14: .cfa -24 + ^ .cfa: $rsp 24 +
STACK CFI 28fbf $r13: .cfa -32 + ^ .cfa: $rsp 32 +
STACK CFI 28fc1 $r12: .cfa -40 + ^ .cfa: $rsp 40 +
STACK CFI 28fc5 $rbp: .cfa -48 + ^ .cfa: $rsp 48 +
STACK CFI 28fc6 $rbx: .cfa -56 + ^ .cfa: $rsp 56 +
STACK CFI 28fd3 .cfa: $rsp 80 +
STACK CFI 29070 .cfa: $rsp 56 +
STACK CFI 29071 .cfa: $rsp 48 +
STACK CFI 29072 .cfa: $rsp 40 +
STACK CFI 29074 .cfa: $rsp 32 +
STACK CFI 29076 .cfa: $rsp 24 +
STACK CFI 29078 .cfa: $rsp 16 +
STACK CFI 2907a .cfa: $rsp 8 +
STACK CFI 29080 $r12: $r12 $r13: $r13 $r14: $r14 $r15: $r15 $rbp: $rbp $rbx: $rbx
STACK CFI 29088 $r12: .cfa -40 + ^ $r13: .cfa -32 + ^ $r14: .cfa -24 + ^ $r15: .cfa -16 + ^ $rbp: .cfa -48 + ^ $rbx: .cfa -56 + ^ .cfa: $rsp 80 +
STACK CFI 290f8 .cfa: $rsp 56 +
STACK CFI 290f9 .cfa: $rsp 48 +
STACK CFI 290fa .cfa: $rsp 40 +
STACK CFI 290fc .cfa: $rsp 32 +
STACK CFI 290fe .cfa: $rsp 24 +
STACK CFI 29100 .cfa: $rsp 16 +
STACK CFI 29102 .cfa: $rsp 8 +
STACK CFI 29108 .cfa: $rsp 80 +
STACK CFI 29222 .cfa: $rsp 56 +
STACK CFI 29223 .cfa: $rsp 48 +
STACK CFI 29224 .cfa: $rsp 40 +
STACK CFI 29226 .cfa: $rsp 32 +
STACK CFI 29228 .cfa: $rsp 24 +
STACK CFI 2922a .cfa: $rsp 16 +
STACK CFI 2922c .cfa: $rsp 8 +
STACK CFI 29230 .cfa: $rsp 80 +
STACK CFI INIT 29270 681 .cfa: $rsp 8 + .ra: .cfa -8 + ^
STACK CFI 29272 $r15: .cfa -16 + ^ .cfa: $rsp 16 +
STACK CFI 29274 $r14: .cfa -24 + ^ .cfa: $rsp 24 +
STACK CFI 29279 $r13: .cfa -32 + ^ .cfa: $rsp 32 +
STACK CFI 2927b $r12: .cfa -40 + ^ .cfa: $rsp 40 +
STACK CFI 2927f $rbp: .cfa -48 + ^ .cfa: $rsp 48 +
STACK CFI 29280 $rbx: .cfa -56 + ^ .cfa: $rsp 56 +
STACK CFI 2928a .cfa: $rsp 192 +
STACK CFI 2948b .cfa: $rsp 56 +
STACK CFI 2948c .cfa: $rsp 48 +
STACK CFI 2948d .cfa: $rsp 40 +
STACK CFI 2948f .cfa: $rsp 32 +
STACK CFI 29491 .cfa: $rsp 24 +
STACK CFI 29493 .cfa: $rsp 16 +
STACK CFI 29495 .cfa: $rsp 8 +
STACK CFI 294a0 .cfa: $rsp 192 +
STACK CFI INIT 23490 64 .cfa: $rsp 8 + .ra: .cfa -8 + ^
STACK CFI 23491 $rbp: .cfa -16 + ^ .cfa: $rsp 16 +
STACK CFI 23492 $rbx: .cfa -24 + ^ .cfa: $rsp 24 +
STACK CFI 23496 .cfa: $rsp 32 +
STACK CFI 234a3 .cfa: $rsp 24 +
STACK CFI 234a7 .cfa: $rsp 16 +
STACK CFI 234a8 .cfa: $rsp 8 +
STACK CFI 234b0 .cfa: $rsp 32 +
STACK CFI 234d6 .cfa: $rsp 24 +
STACK CFI 234da .cfa: $rsp 16 +
STACK CFI 234db .cfa: $rsp 8 +
STACK CFI 234dc .cfa: $rsp 32 +
STACK CFI INIT 23500 66a .cfa: $rsp 8 + .ra: .cfa -8 + ^
STACK CFI 23502 $r15: .cfa -16 + ^ .cfa: $rsp 16 +
STACK CFI 23504 $r14: .cfa -24 + ^ .cfa: $rsp 24 +
STACK CFI 23508 $r13: .cfa -32 + ^ .cfa: $rsp 32 +
STACK CFI 2350a $r12: .cfa -40 + ^ .cfa: $rsp 40 +
STACK CFI 2350e $rbp: .cfa -48 + ^ .cfa: $rsp 48 +
STACK CFI 2350f $rbx: .cfa -56 + ^ .cfa: $rsp 56 +
STACK CFI 23522 .cfa: $rsp 464 +
STACK CFI 2356c .cfa: $rsp 56 +
STACK CFI 2356d .cfa: $rsp 48 +
STACK CFI 2356e .cfa: $rsp 40 +
STACK CFI 23570 .cfa: $rsp 32 +
STACK CFI 23572 .cfa: $rsp 24 +
STACK CFI 23574 .cfa: $rsp 16 +
STACK CFI 23576 .cfa: $rsp 8 +
STACK CFI 23580 .cfa: $rsp 464 +
STACK CFI INIT 29900 2ba .cfa: $rsp 8 + .ra: .cfa -8 + ^
STACK CFI 2990b $r15: .cfa -16 + ^ .cfa: $rsp 16 +
STACK CFI 2990d $r14: .cfa -24 + ^ .cfa: $rsp 24 +
STACK CFI 2990f $r13: .cfa -32 + ^ .cfa: $rsp 32 +
STACK CFI 29911 $r12: .cfa -40 + ^ .cfa: $rsp 40 +
STACK CFI 29915 $rbp: .cfa -48 + ^ .cfa: $rsp 48 +
STACK CFI 29916 $rbx: .cfa -56 + ^ .cfa: $rsp 56 +
STACK CFI 29923 .cfa: $rsp 80 +
STACK CFI 299c0 .cfa: $rsp 56 +
STACK CFI 299c1 .cfa: $rsp 48 +
STACK CFI 299c2 .cfa: $rsp 40 +
STACK CFI 299c4 .cfa: $rsp 32 +
STACK CFI 299c6 .cfa: $rsp 24 +
STACK CFI 299c8 .cfa: $rsp 16 +
STACK CFI 299ca .cfa: $rsp 8 +
STACK CFI 299d0 $r12: $r12 $r13: $r13 $r14: $r14 $r15: $r15 $rbp: $rbp $rbx: $rbx
STACK CFI 299d8 $r12: .cfa -40 + ^ $r13: .cfa -32 + ^ $r14: .cfa -24 + ^ $r15: .cfa -16 + ^ $rbp: .cfa -48 + ^ $rbx: .cfa -56 + ^ .cfa: $rsp 80 +
STACK CFI 29a48 .cfa: $rsp 56 +
STACK CFI 29a49 .cfa: $rsp 48 +
STACK CFI 29a4a .cfa: $rsp 40 +
STACK CFI 29a4c .cfa: $rsp 32 +
STACK CFI 29a4e .cfa: $rsp 24 +
STACK CFI 29a50 .cfa: $rsp 16 +
STACK CFI 29a52 .cfa: $rsp 8 +
STACK CFI 29a58 .cfa: $rsp 80 +
STACK CFI 29b72 .cfa: $rsp 56 +
STACK CFI 29b73 .cfa: $rsp 48 +
STACK CFI 29b74 .cfa: $rsp 40 +
STACK CFI 29b76 .cfa: $rsp 32 +
STACK CFI 29b78 .cfa: $rsp 24 +
STACK CFI 29b7a .cfa: $rsp 16 +
STACK CFI 29b7c .cfa: $rsp 8 +
STACK CFI 29b80 .cfa: $rsp 80 +
STACK CFI INIT 29bc0 67c .cfa: $rsp 8 + .ra: .cfa -8 + ^
STACK CFI 29bc2 $r15: .cfa -16 + ^ .cfa: $rsp 16 +
STACK CFI 29bc4 $r14: .cfa -24 + ^ .cfa: $rsp 24 +
STACK CFI 29bc9 $r13: .cfa -32 + ^ .cfa: $rsp 32 +
STACK CFI 29bcb $r12: .cfa -40 + ^ .cfa: $rsp 40 +
STACK CFI 29bcf $rbp: .cfa -48 + ^ .cfa: $rsp 48 +
STACK CFI 29bd0 $rbx: .cfa -56 + ^ .cfa: $rsp 56 +
STACK CFI 29bda .cfa: $rsp 192 +
STACK CFI 29ddb .cfa: $rsp 56 +
STACK CFI 29ddc .cfa: $rsp 48 +
STACK CFI 29ddd .cfa: $rsp 40 +
STACK CFI 29ddf .cfa: $rsp 32 +
STACK CFI 29de1 .cfa: $rsp 24 +
STACK CFI 29de3 .cfa: $rsp 16 +
STACK CFI 29de5 .cfa: $rsp 8 +
STACK CFI 29df0 .cfa: $rsp 192 +
STACK CFI INIT 23b70 64 .cfa: $rsp 8 + .ra: .cfa -8 + ^
STACK CFI 23b71 $rbp: .cfa -16 + ^ .cfa: $rsp 16 +
STACK CFI 23b72 $rbx: .cfa -24 + ^ .cfa: $rsp 24 +
STACK CFI 23b76 .cfa: $rsp 32 +
STACK CFI 23b83 .cfa: $rsp 24 +
STACK CFI 23b87 .cfa: $rsp 16 +
STACK CFI 23b88 .cfa: $rsp 8 +
STACK CFI 23b90 .cfa: $rsp 32 +
STACK CFI 23bb6 .cfa: $rsp 24 +
STACK CFI 23bba .cfa: $rsp 16 +
STACK CFI 23bbb .cfa: $rsp 8 +
STACK CFI 23bbc .cfa: $rsp 32 +
STACK CFI INIT 23be0 1b73 .cfa: $rsp 8 + .ra: .cfa -8 + ^
STACK CFI 23be2 $r15: .cfa -16 + ^ .cfa: $rsp 16 +
STACK CFI 23be4 $r14: .cfa -24 + ^ .cfa: $rsp 24 +
STACK CFI 23be6 $r13: .cfa -32 + ^ .cfa: $rsp 32 +
STACK CFI 23be8 $r12: .cfa -40 + ^ .cfa: $rsp 40 +
STACK CFI 23bec $rbp: .cfa -48 + ^ .cfa: $rsp 48 +
STACK CFI 23bed $rbx: .cfa -56 + ^ .cfa: $rsp 56 +
STACK CFI 23bf4 .cfa: $rsp 224 +
STACK CFI 23c50 .cfa: $rsp 56 +
STACK CFI 23c51 .cfa: $rsp 48 +
STACK CFI 23c52 .cfa: $rsp 40 +
STACK CFI 23c54 .cfa: $rsp 32 +
STACK CFI 23c56 .cfa: $rsp 24 +
STACK CFI 23c58 .cfa: $rsp 16 +
STACK CFI 23c5a .cfa: $rsp 8 +
STACK CFI 23c60 .cfa: $rsp 224 +
STACK CFI INIT 25760 8 .cfa: $rsp 8 + .ra: .cfa -8 + ^
STACK CFI INIT 25770 c .cfa: $rsp 8 + .ra: .cfa -8 + ^
STACK CFI INIT 25780 e6 .cfa: $rsp 8 + .ra: .cfa -8 + ^
STACK CFI 25781 $rbx: .cfa -16 + ^ .cfa: $rsp 16 +
STACK CFI 257ee .cfa: $rsp 8 +
STACK CFI 257f0 .cfa: $rsp 16 +
STACK CFI 2585c .cfa: $rsp 8 +
STACK CFI 25860 .cfa: $rsp 16 +
STACK CFI 25865 .cfa: $rsp 8 +
STACK CFI INIT 25870 55 .cfa: $rsp 8 + .ra: .cfa -8 + ^
STACK CFI 25871 $rbx: .cfa -16 + ^ .cfa: $rsp 16 +
STACK CFI 25895 .cfa: $rsp 8 +
STACK CFI 258a0 .cfa: $rsp 16 +
STACK CFI INIT 258d0 2e3 .cfa: $rsp 8 + .ra: .cfa -8 + ^
STACK CFI 258da $r14: .cfa -16 + ^ .cfa: $rsp 16 +
STACK CFI 258dc $r13: .cfa -24 + ^ .cfa: $rsp 24 +
STACK CFI 258de $r12: .cfa -32 + ^ .cfa: $rsp 32 +
STACK CFI 258df $rbp: .cfa -40 + ^ .cfa: $rsp 40 +
STACK CFI 258e3 $rbx: .cfa -48 + ^ .cfa: $rsp 48 +
STACK CFI 25a75 .cfa: $rsp 40 +
STACK CFI 25a76 .cfa: $rsp 32 +
STACK CFI 25a78 .cfa: $rsp 24 +
STACK CFI 25a7a .cfa: $rsp 16 +
STACK CFI 25a7c .cfa: $rsp 8 +
STACK CFI 25a80 .cfa: $rsp 48 +
STACK CFI 25a81 .cfa: $rsp 40 +
STACK CFI 25a84 .cfa: $rsp 32 +
STACK CFI 25a86 .cfa: $rsp 24 +
STACK CFI 25a88 .cfa: $rsp 16 +
STACK CFI 25a8a .cfa: $rsp 8 +
STACK CFI 25a90 .cfa: $rsp 48 +
STACK CFI 25bb0 $r12: $r12 $r13: $r13 $r14: $r14 $rbp: $rbp $rbx: $rbx .cfa: $rsp 8 +
STACK CFI INIT 25bc0 4be .cfa: $rsp 8 + .ra: .cfa -8 + ^
STACK CFI 25bc2 $r15: .cfa -16 + ^ .cfa: $rsp 16 +
STACK CFI 25bc4 $r14: .cfa -24 + ^ .cfa: $rsp 24 +
STACK CFI 25bc6 $r13: .cfa -32 + ^ .cfa: $rsp 32 +
STACK CFI 25bc8 $r12: .cfa -40 + ^ .cfa: $rsp 40 +
STACK CFI 25bcc $rbp: .cfa -48 + ^ .cfa: $rsp 48 +
STACK CFI 25bcd $rbx: .cfa -56 + ^ .cfa: $rsp 56 +
STACK CFI 25bd7 .cfa: $rsp 80 +
STACK CFI 25c48 .cfa: $rsp 56 +
STACK CFI 25c49 .cfa: $rsp 48 +
STACK CFI 25c4a .cfa: $rsp 40 +
STACK CFI 25c4c .cfa: $rsp 32 +
STACK CFI 25c4e .cfa: $rsp 24 +
STACK CFI 25c50 .cfa: $rsp 16 +
STACK CFI 25c52 .cfa: $rsp 8 +
STACK CFI 25c58 .cfa: $rsp 80 +
STACK CFI INIT 26080 94e .cfa: $rsp 8 + .ra: .cfa -8 + ^
STACK CFI 26082 $r15: .cfa -16 + ^ .cfa: $rsp 16 +
STACK CFI 26084 $r14: .cfa -24 + ^ .cfa: $rsp 24 +
STACK CFI 26086 $r13: .cfa -32 + ^ .cfa: $rsp 32 +
STACK CFI 26088 $r12: .cfa -40 + ^ .cfa: $rsp 40 +
STACK CFI 26089 $rbp: .cfa -48 + ^ .cfa: $rsp 48 +
STACK CFI 2608a $rbx: .cfa -56 + ^ .cfa: $rsp 56 +
STACK CFI 26091 .cfa: $rsp 176 +
STACK CFI 262fa .cfa: $rsp 56 +
STACK CFI 262fb .cfa: $rsp 48 +
STACK CFI 262fc .cfa: $rsp 40 +
STACK CFI 262fe .cfa: $rsp 32 +
STACK CFI 26300 .cfa: $rsp 24 +
STACK CFI 26302 .cfa: $rsp 16 +
STACK CFI 26304 .cfa: $rsp 8 +
STACK CFI 26308 .cfa: $rsp 176 +
STACK CFI INIT 269d0 67 .cfa: $rsp 8 + .ra: .cfa -8 + ^
STACK CFI 269d2 $r12: .cfa -16 + ^ .cfa: $rsp 16 +
STACK CFI 269d3 $rbp: .cfa -24 + ^ .cfa: $rsp 24 +
STACK CFI 269d7 $rbx: .cfa -32 + ^ .cfa: $rsp 32 +
STACK CFI 269fb .cfa: $rsp 24 +
STACK CFI 26a05 .cfa: $rsp 16 +
STACK CFI 26a07 .cfa: $rsp 8 +
STACK CFI 26a10 .cfa: $rsp 32 +
STACK CFI 26a16 .cfa: $rsp 24 +
STACK CFI 26a20 .cfa: $rsp 16 +
STACK CFI 26a22 .cfa: $rsp 8 +
STACK CFI 26a30 .cfa: $rsp 32 +
STACK CFI 26a31 .cfa: $rsp 24 +
STACK CFI 26a34 .cfa: $rsp 16 +
STACK CFI 26a36 .cfa: $rsp 8 +
STACK CFI INIT 26a40 42 .cfa: $rsp 8 + .ra: .cfa -8 + ^
STACK CFI 26a41 $rbx: .cfa -16 + ^ .cfa: $rsp 16 +
STACK CFI 26a5a .cfa: $rsp 8 +
STACK CFI 26a60 .cfa: $rsp 16 +
STACK CFI 26a6b .cfa: $rsp 8 +
STACK CFI 26a70 .cfa: $rsp 16 +
STACK CFI 26a7e .cfa: $rsp 8 +
STACK CFI INIT 26a90 69a .cfa: $rsp 8 + .ra: .cfa -8 + ^
STACK CFI 26a92 $r15: .cfa -16 + ^ .cfa: $rsp 16 +
STACK CFI 26a94 $r14: .cfa -24 + ^ .cfa: $rsp 24 +
STACK CFI 26a98 $r13: .cfa -32 + ^ .cfa: $rsp 32 +
STACK CFI 26a9a $r12: .cfa -40 + ^ .cfa: $rsp 40 +
STACK CFI 26a9e $rbp: .cfa -48 + ^ .cfa: $rsp 48 +
STACK CFI 26a9f $rbx: .cfa -56 + ^ .cfa: $rsp 56 +
STACK CFI 26ab2 .cfa: $rsp 496 +
STACK CFI 26afc .cfa: $rsp 56 +
STACK CFI 26afd .cfa: $rsp 48 +
STACK CFI 26afe .cfa: $rsp 40 +
STACK CFI 26b00 .cfa: $rsp 32 +
STACK CFI 26b02 .cfa: $rsp 24 +
STACK CFI 26b04 .cfa: $rsp 16 +
STACK CFI 26b06 .cfa: $rsp 8 +
STACK CFI 26b10 .cfa: $rsp 496 +
STACK CFI INIT 27130 84 .cfa: $rsp 8 + .ra: .cfa -8 + ^
STACK CFI 27132 $r13: .cfa -16 + ^ .cfa: $rsp 16 +
STACK CFI 27134 $r12: .cfa -24 + ^ .cfa: $rsp 24 +
STACK CFI 27138 $rbp: .cfa -32 + ^ .cfa: $rsp 32 +
STACK CFI 27139 $rbx: .cfa -40 + ^ .cfa: $rsp 40 +
STACK CFI 27146 .cfa: $rsp 48 +
STACK CFI 2718d .cfa: $rsp 40 +
STACK CFI 27190 .cfa: $rsp 32 +
STACK CFI 27191 .cfa: $rsp 24 +
STACK CFI 27193 .cfa: $rsp 16 +
STACK CFI 27195 .cfa: $rsp 8 +
STACK CFI 271a0 .cfa: $rsp 48 +
STACK CFI 271ab .cfa: $rsp 40 +
STACK CFI 271ae .cfa: $rsp 32 +
STACK CFI 271af .cfa: $rsp 24 +
STACK CFI 271b1 .cfa: $rsp 16 +
STACK CFI 271b3 .cfa: $rsp 8 +
STACK CFI INIT 271c0 7 .cfa: $rsp 8 + .ra: .cfa -8 + ^
STACK CFI INIT 271d0 a .cfa: $rsp 8 + .ra: .cfa -8 + ^
STACK CFI INIT 2a240 8b .cfa: $rsp 8 + .ra: .cfa -8 + ^
STACK CFI INIT 2a2d0 2 .cfa: $rsp 8 + .ra: .cfa -8 + ^
STACK CFI INIT 2a2e0 a .cfa: $rsp 8 + .ra: .cfa -8 + ^
STACK CFI INIT 2a2f0 22 .cfa: $rsp 8 + .ra: .cfa -8 + ^
STACK CFI INIT 2a320 2e .cfa: $rsp 8 + .ra: .cfa -8 + ^
STACK CFI 2a328 $rbx: .cfa -16 + ^ .cfa: $rsp 16 +
STACK CFI 2a349 .cfa: $rsp 8 +
STACK CFI INIT 2a350 9 .cfa: $rsp 8 + .ra: .cfa -8 + ^
STACK CFI INIT 2a360 75 .cfa: $rsp 8 + .ra: .cfa -8 + ^
STACK CFI 2a361 $rbp: .cfa -16 + ^ .cfa: $rsp 16 +
STACK CFI 2a362 $rbx: .cfa -24 + ^ .cfa: $rsp 24 +
STACK CFI 2a369 .cfa: $rsp 112 +
STACK CFI 2a3cd .cfa: $rsp 24 +
STACK CFI 2a3ce .cfa: $rsp 16 +
STACK CFI 2a3cf .cfa: $rsp 8 +
STACK CFI 2a3d0 .cfa: $rsp 112 +
STACK CFI INIT 2a3e0 a8 .cfa: $rsp 8 + .ra: .cfa -8 + ^
STACK CFI INIT 8330 16 .cfa: $rsp 8 + .ra: .cfa -8 + ^
STACK CFI INIT 8346 4d .cfa: $rsp 8 + .ra: .cfa -8 + ^
STACK CFI 8348 $r13: .cfa -16 + ^ .cfa: $rsp 16 +
STACK CFI 834a $r12: .cfa -24 + ^ .cfa: $rsp 24 +
STACK CFI 834e $rbp: .cfa -32 + ^ .cfa: $rsp 32 +
STACK CFI 834f $rbx: .cfa -40 + ^ .cfa: $rsp 40 +
STACK CFI 835b .cfa: $rsp 48 +
STACK CFI 838c .cfa: $rsp 40 +
STACK CFI 838d .cfa: $rsp 32 +
STACK CFI 838e .cfa: $rsp 24 +
STACK CFI 8390 .cfa: $rsp 16 +
STACK CFI 8392 .cfa: $rsp 8 +
STACK CFI INIT 2a490 1aa .cfa: $rsp 8 + .ra: .cfa -8 + ^
STACK CFI 2a492 $r13: .cfa -16 + ^ .cfa: $rsp 16 +
STACK CFI 2a494 $r12: .cfa -24 + ^ .cfa: $rsp 24 +
STACK CFI 2a498 $rbp: .cfa -32 + ^ .cfa: $rsp 32 +
STACK CFI 2a499 $rbx: .cfa -40 + ^ .cfa: $rsp 40 +
STACK CFI 2a4a8 .cfa: $rsp 208 +
STACK CFI 2a562 .cfa: $rsp 40 +
STACK CFI 2a563 .cfa: $rsp 32 +
STACK CFI 2a564 .cfa: $rsp 24 +
STACK CFI 2a566 .cfa: $rsp 16 +
STACK CFI 2a568 .cfa: $rsp 8 +
STACK CFI 2a570 .cfa: $rsp 208 +
STACK CFI INIT 2a640 c8 .cfa: $rsp 8 + .ra: .cfa -8 + ^
STACK CFI 2a642 $r12: .cfa -16 + ^ .cfa: $rsp 16 +
STACK CFI 2a643 $rbp: .cfa -24 + ^ .cfa: $rsp 24 +
STACK CFI 2a647 $rbx: .cfa -32 + ^ .cfa: $rsp 32 +
STACK CFI 2a64e .cfa: $rsp 48 +
STACK CFI 2a6b4 .cfa: $rsp 32 +
STACK CFI 2a6b5 .cfa: $rsp 24 +
STACK CFI 2a6b6 .cfa: $rsp 16 +
STACK CFI 2a6b8 .cfa: $rsp 8 +
STACK CFI 2a6c0 .cfa: $rsp 48 +
STACK CFI INIT 2a710 404 .cfa: $rsp 8 + .ra: .cfa -8 + ^
STACK CFI 2a712 $r12: .cfa -16 + ^ .cfa: $rsp 16 +
STACK CFI 2a713 $rbp: .cfa -24 + ^ .cfa: $rsp 24 +
STACK CFI 2a714 $rbx: .cfa -32 + ^ .cfa: $rsp 32 +
STACK CFI 2a71b .cfa: $rsp 64 +
STACK CFI 2a820 .cfa: $rsp 32 +
STACK CFI 2a821 .cfa: $rsp 24 +
STACK CFI 2a822 .cfa: $rsp 16 +
STACK CFI 2a824 .cfa: $rsp 8 +
STACK CFI 2a828 .cfa: $rsp 64 +
STACK CFI INIT 30040 22 .cfa: $rsp 8 + .ra: .cfa -8 + ^
STACK CFI 30041 $rbx: .cfa -16 + ^ .cfa: $rsp 16 +
STACK CFI 3005a .cfa: $rsp 8 +
STACK CFI 30060 .cfa: $rsp 16 +
STACK CFI 30061 .cfa: $rsp 8 +
STACK CFI INIT 2ab20 219 .cfa: $rsp 8 + .ra: .cfa -8 + ^
STACK CFI 2ab22 $r15: .cfa -16 + ^ .cfa: $rsp 16 +
STACK CFI 2ab24 $r14: .cfa -24 + ^ .cfa: $rsp 24 +
STACK CFI 2ab29 $r13: .cfa -32 + ^ .cfa: $rsp 32 +
STACK CFI 2ab2b $r12: .cfa -40 + ^ .cfa: $rsp 40 +
STACK CFI 2ab2f $rbp: .cfa -48 + ^ .cfa: $rsp 48 +
STACK CFI 2ab30 $rbx: .cfa -56 + ^ .cfa: $rsp 56 +
STACK CFI 2ab3d .cfa: $rsp 336 +
STACK CFI 2acd2 .cfa: $rsp 56 +
STACK CFI 2acd3 .cfa: $rsp 48 +
STACK CFI 2acd4 .cfa: $rsp 40 +
STACK CFI 2acd6 .cfa: $rsp 32 +
STACK CFI 2acd8 .cfa: $rsp 24 +
STACK CFI 2acda .cfa: $rsp 16 +
STACK CFI 2acdc .cfa: $rsp 8 +
STACK CFI 2acdd .cfa: $rsp 336 +
STACK CFI INIT 30070 28a .cfa: $rsp 8 + .ra: .cfa -8 + ^
STACK CFI 30072 $r15: .cfa -16 + ^ .cfa: $rsp 16 +
STACK CFI 30074 $r14: .cfa -24 + ^ .cfa: $rsp 24 +
STACK CFI 30079 $r13: .cfa -32 + ^ .cfa: $rsp 32 +
STACK CFI 3007b $r12: .cfa -40 + ^ .cfa: $rsp 40 +
STACK CFI 3007f $rbp: .cfa -48 + ^ .cfa: $rsp 48 +
STACK CFI 30080 $rbx: .cfa -56 + ^ .cfa: $rsp 56 +
STACK CFI 3008a .cfa: $rsp 80 +
STACK CFI 30284 .cfa: $rsp 56 +
STACK CFI 30285 .cfa: $rsp 48 +
STACK CFI 30286 .cfa: $rsp 40 +
STACK CFI 30288 .cfa: $rsp 32 +
STACK CFI 3028a .cfa: $rsp 24 +
STACK CFI 3028c .cfa: $rsp 16 +
STACK CFI 3028e .cfa: $rsp 8 +
STACK CFI 30290 .cfa: $rsp 80 +
STACK CFI INIT 30300 9c .cfa: $rsp 8 + .ra: .cfa -8 + ^
STACK CFI 30302 $r15: .cfa -16 + ^ .cfa: $rsp 16 +
STACK CFI 30304 $r14: .cfa -24 + ^ .cfa: $rsp 24 +
STACK CFI 30309 $r13: .cfa -32 + ^ .cfa: $rsp 32 +
STACK CFI 3030b $r12: .cfa -40 + ^ .cfa: $rsp 40 +
STACK CFI 3030f $rbp: .cfa -48 + ^ .cfa: $rsp 48 +
STACK CFI 30310 $rbx: .cfa -56 + ^ .cfa: $rsp 56 +
STACK CFI 3031d .cfa: $rsp 80 +
STACK CFI 30387 .cfa: $rsp 56 +
STACK CFI 3038b .cfa: $rsp 48 +
STACK CFI 3038c .cfa: $rsp 40 +
STACK CFI 3038e .cfa: $rsp 32 +
STACK CFI 30390 .cfa: $rsp 24 +
STACK CFI 30392 .cfa: $rsp 16 +
STACK CFI 30394 .cfa: $rsp 8 +
STACK CFI 30398 .cfa: $rsp 80 +
STACK CFI INIT 303a0 9c .cfa: $rsp 8 + .ra: .cfa -8 + ^
STACK CFI 303a2 $r15: .cfa -16 + ^ .cfa: $rsp 16 +
STACK CFI 303a4 $r14: .cfa -24 + ^ .cfa: $rsp 24 +
STACK CFI 303a9 $r13: .cfa -32 + ^ .cfa: $rsp 32 +
STACK CFI 303ab $r12: .cfa -40 + ^ .cfa: $rsp 40 +
STACK CFI 303af $rbp: .cfa -48 + ^ .cfa: $rsp 48 +
STACK CFI 303b0 $rbx: .cfa -56 + ^ .cfa: $rsp 56 +
STACK CFI 303bd .cfa: $rsp 80 +
STACK CFI 30427 .cfa: $rsp 56 +
STACK CFI 3042b .cfa: $rsp 48 +
STACK CFI 3042c .cfa: $rsp 40 +
STACK CFI 3042e .cfa: $rsp 32 +
STACK CFI 30430 .cfa: $rsp 24 +
STACK CFI 30432 .cfa: $rsp 16 +
STACK CFI 30434 .cfa: $rsp 8 +
STACK CFI 30438 .cfa: $rsp 80 +
STACK CFI INIT 30440 1c9 .cfa: $rsp 8 + .ra: .cfa -8 + ^
STACK CFI 30442 $r15: .cfa -16 + ^ .cfa: $rsp 16 +
STACK CFI 30444 $r14: .cfa -24 + ^ .cfa: $rsp 24 +
STACK CFI 30446 $r13: .cfa -32 + ^ .cfa: $rsp 32 +
STACK CFI 30448 $r12: .cfa -40 + ^ .cfa: $rsp 40 +
STACK CFI 30449 $rbp: .cfa -48 + ^ .cfa: $rsp 48 +
STACK CFI 3044a $rbx: .cfa -56 + ^ .cfa: $rsp 56 +
STACK CFI 3044e .cfa: $rsp 96 +
STACK CFI 30462 .cfa: $rsp 56 +
STACK CFI 30463 .cfa: $rsp 48 +
STACK CFI 30464 .cfa: $rsp 40 +
STACK CFI 30466 .cfa: $rsp 32 +
STACK CFI 30468 .cfa: $rsp 24 +
STACK CFI 3046a .cfa: $rsp 16 +
STACK CFI 3046c .cfa: $rsp 8 +
STACK CFI 30470 .cfa: $rsp 96 +
STACK CFI 304df .cfa: $rsp 56 +
STACK CFI 304e0 .cfa: $rsp 48 +
STACK CFI 304e1 .cfa: $rsp 40 +
STACK CFI 304e3 .cfa: $rsp 32 +
STACK CFI 304e5 .cfa: $rsp 24 +
STACK CFI 304e7 .cfa: $rsp 16 +
STACK CFI 304e9 .cfa: $rsp 8 +
STACK CFI 304f0 .cfa: $rsp 96 +
STACK CFI INIT 2ad40 4b5 .cfa: $rsp 8 + .ra: .cfa -8 + ^
STACK CFI 2ad42 $r15: .cfa -16 + ^ .cfa: $rsp 16 +
STACK CFI 2ad44 $r14: .cfa -24 + ^ .cfa: $rsp 24 +
STACK CFI 2ad46 $r13: .cfa -32 + ^ .cfa: $rsp 32 +
STACK CFI 2ad48 $r12: .cfa -40 + ^ .cfa: $rsp 40 +
STACK CFI 2ad4c $rbp: .cfa -48 + ^ .cfa: $rsp 48 +
STACK CFI 2ad4d $rbx: .cfa -56 + ^ .cfa: $rsp 56 +
STACK CFI 2ad57 .cfa: $rsp 368 +
STACK CFI 2b041 .cfa: $rsp 56 +
STACK CFI 2b042 .cfa: $rsp 48 +
STACK CFI 2b043 .cfa: $rsp 40 +
STACK CFI 2b045 .cfa: $rsp 32 +
STACK CFI 2b047 .cfa: $rsp 24 +
STACK CFI 2b049 .cfa: $rsp 16 +
STACK CFI 2b04b .cfa: $rsp 8 +
STACK CFI 2b050 .cfa: $rsp 368 +
STACK CFI INIT 2b200 4b5 .cfa: $rsp 8 + .ra: .cfa -8 + ^
STACK CFI 2b202 $r15: .cfa -16 + ^ .cfa: $rsp 16 +
STACK CFI 2b204 $r14: .cfa -24 + ^ .cfa: $rsp 24 +
STACK CFI 2b206 $r13: .cfa -32 + ^ .cfa: $rsp 32 +
STACK CFI 2b208 $r12: .cfa -40 + ^ .cfa: $rsp 40 +
STACK CFI 2b20c $rbp: .cfa -48 + ^ .cfa: $rsp 48 +
STACK CFI 2b20d $rbx: .cfa -56 + ^ .cfa: $rsp 56 +
STACK CFI 2b217 .cfa: $rsp 368 +
STACK CFI 2b501 .cfa: $rsp 56 +
STACK CFI 2b502 .cfa: $rsp 48 +
STACK CFI 2b503 .cfa: $rsp 40 +
STACK CFI 2b505 .cfa: $rsp 32 +
STACK CFI 2b507 .cfa: $rsp 24 +
STACK CFI 2b509 .cfa: $rsp 16 +
STACK CFI 2b50b .cfa: $rsp 8 +
STACK CFI 2b510 .cfa: $rsp 368 +
STACK CFI INIT 2b6c0 1d3 .cfa: $rsp 8 + .ra: .cfa -8 + ^
STACK CFI 2b6c2 $r13: .cfa -16 + ^ .cfa: $rsp 16 +
STACK CFI 2b6c4 $r12: .cfa -24 + ^ .cfa: $rsp 24 +
STACK CFI 2b6c8 $rbp: .cfa -32 + ^ .cfa: $rsp 32 +
STACK CFI 2b6c9 $rbx: .cfa -40 + ^ .cfa: $rsp 40 +
STACK CFI 2b6d0 .cfa: $rsp 96 +
STACK CFI 2b748 .cfa: $rsp 40 +
STACK CFI 2b749 .cfa: $rsp 32 +
STACK CFI 2b74a .cfa: $rsp 24 +
STACK CFI 2b74c .cfa: $rsp 16 +
STACK CFI 2b74e .cfa: $rsp 8 +
STACK CFI 2b750 .cfa: $rsp 96 +
STACK CFI INIT 30610 16b .cfa: $rsp 8 + .ra: .cfa -8 + ^
STACK CFI 3061f $r14: .cfa -16 + ^ .cfa: $rsp 16 +
STACK CFI 30624 $r13: .cfa -24 + ^ .cfa: $rsp 24 +
STACK CFI 30626 $r12: .cfa -32 + ^ .cfa: $rsp 32 +
STACK CFI 30627 $rbp: .cfa -40 + ^ .cfa: $rsp 40 +
STACK CFI 3062e $rbx: .cfa -48 + ^ .cfa: $rsp 48 +
STACK CFI 30703 .cfa: $rsp 40 +
STACK CFI 30704 .cfa: $rsp 32 +
STACK CFI 30706 .cfa: $rsp 24 +
STACK CFI 30708 .cfa: $rsp 16 +
STACK CFI 3070a .cfa: $rsp 8 +
STACK CFI 30710 .cfa: $rsp 48 +
STACK CFI INIT 30780 106 .cfa: $rsp 8 + .ra: .cfa -8 + ^
STACK CFI 30782 $r15: .cfa -16 + ^ .cfa: $rsp 16 +
STACK CFI 30784 $r14: .cfa -24 + ^ .cfa: $rsp 24 +
STACK CFI 30786 $r13: .cfa -32 + ^ .cfa: $rsp 32 +
STACK CFI 30788 $r12: .cfa -40 + ^ .cfa: $rsp 40 +
STACK CFI 3078d $rbp: .cfa -48 + ^ .cfa: $rsp 48 +
STACK CFI 3078e $rbx: .cfa -56 + ^ .cfa: $rsp 56 +
STACK CFI 30792 .cfa: $rsp 64 +
STACK CFI 3083b .cfa: $rsp 56 +
STACK CFI 3083f .cfa: $rsp 48 +
STACK CFI 30840 .cfa: $rsp 40 +
STACK CFI 30842 .cfa: $rsp 32 +
STACK CFI 30844 .cfa: $rsp 24 +
STACK CFI 30846 .cfa: $rsp 16 +
STACK CFI 30848 .cfa: $rsp 8 +
STACK CFI 30850 .cfa: $rsp 64 +
STACK CFI 30854 .cfa: $rsp 56 +
STACK CFI 30858 .cfa: $rsp 48 +
STACK CFI 30859 .cfa: $rsp 40 +
STACK CFI 3085b .cfa: $rsp 32 +
STACK CFI 3085d .cfa: $rsp 24 +
STACK CFI 3085f .cfa: $rsp 16 +
STACK CFI 30861 .cfa: $rsp 8 +
STACK CFI 30868 .cfa: $rsp 64 +
STACK CFI INIT 8590 2e .cfa: $rsp 8 + .ra: .cfa -8 + ^
STACK CFI 859b .cfa: $rsp 16 +
STACK CFI 85b9 .cfa: $rsp 8 +
STACK CFI INIT 2b8a0 5f8 .cfa: $rsp 8 + .ra: .cfa -8 + ^
STACK CFI 2b8a2 $r15: .cfa -16 + ^ .cfa: $rsp 16 +
STACK CFI 2b8a4 $r14: .cfa -24 + ^ .cfa: $rsp 24 +
STACK CFI 2b8a9 $r13: .cfa -32 + ^ .cfa: $rsp 32 +
STACK CFI 2b8ab $r12: .cfa -40 + ^ .cfa: $rsp 40 +
STACK CFI 2b8af $rbp: .cfa -48 + ^ .cfa: $rsp 48 +
STACK CFI 2b8b0 $rbx: .cfa -56 + ^ .cfa: $rsp 56 +
STACK CFI 2b8bd .cfa: $rsp 672 +
STACK CFI 2bd7b .cfa: $rsp 56 +
STACK CFI 2bd7c .cfa: $rsp 48 +
STACK CFI 2bd7d .cfa: $rsp 40 +
STACK CFI 2bd7f .cfa: $rsp 32 +
STACK CFI 2bd81 .cfa: $rsp 24 +
STACK CFI 2bd83 .cfa: $rsp 16 +
STACK CFI 2bd85 .cfa: $rsp 8 +
STACK CFI 2bd90 .cfa: $rsp 672 +
STACK CFI INIT 2bea0 7cf .cfa: $rsp 8 + .ra: .cfa -8 + ^
STACK CFI 2bea2 $r15: .cfa -16 + ^ .cfa: $rsp 16 +
STACK CFI 2bea4 $r14: .cfa -24 + ^ .cfa: $rsp 24 +
STACK CFI 2bea9 $r13: .cfa -32 + ^ .cfa: $rsp 32 +
STACK CFI 2beab $r12: .cfa -40 + ^ .cfa: $rsp 40 +
STACK CFI 2beaf $rbp: .cfa -48 + ^ .cfa: $rsp 48 +
STACK CFI 2beb0 $rbx: .cfa -56 + ^ .cfa: $rsp 56 +
STACK CFI 2bebd .cfa: $rsp 8576 +
STACK CFI 2bf4e .cfa: $rsp 56 +
STACK CFI 2bf4f .cfa: $rsp 48 +
STACK CFI 2bf50 .cfa: $rsp 40 +
STACK CFI 2bf52 .cfa: $rsp 32 +
STACK CFI 2bf54 .cfa: $rsp 24 +
STACK CFI 2bf56 .cfa: $rsp 16 +
STACK CFI 2bf58 .cfa: $rsp 8 +
STACK CFI 2bf60 .cfa: $rsp 8576 +
STACK CFI INIT 2c670 1335 .cfa: $rsp 8 + .ra: .cfa -8 + ^
STACK CFI 2c671 $rbp: .cfa -16 + ^ .cfa: $rsp 16 +
STACK CFI 2c674 .cfa: $rbp 16 +
STACK CFI 2c67c $r12: .cfa -48 + ^ $r13: .cfa -40 + ^ $r14: .cfa -32 + ^ $r15: .cfa -24 + ^
STACK CFI 2c687 $rbx: .cfa -56 + ^
STACK CFI 2ca4d .cfa: $rsp 8 +
STACK CFI 2ca50 .cfa: $rbp 16 +
STACK CFI INIT 2d9b0 5f9 .cfa: $rsp 8 + .ra: .cfa -8 + ^
STACK CFI 2d9b2 $r15: .cfa -16 + ^ .cfa: $rsp 16 +
STACK CFI 2d9b4 $r14: .cfa -24 + ^ .cfa: $rsp 24 +
STACK CFI 2d9b9 $r13: .cfa -32 + ^ .cfa: $rsp 32 +
STACK CFI 2d9bb $r12: .cfa -40 + ^ .cfa: $rsp 40 +
STACK CFI 2d9bf $rbp: .cfa -48 + ^ .cfa: $rsp 48 +
STACK CFI 2d9c0 $rbx: .cfa -56 + ^ .cfa: $rsp 56 +
STACK CFI 2d9cd .cfa: $rsp 672 +
STACK CFI 2de93 .cfa: $rsp 56 +
STACK CFI 2de94 .cfa: $rsp 48 +
STACK CFI 2de95 .cfa: $rsp 40 +
STACK CFI 2de97 .cfa: $rsp 32 +
STACK CFI 2de99 .cfa: $rsp 24 +
STACK CFI 2de9b .cfa: $rsp 16 +
STACK CFI 2de9d .cfa: $rsp 8 +
STACK CFI 2dea0 .cfa: $rsp 672 +
STACK CFI INIT 2dfb0 134b .cfa: $rsp 8 + .ra: .cfa -8 + ^
STACK CFI 2dfb1 $rbp: .cfa -16 + ^ .cfa: $rsp 16 +
STACK CFI 2dfb4 .cfa: $rbp 16 +
STACK CFI 2dfbc $r12: .cfa -48 + ^ $r13: .cfa -40 + ^ $r14: .cfa -32 + ^ $r15: .cfa -24 + ^
STACK CFI 2dfc7 $rbx: .cfa -56 + ^
STACK CFI 2e39b .cfa: $rsp 8 +
STACK CFI 2e3a0 .cfa: $rbp 16 +
STACK CFI INIT 2f300 bc3 .cfa: $rsp 8 + .ra: .cfa -8 + ^
STACK CFI 2f301 $rbp: .cfa -16 + ^ .cfa: $rsp 16 +
STACK CFI 2f304 .cfa: $rbp 16 +
STACK CFI 2f30c $r12: .cfa -48 + ^ $r13: .cfa -40 + ^ $r14: .cfa -32 + ^ $r15: .cfa -24 + ^
STACK CFI 2f31d $rbx: .cfa -56 + ^
STACK CFI 2f385 .cfa: $rsp 8 +
STACK CFI 2f390 .cfa: $rbp 16 +
STACK CFI INIT 2fed0 d9 .cfa: $rsp 8 + .ra: .cfa -8 + ^
STACK CFI 2fed2 $r15: .cfa -16 + ^ .cfa: $rsp 16 +
STACK CFI 2fed4 $r14: .cfa -24 + ^ .cfa: $rsp 24 +
STACK CFI 2fed9 $r13: .cfa -32 + ^ .cfa: $rsp 32 +
STACK CFI 2fedb $r12: .cfa -40 + ^ .cfa: $rsp 40 +
STACK CFI 2fedf $rbp: .cfa -48 + ^ .cfa: $rsp 48 +
STACK CFI 2fee0 $rbx: .cfa -56 + ^ .cfa: $rsp 56 +
STACK CFI 2feea .cfa: $rsp 112 +
STACK CFI 2ff3d .cfa: $rsp 56 +
STACK CFI 2ff3e .cfa: $rsp 48 +
STACK CFI 2ff3f .cfa: $rsp 40 +
STACK CFI 2ff41 .cfa: $rsp 32 +
STACK CFI 2ff43 .cfa: $rsp 24 +
STACK CFI 2ff45 .cfa: $rsp 16 +
STACK CFI 2ff47 .cfa: $rsp 8 +
STACK CFI 2ff50 .cfa: $rsp 112 +
STACK CFI INIT 2ffb0 86 .cfa: $rsp 8 + .ra: .cfa -8 + ^
STACK CFI 2ffb1 $rbp: .cfa -16 + ^ .cfa: $rsp 16 +
STACK CFI 2ffb2 $rbx: .cfa -24 + ^ .cfa: $rsp 24 +
STACK CFI 2ffbc .cfa: $rsp 64 +
STACK CFI 2ffee .cfa: $rsp 24 +
STACK CFI 2ffef .cfa: $rsp 16 +
STACK CFI 2fff0 .cfa: $rsp 8 +
STACK CFI 2fff8 .cfa: $rsp 64 +
STACK CFI INIT 30890 1c .cfa: $rsp 8 + .ra: .cfa -8 + ^
STACK CFI INIT 308b0 6af .cfa: $rsp 8 + .ra: .cfa -8 + ^
STACK CFI 308b2 $r15: .cfa -16 + ^ .cfa: $rsp 16 +
STACK CFI 308b4 $r14: .cfa -24 + ^ .cfa: $rsp 24 +
STACK CFI 308b9 $r13: .cfa -32 + ^ .cfa: $rsp 32 +
STACK CFI 308bb $r12: .cfa -40 + ^ .cfa: $rsp 40 +
STACK CFI 308bf $rbp: .cfa -48 + ^ .cfa: $rsp 48 +
STACK CFI 308c0 $rbx: .cfa -56 + ^ .cfa: $rsp 56 +
STACK CFI 308d1 .cfa: $rsp 144 +
STACK CFI 30b0d .cfa: $rsp 56 +
STACK CFI 30b0e .cfa: $rsp 48 +
STACK CFI 30b0f .cfa: $rsp 40 +
STACK CFI 30b11 .cfa: $rsp 32 +
STACK CFI 30b13 .cfa: $rsp 24 +
STACK CFI 30b15 .cfa: $rsp 16 +
STACK CFI 30b17 .cfa: $rsp 8 +
STACK CFI 30b20 .cfa: $rsp 144 +
STACK CFI INIT 85c0 2e .cfa: $rsp 8 + .ra: .cfa -8 + ^
STACK CFI 85cb .cfa: $rsp 16 +
STACK CFI 85e9 .cfa: $rsp 8 +
STACK CFI INIT 30f60 1f .cfa: $rsp 8 + .ra: .cfa -8 + ^
STACK CFI 30f6b .cfa: $rsp 16 +
STACK CFI 30f7e .cfa: $rsp 8 +
STACK CFI INIT 30f80 5 .cfa: $rsp 8 + .ra: .cfa -8 + ^
STACK CFI INIT 30f90 20b .cfa: $rsp 8 + .ra: .cfa -8 + ^
STACK CFI 30f92 $r15: .cfa -16 + ^ .cfa: $rsp 16 +
STACK CFI 30f94 $r14: .cfa -24 + ^ .cfa: $rsp 24 +
STACK CFI 30f99 $r13: .cfa -32 + ^ .cfa: $rsp 32 +
STACK CFI 30f9b $r12: .cfa -40 + ^ .cfa: $rsp 40 +
STACK CFI 30f9f $rbp: .cfa -48 + ^ .cfa: $rsp 48 +
STACK CFI 30fa0 $rbx: .cfa -56 + ^ .cfa: $rsp 56 +
STACK CFI 30fac .cfa: $rsp 96 +
STACK CFI 30fc7 .cfa: $rsp 56 +
STACK CFI 30fca .cfa: $rsp 48 +
STACK CFI 30fcb .cfa: $rsp 40 +
STACK CFI 30fcd .cfa: $rsp 32 +
STACK CFI 30fcf .cfa: $rsp 24 +
STACK CFI 30fd1 .cfa: $rsp 16 +
STACK CFI 30fd3 .cfa: $rsp 8 +
STACK CFI 30fd8 .cfa: $rsp 96 +
STACK CFI 310be .cfa: $rsp 56 +
STACK CFI 310bf .cfa: $rsp 48 +
STACK CFI 310c0 .cfa: $rsp 40 +
STACK CFI 310c2 .cfa: $rsp 32 +
STACK CFI 310c4 .cfa: $rsp 24 +
STACK CFI 310c6 .cfa: $rsp 16 +
STACK CFI 310c8 .cfa: $rsp 8 +
STACK CFI 310d0 .cfa: $rsp 96 +
STACK CFI INIT 31340 290 .cfa: $rsp 8 + .ra: .cfa -8 + ^
STACK CFI 31342 $r15: .cfa -16 + ^ .cfa: $rsp 16 +
STACK CFI 31344 $r14: .cfa -24 + ^ .cfa: $rsp 24 +
STACK CFI 31349 $r13: .cfa -32 + ^ .cfa: $rsp 32 +
STACK CFI 3134b $r12: .cfa -40 + ^ .cfa: $rsp 40 +
STACK CFI 3134c $rbp: .cfa -48 + ^ .cfa: $rsp 48 +
STACK CFI 3134d $rbx: .cfa -56 + ^ .cfa: $rsp 56 +
STACK CFI 31357 .cfa: $rsp 96 +
STACK CFI 31439 .cfa: $rsp 56 +
STACK CFI 3143a .cfa: $rsp 48 +
STACK CFI 3143b .cfa: $rsp 40 +
STACK CFI 3143d .cfa: $rsp 32 +
STACK CFI 3143f .cfa: $rsp 24 +
STACK CFI 31441 .cfa: $rsp 16 +
STACK CFI 31443 .cfa: $rsp 8 +
STACK CFI 31448 .cfa: $rsp 96 +
STACK CFI INIT 311a0 19f .cfa: $rsp 8 + .ra: .cfa -8 + ^
STACK CFI 311a2 $r15: .cfa -16 + ^ .cfa: $rsp 16 +
STACK CFI 311a4 $r14: .cfa -24 + ^ .cfa: $rsp 24 +
STACK CFI 311a6 $r13: .cfa -32 + ^ .cfa: $rsp 32 +
STACK CFI 311a8 $r12: .cfa -40 + ^ .cfa: $rsp 40 +
STACK CFI 311ac $rbp: .cfa -48 + ^ .cfa: $rsp 48 +
STACK CFI 311ad $rbx: .cfa -56 + ^ .cfa: $rsp 56 +
STACK CFI 311b7 .cfa: $rsp 112 +
STACK CFI 311ec .cfa: $rsp 56 +
STACK CFI 311ed .cfa: $rsp 48 +
STACK CFI 311ee .cfa: $rsp 40 +
STACK CFI 311f0 .cfa: $rsp 32 +
STACK CFI 311f2 .cfa: $rsp 24 +
STACK CFI 311f4 .cfa: $rsp 16 +
STACK CFI 311f6 .cfa: $rsp 8 +
STACK CFI 31200 .cfa: $rsp 112 +
STACK CFI INIT 315d0 101 .cfa: $rsp 8 + .ra: .cfa -8 + ^
STACK CFI 315d2 $r15: .cfa -16 + ^ .cfa: $rsp 16 +
STACK CFI 315d4 $r14: .cfa -24 + ^ .cfa: $rsp 24 +
STACK CFI 315d6 $r13: .cfa -32 + ^ .cfa: $rsp 32 +
STACK CFI 315d8 $r12: .cfa -40 + ^ .cfa: $rsp 40 +
STACK CFI 315dc $rbp: .cfa -48 + ^ .cfa: $rsp 48 +
STACK CFI 315dd $rbx: .cfa -56 + ^ .cfa: $rsp 56 +
STACK CFI 315e1 .cfa: $rsp 96 +
STACK CFI 3169a .cfa: $rsp 56 +
STACK CFI 3169b .cfa: $rsp 48 +
STACK CFI 3169c .cfa: $rsp 40 +
STACK CFI 3169e .cfa: $rsp 32 +
STACK CFI 316a0 .cfa: $rsp 24 +
STACK CFI 316a2 .cfa: $rsp 16 +
STACK CFI 316a4 .cfa: $rsp 8 +
STACK CFI 316a5 .cfa: $rsp 96 +
STACK CFI INIT 316e0 d0 .cfa: $rsp 8 + .ra: .cfa -8 + ^
STACK CFI 316e2 $r13: .cfa -16 + ^ .cfa: $rsp 16 +
STACK CFI 316e4 $r12: .cfa -24 + ^ .cfa: $rsp 24 +
STACK CFI 316e5 $rbp: .cfa -32 + ^ .cfa: $rsp 32 +
STACK CFI 316e6 $rbx: .cfa -40 + ^ .cfa: $rsp 40 +
STACK CFI 316ee .cfa: $rsp 64 +
STACK CFI 31750 .cfa: $rsp 40 +
STACK CFI 31751 .cfa: $rsp 32 +
STACK CFI 31752 .cfa: $rsp 24 +
STACK CFI 31754 .cfa: $rsp 16 +
STACK CFI 31756 .cfa: $rsp 8 +
STACK CFI 31760 .cfa: $rsp 64 +
STACK CFI INIT 317b0 9b .cfa: $rsp 8 + .ra: .cfa -8 + ^
STACK CFI 317b1 $rbx: .cfa -16 + ^ .cfa: $rsp 16 +
STACK CFI 317c1 .cfa: $rsp 48 +
STACK CFI 31841 .cfa: $rsp 16 +
STACK CFI 31845 .cfa: $rsp 8 +
STACK CFI 31846 .cfa: $rsp 48 +
STACK CFI INIT 31850 49 .cfa: $rsp 8 + .ra: .cfa -8 + ^
STACK CFI 31851 $rbx: .cfa -16 + ^ .cfa: $rsp 16 +
STACK CFI 31858 .cfa: $rsp 32 +
STACK CFI 3188f .cfa: $rsp 16 +
STACK CFI 31893 .cfa: $rsp 8 +
STACK CFI 31894 .cfa: $rsp 32 +
STACK CFI INIT 31c90 257 .cfa: $rsp 8 + .ra: .cfa -8 + ^
STACK CFI 31c97 $r15: .cfa -16 + ^ .cfa: $rsp 16 +
STACK CFI 31c99 $r14: .cfa -24 + ^ .cfa: $rsp 24 +
STACK CFI 31c9b $r13: .cfa -32 + ^ .cfa: $rsp 32 +
STACK CFI 31c9d $r12: .cfa -40 + ^ .cfa: $rsp 40 +
STACK CFI 31c9e $rbp: .cfa -48 + ^ .cfa: $rsp 48 +
STACK CFI 31c9f $rbx: .cfa -56 + ^ .cfa: $rsp 56 +
STACK CFI 31ca3 .cfa: $rsp 80 +
STACK CFI 31cd9 .cfa: $rsp 56 +
STACK CFI 31cda .cfa: $rsp 48 +
STACK CFI 31cdb .cfa: $rsp 40 +
STACK CFI 31cdd .cfa: $rsp 32 +
STACK CFI 31cdf .cfa: $rsp 24 +
STACK CFI 31ce1 .cfa: $rsp 16 +
STACK CFI 31ce3 .cfa: $rsp 8 +
STACK CFI 31ce8 $r12: $r12 $r13: $r13 $r14: $r14 $r15: $r15 $rbp: $rbp $rbx: $rbx
STACK CFI 31cf0 $r12: .cfa -40 + ^ $r13: .cfa -32 + ^ $r14: .cfa -24 + ^ $r15: .cfa -16 + ^ $rbp: .cfa -48 + ^ $rbx: .cfa -56 + ^ .cfa: $rsp 80 +
STACK CFI 31d98 .cfa: $rsp 56 +
STACK CFI 31d99 .cfa: $rsp 48 +
STACK CFI 31d9a .cfa: $rsp 40 +
STACK CFI 31d9c .cfa: $rsp 32 +
STACK CFI 31d9e .cfa: $rsp 24 +
STACK CFI 31da0 .cfa: $rsp 16 +
STACK CFI 31da2 .cfa: $rsp 8 +
STACK CFI 31da8 .cfa: $rsp 80 +
STACK CFI INIT 31ef0 408 .cfa: $rsp 8 + .ra: .cfa -8 + ^
STACK CFI 31efb $r15: .cfa -16 + ^ .cfa: $rsp 16 +
STACK CFI 31efd $r14: .cfa -24 + ^ .cfa: $rsp 24 +
STACK CFI 31f02 $r13: .cfa -32 + ^ .cfa: $rsp 32 +
STACK CFI 31f04 $r12: .cfa -40 + ^ .cfa: $rsp 40 +
STACK CFI 31f08 $rbp: .cfa -48 + ^ .cfa: $rsp 48 +
STACK CFI 31f09 $rbx: .cfa -56 + ^ .cfa: $rsp 56 +
STACK CFI 31f19 .cfa: $rsp 96 +
STACK CFI 31f94 .cfa: $rsp 56 +
STACK CFI 31f95 .cfa: $rsp 48 +
STACK CFI 31f96 .cfa: $rsp 40 +
STACK CFI 31f98 .cfa: $rsp 32 +
STACK CFI 31f9a .cfa: $rsp 24 +
STACK CFI 31f9c .cfa: $rsp 16 +
STACK CFI 31f9e .cfa: $rsp 8 +
STACK CFI 31fa0 .cfa: $rsp 96 +
STACK CFI 3208e .cfa: $rsp 56 +
STACK CFI 3208f .cfa: $rsp 48 +
STACK CFI 32090 .cfa: $rsp 40 +
STACK CFI 32092 .cfa: $rsp 32 +
STACK CFI 32094 .cfa: $rsp 24 +
STACK CFI 32096 .cfa: $rsp 16 +
STACK CFI 32098 .cfa: $rsp 8 +
STACK CFI 320a0 .cfa: $rsp 96 +
STACK CFI 32120 .cfa: $rsp 56 +
STACK CFI 32127 $rbx: $rbx .cfa: $rsp 48 +
STACK CFI 32128 $rbp: $rbp .cfa: $rsp 40 +
STACK CFI 3212a $r12: $r12 .cfa: $rsp 32 +
STACK CFI 3212c $r13: $r13 .cfa: $rsp 24 +
STACK CFI 3212e $r14: $r14 .cfa: $rsp 16 +
STACK CFI 32130 $r15: $r15 .cfa: $rsp 8 +
STACK CFI 32140 $r12: .cfa -40 + ^ $r13: .cfa -32 + ^ $r14: .cfa -24 + ^ $r15: .cfa -16 + ^ $rbp: .cfa -48 + ^ $rbx: .cfa -56 + ^ .cfa: $rsp 96 +
STACK CFI INIT 318a0 7c .cfa: $rsp 8 + .ra: .cfa -8 + ^
STACK CFI 318f4 .cfa: $rsp 24 +
STACK CFI 318fc .cfa: $rsp 32 +
STACK CFI 3191b .cfa: $rsp 8 +
STACK CFI INIT 31920 2e8 .cfa: $rsp 8 + .ra: .cfa -8 + ^
STACK CFI 31922 $r15: .cfa -16 + ^ .cfa: $rsp 16 +
STACK CFI 31924 $r14: .cfa -24 + ^ .cfa: $rsp 24 +
STACK CFI 31926 $r13: .cfa -32 + ^ .cfa: $rsp 32 +
STACK CFI 31928 $r12: .cfa -40 + ^ .cfa: $rsp 40 +
STACK CFI 3192c $rbp: .cfa -48 + ^ .cfa: $rsp 48 +
STACK CFI 3192d $rbx: .cfa -56 + ^ .cfa: $rsp 56 +
STACK CFI 31937 .cfa: $rsp 240 +
STACK CFI 31aaa .cfa: $rsp 56 +
STACK CFI 31aab .cfa: $rsp 48 +
STACK CFI 31aac .cfa: $rsp 40 +
STACK CFI 31aae .cfa: $rsp 32 +
STACK CFI 31ab0 .cfa: $rsp 24 +
STACK CFI 31ab2 .cfa: $rsp 16 +
STACK CFI 31ab4 .cfa: $rsp 8 +
STACK CFI 31ab8 .cfa: $rsp 240 +
STACK CFI INIT 31c10 7c .cfa: $rsp 8 + .ra: .cfa -8 + ^
STACK CFI 31c11 $rbp: .cfa -16 + ^ .cfa: $rsp 16 +
STACK CFI 31c12 $rbx: .cfa -24 + ^ .cfa: $rsp 24 +
STACK CFI 31c1b .cfa: $rsp 64 +
STACK CFI 31c6a .cfa: $rsp 24 +
STACK CFI 31c6b .cfa: $rsp 16 +
STACK CFI 31c6c .cfa: $rsp 8 +
STACK CFI 31c70 .cfa: $rsp 64 +
STACK CFI INIT 32300 22 .cfa: $rsp 8 + .ra: .cfa -8 + ^
STACK CFI INIT 32330 46 .cfa: $rsp 8 + .ra: .cfa -8 + ^
STACK CFI INIT 32380 56 .cfa: $rsp 8 + .ra: .cfa -8 + ^
STACK CFI INIT 323e0 4c .cfa: $rsp 8 + .ra: .cfa -8 + ^
STACK CFI INIT 32430 36 .cfa: $rsp 8 + .ra: .cfa -8 + ^
STACK CFI INIT 32470 49 .cfa: $rsp 8 + .ra: .cfa -8 + ^
STACK CFI INIT 324c0 34 .cfa: $rsp 8 + .ra: .cfa -8 + ^
STACK CFI INIT 32500 2a .cfa: $rsp 8 + .ra: .cfa -8 + ^
STACK CFI INIT 32530 34 .cfa: $rsp 8 + .ra: .cfa -8 + ^
STACK CFI INIT 32570 7c .cfa: $rsp 8 + .ra: .cfa -8 + ^
STACK CFI INIT 325f0 3a .cfa: $rsp 8 + .ra: .cfa -8 + ^
STACK CFI INIT 32630 1f .cfa: $rsp 8 + .ra: .cfa -8 + ^
STACK CFI INIT 32650 38 .cfa: $rsp 8 + .ra: .cfa -8 + ^
STACK CFI INIT 32690 5c .cfa: $rsp 8 + .ra: .cfa -8 + ^
STACK CFI 32694 $rbx: .cfa -16 + ^ .cfa: $rsp 16 +
STACK CFI 326c2 .cfa: $rsp 8 +
STACK CFI 326c8 .cfa: $rsp 16 +
STACK CFI 326d7 .cfa: $rsp 8 +
STACK CFI 326e0 .cfa: $rsp 16 +
STACK CFI INIT 326f0 6c .cfa: $rsp 8 + .ra: .cfa -8 + ^
STACK CFI 326f4 .cfa: $rsp 32 +
STACK CFI 32756 .cfa: $rsp 8 +
STACK CFI 32757 .cfa: $rsp 32 +
STACK CFI INIT 32760 10 .cfa: $rsp 8 + .ra: .cfa -8 + ^
STACK CFI INIT 32770 4b .cfa: $rsp 8 + .ra: .cfa -8 + ^
STACK CFI 32771 $rbp: .cfa -16 + ^ .cfa: $rsp 16 +
STACK CFI 32772 $rbx: .cfa -24 + ^ .cfa: $rsp 24 +
STACK CFI 32779 .cfa: $rsp 32 +
STACK CFI 327ac .cfa: $rsp 24 +
STACK CFI 327ad .cfa: $rsp 16 +
STACK CFI 327ae .cfa: $rsp 8 +
STACK CFI 327b0 .cfa: $rsp 32 +
STACK CFI INIT 327c0 5 .cfa: $rsp 8 + .ra: .cfa -8 + ^
STACK CFI INIT 327d0 1b1 .cfa: $rsp 8 + .ra: .cfa -8 + ^
STACK CFI 327d2 $r15: .cfa -16 + ^ .cfa: $rsp 16 +
STACK CFI 327d4 $r14: .cfa -24 + ^ .cfa: $rsp 24 +
STACK CFI 327d6 $r13: .cfa -32 + ^ .cfa: $rsp 32 +
STACK CFI 327d8 $r12: .cfa -40 + ^ .cfa: $rsp 40 +
STACK CFI 327dc $rbp: .cfa -48 + ^ .cfa: $rsp 48 +
STACK CFI 327dd $rbx: .cfa -56 + ^ .cfa: $rsp 56 +
STACK CFI 327ec .cfa: $rsp 224 +
STACK CFI 32949 .cfa: $rsp 56 +
STACK CFI 3294a .cfa: $rsp 48 +
STACK CFI 3294b .cfa: $rsp 40 +
STACK CFI 3294d .cfa: $rsp 32 +
STACK CFI 3294f .cfa: $rsp 24 +
STACK CFI 32951 .cfa: $rsp 16 +
STACK CFI 32953 .cfa: $rsp 8 +
STACK CFI 32958 .cfa: $rsp 224 +
STACK CFI INIT 32990 14 .cfa: $rsp 8 + .ra: .cfa -8 + ^
STACK CFI INIT 329b0 40 .cfa: $rsp 8 + .ra: .cfa -8 + ^
STACK CFI 329b6 $rbx: .cfa -16 + ^ .cfa: $rsp 16 +
STACK CFI 329d1 .cfa: $rsp 8 +
STACK CFI 329d8 .cfa: $rsp 16 +
STACK CFI 329ef .cfa: $rsp 8 +
STACK CFI INIT 329f0 d0 .cfa: $rsp 8 + .ra: .cfa -8 + ^
STACK CFI 329f2 $r13: .cfa -16 + ^ .cfa: $rsp 16 +
STACK CFI 329f4 $r12: .cfa -24 + ^ .cfa: $rsp 24 +
STACK CFI 329f5 $rbp: .cfa -32 + ^ .cfa: $rsp 32 +
STACK CFI 329f6 $rbx: .cfa -40 + ^ .cfa: $rsp 40 +
STACK CFI 329fe .cfa: $rsp 64 +
STACK CFI 32a60 .cfa: $rsp 40 +
STACK CFI 32a61 .cfa: $rsp 32 +
STACK CFI 32a62 .cfa: $rsp 24 +
STACK CFI 32a64 .cfa: $rsp 16 +
STACK CFI 32a66 .cfa: $rsp 8 +
STACK CFI 32a70 .cfa: $rsp 64 +
STACK CFI INIT 32ac0 a5 .cfa: $rsp 8 + .ra: .cfa -8 + ^
STACK CFI 32ac1 $rbx: .cfa -16 + ^ .cfa: $rsp 16 +
STACK CFI 32b64 .cfa: $rsp 8 +
STACK CFI INIT 32b70 277 .cfa: $rsp 8 + .ra: .cfa -8 + ^
STACK CFI 32b72 $r15: .cfa -16 + ^ .cfa: $rsp 16 +
STACK CFI 32b74 $r14: .cfa -24 + ^ .cfa: $rsp 24 +
STACK CFI 32b79 $r13: .cfa -32 + ^ .cfa: $rsp 32 +
STACK CFI 32b7b $r12: .cfa -40 + ^ .cfa: $rsp 40 +
STACK CFI 32b7f $rbp: .cfa -48 + ^ .cfa: $rsp 48 +
STACK CFI 32b80 $rbx: .cfa -56 + ^ .cfa: $rsp 56 +
STACK CFI 32b87 .cfa: $rsp 80 +
STACK CFI 32d7b .cfa: $rsp 56 +
STACK CFI 32d7c .cfa: $rsp 48 +
STACK CFI 32d7d .cfa: $rsp 40 +
STACK CFI 32d7f .cfa: $rsp 32 +
STACK CFI 32d81 .cfa: $rsp 24 +
STACK CFI 32d83 .cfa: $rsp 16 +
STACK CFI 32d85 .cfa: $rsp 8 +
STACK CFI 32d90 .cfa: $rsp 80 +
STACK CFI INIT 85f0 4e7 .cfa: $rsp 8 + .ra: .cfa -8 + ^
STACK CFI 85f2 $r15: .cfa -16 + ^ .cfa: $rsp 16 +
STACK CFI 85f4 $r14: .cfa -24 + ^ .cfa: $rsp 24 +
STACK CFI 85f6 $r13: .cfa -32 + ^ .cfa: $rsp 32 +
STACK CFI 85f8 $r12: .cfa -40 + ^ .cfa: $rsp 40 +
STACK CFI 85fc $rbp: .cfa -48 + ^ .cfa: $rsp 48 +
STACK CFI 85fd $rbx: .cfa -56 + ^ .cfa: $rsp 56 +
STACK CFI 8604 .cfa: $rsp 208 +
STACK CFI 89be .cfa: $rsp 56 +
STACK CFI 89bf .cfa: $rsp 48 +
STACK CFI 89c0 .cfa: $rsp 40 +
STACK CFI 89c2 .cfa: $rsp 32 +
STACK CFI 89c4 .cfa: $rsp 24 +
STACK CFI 89c6 .cfa: $rsp 16 +
STACK CFI 89c8 .cfa: $rsp 8 +
STACK CFI 89c9 .cfa: $rsp 208 +
STACK CFI INIT 8ae0 2e .cfa: $rsp 8 + .ra: .cfa -8 + ^
STACK CFI 8aeb .cfa: $rsp 16 +
STACK CFI 8b09 .cfa: $rsp 8 +
STACK CFI INIT 32df0 65 .cfa: $rsp 8 + .ra: .cfa -8 + ^
STACK CFI 32df2 $r15: .cfa -16 + ^ .cfa: $rsp 16 +
STACK CFI 32df4 $r14: .cfa -24 + ^ .cfa: $rsp 24 +
STACK CFI 32df9 $r13: .cfa -32 + ^ .cfa: $rsp 32 +
STACK CFI 32dfb $r12: .cfa -40 + ^ .cfa: $rsp 40 +
STACK CFI 32e03 $rbp: .cfa -48 + ^ .cfa: $rsp 48 +
STACK CFI 32e0b $rbx: .cfa -56 + ^ .cfa: $rsp 56 +
STACK CFI 32e18 .cfa: $rsp 64 +
STACK CFI 32e4a .cfa: $rsp 56 +
STACK CFI 32e4b .cfa: $rsp 48 +
STACK CFI 32e4c .cfa: $rsp 40 +
STACK CFI 32e4e .cfa: $rsp 32 +
STACK CFI 32e50 .cfa: $rsp 24 +
STACK CFI 32e52 .cfa: $rsp 16 +
STACK CFI 32e54 .cfa: $rsp 8 +
STACK CFI INIT 32e60 2 .cfa: $rsp 8 + .ra: .cfa -8 + ^
