MODULE Linux x86_64 78C9845D47EC5018012BE74BCE82084A0 libbreakpad.so
INFO CODE_ID 5D84C978EC471850012BE74BCE82084A4F068492
PUBLIC 27d78 0 _init
PUBLIC 29db0 0 google_breakpad::linked_ptr<google_breakpad::CodeModule const>::depart() [clone .part.12]
PUBLIC 29dc0 0 google_breakpad::linked_ptr<google_breakpad::WindowsFrameInfo>::depart() [clone .part.106]
PUBLIC 29dec 0 google_breakpad::linked_ptr<google_breakpad::SourceLineResolverBase::PublicSymbol>::depart() [clone .part.107]
PUBLIC 29e16 0 google_breakpad::linked_ptr<google_breakpad::BasicSourceLineResolver::Function>::depart() [clone .part.197]
PUBLIC 29e4e 0 google_breakpad::linked_ptr<google_breakpad::CodeModule const>::depart() [clone .part.17]
PUBLIC 29e5e 0 std::__cxx11::basic_string<char, std::char_traits<char>, std::allocator<char> >::basic_string(char const*, std::allocator<char> const&) [clone .isra.81]
PUBLIC 29e90 0 _GLOBAL__sub_I_basic_code_modules.cc
PUBLIC 29ec0 0 _GLOBAL__sub_I_basic_source_line_resolver.cc
PUBLIC 29ef0 0 _GLOBAL__sub_I_cfi_frame_info.cc
PUBLIC 29f20 0 _GLOBAL__sub_I_dump_context.cc
PUBLIC 29f50 0 _GLOBAL__sub_I_exploitability.cc
PUBLIC 29f80 0 _GLOBAL__sub_I_exploitability_linux.cc
PUBLIC 29fb0 0 _GLOBAL__sub_I_exploitability_win.cc
PUBLIC 29fe0 0 _GLOBAL__sub_I_fast_source_line_resolver.cc
PUBLIC 2a010 0 _GLOBAL__sub_I_logging.cc
PUBLIC 2a040 0 _GLOBAL__sub_I_microdump.cc
PUBLIC 2a070 0 _GLOBAL__sub_I_microdump_processor.cc
PUBLIC 2a0a0 0 _GLOBAL__sub_I_minidump.cc
PUBLIC 2a0d0 0 _GLOBAL__sub_I_minidump_processor.cc
PUBLIC 2a100 0 _GLOBAL__sub_I_module_comparer.cc
PUBLIC 2a130 0 _GLOBAL__sub_I_module_serializer.cc
PUBLIC 2a160 0 _GLOBAL__sub_I_process_state.cc
PUBLIC 2a190 0 _GLOBAL__sub_I_proc_maps_linux.cc
PUBLIC 2a1c0 0 _GLOBAL__sub_I_simple_symbol_supplier.cc
PUBLIC 2a1f0 0 _GLOBAL__sub_I_source_line_resolver_base.cc
PUBLIC 2a220 0 _GLOBAL__sub_I_stack_frame_symbolizer.cc
PUBLIC 2a250 0 _GLOBAL__sub_I_stackwalker.cc
PUBLIC 2a280 0 _GLOBAL__sub_I_stackwalker_amd64.cc
PUBLIC 2a2b0 0 _GLOBAL__sub_I_stackwalker_arm.cc
PUBLIC 2a2e0 0 _GLOBAL__sub_I_stackwalker_arm64.cc
PUBLIC 2a310 0 _GLOBAL__sub_I_stackwalker_address_list.cc
PUBLIC 2a340 0 _GLOBAL__sub_I_stackwalker_mips.cc
PUBLIC 2a370 0 _GLOBAL__sub_I_stackwalker_ppc.cc
PUBLIC 2a3a0 0 _GLOBAL__sub_I_stackwalker_ppc64.cc
PUBLIC 2a3d0 0 _GLOBAL__sub_I_stackwalker_sparc.cc
PUBLIC 2a400 0 _GLOBAL__sub_I_stackwalker_x86.cc
PUBLIC 2a430 0 deregister_tm_clones
PUBLIC 2a470 0 register_tm_clones
PUBLIC 2a4c0 0 __do_global_dtors_aux
PUBLIC 2a500 0 frame_dummy
PUBLIC 2a510 0 google_breakpad::BasicCodeModules::module_count() const [clone .localalias.75]
PUBLIC 2a520 0 google_breakpad::BasicCodeModules::GetMainModule() const
PUBLIC 2a530 0 google_breakpad::BasicCodeModules::GetModuleAtIndex(unsigned int) const
PUBLIC 2a540 0 google_breakpad::BasicCodeModules::IsModuleShrinkEnabled() const [clone .localalias.77]
PUBLIC 2a550 0 google_breakpad::BasicCodeModules::GetShrunkRangeModules() const
PUBLIC 2a650 0 google_breakpad::BasicCodeModules::GetModuleAtSequence(unsigned int) const
PUBLIC 2a940 0 google_breakpad::BasicCodeModules::BasicCodeModules()
PUBLIC 2a9a0 0 google_breakpad::BasicCodeModules::GetModuleForAddress(unsigned long) const
PUBLIC 2ab40 0 google_breakpad::BasicCodeModules::~BasicCodeModules()
PUBLIC 2abd0 0 google_breakpad::BasicCodeModules::~BasicCodeModules()
PUBLIC 2abf0 0 google_breakpad::BasicCodeModules::BasicCodeModules(google_breakpad::CodeModules const*)
PUBLIC 2b4d0 0 google_breakpad::BasicCodeModules::Copy() const
PUBLIC 2b520 0 google_breakpad::RangeMap<unsigned long, google_breakpad::linked_ptr<google_breakpad::CodeModule const> >::RetrieveRange(unsigned long const&, google_breakpad::linked_ptr<google_breakpad::CodeModule const>*, unsigned long*, unsigned long*, unsigned long*) const
PUBLIC 2b7d0 0 std::_Rb_tree<unsigned long, std::pair<unsigned long const, google_breakpad::RangeMap<unsigned long, google_breakpad::linked_ptr<google_breakpad::CodeModule const> >::Range>, std::_Select1st<std::pair<unsigned long const, google_breakpad::RangeMap<unsigned long, google_breakpad::linked_ptr<google_breakpad::CodeModule const> >::Range> >, std::less<unsigned long>, std::allocator<std::pair<unsigned long const, google_breakpad::RangeMap<unsigned long, google_breakpad::linked_ptr<google_breakpad::CodeModule const> >::Range> > >::_M_erase(std::_Rb_tree_node<std::pair<unsigned long const, google_breakpad::RangeMap<unsigned long, google_breakpad::linked_ptr<google_breakpad::CodeModule const> >::Range> >*)
PUBLIC 2b850 0 void std::vector<google_breakpad::linked_ptr<google_breakpad::CodeModule const>, std::allocator<google_breakpad::linked_ptr<google_breakpad::CodeModule const> > >::_M_realloc_insert<google_breakpad::linked_ptr<google_breakpad::CodeModule const> >(__gnu_cxx::__normal_iterator<google_breakpad::linked_ptr<google_breakpad::CodeModule const>*, std::vector<google_breakpad::linked_ptr<google_breakpad::CodeModule const>, std::allocator<google_breakpad::linked_ptr<google_breakpad::CodeModule const> > > >, google_breakpad::linked_ptr<google_breakpad::CodeModule const>&&)
PUBLIC 2bb00 0 std::pair<std::_Rb_tree_iterator<std::pair<unsigned long const, google_breakpad::RangeMap<unsigned long, google_breakpad::linked_ptr<google_breakpad::CodeModule const> >::Range> >, bool> std::_Rb_tree<unsigned long, std::pair<unsigned long const, google_breakpad::RangeMap<unsigned long, google_breakpad::linked_ptr<google_breakpad::CodeModule const> >::Range>, std::_Select1st<std::pair<unsigned long const, google_breakpad::RangeMap<unsigned long, google_breakpad::linked_ptr<google_breakpad::CodeModule const> >::Range> >, std::less<unsigned long>, std::allocator<std::pair<unsigned long const, google_breakpad::RangeMap<unsigned long, google_breakpad::linked_ptr<google_breakpad::CodeModule const> >::Range> > >::_M_insert_unique<std::pair<unsigned long const, google_breakpad::RangeMap<unsigned long, google_breakpad::linked_ptr<google_breakpad::CodeModule const> >::Range> >(std::pair<unsigned long const, google_breakpad::RangeMap<unsigned long, google_breakpad::linked_ptr<google_breakpad::CodeModule const> >::Range>&&)
PUBLIC 2bc80 0 google_breakpad::RangeMap<unsigned long, google_breakpad::linked_ptr<google_breakpad::CodeModule const> >::StoreRangeInternal(unsigned long const&, unsigned long const&, unsigned long const&, google_breakpad::linked_ptr<google_breakpad::CodeModule const> const&)
PUBLIC 2c600 0 void std::__cxx11::basic_string<char, std::char_traits<char>, std::allocator<char> >::_M_construct<char const*>(char const*, char const*, std::forward_iterator_tag) [clone .isra.110]
PUBLIC 2c6d0 0 google_breakpad::BasicSourceLineResolver::BasicSourceLineResolver()
PUBLIC 2c710 0 google_breakpad::BasicSourceLineResolver::Module::LogParseError(std::__cxx11::basic_string<char, std::char_traits<char>, std::allocator<char> > const&, int, int*)
PUBLIC 2c830 0 google_breakpad::SymbolParseHelper::IsValidAfterNumber(char*)
PUBLIC 2c860 0 google_breakpad::SymbolParseHelper::ParseFile(char*, long*, char**)
PUBLIC 2c950 0 google_breakpad::SymbolParseHelper::ParseLine(char*, unsigned long*, unsigned long*, long*, long*)
PUBLIC 2cb20 0 google_breakpad::BasicSourceLineResolver::Module::ParseLine(char*)
PUBLIC 2cbb0 0 google_breakpad::(anonymous namespace)::TokenizeWithOptionalField(char*, char const*, char const*, int, std::vector<char*, std::allocator<char*> >*) [clone .constprop.292]
PUBLIC 2cd10 0 google_breakpad::SymbolParseHelper::ParsePublicSymbol(char*, bool*, unsigned long*, long*, char**)
PUBLIC 2cea0 0 google_breakpad::SymbolParseHelper::ParseFunction(char*, bool*, unsigned long*, unsigned long*, long*, char**)
PUBLIC 2d060 0 google_breakpad::BasicSourceLineResolver::Module::ParseFunction(char*)
PUBLIC 2d1d0 0 google_breakpad::BasicSourceLineResolver::Module::LookupAddress(google_breakpad::StackFrame*) const
PUBLIC 2d5e0 0 google_breakpad::BasicSourceLineResolver::Module::FindWindowsFrameInfo(google_breakpad::StackFrame const*) const
PUBLIC 2da10 0 google_breakpad::BasicSourceLineResolver::Module::FindCFIFrameInfo(google_breakpad::StackFrame const*) const
PUBLIC 2dc30 0 google_breakpad::BasicSourceLineResolver::Module::ParseFile(char*)
PUBLIC 2dda0 0 google_breakpad::BasicSourceLineResolver::Module::ParsePublicSymbol(char*)
PUBLIC 2dfc0 0 google_breakpad::BasicSourceLineResolver::Module::ParseCFIFrameInfo(char*)
PUBLIC 2e2a0 0 google_breakpad::BasicSourceLineResolver::Module::ParseStackInfo(char*)
PUBLIC 2e830 0 google_breakpad::BasicSourceLineResolver::Module::LoadMapFromMemory(char*, unsigned long)
PUBLIC 2ef40 0 google_breakpad::BasicSourceLineResolver::Module::IsCorrupt() const
PUBLIC 2ef50 0 google_breakpad::BasicModuleFactory::~BasicModuleFactory()
PUBLIC 2ef60 0 google_breakpad::BasicModuleFactory::~BasicModuleFactory()
PUBLIC 2ef70 0 google_breakpad::BasicSourceLineResolver::~BasicSourceLineResolver()
PUBLIC 2ef90 0 google_breakpad::BasicSourceLineResolver::~BasicSourceLineResolver()
PUBLIC 2efc0 0 std::_Rb_tree_iterator<std::pair<unsigned long const, google_breakpad::ContainedRangeMap<unsigned long, google_breakpad::linked_ptr<google_breakpad::WindowsFrameInfo> >*> > std::_Rb_tree<unsigned long, std::pair<unsigned long const, google_breakpad::ContainedRangeMap<unsigned long, google_breakpad::linked_ptr<google_breakpad::WindowsFrameInfo> >*>, std::_Select1st<std::pair<unsigned long const, google_breakpad::ContainedRangeMap<unsigned long, google_breakpad::linked_ptr<google_breakpad::WindowsFrameInfo> >*> >, std::less<unsigned long>, std::allocator<std::pair<unsigned long const, google_breakpad::ContainedRangeMap<unsigned long, google_breakpad::linked_ptr<google_breakpad::WindowsFrameInfo> >*> > >::_M_insert_<std::pair<unsigned long const, google_breakpad::ContainedRangeMap<unsigned long, google_breakpad::linked_ptr<google_breakpad::WindowsFrameInfo> >*>&, std::_Rb_tree<unsigned long, std::pair<unsigned long const, google_breakpad::ContainedRangeMap<unsigned long, google_breakpad::linked_ptr<google_breakpad::WindowsFrameInfo> >*>, std::_Select1st<std::pair<unsigned long const, google_breakpad::ContainedRangeMap<unsigned long, google_breakpad::linked_ptr<google_breakpad::WindowsFrameInfo> >*> >, std::less<unsigned long>, std::allocator<std::pair<unsigned long const, google_breakpad::ContainedRangeMap<unsigned long, google_breakpad::linked_ptr<google_breakpad::WindowsFrameInfo> >*> > >::_Alloc_node>(std::_Rb_tree_node_base*, std::_Rb_tree_node_base*, std::pair<unsigned long const, google_breakpad::ContainedRangeMap<unsigned long, google_breakpad::linked_ptr<google_breakpad::WindowsFrameInfo> >*>&, std::_Rb_tree<unsigned long, std::pair<unsigned long const, google_breakpad::ContainedRangeMap<unsigned long, google_breakpad::linked_ptr<google_breakpad::WindowsFrameInfo> >*>, std::_Select1st<std::pair<unsigned long const, google_breakpad::ContainedRangeMap<unsigned long, google_breakpad::linked_ptr<google_breakpad::WindowsFrameInfo> >*> >, std::less<unsigned long>, std::allocator<std::pair<unsigned long const, google_breakpad::ContainedRangeMap<unsigned long, google_breakpad::linked_ptr<google_breakpad::WindowsFrameInfo> >*> > >::_Alloc_node&) [clone .isra.263]
PUBLIC 2f040 0 google_breakpad::BasicModuleFactory::CreateModule(std::__cxx11::basic_string<char, std::char_traits<char>, std::allocator<char> > const&) const
PUBLIC 2f1e0 0 google_breakpad::RangeMap<unsigned long, google_breakpad::linked_ptr<google_breakpad::SourceLineResolverBase::Line> >::RetrieveRange(unsigned long const&, google_breakpad::linked_ptr<google_breakpad::SourceLineResolverBase::Line>*, unsigned long*, unsigned long*, unsigned long*) const
PUBLIC 2f470 0 google_breakpad::AddressMap<unsigned long, google_breakpad::linked_ptr<google_breakpad::SourceLineResolverBase::PublicSymbol> >::Retrieve(unsigned long const&, google_breakpad::linked_ptr<google_breakpad::SourceLineResolverBase::PublicSymbol>*, unsigned long*) const
PUBLIC 2f630 0 google_breakpad::ContainedRangeMap<unsigned long, google_breakpad::linked_ptr<google_breakpad::WindowsFrameInfo> >::RetrieveRange(unsigned long const&, google_breakpad::linked_ptr<google_breakpad::WindowsFrameInfo>*) const
PUBLIC 2f800 0 google_breakpad::RangeMap<unsigned long, std::__cxx11::basic_string<char, std::char_traits<char>, std::allocator<char> > >::RetrieveRange(unsigned long const&, std::__cxx11::basic_string<char, std::char_traits<char>, std::allocator<char> >*, unsigned long*, unsigned long*, unsigned long*) const
PUBLIC 2fa70 0 std::_Rb_tree<unsigned long, std::pair<unsigned long const, google_breakpad::RangeMap<unsigned long, google_breakpad::linked_ptr<google_breakpad::SourceLineResolverBase::Line> >::Range>, std::_Select1st<std::pair<unsigned long const, google_breakpad::RangeMap<unsigned long, google_breakpad::linked_ptr<google_breakpad::SourceLineResolverBase::Line> >::Range> >, std::less<unsigned long>, std::allocator<std::pair<unsigned long const, google_breakpad::RangeMap<unsigned long, google_breakpad::linked_ptr<google_breakpad::SourceLineResolverBase::Line> >::Range> > >::_M_erase(std::_Rb_tree_node<std::pair<unsigned long const, google_breakpad::RangeMap<unsigned long, google_breakpad::linked_ptr<google_breakpad::SourceLineResolverBase::Line> >::Range> >*)
PUBLIC 2faf0 0 std::_Rb_tree<int, std::pair<int const, std::__cxx11::basic_string<char, std::char_traits<char>, std::allocator<char> > >, std::_Select1st<std::pair<int const, std::__cxx11::basic_string<char, std::char_traits<char>, std::allocator<char> > > >, std::less<int>, std::allocator<std::pair<int const, std::__cxx11::basic_string<char, std::char_traits<char>, std::allocator<char> > > > >::_M_erase(std::_Rb_tree_node<std::pair<int const, std::__cxx11::basic_string<char, std::char_traits<char>, std::allocator<char> > > >*)
PUBLIC 2fb50 0 std::_Rb_tree<unsigned long, std::pair<unsigned long const, google_breakpad::RangeMap<unsigned long, google_breakpad::linked_ptr<google_breakpad::BasicSourceLineResolver::Function> >::Range>, std::_Select1st<std::pair<unsigned long const, google_breakpad::RangeMap<unsigned long, google_breakpad::linked_ptr<google_breakpad::BasicSourceLineResolver::Function> >::Range> >, std::less<unsigned long>, std::allocator<std::pair<unsigned long const, google_breakpad::RangeMap<unsigned long, google_breakpad::linked_ptr<google_breakpad::BasicSourceLineResolver::Function> >::Range> > >::_M_erase(std::_Rb_tree_node<std::pair<unsigned long const, google_breakpad::RangeMap<unsigned long, google_breakpad::linked_ptr<google_breakpad::BasicSourceLineResolver::Function> >::Range> >*)
PUBLIC 2fc10 0 std::_Rb_tree<unsigned long, std::pair<unsigned long const, google_breakpad::linked_ptr<google_breakpad::SourceLineResolverBase::PublicSymbol> >, std::_Select1st<std::pair<unsigned long const, google_breakpad::linked_ptr<google_breakpad::SourceLineResolverBase::PublicSymbol> > >, std::less<unsigned long>, std::allocator<std::pair<unsigned long const, google_breakpad::linked_ptr<google_breakpad::SourceLineResolverBase::PublicSymbol> > > >::_M_erase(std::_Rb_tree_node<std::pair<unsigned long const, google_breakpad::linked_ptr<google_breakpad::SourceLineResolverBase::PublicSymbol> > >*)
PUBLIC 2fcc0 0 std::_Rb_tree<unsigned long, std::pair<unsigned long const, google_breakpad::RangeMap<unsigned long, std::__cxx11::basic_string<char, std::char_traits<char>, std::allocator<char> > >::Range>, std::_Select1st<std::pair<unsigned long const, google_breakpad::RangeMap<unsigned long, std::__cxx11::basic_string<char, std::char_traits<char>, std::allocator<char> > >::Range> >, std::less<unsigned long>, std::allocator<std::pair<unsigned long const, google_breakpad::RangeMap<unsigned long, std::__cxx11::basic_string<char, std::char_traits<char>, std::allocator<char> > >::Range> > >::_M_erase(std::_Rb_tree_node<std::pair<unsigned long const, google_breakpad::RangeMap<unsigned long, std::__cxx11::basic_string<char, std::char_traits<char>, std::allocator<char> > >::Range> >*)
PUBLIC 2fd20 0 std::_Rb_tree<unsigned long, std::pair<unsigned long const, std::__cxx11::basic_string<char, std::char_traits<char>, std::allocator<char> > >, std::_Select1st<std::pair<unsigned long const, std::__cxx11::basic_string<char, std::char_traits<char>, std::allocator<char> > > >, std::less<unsigned long>, std::allocator<std::pair<unsigned long const, std::__cxx11::basic_string<char, std::char_traits<char>, std::allocator<char> > > > >::_M_erase(std::_Rb_tree_node<std::pair<unsigned long const, std::__cxx11::basic_string<char, std::char_traits<char>, std::allocator<char> > > >*)
PUBLIC 2fd80 0 void std::vector<char*, std::allocator<char*> >::_M_realloc_insert<char* const&>(__gnu_cxx::__normal_iterator<char**, std::vector<char*, std::allocator<char*> > >, char* const&)
PUBLIC 2feb0 0 google_breakpad::linked_ptr<google_breakpad::SourceLineResolverBase::Line>::depart()
PUBLIC 2fef0 0 google_breakpad::RangeMap<unsigned long, google_breakpad::linked_ptr<google_breakpad::BasicSourceLineResolver::Function> >::RetrieveRange(unsigned long const&, google_breakpad::linked_ptr<google_breakpad::BasicSourceLineResolver::Function>*, unsigned long*, unsigned long*, unsigned long*) const
PUBLIC 30200 0 google_breakpad::RangeMap<unsigned long, google_breakpad::linked_ptr<google_breakpad::BasicSourceLineResolver::Function> >::RetrieveNearestRange(unsigned long const&, google_breakpad::linked_ptr<google_breakpad::BasicSourceLineResolver::Function>*, unsigned long*, unsigned long*, unsigned long*) const
PUBLIC 30510 0 std::_Rb_tree<std::__cxx11::basic_string<char, std::char_traits<char>, std::allocator<char> >, std::pair<std::__cxx11::basic_string<char, std::char_traits<char>, std::allocator<char> > const, std::__cxx11::basic_string<char, std::char_traits<char>, std::allocator<char> > >, std::_Select1st<std::pair<std::__cxx11::basic_string<char, std::char_traits<char>, std::allocator<char> > const, std::__cxx11::basic_string<char, std::char_traits<char>, std::allocator<char> > > >, std::less<std::__cxx11::basic_string<char, std::char_traits<char>, std::allocator<char> > >, std::allocator<std::pair<std::__cxx11::basic_string<char, std::char_traits<char>, std::allocator<char> > const, std::__cxx11::basic_string<char, std::char_traits<char>, std::allocator<char> > > > >::_M_erase(std::_Rb_tree_node<std::pair<std::__cxx11::basic_string<char, std::char_traits<char>, std::allocator<char> > const, std::__cxx11::basic_string<char, std::char_traits<char>, std::allocator<char> > > >*)
PUBLIC 30580 0 std::pair<std::_Rb_tree_iterator<std::pair<int const, std::__cxx11::basic_string<char, std::char_traits<char>, std::allocator<char> > > >, bool> std::_Rb_tree<int, std::pair<int const, std::__cxx11::basic_string<char, std::char_traits<char>, std::allocator<char> > >, std::_Select1st<std::pair<int const, std::__cxx11::basic_string<char, std::char_traits<char>, std::allocator<char> > > >, std::less<int>, std::allocator<std::pair<int const, std::__cxx11::basic_string<char, std::char_traits<char>, std::allocator<char> > > > >::_M_emplace_unique<std::pair<long, std::__cxx11::basic_string<char, std::char_traits<char>, std::allocator<char> > > >(std::pair<long, std::__cxx11::basic_string<char, std::char_traits<char>, std::allocator<char> > >&&)
PUBLIC 306d0 0 std::pair<std::_Rb_tree_iterator<std::pair<unsigned long const, google_breakpad::linked_ptr<google_breakpad::SourceLineResolverBase::PublicSymbol> > >, bool> std::_Rb_tree<unsigned long, std::pair<unsigned long const, google_breakpad::linked_ptr<google_breakpad::SourceLineResolverBase::PublicSymbol> >, std::_Select1st<std::pair<unsigned long const, google_breakpad::linked_ptr<google_breakpad::SourceLineResolverBase::PublicSymbol> > >, std::less<unsigned long>, std::allocator<std::pair<unsigned long const, google_breakpad::linked_ptr<google_breakpad::SourceLineResolverBase::PublicSymbol> > > >::_M_insert_unique<std::pair<unsigned long const, google_breakpad::linked_ptr<google_breakpad::SourceLineResolverBase::PublicSymbol> > >(std::pair<unsigned long const, google_breakpad::linked_ptr<google_breakpad::SourceLineResolverBase::PublicSymbol> >&&)
PUBLIC 30840 0 google_breakpad::AddressMap<unsigned long, google_breakpad::linked_ptr<google_breakpad::SourceLineResolverBase::PublicSymbol> >::Store(unsigned long const&, google_breakpad::linked_ptr<google_breakpad::SourceLineResolverBase::PublicSymbol> const&)
PUBLIC 30a90 0 std::_Rb_tree<unsigned long, std::pair<unsigned long const, google_breakpad::ContainedRangeMap<unsigned long, google_breakpad::linked_ptr<google_breakpad::WindowsFrameInfo> >*>, std::_Select1st<std::pair<unsigned long const, google_breakpad::ContainedRangeMap<unsigned long, google_breakpad::linked_ptr<google_breakpad::WindowsFrameInfo> >*> >, std::less<unsigned long>, std::allocator<std::pair<unsigned long const, google_breakpad::ContainedRangeMap<unsigned long, google_breakpad::linked_ptr<google_breakpad::WindowsFrameInfo> >*> > >::_M_erase(std::_Rb_tree_node<std::pair<unsigned long const, google_breakpad::ContainedRangeMap<unsigned long, google_breakpad::linked_ptr<google_breakpad::WindowsFrameInfo> >*> >*)
PUBLIC 30ad0 0 google_breakpad::ContainedRangeMap<unsigned long, google_breakpad::linked_ptr<google_breakpad::WindowsFrameInfo> >::~ContainedRangeMap()
PUBLIC 30bd0 0 google_breakpad::BasicSourceLineResolver::Module::~Module()
PUBLIC 30c80 0 google_breakpad::BasicSourceLineResolver::Module::~Module()
PUBLIC 30d40 0 std::pair<std::_Rb_tree_iterator<std::pair<unsigned long const, google_breakpad::RangeMap<unsigned long, google_breakpad::linked_ptr<google_breakpad::BasicSourceLineResolver::Function> >::Range> >, bool> std::_Rb_tree<unsigned long, std::pair<unsigned long const, google_breakpad::RangeMap<unsigned long, google_breakpad::linked_ptr<google_breakpad::BasicSourceLineResolver::Function> >::Range>, std::_Select1st<std::pair<unsigned long const, google_breakpad::RangeMap<unsigned long, google_breakpad::linked_ptr<google_breakpad::BasicSourceLineResolver::Function> >::Range> >, std::less<unsigned long>, std::allocator<std::pair<unsigned long const, google_breakpad::RangeMap<unsigned long, google_breakpad::linked_ptr<google_breakpad::BasicSourceLineResolver::Function> >::Range> > >::_M_insert_unique<std::pair<unsigned long const, google_breakpad::RangeMap<unsigned long, google_breakpad::linked_ptr<google_breakpad::BasicSourceLineResolver::Function> >::Range> >(std::pair<unsigned long const, google_breakpad::RangeMap<unsigned long, google_breakpad::linked_ptr<google_breakpad::BasicSourceLineResolver::Function> >::Range>&&)
PUBLIC 30ec0 0 google_breakpad::RangeMap<unsigned long, google_breakpad::linked_ptr<google_breakpad::BasicSourceLineResolver::Function> >::StoreRangeInternal(unsigned long const&, unsigned long const&, unsigned long const&, google_breakpad::linked_ptr<google_breakpad::BasicSourceLineResolver::Function> const&)
PUBLIC 31880 0 std::pair<std::_Rb_tree_iterator<std::pair<unsigned long const, google_breakpad::RangeMap<unsigned long, google_breakpad::linked_ptr<google_breakpad::SourceLineResolverBase::Line> >::Range> >, bool> std::_Rb_tree<unsigned long, std::pair<unsigned long const, google_breakpad::RangeMap<unsigned long, google_breakpad::linked_ptr<google_breakpad::SourceLineResolverBase::Line> >::Range>, std::_Select1st<std::pair<unsigned long const, google_breakpad::RangeMap<unsigned long, google_breakpad::linked_ptr<google_breakpad::SourceLineResolverBase::Line> >::Range> >, std::less<unsigned long>, std::allocator<std::pair<unsigned long const, google_breakpad::RangeMap<unsigned long, google_breakpad::linked_ptr<google_breakpad::SourceLineResolverBase::Line> >::Range> > >::_M_insert_unique<std::pair<unsigned long const, google_breakpad::RangeMap<unsigned long, google_breakpad::linked_ptr<google_breakpad::SourceLineResolverBase::Line> >::Range> >(std::pair<unsigned long const, google_breakpad::RangeMap<unsigned long, google_breakpad::linked_ptr<google_breakpad::SourceLineResolverBase::Line> >::Range>&&)
PUBLIC 31a00 0 google_breakpad::RangeMap<unsigned long, google_breakpad::linked_ptr<google_breakpad::SourceLineResolverBase::Line> >::StoreRangeInternal(unsigned long const&, unsigned long const&, unsigned long const&, google_breakpad::linked_ptr<google_breakpad::SourceLineResolverBase::Line> const&)
PUBLIC 322b0 0 std::_Rb_tree<unsigned long, std::pair<unsigned long const, google_breakpad::ContainedRangeMap<unsigned long, google_breakpad::linked_ptr<google_breakpad::WindowsFrameInfo> >*>, std::_Select1st<std::pair<unsigned long const, google_breakpad::ContainedRangeMap<unsigned long, google_breakpad::linked_ptr<google_breakpad::WindowsFrameInfo> >*> >, std::less<unsigned long>, std::allocator<std::pair<unsigned long const, google_breakpad::ContainedRangeMap<unsigned long, google_breakpad::linked_ptr<google_breakpad::WindowsFrameInfo> >*> > >::_M_get_insert_unique_pos(unsigned long const&)
PUBLIC 32340 0 std::pair<std::_Rb_tree_iterator<std::pair<unsigned long const, google_breakpad::RangeMap<unsigned long, std::__cxx11::basic_string<char, std::char_traits<char>, std::allocator<char> > >::Range> >, bool> std::_Rb_tree<unsigned long, std::pair<unsigned long const, google_breakpad::RangeMap<unsigned long, std::__cxx11::basic_string<char, std::char_traits<char>, std::allocator<char> > >::Range>, std::_Select1st<std::pair<unsigned long const, google_breakpad::RangeMap<unsigned long, std::__cxx11::basic_string<char, std::char_traits<char>, std::allocator<char> > >::Range> >, std::less<unsigned long>, std::allocator<std::pair<unsigned long const, google_breakpad::RangeMap<unsigned long, std::__cxx11::basic_string<char, std::char_traits<char>, std::allocator<char> > >::Range> > >::_M_insert_unique<std::pair<unsigned long const, google_breakpad::RangeMap<unsigned long, std::__cxx11::basic_string<char, std::char_traits<char>, std::allocator<char> > >::Range> >(std::pair<unsigned long const, google_breakpad::RangeMap<unsigned long, std::__cxx11::basic_string<char, std::char_traits<char>, std::allocator<char> > >::Range>&&)
PUBLIC 324b0 0 google_breakpad::RangeMap<unsigned long, std::__cxx11::basic_string<char, std::char_traits<char>, std::allocator<char> > >::StoreRangeInternal(unsigned long const&, unsigned long const&, unsigned long const&, std::__cxx11::basic_string<char, std::char_traits<char>, std::allocator<char> > const&)
PUBLIC 32be0 0 std::_Rb_tree<unsigned long, std::pair<unsigned long const, std::__cxx11::basic_string<char, std::char_traits<char>, std::allocator<char> > >, std::_Select1st<std::pair<unsigned long const, std::__cxx11::basic_string<char, std::char_traits<char>, std::allocator<char> > > >, std::less<unsigned long>, std::allocator<std::pair<unsigned long const, std::__cxx11::basic_string<char, std::char_traits<char>, std::allocator<char> > > > >::_M_get_insert_unique_pos(unsigned long const&)
PUBLIC 32c70 0 std::_Rb_tree<unsigned long, std::pair<unsigned long const, std::__cxx11::basic_string<char, std::char_traits<char>, std::allocator<char> > >, std::_Select1st<std::pair<unsigned long const, std::__cxx11::basic_string<char, std::char_traits<char>, std::allocator<char> > > >, std::less<unsigned long>, std::allocator<std::pair<unsigned long const, std::__cxx11::basic_string<char, std::char_traits<char>, std::allocator<char> > > > >::_M_get_insert_hint_unique_pos(std::_Rb_tree_const_iterator<std::pair<unsigned long const, std::__cxx11::basic_string<char, std::char_traits<char>, std::allocator<char> > > >, unsigned long const&)
PUBLIC 32d60 0 std::_Rb_tree<unsigned long, std::pair<unsigned long const, google_breakpad::ContainedRangeMap<unsigned long, google_breakpad::linked_ptr<google_breakpad::WindowsFrameInfo> >*>, std::_Select1st<std::pair<unsigned long const, google_breakpad::ContainedRangeMap<unsigned long, google_breakpad::linked_ptr<google_breakpad::WindowsFrameInfo> >*> >, std::less<unsigned long>, std::allocator<std::pair<unsigned long const, google_breakpad::ContainedRangeMap<unsigned long, google_breakpad::linked_ptr<google_breakpad::WindowsFrameInfo> >*> > >::_M_get_insert_hint_unique_pos(std::_Rb_tree_const_iterator<std::pair<unsigned long const, google_breakpad::ContainedRangeMap<unsigned long, google_breakpad::linked_ptr<google_breakpad::WindowsFrameInfo> >*> >, unsigned long const&)
PUBLIC 32e50 0 google_breakpad::ContainedRangeMap<unsigned long, google_breakpad::linked_ptr<google_breakpad::WindowsFrameInfo> >::StoreRange(unsigned long const&, unsigned long const&, google_breakpad::linked_ptr<google_breakpad::WindowsFrameInfo> const&)
PUBLIC 33210 0 google_breakpad::CallStack::Clear()
PUBLIC 332a0 0 google_breakpad::CallStack::~CallStack()
PUBLIC 332d0 0 google_breakpad::StackFrame::ReturnAddress() const
PUBLIC 332e0 0 google_breakpad::StackFrame::~StackFrame()
PUBLIC 33330 0 google_breakpad::StackFrame::~StackFrame()
PUBLIC 33380 0 google_breakpad::CFIFrameInfoParseHandler::CFARule(std::__cxx11::basic_string<char, std::char_traits<char>, std::allocator<char> > const&)
PUBLIC 33390 0 google_breakpad::CFIFrameInfoParseHandler::RARule(std::__cxx11::basic_string<char, std::char_traits<char>, std::allocator<char> > const&)
PUBLIC 333a0 0 void std::__cxx11::basic_string<char, std::char_traits<char>, std::allocator<char> >::_M_construct<char const*>(char const*, char const*, std::forward_iterator_tag) [clone .isra.54]
PUBLIC 33470 0 google_breakpad::CFIRuleParser::Report()
PUBLIC 33500 0 google_breakpad::CFIRuleParser::Parse(std::__cxx11::basic_string<char, std::char_traits<char>, std::allocator<char> > const&)
PUBLIC 33750 0 google_breakpad::CFIFrameInfo::Serialize[abi:cxx11]() const
PUBLIC 33d50 0 google_breakpad::CFIFrameInfoParseHandler::RegisterRule(std::__cxx11::basic_string<char, std::char_traits<char>, std::allocator<char> > const&, std::__cxx11::basic_string<char, std::char_traits<char>, std::allocator<char> > const&)
PUBLIC 33fe0 0 google_breakpad::CFIFrameInfoParseHandler::~CFIFrameInfoParseHandler()
PUBLIC 33ff0 0 google_breakpad::CFIFrameInfoParseHandler::~CFIFrameInfoParseHandler()
PUBLIC 34000 0 std::vector<std::__cxx11::basic_string<char, std::char_traits<char>, std::allocator<char> >, std::allocator<std::__cxx11::basic_string<char, std::char_traits<char>, std::allocator<char> > > >::clear()
PUBLIC 34050 0 std::__cxx11::basic_stringbuf<char, std::char_traits<char>, std::allocator<char> >::~basic_stringbuf()
PUBLIC 34090 0 std::__cxx11::basic_stringbuf<char, std::char_traits<char>, std::allocator<char> >::~basic_stringbuf()
PUBLIC 340e0 0 std::vector<std::__cxx11::basic_string<char, std::char_traits<char>, std::allocator<char> >, std::allocator<std::__cxx11::basic_string<char, std::char_traits<char>, std::allocator<char> > > >::~vector()
PUBLIC 34140 0 std::_Rb_tree<std::__cxx11::basic_string<char, std::char_traits<char>, std::allocator<char> >, std::pair<std::__cxx11::basic_string<char, std::char_traits<char>, std::allocator<char> > const, unsigned int>, std::_Select1st<std::pair<std::__cxx11::basic_string<char, std::char_traits<char>, std::allocator<char> > const, unsigned int> >, std::less<std::__cxx11::basic_string<char, std::char_traits<char>, std::allocator<char> > >, std::allocator<std::pair<std::__cxx11::basic_string<char, std::char_traits<char>, std::allocator<char> > const, unsigned int> > >::_M_erase(std::_Rb_tree_node<std::pair<std::__cxx11::basic_string<char, std::char_traits<char>, std::allocator<char> > const, unsigned int> >*)
PUBLIC 341a0 0 std::_Rb_tree<std::__cxx11::basic_string<char, std::char_traits<char>, std::allocator<char> >, std::pair<std::__cxx11::basic_string<char, std::char_traits<char>, std::allocator<char> > const, unsigned long>, std::_Select1st<std::pair<std::__cxx11::basic_string<char, std::char_traits<char>, std::allocator<char> > const, unsigned long> >, std::less<std::__cxx11::basic_string<char, std::char_traits<char>, std::allocator<char> > >, std::allocator<std::pair<std::__cxx11::basic_string<char, std::char_traits<char>, std::allocator<char> > const, unsigned long> > >::_M_erase(std::_Rb_tree_node<std::pair<std::__cxx11::basic_string<char, std::char_traits<char>, std::allocator<char> > const, unsigned long> >*)
PUBLIC 34200 0 std::_Rb_tree<std::__cxx11::basic_string<char, std::char_traits<char>, std::allocator<char> >, std::pair<std::__cxx11::basic_string<char, std::char_traits<char>, std::allocator<char> > const, std::__cxx11::basic_string<char, std::char_traits<char>, std::allocator<char> > >, std::_Select1st<std::pair<std::__cxx11::basic_string<char, std::char_traits<char>, std::allocator<char> > const, std::__cxx11::basic_string<char, std::char_traits<char>, std::allocator<char> > > >, std::less<std::__cxx11::basic_string<char, std::char_traits<char>, std::allocator<char> > >, std::allocator<std::pair<std::__cxx11::basic_string<char, std::char_traits<char>, std::allocator<char> > const, std::__cxx11::basic_string<char, std::char_traits<char>, std::allocator<char> > > > >::_M_get_insert_unique_pos(std::__cxx11::basic_string<char, std::char_traits<char>, std::allocator<char> > const&)
PUBLIC 34390 0 std::_Rb_tree<std::__cxx11::basic_string<char, std::char_traits<char>, std::allocator<char> >, std::pair<std::__cxx11::basic_string<char, std::char_traits<char>, std::allocator<char> > const, std::__cxx11::basic_string<char, std::char_traits<char>, std::allocator<char> > >, std::_Select1st<std::pair<std::__cxx11::basic_string<char, std::char_traits<char>, std::allocator<char> > const, std::__cxx11::basic_string<char, std::char_traits<char>, std::allocator<char> > > >, std::less<std::__cxx11::basic_string<char, std::char_traits<char>, std::allocator<char> > >, std::allocator<std::pair<std::__cxx11::basic_string<char, std::char_traits<char>, std::allocator<char> > const, std::__cxx11::basic_string<char, std::char_traits<char>, std::allocator<char> > > > >::_M_get_insert_hint_unique_pos(std::_Rb_tree_const_iterator<std::pair<std::__cxx11::basic_string<char, std::char_traits<char>, std::allocator<char> > const, std::__cxx11::basic_string<char, std::char_traits<char>, std::allocator<char> > > >, std::__cxx11::basic_string<char, std::char_traits<char>, std::allocator<char> > const&)
PUBLIC 34650 0 std::_Rb_tree_node<std::pair<std::__cxx11::basic_string<char, std::char_traits<char>, std::allocator<char> > const, unsigned int> >* std::_Rb_tree<std::__cxx11::basic_string<char, std::char_traits<char>, std::allocator<char> >, std::pair<std::__cxx11::basic_string<char, std::char_traits<char>, std::allocator<char> > const, unsigned int>, std::_Select1st<std::pair<std::__cxx11::basic_string<char, std::char_traits<char>, std::allocator<char> > const, unsigned int> >, std::less<std::__cxx11::basic_string<char, std::char_traits<char>, std::allocator<char> > >, std::allocator<std::pair<std::__cxx11::basic_string<char, std::char_traits<char>, std::allocator<char> > const, unsigned int> > >::_M_copy<std::_Rb_tree<std::__cxx11::basic_string<char, std::char_traits<char>, std::allocator<char> >, std::pair<std::__cxx11::basic_string<char, std::char_traits<char>, std::allocator<char> > const, unsigned int>, std::_Select1st<std::pair<std::__cxx11::basic_string<char, std::char_traits<char>, std::allocator<char> > const, unsigned int> >, std::less<std::__cxx11::basic_string<char, std::char_traits<char>, std::allocator<char> > >, std::allocator<std::pair<std::__cxx11::basic_string<char, std::char_traits<char>, std::allocator<char> > const, unsigned int> > >::_Reuse_or_alloc_node>(std::_Rb_tree_node<std::pair<std::__cxx11::basic_string<char, std::char_traits<char>, std::allocator<char> > const, unsigned int> > const*, std::_Rb_tree_node_base*, std::_Rb_tree<std::__cxx11::basic_string<char, std::char_traits<char>, std::allocator<char> >, std::pair<std::__cxx11::basic_string<char, std::char_traits<char>, std::allocator<char> > const, unsigned int>, std::_Select1st<std::pair<std::__cxx11::basic_string<char, std::char_traits<char>, std::allocator<char> > const, unsigned int> >, std::less<std::__cxx11::basic_string<char, std::char_traits<char>, std::allocator<char> > >, std::allocator<std::pair<std::__cxx11::basic_string<char, std::char_traits<char>, std::allocator<char> > const, unsigned int> > >::_Reuse_or_alloc_node&)
PUBLIC 349f0 0 std::_Rb_tree<std::__cxx11::basic_string<char, std::char_traits<char>, std::allocator<char> >, std::pair<std::__cxx11::basic_string<char, std::char_traits<char>, std::allocator<char> > const, unsigned int>, std::_Select1st<std::pair<std::__cxx11::basic_string<char, std::char_traits<char>, std::allocator<char> > const, unsigned int> >, std::less<std::__cxx11::basic_string<char, std::char_traits<char>, std::allocator<char> > >, std::allocator<std::pair<std::__cxx11::basic_string<char, std::char_traits<char>, std::allocator<char> > const, unsigned int> > >::operator=(std::_Rb_tree<std::__cxx11::basic_string<char, std::char_traits<char>, std::allocator<char> >, std::pair<std::__cxx11::basic_string<char, std::char_traits<char>, std::allocator<char> > const, unsigned int>, std::_Select1st<std::pair<std::__cxx11::basic_string<char, std::char_traits<char>, std::allocator<char> > const, unsigned int> >, std::less<std::__cxx11::basic_string<char, std::char_traits<char>, std::allocator<char> > >, std::allocator<std::pair<std::__cxx11::basic_string<char, std::char_traits<char>, std::allocator<char> > const, unsigned int> > > const&)
PUBLIC 34b30 0 google_breakpad::PostfixEvaluator<unsigned int>::PopValueOrIdentifier(unsigned int*, std::__cxx11::basic_string<char, std::char_traits<char>, std::allocator<char> >*)
PUBLIC 34f50 0 google_breakpad::PostfixEvaluator<unsigned int>::PopValue(unsigned int*)
PUBLIC 351a0 0 std::_Rb_tree<std::__cxx11::basic_string<char, std::char_traits<char>, std::allocator<char> >, std::pair<std::__cxx11::basic_string<char, std::char_traits<char>, std::allocator<char> > const, unsigned int>, std::_Select1st<std::pair<std::__cxx11::basic_string<char, std::char_traits<char>, std::allocator<char> > const, unsigned int> >, std::less<std::__cxx11::basic_string<char, std::char_traits<char>, std::allocator<char> > >, std::allocator<std::pair<std::__cxx11::basic_string<char, std::char_traits<char>, std::allocator<char> > const, unsigned int> > >::_M_insert_node(std::_Rb_tree_node_base*, std::_Rb_tree_node_base*, std::_Rb_tree_node<std::pair<std::__cxx11::basic_string<char, std::char_traits<char>, std::allocator<char> > const, unsigned int> >*)
PUBLIC 35260 0 std::_Rb_tree_node<std::pair<std::__cxx11::basic_string<char, std::char_traits<char>, std::allocator<char> > const, unsigned long> >* std::_Rb_tree<std::__cxx11::basic_string<char, std::char_traits<char>, std::allocator<char> >, std::pair<std::__cxx11::basic_string<char, std::char_traits<char>, std::allocator<char> > const, unsigned long>, std::_Select1st<std::pair<std::__cxx11::basic_string<char, std::char_traits<char>, std::allocator<char> > const, unsigned long> >, std::less<std::__cxx11::basic_string<char, std::char_traits<char>, std::allocator<char> > >, std::allocator<std::pair<std::__cxx11::basic_string<char, std::char_traits<char>, std::allocator<char> > const, unsigned long> > >::_M_copy<std::_Rb_tree<std::__cxx11::basic_string<char, std::char_traits<char>, std::allocator<char> >, std::pair<std::__cxx11::basic_string<char, std::char_traits<char>, std::allocator<char> > const, unsigned long>, std::_Select1st<std::pair<std::__cxx11::basic_string<char, std::char_traits<char>, std::allocator<char> > const, unsigned long> >, std::less<std::__cxx11::basic_string<char, std::char_traits<char>, std::allocator<char> > >, std::allocator<std::pair<std::__cxx11::basic_string<char, std::char_traits<char>, std::allocator<char> > const, unsigned long> > >::_Reuse_or_alloc_node>(std::_Rb_tree_node<std::pair<std::__cxx11::basic_string<char, std::char_traits<char>, std::allocator<char> > const, unsigned long> > const*, std::_Rb_tree_node_base*, std::_Rb_tree<std::__cxx11::basic_string<char, std::char_traits<char>, std::allocator<char> >, std::pair<std::__cxx11::basic_string<char, std::char_traits<char>, std::allocator<char> > const, unsigned long>, std::_Select1st<std::pair<std::__cxx11::basic_string<char, std::char_traits<char>, std::allocator<char> > const, unsigned long> >, std::less<std::__cxx11::basic_string<char, std::char_traits<char>, std::allocator<char> > >, std::allocator<std::pair<std::__cxx11::basic_string<char, std::char_traits<char>, std::allocator<char> > const, unsigned long> > >::_Reuse_or_alloc_node&)
PUBLIC 35610 0 std::_Rb_tree<std::__cxx11::basic_string<char, std::char_traits<char>, std::allocator<char> >, std::pair<std::__cxx11::basic_string<char, std::char_traits<char>, std::allocator<char> > const, unsigned long>, std::_Select1st<std::pair<std::__cxx11::basic_string<char, std::char_traits<char>, std::allocator<char> > const, unsigned long> >, std::less<std::__cxx11::basic_string<char, std::char_traits<char>, std::allocator<char> > >, std::allocator<std::pair<std::__cxx11::basic_string<char, std::char_traits<char>, std::allocator<char> > const, unsigned long> > >::operator=(std::_Rb_tree<std::__cxx11::basic_string<char, std::char_traits<char>, std::allocator<char> >, std::pair<std::__cxx11::basic_string<char, std::char_traits<char>, std::allocator<char> > const, unsigned long>, std::_Select1st<std::pair<std::__cxx11::basic_string<char, std::char_traits<char>, std::allocator<char> > const, unsigned long> >, std::less<std::__cxx11::basic_string<char, std::char_traits<char>, std::allocator<char> > >, std::allocator<std::pair<std::__cxx11::basic_string<char, std::char_traits<char>, std::allocator<char> > const, unsigned long> > > const&)
PUBLIC 35750 0 google_breakpad::PostfixEvaluator<unsigned long>::PopValueOrIdentifier(unsigned long*, std::__cxx11::basic_string<char, std::char_traits<char>, std::allocator<char> >*)
PUBLIC 35b80 0 google_breakpad::PostfixEvaluator<unsigned long>::PopValue(unsigned long*)
PUBLIC 35dd0 0 std::_Rb_tree<std::__cxx11::basic_string<char, std::char_traits<char>, std::allocator<char> >, std::pair<std::__cxx11::basic_string<char, std::char_traits<char>, std::allocator<char> > const, unsigned long>, std::_Select1st<std::pair<std::__cxx11::basic_string<char, std::char_traits<char>, std::allocator<char> > const, unsigned long> >, std::less<std::__cxx11::basic_string<char, std::char_traits<char>, std::allocator<char> > >, std::allocator<std::pair<std::__cxx11::basic_string<char, std::char_traits<char>, std::allocator<char> > const, unsigned long> > >::_M_insert_node(std::_Rb_tree_node_base*, std::_Rb_tree_node_base*, std::_Rb_tree_node<std::pair<std::__cxx11::basic_string<char, std::char_traits<char>, std::allocator<char> > const, unsigned long> >*)
PUBLIC 35e90 0 std::_Rb_tree<std::__cxx11::basic_string<char, std::char_traits<char>, std::allocator<char> >, std::pair<std::__cxx11::basic_string<char, std::char_traits<char>, std::allocator<char> > const, unsigned int>, std::_Select1st<std::pair<std::__cxx11::basic_string<char, std::char_traits<char>, std::allocator<char> > const, unsigned int> >, std::less<std::__cxx11::basic_string<char, std::char_traits<char>, std::allocator<char> > >, std::allocator<std::pair<std::__cxx11::basic_string<char, std::char_traits<char>, std::allocator<char> > const, unsigned int> > >::_M_get_insert_unique_pos(std::__cxx11::basic_string<char, std::char_traits<char>, std::allocator<char> > const&)
PUBLIC 36020 0 std::_Rb_tree<std::__cxx11::basic_string<char, std::char_traits<char>, std::allocator<char> >, std::pair<std::__cxx11::basic_string<char, std::char_traits<char>, std::allocator<char> > const, unsigned int>, std::_Select1st<std::pair<std::__cxx11::basic_string<char, std::char_traits<char>, std::allocator<char> > const, unsigned int> >, std::less<std::__cxx11::basic_string<char, std::char_traits<char>, std::allocator<char> > >, std::allocator<std::pair<std::__cxx11::basic_string<char, std::char_traits<char>, std::allocator<char> > const, unsigned int> > >::_M_get_insert_hint_unique_pos(std::_Rb_tree_const_iterator<std::pair<std::__cxx11::basic_string<char, std::char_traits<char>, std::allocator<char> > const, unsigned int> >, std::__cxx11::basic_string<char, std::char_traits<char>, std::allocator<char> > const&)
PUBLIC 362e0 0 std::map<std::__cxx11::basic_string<char, std::char_traits<char>, std::allocator<char> >, unsigned int, std::less<std::__cxx11::basic_string<char, std::char_traits<char>, std::allocator<char> > >, std::allocator<std::pair<std::__cxx11::basic_string<char, std::char_traits<char>, std::allocator<char> > const, unsigned int> > >::operator[](std::__cxx11::basic_string<char, std::char_traits<char>, std::allocator<char> > const&)
PUBLIC 364a0 0 std::_Rb_tree<std::__cxx11::basic_string<char, std::char_traits<char>, std::allocator<char> >, std::pair<std::__cxx11::basic_string<char, std::char_traits<char>, std::allocator<char> > const, unsigned long>, std::_Select1st<std::pair<std::__cxx11::basic_string<char, std::char_traits<char>, std::allocator<char> > const, unsigned long> >, std::less<std::__cxx11::basic_string<char, std::char_traits<char>, std::allocator<char> > >, std::allocator<std::pair<std::__cxx11::basic_string<char, std::char_traits<char>, std::allocator<char> > const, unsigned long> > >::_M_get_insert_unique_pos(std::__cxx11::basic_string<char, std::char_traits<char>, std::allocator<char> > const&)
PUBLIC 36630 0 std::_Rb_tree<std::__cxx11::basic_string<char, std::char_traits<char>, std::allocator<char> >, std::pair<std::__cxx11::basic_string<char, std::char_traits<char>, std::allocator<char> > const, unsigned long>, std::_Select1st<std::pair<std::__cxx11::basic_string<char, std::char_traits<char>, std::allocator<char> > const, unsigned long> >, std::less<std::__cxx11::basic_string<char, std::char_traits<char>, std::allocator<char> > >, std::allocator<std::pair<std::__cxx11::basic_string<char, std::char_traits<char>, std::allocator<char> > const, unsigned long> > >::_M_get_insert_hint_unique_pos(std::_Rb_tree_const_iterator<std::pair<std::__cxx11::basic_string<char, std::char_traits<char>, std::allocator<char> > const, unsigned long> >, std::__cxx11::basic_string<char, std::char_traits<char>, std::allocator<char> > const&)
PUBLIC 368f0 0 std::map<std::__cxx11::basic_string<char, std::char_traits<char>, std::allocator<char> >, unsigned long, std::less<std::__cxx11::basic_string<char, std::char_traits<char>, std::allocator<char> > >, std::allocator<std::pair<std::__cxx11::basic_string<char, std::char_traits<char>, std::allocator<char> > const, unsigned long> > >::operator[](std::__cxx11::basic_string<char, std::char_traits<char>, std::allocator<char> > const&)
PUBLIC 36ab0 0 void std::vector<std::__cxx11::basic_string<char, std::char_traits<char>, std::allocator<char> >, std::allocator<std::__cxx11::basic_string<char, std::char_traits<char>, std::allocator<char> > > >::_M_realloc_insert<std::__cxx11::basic_string<char, std::char_traits<char>, std::allocator<char> > const&>(__gnu_cxx::__normal_iterator<std::__cxx11::basic_string<char, std::char_traits<char>, std::allocator<char> >*, std::vector<std::__cxx11::basic_string<char, std::char_traits<char>, std::allocator<char> >, std::allocator<std::__cxx11::basic_string<char, std::char_traits<char>, std::allocator<char> > > > >, std::__cxx11::basic_string<char, std::char_traits<char>, std::allocator<char> > const&)
PUBLIC 36d40 0 std::vector<std::__cxx11::basic_string<char, std::char_traits<char>, std::allocator<char> >, std::allocator<std::__cxx11::basic_string<char, std::char_traits<char>, std::allocator<char> > > >::push_back(std::__cxx11::basic_string<char, std::char_traits<char>, std::allocator<char> > const&)
PUBLIC 36d90 0 void std::vector<std::__cxx11::basic_string<char, std::char_traits<char>, std::allocator<char> >, std::allocator<std::__cxx11::basic_string<char, std::char_traits<char>, std::allocator<char> > > >::_M_realloc_insert<std::__cxx11::basic_string<char, std::char_traits<char>, std::allocator<char> > >(__gnu_cxx::__normal_iterator<std::__cxx11::basic_string<char, std::char_traits<char>, std::allocator<char> >*, std::vector<std::__cxx11::basic_string<char, std::char_traits<char>, std::allocator<char> >, std::allocator<std::__cxx11::basic_string<char, std::char_traits<char>, std::allocator<char> > > > >, std::__cxx11::basic_string<char, std::char_traits<char>, std::allocator<char> >&&)
PUBLIC 37010 0 void std::vector<std::__cxx11::basic_string<char, std::char_traits<char>, std::allocator<char> >, std::allocator<std::__cxx11::basic_string<char, std::char_traits<char>, std::allocator<char> > > >::emplace_back<std::__cxx11::basic_string<char, std::char_traits<char>, std::allocator<char> > >(std::__cxx11::basic_string<char, std::char_traits<char>, std::allocator<char> >&&)
PUBLIC 37090 0 google_breakpad::PostfixEvaluator<unsigned int>::PushValue(unsigned int const&)
PUBLIC 375c0 0 google_breakpad::PostfixEvaluator<unsigned long>::PushValue(unsigned long const&)
PUBLIC 37af0 0 std::_Rb_tree<std::__cxx11::basic_string<char, std::char_traits<char>, std::allocator<char> >, std::pair<std::__cxx11::basic_string<char, std::char_traits<char>, std::allocator<char> > const, bool>, std::_Select1st<std::pair<std::__cxx11::basic_string<char, std::char_traits<char>, std::allocator<char> > const, bool> >, std::less<std::__cxx11::basic_string<char, std::char_traits<char>, std::allocator<char> > >, std::allocator<std::pair<std::__cxx11::basic_string<char, std::char_traits<char>, std::allocator<char> > const, bool> > >::_M_get_insert_unique_pos(std::__cxx11::basic_string<char, std::char_traits<char>, std::allocator<char> > const&)
PUBLIC 37c80 0 std::_Rb_tree<std::__cxx11::basic_string<char, std::char_traits<char>, std::allocator<char> >, std::pair<std::__cxx11::basic_string<char, std::char_traits<char>, std::allocator<char> > const, bool>, std::_Select1st<std::pair<std::__cxx11::basic_string<char, std::char_traits<char>, std::allocator<char> > const, bool> >, std::less<std::__cxx11::basic_string<char, std::char_traits<char>, std::allocator<char> > >, std::allocator<std::pair<std::__cxx11::basic_string<char, std::char_traits<char>, std::allocator<char> > const, bool> > >::_M_get_insert_hint_unique_pos(std::_Rb_tree_const_iterator<std::pair<std::__cxx11::basic_string<char, std::char_traits<char>, std::allocator<char> > const, bool> >, std::__cxx11::basic_string<char, std::char_traits<char>, std::allocator<char> > const&)
PUBLIC 37f40 0 std::map<std::__cxx11::basic_string<char, std::char_traits<char>, std::allocator<char> >, bool, std::less<std::__cxx11::basic_string<char, std::char_traits<char>, std::allocator<char> > >, std::allocator<std::pair<std::__cxx11::basic_string<char, std::char_traits<char>, std::allocator<char> > const, bool> > >::operator[](std::__cxx11::basic_string<char, std::char_traits<char>, std::allocator<char> > const&)
PUBLIC 38180 0 google_breakpad::PostfixEvaluator<unsigned int>::EvaluateToken(std::__cxx11::basic_string<char, std::char_traits<char>, std::allocator<char> > const&, std::__cxx11::basic_string<char, std::char_traits<char>, std::allocator<char> > const&, std::map<std::__cxx11::basic_string<char, std::char_traits<char>, std::allocator<char> >, bool, std::less<std::__cxx11::basic_string<char, std::char_traits<char>, std::allocator<char> > >, std::allocator<std::pair<std::__cxx11::basic_string<char, std::char_traits<char>, std::allocator<char> > const, bool> > >*)
PUBLIC 38890 0 google_breakpad::PostfixEvaluator<unsigned int>::EvaluateInternal(std::__cxx11::basic_string<char, std::char_traits<char>, std::allocator<char> > const&, std::map<std::__cxx11::basic_string<char, std::char_traits<char>, std::allocator<char> >, bool, std::less<std::__cxx11::basic_string<char, std::char_traits<char>, std::allocator<char> > >, std::allocator<std::pair<std::__cxx11::basic_string<char, std::char_traits<char>, std::allocator<char> > const, bool> > >*)
PUBLIC 38d50 0 google_breakpad::PostfixEvaluator<unsigned int>::EvaluateForValue(std::__cxx11::basic_string<char, std::char_traits<char>, std::allocator<char> > const&, unsigned int*)
PUBLIC 38eb0 0 bool google_breakpad::CFIFrameInfo::FindCallerRegs<unsigned int>(google_breakpad::CFIFrameInfo::RegisterValueMap<unsigned int> const&, google_breakpad::MemoryRegion const&, google_breakpad::CFIFrameInfo::RegisterValueMap<unsigned int>*) const
PUBLIC 39b80 0 google_breakpad::PostfixEvaluator<unsigned long>::EvaluateToken(std::__cxx11::basic_string<char, std::char_traits<char>, std::allocator<char> > const&, std::__cxx11::basic_string<char, std::char_traits<char>, std::allocator<char> > const&, std::map<std::__cxx11::basic_string<char, std::char_traits<char>, std::allocator<char> >, bool, std::less<std::__cxx11::basic_string<char, std::char_traits<char>, std::allocator<char> > >, std::allocator<std::pair<std::__cxx11::basic_string<char, std::char_traits<char>, std::allocator<char> > const, bool> > >*)
PUBLIC 3a2a0 0 google_breakpad::PostfixEvaluator<unsigned long>::EvaluateInternal(std::__cxx11::basic_string<char, std::char_traits<char>, std::allocator<char> > const&, std::map<std::__cxx11::basic_string<char, std::char_traits<char>, std::allocator<char> >, bool, std::less<std::__cxx11::basic_string<char, std::char_traits<char>, std::allocator<char> > >, std::allocator<std::pair<std::__cxx11::basic_string<char, std::char_traits<char>, std::allocator<char> > const, bool> > >*)
PUBLIC 3a760 0 google_breakpad::PostfixEvaluator<unsigned long>::EvaluateForValue(std::__cxx11::basic_string<char, std::char_traits<char>, std::allocator<char> > const&, unsigned long*)
PUBLIC 3a8c0 0 bool google_breakpad::CFIFrameInfo::FindCallerRegs<unsigned long>(google_breakpad::CFIFrameInfo::RegisterValueMap<unsigned long> const&, google_breakpad::MemoryRegion const&, google_breakpad::CFIFrameInfo::RegisterValueMap<unsigned long>*) const
PUBLIC 3b5a0 0 google_breakpad::ConvertOldARM64Context(MDRawContextARM64_Old const&, MDRawContextARM64*)
PUBLIC 3b6c0 0 google_breakpad::DisassemblerX86::DisassemblerX86(unsigned char const*, unsigned int, unsigned int)
PUBLIC 3b700 0 google_breakpad::DisassemblerX86::~DisassemblerX86()
PUBLIC 3b730 0 google_breakpad::DisassemblerX86::NextInstruction()
PUBLIC 3bbe0 0 google_breakpad::DisassemblerX86::setBadRead()
PUBLIC 3bc50 0 google_breakpad::DisassemblerX86::setBadWrite()
PUBLIC 3bcc0 0 google_breakpad::DumpContext::DumpContext()
PUBLIC 3bcf0 0 google_breakpad::DumpContext::GetContextCPU() const
PUBLIC 3bd00 0 google_breakpad::DumpContext::GetContextFlags() const
PUBLIC 3bd10 0 google_breakpad::DumpContext::GetContextX86() const
PUBLIC 3bdb0 0 google_breakpad::DumpContext::GetContextPPC() const
PUBLIC 3be50 0 google_breakpad::DumpContext::GetContextPPC64() const
PUBLIC 3bef0 0 google_breakpad::DumpContext::GetContextAMD64() const
PUBLIC 3bf90 0 google_breakpad::DumpContext::GetContextSPARC() const
PUBLIC 3c030 0 google_breakpad::DumpContext::GetContextARM() const
PUBLIC 3c0d0 0 google_breakpad::DumpContext::GetContextARM64() const
PUBLIC 3c170 0 google_breakpad::DumpContext::GetContextMIPS() const
PUBLIC 3c220 0 google_breakpad::DumpContext::GetInstructionPointer(unsigned long*) const
PUBLIC 3c4b0 0 google_breakpad::DumpContext::GetStackPointer(unsigned long*) const
PUBLIC 3c740 0 google_breakpad::DumpContext::SetContextFlags(unsigned int)
PUBLIC 3c750 0 google_breakpad::DumpContext::SetContextX86(MDRawContextX86*)
PUBLIC 3c760 0 google_breakpad::DumpContext::SetContextPPC(MDRawContextPPC*)
PUBLIC 3c770 0 google_breakpad::DumpContext::SetContextPPC64(MDRawContextPPC64*)
PUBLIC 3c780 0 google_breakpad::DumpContext::SetContextAMD64(MDRawContextAMD64*)
PUBLIC 3c790 0 google_breakpad::DumpContext::SetContextSPARC(MDRawContextSPARC*)
PUBLIC 3c7a0 0 google_breakpad::DumpContext::SetContextARM(MDRawContextARM*)
PUBLIC 3c7b0 0 google_breakpad::DumpContext::SetContextARM64(MDRawContextARM64*)
PUBLIC 3c7c0 0 google_breakpad::DumpContext::SetContextMIPS(MDRawContextMIPS*)
PUBLIC 3c7d0 0 google_breakpad::DumpContext::FreeContext()
PUBLIC 3c8f0 0 google_breakpad::DumpContext::~DumpContext()
PUBLIC 3c910 0 google_breakpad::DumpContext::~DumpContext()
PUBLIC 3c930 0 google_breakpad::DumpContext::Print()
PUBLIC 3daa0 0 google_breakpad::DumpObject::DumpObject()
PUBLIC 3dab0 0 google_breakpad::Exploitability::Exploitability(google_breakpad::Minidump*, google_breakpad::ProcessState*)
PUBLIC 3dad0 0 google_breakpad::Exploitability::CheckExploitability()
PUBLIC 3dae0 0 google_breakpad::Exploitability::ExploitabilityForPlatform(google_breakpad::Minidump*, google_breakpad::ProcessState*, bool)
PUBLIC 3dc50 0 google_breakpad::Exploitability::ExploitabilityForPlatform(google_breakpad::Minidump*, google_breakpad::ProcessState*)
PUBLIC 3dc60 0 google_breakpad::Exploitability::AddressIsAscii(unsigned long)
PUBLIC 3dc90 0 void std::__cxx11::basic_string<char, std::char_traits<char>, std::allocator<char> >::_M_construct<char const*>(char const*, char const*, std::forward_iterator_tag) [clone .isra.36]
PUBLIC 3dd60 0 google_breakpad::ExploitabilityLinux::ExploitabilityLinux(google_breakpad::Minidump*, google_breakpad::ProcessState*)
PUBLIC 3dd80 0 google_breakpad::ExploitabilityLinux::ExploitabilityLinux(google_breakpad::Minidump*, google_breakpad::ProcessState*, bool)
PUBLIC 3ddb0 0 google_breakpad::ExploitabilityLinux::CalculateAddress(std::__cxx11::basic_string<char, std::char_traits<char>, std::allocator<char> > const&, google_breakpad::DumpContext const&, unsigned long*)
PUBLIC 3e610 0 google_breakpad::ExploitabilityLinux::DisassembleBytes(std::__cxx11::basic_string<char, std::char_traits<char>, std::allocator<char> > const&, unsigned char const*, unsigned int, char*)
PUBLIC 3e920 0 google_breakpad::ExploitabilityLinux::StackPointerOffStack(unsigned long)
PUBLIC 3eac0 0 google_breakpad::ExploitabilityLinux::ExecutableStackOrHeap()
PUBLIC 3ed30 0 google_breakpad::ExploitabilityLinux::InstructionPointerInCode(unsigned long)
PUBLIC 3ed70 0 google_breakpad::ExploitabilityLinux::BenignCrashTrigger(MDRawExceptionStream const*)
PUBLIC 3edc0 0 google_breakpad::ExploitabilityLinux::GetObjdumpInstructionLine(char const*, std::__cxx11::basic_string<char, std::char_traits<char>, std::allocator<char> >*)
PUBLIC 3f340 0 google_breakpad::ExploitabilityLinux::TokenizeObjdumpInstruction(std::__cxx11::basic_string<char, std::char_traits<char>, std::allocator<char> > const&, std::__cxx11::basic_string<char, std::char_traits<char>, std::allocator<char> >*, std::__cxx11::basic_string<char, std::char_traits<char>, std::allocator<char> >*, std::__cxx11::basic_string<char, std::char_traits<char>, std::allocator<char> >*)
PUBLIC 404b0 0 google_breakpad::ExploitabilityLinux::EndedOnIllegalWrite(unsigned long)
PUBLIC 40b80 0 google_breakpad::ExploitabilityLinux::CheckPlatformExploitability()
PUBLIC 40ec0 0 std::ctype<char>::do_widen(char) const
PUBLIC 40ed0 0 google_breakpad::ExploitabilityLinux::~ExploitabilityLinux()
PUBLIC 40ee0 0 google_breakpad::ExploitabilityLinux::~ExploitabilityLinux()
PUBLIC 40ef0 0 google_breakpad::ExploitabilityWin::CheckPlatformExploitability()
PUBLIC 41590 0 google_breakpad::ExploitabilityWin::ExploitabilityWin(google_breakpad::Minidump*, google_breakpad::ProcessState*)
PUBLIC 415b0 0 google_breakpad::ExploitabilityWin::~ExploitabilityWin()
PUBLIC 415c0 0 google_breakpad::ExploitabilityWin::~ExploitabilityWin()
PUBLIC 415d0 0 google_breakpad::FastSourceLineResolver::ShouldDeleteMemoryBufferAfterLoadModule()
PUBLIC 415e0 0 google_breakpad::FastSourceLineResolver::Module::LoadMapFromMemory(char*, unsigned long)
PUBLIC 417c0 0 void std::__cxx11::basic_string<char, std::char_traits<char>, std::allocator<char> >::_M_construct<char const*>(char const*, char const*, std::forward_iterator_tag) [clone .isra.50]
PUBLIC 41890 0 google_breakpad::StaticMap<unsigned long, google_breakpad::StaticRangeMap<unsigned long, google_breakpad::FastSourceLineResolver::Function>::Range, google_breakpad::DefaultCompare<unsigned long> >::GetKeyAtIndex(int) const [clone .isra.28]
PUBLIC 41940 0 google_breakpad::FastSourceLineResolver::FastSourceLineResolver()
PUBLIC 41980 0 google_breakpad::FastSourceLineResolver::CopyWFI(char const*)
PUBLIC 41b00 0 google_breakpad::FastSourceLineResolver::Module::FindCFIFrameInfo(google_breakpad::StackFrame const*) const
PUBLIC 41f00 0 google_breakpad::FastSourceLineResolver::Module::LookupAddress(google_breakpad::StackFrame*) const
PUBLIC 42440 0 google_breakpad::FastSourceLineResolver::Module::FindWindowsFrameInfo(google_breakpad::StackFrame const*) const
PUBLIC 42840 0 google_breakpad::FastSourceLineResolver::Module::IsCorrupt() const
PUBLIC 42850 0 google_breakpad::FastModuleFactory::~FastModuleFactory()
PUBLIC 42860 0 google_breakpad::FastModuleFactory::~FastModuleFactory()
PUBLIC 42870 0 google_breakpad::FastSourceLineResolver::Module::~Module()
PUBLIC 428a0 0 google_breakpad::FastSourceLineResolver::Module::~Module()
PUBLIC 428e0 0 google_breakpad::FastSourceLineResolver::~FastSourceLineResolver()
PUBLIC 42900 0 google_breakpad::FastSourceLineResolver::~FastSourceLineResolver()
PUBLIC 42930 0 google_breakpad::FastModuleFactory::CreateModule(std::__cxx11::basic_string<char, std::char_traits<char>, std::allocator<char> > const&) const
PUBLIC 42a70 0 google_breakpad::scoped_ptr<google_breakpad::FastSourceLineResolver::Function>::~scoped_ptr()
PUBLIC 42ab0 0 google_breakpad::scoped_ptr<google_breakpad::FastSourceLineResolver::PublicSymbol>::~scoped_ptr()
PUBLIC 42af0 0 google_breakpad::StaticMap<int, char, google_breakpad::DefaultCompare<int> >::find(int const&) const
PUBLIC 42c60 0 google_breakpad::StaticAddressMap<unsigned long, google_breakpad::FastSourceLineResolver::PublicSymbol>::Retrieve(unsigned long const&, google_breakpad::FastSourceLineResolver::PublicSymbol const*&, unsigned long*) const
PUBLIC 42f20 0 google_breakpad::StaticContainedRangeMap<unsigned long, char>::RetrieveRange(unsigned long const&, char const*&) const
PUBLIC 43110 0 google_breakpad::StaticRangeMap<unsigned long, char>::RetrieveRange(unsigned long const&, char const*&, unsigned long*, unsigned long*) const
PUBLIC 432f0 0 google_breakpad::StaticMapIterator<unsigned long, google_breakpad::StaticRangeMap<unsigned long, google_breakpad::FastSourceLineResolver::Function>::Range, google_breakpad::DefaultCompare<unsigned long> >::GetValueRawPtr() const
PUBLIC 433a0 0 google_breakpad::StaticMapIterator<unsigned long, google_breakpad::StaticRangeMap<unsigned long, google_breakpad::FastSourceLineResolver::Function>::Range, google_breakpad::DefaultCompare<unsigned long> >::GetKeyPtr() const
PUBLIC 43450 0 google_breakpad::StaticRangeMap<unsigned long, google_breakpad::FastSourceLineResolver::Function>::RetrieveNearestRange(unsigned long const&, google_breakpad::FastSourceLineResolver::Function const*&, unsigned long*, unsigned long*) const
PUBLIC 43780 0 google_breakpad::LogStream::LogStream(std::ostream&, google_breakpad::LogStream::Severity, char const*, int)
PUBLIC 43a60 0 google_breakpad::LogStream::~LogStream()
PUBLIC 43ad0 0 google_breakpad::HexString[abi:cxx11](unsigned int)
PUBLIC 43bb0 0 google_breakpad::HexString[abi:cxx11](unsigned long)
PUBLIC 43cc0 0 google_breakpad::HexString[abi:cxx11](int)
PUBLIC 43dd0 0 google_breakpad::ErrnoString(std::__cxx11::basic_string<char, std::char_traits<char>, std::allocator<char> >*)
PUBLIC 43e10 0 google_breakpad::MicrodumpMemoryRegion::GetBase() const
PUBLIC 43e20 0 google_breakpad::MicrodumpMemoryRegion::GetSize() const
PUBLIC 43e30 0 google_breakpad::MicrodumpMemoryRegion::GetMemoryAtAddress(unsigned long, unsigned char*) const
PUBLIC 43e60 0 google_breakpad::MicrodumpMemoryRegion::GetMemoryAtAddress(unsigned long, unsigned short*) const
PUBLIC 43ea0 0 google_breakpad::MicrodumpMemoryRegion::GetMemoryAtAddress(unsigned long, unsigned int*) const
PUBLIC 43ef0 0 google_breakpad::MicrodumpMemoryRegion::GetMemoryAtAddress(unsigned long, unsigned long*) const
PUBLIC 43f40 0 google_breakpad::MicrodumpMemoryRegion::Print() const
PUBLIC 43f50 0 google_breakpad::MicrodumpContext::SetContextARM(MDRawContextARM*)
PUBLIC 43f80 0 google_breakpad::MicrodumpContext::SetContextARM64(MDRawContextARM64*)
PUBLIC 43fb0 0 google_breakpad::MicrodumpContext::SetContextX86(MDRawContextX86*)
PUBLIC 43fe0 0 google_breakpad::MicrodumpContext::SetContextMIPS(MDRawContextMIPS*)
PUBLIC 44010 0 google_breakpad::MicrodumpContext::SetContextMIPS64(MDRawContextMIPS*)
PUBLIC 44040 0 void std::__cxx11::basic_string<char, std::char_traits<char>, std::allocator<char> >::_M_construct<char const*>(char const*, char const*, std::forward_iterator_tag) [clone .isra.47]
PUBLIC 44110 0 (anonymous namespace)::GetLine(std::__cxx11::basic_istringstream<char, std::char_traits<char>, std::allocator<char> >*, std::__cxx11::basic_string<char, std::char_traits<char>, std::allocator<char> >*)
PUBLIC 441c0 0 google_breakpad::MicrodumpModules::SetEnableModuleShrink(bool)
PUBLIC 441d0 0 google_breakpad::MicrodumpMemoryRegion::MicrodumpMemoryRegion()
PUBLIC 44200 0 google_breakpad::MicrodumpMemoryRegion::Init(unsigned long, std::vector<unsigned char, std::allocator<unsigned char> > const&)
PUBLIC 44360 0 unsigned long (anonymous namespace)::HexStrToL<unsigned long>(std::__cxx11::basic_string<char, std::char_traits<char>, std::allocator<char> > const&)
PUBLIC 44660 0 unsigned char (anonymous namespace)::HexStrToL<unsigned char>(std::__cxx11::basic_string<char, std::char_traits<char>, std::allocator<char> > const&)
PUBLIC 44960 0 (anonymous namespace)::ParseHexBuf(std::__cxx11::basic_string<char, std::char_traits<char>, std::allocator<char> > const&)
PUBLIC 44bd0 0 google_breakpad::MicrodumpModules::Add(google_breakpad::CodeModule const*)
PUBLIC 44ec0 0 google_breakpad::Microdump::Microdump(std::__cxx11::basic_string<char, std::char_traits<char>, std::allocator<char> > const&)
PUBLIC 47890 0 google_breakpad::BasicCodeModule::base_address() const
PUBLIC 478a0 0 google_breakpad::BasicCodeModule::size() const
PUBLIC 478b0 0 google_breakpad::BasicCodeModule::shrink_down_delta() const
PUBLIC 478c0 0 google_breakpad::BasicCodeModule::SetShrinkDownDelta(unsigned long)
PUBLIC 478d0 0 google_breakpad::BasicCodeModule::is_unloaded() const
PUBLIC 478e0 0 google_breakpad::MicrodumpMemoryRegion::~MicrodumpMemoryRegion()
PUBLIC 47910 0 google_breakpad::BasicCodeModule::~BasicCodeModule()
PUBLIC 479a0 0 google_breakpad::MicrodumpMemoryRegion::~MicrodumpMemoryRegion()
PUBLIC 479d0 0 google_breakpad::MicrodumpModules::~MicrodumpModules()
PUBLIC 479f0 0 google_breakpad::MicrodumpModules::~MicrodumpModules()
PUBLIC 47a20 0 google_breakpad::MicrodumpContext::~MicrodumpContext()
PUBLIC 47a40 0 google_breakpad::MicrodumpContext::~MicrodumpContext()
PUBLIC 47a70 0 google_breakpad::BasicCodeModule::code_file[abi:cxx11]() const
PUBLIC 47aa0 0 google_breakpad::BasicCodeModule::version[abi:cxx11]() const
PUBLIC 47ad0 0 google_breakpad::BasicCodeModule::debug_identifier[abi:cxx11]() const
PUBLIC 47b00 0 google_breakpad::BasicCodeModule::debug_file[abi:cxx11]() const
PUBLIC 47b30 0 google_breakpad::BasicCodeModule::code_identifier[abi:cxx11]() const
PUBLIC 47b60 0 google_breakpad::BasicCodeModule::Copy() const
PUBLIC 47e70 0 google_breakpad::Microdump::~Microdump()
PUBLIC 47fe0 0 google_breakpad::BasicCodeModule::~BasicCodeModule()
PUBLIC 48070 0 google_breakpad::Microdump::~Microdump()
PUBLIC 481e0 0 google_breakpad::scoped_ptr<google_breakpad::SystemInfo>::~scoped_ptr()
PUBLIC 482b0 0 void std::vector<unsigned char, std::allocator<unsigned char> >::_M_range_insert<__gnu_cxx::__normal_iterator<unsigned char*, std::vector<unsigned char, std::allocator<unsigned char> > > >(__gnu_cxx::__normal_iterator<unsigned char*, std::vector<unsigned char, std::allocator<unsigned char> > >, __gnu_cxx::__normal_iterator<unsigned char*, std::vector<unsigned char, std::allocator<unsigned char> > >, __gnu_cxx::__normal_iterator<unsigned char*, std::vector<unsigned char, std::allocator<unsigned char> > >, std::forward_iterator_tag)
PUBLIC 48530 0 google_breakpad::MicrodumpProcessor::~MicrodumpProcessor()
PUBLIC 48540 0 google_breakpad::MicrodumpProcessor::~MicrodumpProcessor()
PUBLIC 48560 0 google_breakpad::MicrodumpProcessor::MicrodumpProcessor(google_breakpad::StackFrameSymbolizer*)
PUBLIC 48580 0 google_breakpad::MicrodumpProcessor::Process(google_breakpad::Microdump*, google_breakpad::ProcessState*)
PUBLIC 48aa0 0 void std::vector<google_breakpad::CallStack*, std::allocator<google_breakpad::CallStack*> >::_M_realloc_insert<google_breakpad::CallStack*>(__gnu_cxx::__normal_iterator<google_breakpad::CallStack**, std::vector<google_breakpad::CallStack*, std::allocator<google_breakpad::CallStack*> > >, google_breakpad::CallStack*&&)
PUBLIC 48bd0 0 void std::vector<google_breakpad::MemoryRegion*, std::allocator<google_breakpad::MemoryRegion*> >::_M_realloc_insert<google_breakpad::MemoryRegion*>(__gnu_cxx::__normal_iterator<google_breakpad::MemoryRegion**, std::vector<google_breakpad::MemoryRegion*, std::allocator<google_breakpad::MemoryRegion*> > >, google_breakpad::MemoryRegion*&&)
PUBLIC 48d00 0 google_breakpad::(anonymous namespace)::Swap(unsigned long*)
PUBLIC 48d10 0 google_breakpad::MinidumpThread::~MinidumpThread()
PUBLIC 48d50 0 google_breakpad::MinidumpUnloadedModule::shrink_down_delta() const
PUBLIC 48d60 0 google_breakpad::MinidumpUnloadedModule::SetShrinkDownDelta(unsigned long)
PUBLIC 48d70 0 google_breakpad::MinidumpModuleList::GetShrunkRangeModules() const
PUBLIC 48d90 0 non-virtual thunk to google_breakpad::MinidumpUnloadedModuleList::GetShrunkRangeModules() const
PUBLIC 48da0 0 non-virtual thunk to google_breakpad::MinidumpModuleList::GetShrunkRangeModules() const
PUBLIC 48db0 0 google_breakpad::MinidumpModuleList::IsModuleShrinkEnabled() const
PUBLIC 48dc0 0 non-virtual thunk to google_breakpad::MinidumpModuleList::IsModuleShrinkEnabled() const
PUBLIC 48dd0 0 google_breakpad::MinidumpException::~MinidumpException()
PUBLIC 48e00 0 covariant return thunk to google_breakpad::MinidumpUnloadedModuleList::GetMainModule() const
PUBLIC 48e10 0 google_breakpad::MinidumpUnloadedModuleList::IsModuleShrinkEnabled() const
PUBLIC 48e20 0 non-virtual thunk to google_breakpad::MinidumpUnloadedModuleList::IsModuleShrinkEnabled() const
PUBLIC 48e30 0 google_breakpad::get_stream_name(unsigned int)
PUBLIC 490c0 0 google_breakpad::MinidumpThread::~MinidumpThread()
PUBLIC 490e0 0 google_breakpad::MinidumpException::~MinidumpException()
PUBLIC 49100 0 google_breakpad::MinidumpContext::~MinidumpContext()
PUBLIC 49120 0 google_breakpad::MinidumpContext::~MinidumpContext()
PUBLIC 49140 0 google_breakpad::MinidumpUnloadedModule::Copy() const
PUBLIC 492c0 0 non-virtual thunk to google_breakpad::MinidumpUnloadedModule::Copy() const
PUBLIC 492d0 0 google_breakpad::MinidumpAssertion::~MinidumpAssertion()
PUBLIC 49340 0 google_breakpad::MinidumpAssertion::~MinidumpAssertion()
PUBLIC 49360 0 google_breakpad::MinidumpSystemInfo::~MinidumpSystemInfo()
PUBLIC 493e0 0 google_breakpad::MinidumpSystemInfo::~MinidumpSystemInfo()
PUBLIC 49400 0 google_breakpad::MinidumpUnloadedModule::~MinidumpUnloadedModule()
PUBLIC 49450 0 non-virtual thunk to google_breakpad::MinidumpUnloadedModule::~MinidumpUnloadedModule()
PUBLIC 49460 0 google_breakpad::MinidumpUnloadedModule::~MinidumpUnloadedModule()
PUBLIC 49480 0 non-virtual thunk to google_breakpad::MinidumpUnloadedModule::~MinidumpUnloadedModule()
PUBLIC 49490 0 google_breakpad::MinidumpMemoryRegion::~MinidumpMemoryRegion()
PUBLIC 494e0 0 non-virtual thunk to google_breakpad::MinidumpMemoryRegion::~MinidumpMemoryRegion()
PUBLIC 494f0 0 google_breakpad::MinidumpMemoryRegion::~MinidumpMemoryRegion()
PUBLIC 49510 0 non-virtual thunk to google_breakpad::MinidumpMemoryRegion::~MinidumpMemoryRegion()
PUBLIC 49520 0 google_breakpad::MinidumpModule::~MinidumpModule()
PUBLIC 495d0 0 non-virtual thunk to google_breakpad::MinidumpModule::~MinidumpModule()
PUBLIC 495e0 0 google_breakpad::MinidumpModule::~MinidumpModule()
PUBLIC 49600 0 non-virtual thunk to google_breakpad::MinidumpModule::~MinidumpModule()
PUBLIC 49610 0 google_breakpad::MinidumpModuleList::Copy() const
PUBLIC 49660 0 non-virtual thunk to google_breakpad::MinidumpModuleList::Copy() const
PUBLIC 49670 0 google_breakpad::MinidumpUnloadedModuleList::Copy() const
PUBLIC 496c0 0 non-virtual thunk to google_breakpad::MinidumpUnloadedModuleList::Copy() const
PUBLIC 496d0 0 google_breakpad::(anonymous namespace)::PrintValueOrInvalid(bool, google_breakpad::(anonymous namespace)::NumberFormat, unsigned int) [clone .part.2]
PUBLIC 496e0 0 google_breakpad::MinidumpLinuxMapsList::~MinidumpLinuxMapsList()
PUBLIC 49770 0 google_breakpad::MinidumpLinuxMapsList::~MinidumpLinuxMapsList()
PUBLIC 49790 0 covariant return thunk to google_breakpad::MinidumpUnloadedModuleList::GetMainModule() const
PUBLIC 497a0 0 non-virtual thunk to google_breakpad::MinidumpModule::shrink_down_delta() const
PUBLIC 497b0 0 non-virtual thunk to google_breakpad::MinidumpModule::SetShrinkDownDelta(unsigned long)
PUBLIC 497c0 0 non-virtual thunk to google_breakpad::MinidumpUnloadedModule::shrink_down_delta() const
PUBLIC 497d0 0 non-virtual thunk to google_breakpad::MinidumpUnloadedModule::SetShrinkDownDelta(unsigned long)
PUBLIC 497e0 0 void std::__cxx11::basic_string<char, std::char_traits<char>, std::allocator<char> >::_M_construct<char const*>(char const*, char const*, std::forward_iterator_tag) [clone .isra.143]
PUBLIC 498b0 0 google_breakpad::MinidumpUnloadedModule::debug_file[abi:cxx11]() const
PUBLIC 498d0 0 non-virtual thunk to google_breakpad::MinidumpUnloadedModule::version[abi:cxx11]() const
PUBLIC 498e0 0 non-virtual thunk to google_breakpad::MinidumpUnloadedModule::debug_identifier[abi:cxx11]() const
PUBLIC 498f0 0 non-virtual thunk to google_breakpad::MinidumpUnloadedModule::debug_file[abi:cxx11]() const
PUBLIC 49900 0 google_breakpad::(anonymous namespace)::MDGUIDToString(MDGUID const&)
PUBLIC 499f0 0 google_breakpad::guid_and_age_to_debug_id(MDGUID const&, unsigned int)
PUBLIC 49ae0 0 google_breakpad::(anonymous namespace)::TimeTToUTCString(long)
PUBLIC 49bc0 0 google_breakpad::MinidumpUnloadedModule::code_file[abi:cxx11]() const
PUBLIC 49c90 0 non-virtual thunk to google_breakpad::MinidumpUnloadedModule::code_file[abi:cxx11]() const
PUBLIC 49ca0 0 google_breakpad::MinidumpModule::code_file[abi:cxx11]() const
PUBLIC 49d70 0 non-virtual thunk to google_breakpad::MinidumpModule::code_file[abi:cxx11]() const
PUBLIC 49d80 0 google_breakpad::MinidumpThread::GetStartOfStackMemoryRange() const
PUBLIC 49e20 0 google_breakpad::MinidumpMemoryRegion::GetSize() const
PUBLIC 49ec0 0 non-virtual thunk to google_breakpad::MinidumpMemoryRegion::GetSize() const
PUBLIC 49ed0 0 google_breakpad::MinidumpMemoryRegion::GetBase() const
PUBLIC 49f80 0 non-virtual thunk to google_breakpad::MinidumpMemoryRegion::GetBase() const
PUBLIC 49f90 0 google_breakpad::MinidumpThread::GetThreadID(unsigned int*) const
PUBLIC 4a0a0 0 google_breakpad::MinidumpModuleList::GetMainModule() const
PUBLIC 4a140 0 google_breakpad::MinidumpThread::GetMemory()
PUBLIC 4a1e0 0 google_breakpad::MinidumpModule::version[abi:cxx11]() const
PUBLIC 4a460 0 non-virtual thunk to google_breakpad::MinidumpModule::version[abi:cxx11]() const
PUBLIC 4a470 0 google_breakpad::MinidumpThreadList::GetThreadAtIndex(unsigned int) const
PUBLIC 4a5a0 0 google_breakpad::MinidumpUnloadedModuleList::GetModuleAtIndex(unsigned int) const
PUBLIC 4a6d0 0 google_breakpad::MinidumpModuleList::GetModuleAtIndex(unsigned int) const
PUBLIC 4a800 0 google_breakpad::MinidumpModule::Copy() const
PUBLIC 4a980 0 non-virtual thunk to google_breakpad::MinidumpModule::Copy() const
PUBLIC 4a990 0 google_breakpad::MinidumpUnloadedModule::code_identifier[abi:cxx11]() const
PUBLIC 4ad80 0 non-virtual thunk to google_breakpad::MinidumpUnloadedModule::code_identifier[abi:cxx11]() const
PUBLIC 4ad90 0 google_breakpad::MinidumpModule::code_identifier[abi:cxx11]() const
PUBLIC 4b2b0 0 non-virtual thunk to google_breakpad::MinidumpModule::code_identifier[abi:cxx11]() const
PUBLIC 4b2c0 0 google_breakpad::MinidumpModule::debug_identifier[abi:cxx11]() const
PUBLIC 4b7f0 0 non-virtual thunk to google_breakpad::MinidumpModule::debug_identifier[abi:cxx11]() const
PUBLIC 4b800 0 google_breakpad::MinidumpObject::MinidumpObject(google_breakpad::Minidump*)
PUBLIC 4b830 0 google_breakpad::MinidumpStream::MinidumpStream(google_breakpad::Minidump*)
PUBLIC 4b850 0 google_breakpad::MinidumpContext::MinidumpContext(google_breakpad::Minidump*)
PUBLIC 4b880 0 google_breakpad::MinidumpContext::CheckAgainstSystemInfo(unsigned int)
PUBLIC 4bc30 0 google_breakpad::MinidumpMemoryRegion::MinidumpMemoryRegion(google_breakpad::Minidump*)
PUBLIC 4bca0 0 google_breakpad::MinidumpMemoryRegion::SetDescriptor(MDMemoryDescriptor*)
PUBLIC 4bcc0 0 google_breakpad::MinidumpMemoryRegion::FreeMemory()
PUBLIC 4bd00 0 google_breakpad::MinidumpMemoryRegion::SetPrintMode(bool, unsigned int)
PUBLIC 4bdc0 0 google_breakpad::MinidumpThread::MinidumpThread(google_breakpad::Minidump*)
PUBLIC 4be00 0 google_breakpad::MinidumpThread::Print()
PUBLIC 4c010 0 google_breakpad::MinidumpThreadList::MinidumpThreadList(google_breakpad::Minidump*)
PUBLIC 4c060 0 google_breakpad::MinidumpThreadList::Print()
PUBLIC 4c170 0 google_breakpad::MinidumpModule::MinidumpModule(google_breakpad::Minidump*)
PUBLIC 4c1e0 0 covariant return thunk to google_breakpad::MinidumpModuleList::GetMainModule() const
PUBLIC 4c200 0 covariant return thunk to google_breakpad::MinidumpModuleList::GetMainModule() const
PUBLIC 4c210 0 covariant return thunk to google_breakpad::MinidumpModuleList::GetModuleAtIndex(unsigned int) const
PUBLIC 4c230 0 covariant return thunk to google_breakpad::MinidumpModuleList::GetModuleAtIndex(unsigned int) const
PUBLIC 4c240 0 google_breakpad::MinidumpMemoryList::MinidumpMemoryList(google_breakpad::Minidump*)
PUBLIC 4c2b0 0 google_breakpad::MinidumpMemoryList::GetMemoryRegionAtIndex(unsigned int)
PUBLIC 4c3e0 0 google_breakpad::MinidumpMemoryList::Print()
PUBLIC 4c590 0 google_breakpad::MinidumpException::MinidumpException(google_breakpad::Minidump*)
PUBLIC 4c5d0 0 google_breakpad::MinidumpException::GetThreadID(unsigned int*) const
PUBLIC 4c6e0 0 google_breakpad::MinidumpAssertion::MinidumpAssertion(google_breakpad::Minidump*)
PUBLIC 4c770 0 google_breakpad::MinidumpAssertion::Print()
PUBLIC 4c8b0 0 google_breakpad::MinidumpSystemInfo::MinidumpSystemInfo(google_breakpad::Minidump*)
PUBLIC 4c900 0 google_breakpad::MinidumpSystemInfo::GetOS[abi:cxx11]()
PUBLIC 4cbc0 0 google_breakpad::MinidumpSystemInfo::GetCPU[abi:cxx11]()
PUBLIC 4cf10 0 google_breakpad::MinidumpSystemInfo::GetCPUVendor[abi:cxx11]()
PUBLIC 4d0a0 0 google_breakpad::MinidumpUnloadedModule::MinidumpUnloadedModule(google_breakpad::Minidump*)
PUBLIC 4d0f0 0 google_breakpad::MinidumpUnloadedModuleList::MinidumpUnloadedModuleList(google_breakpad::Minidump*)
PUBLIC 4d160 0 covariant return thunk to google_breakpad::MinidumpUnloadedModuleList::GetModuleAtIndex(unsigned int) const
PUBLIC 4d180 0 covariant return thunk to google_breakpad::MinidumpUnloadedModuleList::GetModuleAtIndex(unsigned int) const
PUBLIC 4d190 0 google_breakpad::MinidumpMiscInfo::MinidumpMiscInfo(google_breakpad::Minidump*)
PUBLIC 4d240 0 google_breakpad::MinidumpMiscInfo::Print()
PUBLIC 4da10 0 google_breakpad::MinidumpBreakpadInfo::MinidumpBreakpadInfo(google_breakpad::Minidump*)
PUBLIC 4da40 0 google_breakpad::MinidumpBreakpadInfo::GetDumpThreadID(unsigned int*) const
PUBLIC 4dbb0 0 google_breakpad::MinidumpBreakpadInfo::GetRequestingThreadID(unsigned int*) const
PUBLIC 4dd20 0 google_breakpad::MinidumpBreakpadInfo::Print()
PUBLIC 4de60 0 google_breakpad::MinidumpMemoryInfo::MinidumpMemoryInfo(google_breakpad::Minidump*)
PUBLIC 4de90 0 google_breakpad::MinidumpMemoryInfo::IsExecutable() const
PUBLIC 4deb0 0 google_breakpad::MinidumpMemoryInfo::IsWritable() const
PUBLIC 4ded0 0 google_breakpad::MinidumpMemoryInfo::Print()
PUBLIC 4e020 0 google_breakpad::MinidumpMemoryInfoList::MinidumpMemoryInfoList(google_breakpad::Minidump*)
PUBLIC 4e080 0 google_breakpad::MinidumpMemoryInfoList::GetMemoryInfoAtIndex(unsigned int) const
PUBLIC 4e1b0 0 google_breakpad::MinidumpMemoryInfoList::Print()
PUBLIC 4e2d0 0 google_breakpad::MinidumpLinuxMaps::MinidumpLinuxMaps(google_breakpad::Minidump*)
PUBLIC 4e320 0 google_breakpad::MinidumpLinuxMaps::Print() const
PUBLIC 4e430 0 google_breakpad::MinidumpLinuxMapsList::MinidumpLinuxMapsList(google_breakpad::Minidump*)
PUBLIC 4e460 0 google_breakpad::MinidumpLinuxMapsList::GetLinuxMapsForAddress(unsigned long) const
PUBLIC 4e5f0 0 google_breakpad::MinidumpLinuxMapsList::GetLinuxMapsAtIndex(unsigned int) const
PUBLIC 4e720 0 google_breakpad::MinidumpLinuxMapsList::Print() const
PUBLIC 4e7f0 0 google_breakpad::MinidumpCrashpadInfo::MinidumpCrashpadInfo(google_breakpad::Minidump*)
PUBLIC 4e8d0 0 google_breakpad::MinidumpCrashpadInfo::Print()
PUBLIC 4ebd0 0 google_breakpad::Minidump::Minidump(std::__cxx11::basic_string<char, std::char_traits<char>, std::allocator<char> > const&, bool, unsigned int)
PUBLIC 4ec80 0 google_breakpad::Minidump::Minidump(std::istream&)
PUBLIC 4ed20 0 google_breakpad::Minidump::Print()
PUBLIC 4efe0 0 google_breakpad::Minidump::GetDirectoryEntryAtIndex(unsigned int) const
PUBLIC 4f110 0 google_breakpad::Minidump::ReadBytes(void*, unsigned long)
PUBLIC 4f310 0 google_breakpad::MinidumpException::Read(unsigned int)
PUBLIC 4f520 0 google_breakpad::MinidumpBreakpadInfo::Read(unsigned int)
PUBLIC 4f690 0 google_breakpad::MinidumpThread::Read()
PUBLIC 4f9e0 0 google_breakpad::MinidumpSystemInfo::Read(unsigned int)
PUBLIC 4fc50 0 google_breakpad::MinidumpMemoryInfo::Read()
PUBLIC 4fec0 0 google_breakpad::MinidumpModule::Read()
PUBLIC 50230 0 google_breakpad::Minidump::SeekSet(long)
PUBLIC 50390 0 google_breakpad::Minidump::Open()
PUBLIC 50760 0 google_breakpad::Minidump::Tell()
PUBLIC 507b0 0 google_breakpad::Minidump::GetContextCPUFlagsFromSystemInfo(unsigned int*)
PUBLIC 50930 0 google_breakpad::MinidumpContext::Read(unsigned int)
PUBLIC 52b40 0 google_breakpad::MinidumpThread::GetContext()
PUBLIC 52d20 0 google_breakpad::MinidumpException::GetContext()
PUBLIC 52f10 0 google_breakpad::MinidumpException::Print()
PUBLIC 53100 0 google_breakpad::Minidump::IsAndroid()
PUBLIC 53200 0 google_breakpad::MinidumpModuleList::MinidumpModuleList(google_breakpad::Minidump*)
PUBLIC 53280 0 google_breakpad::MinidumpUnloadedModule::Read(unsigned int)
PUBLIC 53600 0 google_breakpad::Minidump::ReadUTF8String(long, std::__cxx11::basic_string<char, std::char_traits<char>, std::allocator<char> >*)
PUBLIC 538e0 0 google_breakpad::Minidump::SeekToStreamType(unsigned int, unsigned int*)
PUBLIC 53bd0 0 google_breakpad::(anonymous namespace)::UTF16ToUTF8(std::vector<unsigned short, std::allocator<unsigned short> > const&, bool)
PUBLIC 54300 0 google_breakpad::Minidump::ReadString[abi:cxx11](long)
PUBLIC 54710 0 google_breakpad::MinidumpSystemInfo::GetCSDVersion[abi:cxx11]()
PUBLIC 54830 0 google_breakpad::MinidumpSystemInfo::Print()
PUBLIC 54b50 0 google_breakpad::MinidumpUnloadedModule::ReadAuxiliaryData()
PUBLIC 54c60 0 google_breakpad::MinidumpModule::debug_file[abi:cxx11]() const
PUBLIC 55110 0 non-virtual thunk to google_breakpad::MinidumpModule::debug_file[abi:cxx11]() const
PUBLIC 55120 0 google_breakpad::(anonymous namespace)::ConvertUTF16BufferToUTF8String(unsigned short const*, unsigned long, std::__cxx11::basic_string<char, std::char_traits<char>, std::allocator<char> >*, bool)
PUBLIC 55290 0 google_breakpad::MinidumpAssertion::Read(unsigned int)
PUBLIC 55490 0 google_breakpad::MinidumpMiscInfo::Read(unsigned int)
PUBLIC 55b30 0 google_breakpad::MinidumpMemoryRegion::GetMemory() const
PUBLIC 55e90 0 google_breakpad::MinidumpMemoryRegion::Print() const
PUBLIC 560f0 0 non-virtual thunk to google_breakpad::MinidumpMemoryRegion::Print() const
PUBLIC 56100 0 google_breakpad::MinidumpModule::GetCVRecord(unsigned int*)
PUBLIC 56680 0 google_breakpad::MinidumpModule::GetMiscRecord(unsigned int*)
PUBLIC 56b10 0 google_breakpad::MinidumpModule::ReadAuxiliaryData()
PUBLIC 56ce0 0 google_breakpad::MinidumpModule::Print()
PUBLIC 57410 0 google_breakpad::MinidumpModuleList::Print()
PUBLIC 57520 0 google_breakpad::MinidumpMemoryRegion::GetMemoryAtAddress(unsigned long, unsigned char*) const
PUBLIC 57530 0 non-virtual thunk to google_breakpad::MinidumpMemoryRegion::GetMemoryAtAddress(unsigned long, unsigned char*) const
PUBLIC 57540 0 google_breakpad::MinidumpMemoryRegion::GetMemoryAtAddress(unsigned long, unsigned short*) const
PUBLIC 57550 0 non-virtual thunk to google_breakpad::MinidumpMemoryRegion::GetMemoryAtAddress(unsigned long, unsigned short*) const
PUBLIC 57560 0 google_breakpad::MinidumpMemoryRegion::GetMemoryAtAddress(unsigned long, unsigned int*) const
PUBLIC 57570 0 non-virtual thunk to google_breakpad::MinidumpMemoryRegion::GetMemoryAtAddress(unsigned long, unsigned int*) const
PUBLIC 57580 0 google_breakpad::MinidumpMemoryRegion::GetMemoryAtAddress(unsigned long, unsigned long*) const
PUBLIC 57590 0 non-virtual thunk to google_breakpad::MinidumpMemoryRegion::GetMemoryAtAddress(unsigned long, unsigned long*) const
PUBLIC 575a0 0 google_breakpad::MinidumpModuleList::GetModuleForAddress(unsigned long) const
PUBLIC 57720 0 covariant return thunk to google_breakpad::MinidumpModuleList::GetModuleForAddress(unsigned long) const
PUBLIC 57740 0 covariant return thunk to google_breakpad::MinidumpModuleList::GetModuleForAddress(unsigned long) const
PUBLIC 57750 0 google_breakpad::MinidumpMemoryList::GetMemoryRegionForAddress(unsigned long)
PUBLIC 578d0 0 google_breakpad::MinidumpUnloadedModuleList::GetModuleForAddress(unsigned long) const
PUBLIC 57a50 0 covariant return thunk to google_breakpad::MinidumpUnloadedModuleList::GetModuleForAddress(unsigned long) const
PUBLIC 57a70 0 covariant return thunk to google_breakpad::MinidumpUnloadedModuleList::GetModuleForAddress(unsigned long) const
PUBLIC 57a80 0 google_breakpad::MinidumpMemoryInfoList::GetMemoryInfoForAddress(unsigned long) const
PUBLIC 57c00 0 google_breakpad::MinidumpModuleList::GetModuleAtSequence(unsigned int) const
PUBLIC 57db0 0 covariant return thunk to google_breakpad::MinidumpModuleList::GetModuleAtSequence(unsigned int) const
PUBLIC 57dd0 0 covariant return thunk to google_breakpad::MinidumpModuleList::GetModuleAtSequence(unsigned int) const
PUBLIC 57de0 0 google_breakpad::MinidumpUnloadedModuleList::GetModuleAtSequence(unsigned int) const
PUBLIC 57f90 0 covariant return thunk to google_breakpad::MinidumpUnloadedModuleList::GetModuleAtSequence(unsigned int) const
PUBLIC 57fb0 0 covariant return thunk to google_breakpad::MinidumpUnloadedModuleList::GetModuleAtSequence(unsigned int) const
PUBLIC 57fc0 0 google_breakpad::Minidump::GetException()
PUBLIC 58000 0 google_breakpad::Minidump::GetAssertion()
PUBLIC 58040 0 google_breakpad::Minidump::GetSystemInfo()
PUBLIC 58080 0 google_breakpad::Minidump::GetMiscInfo()
PUBLIC 580c0 0 google_breakpad::Minidump::GetBreakpadInfo()
PUBLIC 58100 0 google_breakpad::MinidumpThreadList::~MinidumpThreadList()
PUBLIC 581c0 0 google_breakpad::MinidumpThreadList::~MinidumpThreadList()
PUBLIC 581e0 0 google_breakpad::MinidumpModuleList::~MinidumpModuleList()
PUBLIC 582c0 0 non-virtual thunk to google_breakpad::MinidumpModuleList::~MinidumpModuleList()
PUBLIC 582d0 0 google_breakpad::MinidumpModuleList::~MinidumpModuleList()
PUBLIC 582f0 0 non-virtual thunk to google_breakpad::MinidumpModuleList::~MinidumpModuleList()
PUBLIC 58300 0 google_breakpad::MinidumpMemoryList::~MinidumpMemoryList()
PUBLIC 583f0 0 google_breakpad::MinidumpMemoryList::~MinidumpMemoryList()
PUBLIC 58410 0 google_breakpad::MinidumpUnloadedModuleList::~MinidumpUnloadedModuleList()
PUBLIC 584c0 0 non-virtual thunk to google_breakpad::MinidumpUnloadedModuleList::~MinidumpUnloadedModuleList()
PUBLIC 584d0 0 google_breakpad::MinidumpUnloadedModuleList::~MinidumpUnloadedModuleList()
PUBLIC 584f0 0 non-virtual thunk to google_breakpad::MinidumpUnloadedModuleList::~MinidumpUnloadedModuleList()
PUBLIC 58500 0 google_breakpad::MinidumpMemoryInfoList::~MinidumpMemoryInfoList()
PUBLIC 585a0 0 google_breakpad::MinidumpMemoryInfoList::~MinidumpMemoryInfoList()
PUBLIC 585c0 0 google_breakpad::Minidump::~Minidump()
PUBLIC 586c0 0 google_breakpad::Minidump::~Minidump()
PUBLIC 586e0 0 google_breakpad::Minidump::ReadStringList(long, std::vector<std::__cxx11::basic_string<char, std::char_traits<char>, std::allocator<char> >, std::allocator<std::__cxx11::basic_string<char, std::char_traits<char>, std::allocator<char> > > >*)
PUBLIC 58a80 0 google_breakpad::Minidump::ReadSimpleStringDictionary(long, std::map<std::__cxx11::basic_string<char, std::char_traits<char>, std::allocator<char> >, std::__cxx11::basic_string<char, std::char_traits<char>, std::allocator<char> >, std::less<std::__cxx11::basic_string<char, std::char_traits<char>, std::allocator<char> > >, std::allocator<std::pair<std::__cxx11::basic_string<char, std::char_traits<char>, std::allocator<char> > const, std::__cxx11::basic_string<char, std::char_traits<char>, std::allocator<char> > > > >*)
PUBLIC 591a0 0 google_breakpad::MinidumpLinuxMapsList::Read(unsigned int)
PUBLIC 597f0 0 google_breakpad::Minidump::GetLinuxMapsList()
PUBLIC 59830 0 std::_Rb_tree_iterator<std::pair<unsigned int const, google_breakpad::MinidumpThread*> > std::_Rb_tree<unsigned int, std::pair<unsigned int const, google_breakpad::MinidumpThread*>, std::_Select1st<std::pair<unsigned int const, google_breakpad::MinidumpThread*> >, std::less<unsigned int>, std::allocator<std::pair<unsigned int const, google_breakpad::MinidumpThread*> > >::_M_emplace_hint_unique<std::piecewise_construct_t const&, std::tuple<unsigned int const&>, std::tuple<> >(std::_Rb_tree_const_iterator<std::pair<unsigned int const, google_breakpad::MinidumpThread*> >, std::piecewise_construct_t const&, std::tuple<unsigned int const&>&&, std::tuple<>&&) [clone .isra.385]
PUBLIC 598e0 0 google_breakpad::MinidumpThreadList::GetThreadByID(unsigned int)
PUBLIC 59980 0 google_breakpad::MinidumpThreadList::Read(unsigned int)
PUBLIC 5a2c0 0 google_breakpad::Minidump::GetThreadList()
PUBLIC 5a300 0 google_breakpad::MinidumpModuleList::StoreRange(google_breakpad::MinidumpModule const&, unsigned long, unsigned int, unsigned int, bool)
PUBLIC 5a6a0 0 google_breakpad::MinidumpModuleList::Read(unsigned int)
PUBLIC 5b7b0 0 google_breakpad::Minidump::GetModuleList()
PUBLIC 5b7f0 0 google_breakpad::MinidumpMemoryList::Read(unsigned int)
PUBLIC 5c310 0 google_breakpad::Minidump::GetMemoryList()
PUBLIC 5c350 0 google_breakpad::MinidumpUnloadedModuleList::Read(unsigned int)
PUBLIC 5cb80 0 google_breakpad::Minidump::GetUnloadedModuleList()
PUBLIC 5cbc0 0 google_breakpad::MinidumpMemoryInfoList::Read(unsigned int)
PUBLIC 5d400 0 google_breakpad::Minidump::GetMemoryInfoList()
PUBLIC 5d440 0 google_breakpad::Minidump::Read()
PUBLIC 5de10 0 google_breakpad::MinidumpCrashpadInfo::Read(unsigned int)
PUBLIC 5e8e0 0 google_breakpad::Minidump::GetCrashpadInfo()
PUBLIC 5e920 0 google_breakpad::MinidumpObject::~MinidumpObject()
PUBLIC 5e930 0 google_breakpad::MinidumpThreadList::thread_count() const
PUBLIC 5e940 0 google_breakpad::MinidumpModule::base_address() const
PUBLIC 5e960 0 non-virtual thunk to google_breakpad::MinidumpModule::base_address() const
PUBLIC 5e980 0 google_breakpad::MinidumpModule::size() const
PUBLIC 5e990 0 non-virtual thunk to google_breakpad::MinidumpModule::size() const
PUBLIC 5e9a0 0 google_breakpad::MinidumpModule::is_unloaded() const
PUBLIC 5e9b0 0 non-virtual thunk to google_breakpad::MinidumpModule::is_unloaded() const
PUBLIC 5e9c0 0 google_breakpad::MinidumpModuleList::module_count() const
PUBLIC 5e9d0 0 non-virtual thunk to google_breakpad::MinidumpModuleList::module_count() const
PUBLIC 5e9e0 0 google_breakpad::MinidumpUnloadedModule::base_address() const
PUBLIC 5e9f0 0 non-virtual thunk to google_breakpad::MinidumpUnloadedModule::base_address() const
PUBLIC 5ea00 0 google_breakpad::MinidumpUnloadedModule::size() const
PUBLIC 5ea10 0 non-virtual thunk to google_breakpad::MinidumpUnloadedModule::size() const
PUBLIC 5ea20 0 google_breakpad::MinidumpUnloadedModule::is_unloaded() const
PUBLIC 5ea30 0 non-virtual thunk to google_breakpad::MinidumpUnloadedModule::is_unloaded() const
PUBLIC 5ea40 0 google_breakpad::MinidumpUnloadedModuleList::module_count() const
PUBLIC 5ea50 0 non-virtual thunk to google_breakpad::MinidumpUnloadedModuleList::module_count() const
PUBLIC 5ea60 0 google_breakpad::Minidump::header() const
PUBLIC 5ea80 0 google_breakpad::MinidumpBreakpadInfo::~MinidumpBreakpadInfo()
PUBLIC 5ea90 0 google_breakpad::MinidumpMemoryInfo::~MinidumpMemoryInfo()
PUBLIC 5eaa0 0 google_breakpad::MinidumpObject::~MinidumpObject()
PUBLIC 5eab0 0 google_breakpad::MinidumpMemoryInfo::~MinidumpMemoryInfo()
PUBLIC 5eac0 0 google_breakpad::MinidumpBreakpadInfo::~MinidumpBreakpadInfo()
PUBLIC 5ead0 0 google_breakpad::MinidumpLinuxMaps::~MinidumpLinuxMaps()
PUBLIC 5eb20 0 google_breakpad::MinidumpMiscInfo::~MinidumpMiscInfo()
PUBLIC 5eba0 0 google_breakpad::Minidump::path[abi:cxx11]() const
PUBLIC 5ebd0 0 google_breakpad::MinidumpLinuxMaps::~MinidumpLinuxMaps()
PUBLIC 5ec20 0 google_breakpad::MinidumpMiscInfo::~MinidumpMiscInfo()
PUBLIC 5eca0 0 google_breakpad::scoped_ptr<std::__cxx11::basic_string<char, std::char_traits<char>, std::allocator<char> > >::~scoped_ptr()
PUBLIC 5ece0 0 google_breakpad::scoped_ptr<std::vector<unsigned char, std::allocator<unsigned char> > >::~scoped_ptr()
PUBLIC 5ed10 0 bool google_breakpad::MinidumpMemoryRegion::GetMemoryAtAddressInternal<unsigned char>(unsigned long, unsigned char*) const
PUBLIC 5f030 0 bool google_breakpad::MinidumpMemoryRegion::GetMemoryAtAddressInternal<unsigned short>(unsigned long, unsigned short*) const
PUBLIC 5f360 0 bool google_breakpad::MinidumpMemoryRegion::GetMemoryAtAddressInternal<unsigned int>(unsigned long, unsigned int*) const
PUBLIC 5f690 0 bool google_breakpad::MinidumpMemoryRegion::GetMemoryAtAddressInternal<unsigned long>(unsigned long, unsigned long*) const
PUBLIC 5f9d0 0 google_breakpad::RangeMap<unsigned long, unsigned int>::RetrieveRange(unsigned long const&, unsigned int*, unsigned long*, unsigned long*, unsigned long*) const
PUBLIC 5fb30 0 google_breakpad::RangeMap<unsigned long, unsigned int>::RetrieveRangeAtIndex(int, unsigned int*, unsigned long*, unsigned long*, unsigned long*) const
PUBLIC 5fce0 0 google_breakpad::MinidumpException* google_breakpad::Minidump::GetStream<google_breakpad::MinidumpException>(google_breakpad::MinidumpException**)
PUBLIC 60020 0 google_breakpad::MinidumpAssertion* google_breakpad::Minidump::GetStream<google_breakpad::MinidumpAssertion>(google_breakpad::MinidumpAssertion**)
PUBLIC 60360 0 google_breakpad::MinidumpSystemInfo* google_breakpad::Minidump::GetStream<google_breakpad::MinidumpSystemInfo>(google_breakpad::MinidumpSystemInfo**)
PUBLIC 606a0 0 google_breakpad::MinidumpMiscInfo* google_breakpad::Minidump::GetStream<google_breakpad::MinidumpMiscInfo>(google_breakpad::MinidumpMiscInfo**)
PUBLIC 609e0 0 google_breakpad::MinidumpBreakpadInfo* google_breakpad::Minidump::GetStream<google_breakpad::MinidumpBreakpadInfo>(google_breakpad::MinidumpBreakpadInfo**)
PUBLIC 60d20 0 std::_Rb_tree<unsigned int, std::pair<unsigned int const, google_breakpad::MinidumpThread*>, std::_Select1st<std::pair<unsigned int const, google_breakpad::MinidumpThread*> >, std::less<unsigned int>, std::allocator<std::pair<unsigned int const, google_breakpad::MinidumpThread*> > >::_M_erase(std::_Rb_tree_node<std::pair<unsigned int const, google_breakpad::MinidumpThread*> >*)
PUBLIC 60d60 0 std::_Rb_tree<unsigned long, std::pair<unsigned long const, google_breakpad::RangeMap<unsigned long, unsigned int>::Range>, std::_Select1st<std::pair<unsigned long const, google_breakpad::RangeMap<unsigned long, unsigned int>::Range> >, std::less<unsigned long>, std::allocator<std::pair<unsigned long const, google_breakpad::RangeMap<unsigned long, unsigned int>::Range> > >::_M_erase(std::_Rb_tree_node<std::pair<unsigned long const, google_breakpad::RangeMap<unsigned long, unsigned int>::Range> >*)
PUBLIC 60da0 0 google_breakpad::MinidumpCrashpadInfo::~MinidumpCrashpadInfo()
PUBLIC 60f10 0 google_breakpad::MinidumpCrashpadInfo::~MinidumpCrashpadInfo()
PUBLIC 61080 0 void std::vector<unsigned int, std::allocator<unsigned int> >::_M_realloc_insert<unsigned int const&>(__gnu_cxx::__normal_iterator<unsigned int*, std::vector<unsigned int, std::allocator<unsigned int> > >, unsigned int const&)
PUBLIC 611b0 0 void std::vector<MDRawModuleCrashpadInfo, std::allocator<MDRawModuleCrashpadInfo> >::_M_realloc_insert<MDRawModuleCrashpadInfo const&>(__gnu_cxx::__normal_iterator<MDRawModuleCrashpadInfo*, std::vector<MDRawModuleCrashpadInfo, std::allocator<MDRawModuleCrashpadInfo> > >, MDRawModuleCrashpadInfo const&)
PUBLIC 612f0 0 void std::vector<std::vector<std::__cxx11::basic_string<char, std::char_traits<char>, std::allocator<char> >, std::allocator<std::__cxx11::basic_string<char, std::char_traits<char>, std::allocator<char> > > >, std::allocator<std::vector<std::__cxx11::basic_string<char, std::char_traits<char>, std::allocator<char> >, std::allocator<std::__cxx11::basic_string<char, std::char_traits<char>, std::allocator<char> > > > > >::_M_realloc_insert<std::vector<std::__cxx11::basic_string<char, std::char_traits<char>, std::allocator<char> >, std::allocator<std::__cxx11::basic_string<char, std::char_traits<char>, std::allocator<char> > > > const&>(__gnu_cxx::__normal_iterator<std::vector<std::__cxx11::basic_string<char, std::char_traits<char>, std::allocator<char> >, std::allocator<std::__cxx11::basic_string<char, std::char_traits<char>, std::allocator<char> > > >*, std::vector<std::vector<std::__cxx11::basic_string<char, std::char_traits<char>, std::allocator<char> >, std::allocator<std::__cxx11::basic_string<char, std::char_traits<char>, std::allocator<char> > > >, std::allocator<std::vector<std::__cxx11::basic_string<char, std::char_traits<char>, std::allocator<char> >, std::allocator<std::__cxx11::basic_string<char, std::char_traits<char>, std::allocator<char> > > > > > >, std::vector<std::__cxx11::basic_string<char, std::char_traits<char>, std::allocator<char> >, std::allocator<std::__cxx11::basic_string<char, std::char_traits<char>, std::allocator<char> > > > const&)
PUBLIC 61710 0 std::_Rb_tree<unsigned int, std::pair<unsigned int const, google_breakpad::Minidump::MinidumpStreamInfo>, std::_Select1st<std::pair<unsigned int const, google_breakpad::Minidump::MinidumpStreamInfo> >, std::less<unsigned int>, std::allocator<std::pair<unsigned int const, google_breakpad::Minidump::MinidumpStreamInfo> > >::_M_erase(std::_Rb_tree_node<std::pair<unsigned int const, google_breakpad::Minidump::MinidumpStreamInfo> >*)
PUBLIC 61760 0 std::pair<std::_Rb_tree_iterator<std::pair<std::__cxx11::basic_string<char, std::char_traits<char>, std::allocator<char> > const, std::__cxx11::basic_string<char, std::char_traits<char>, std::allocator<char> > > >, bool> std::_Rb_tree<std::__cxx11::basic_string<char, std::char_traits<char>, std::allocator<char> >, std::pair<std::__cxx11::basic_string<char, std::char_traits<char>, std::allocator<char> > const, std::__cxx11::basic_string<char, std::char_traits<char>, std::allocator<char> > >, std::_Select1st<std::pair<std::__cxx11::basic_string<char, std::char_traits<char>, std::allocator<char> > const, std::__cxx11::basic_string<char, std::char_traits<char>, std::allocator<char> > > >, std::less<std::__cxx11::basic_string<char, std::char_traits<char>, std::allocator<char> > >, std::allocator<std::pair<std::__cxx11::basic_string<char, std::char_traits<char>, std::allocator<char> > const, std::__cxx11::basic_string<char, std::char_traits<char>, std::allocator<char> > > > >::_M_emplace_unique<std::pair<std::__cxx11::basic_string<char, std::char_traits<char>, std::allocator<char> >, std::__cxx11::basic_string<char, std::char_traits<char>, std::allocator<char> > > >(std::pair<std::__cxx11::basic_string<char, std::char_traits<char>, std::allocator<char> >, std::__cxx11::basic_string<char, std::char_traits<char>, std::allocator<char> > >&&)
PUBLIC 61a80 0 void std::vector<google_breakpad::MinidumpLinuxMaps*, std::allocator<google_breakpad::MinidumpLinuxMaps*> >::_M_realloc_insert<google_breakpad::MinidumpLinuxMaps*>(__gnu_cxx::__normal_iterator<google_breakpad::MinidumpLinuxMaps**, std::vector<google_breakpad::MinidumpLinuxMaps*, std::allocator<google_breakpad::MinidumpLinuxMaps*> > >, google_breakpad::MinidumpLinuxMaps*&&)
PUBLIC 61bb0 0 google_breakpad::MinidumpLinuxMapsList* google_breakpad::Minidump::GetStream<google_breakpad::MinidumpLinuxMapsList>(google_breakpad::MinidumpLinuxMapsList**)
PUBLIC 61ef0 0 std::_Rb_tree<unsigned int, std::pair<unsigned int const, google_breakpad::MinidumpThread*>, std::_Select1st<std::pair<unsigned int const, google_breakpad::MinidumpThread*> >, std::less<unsigned int>, std::allocator<std::pair<unsigned int const, google_breakpad::MinidumpThread*> > >::_M_get_insert_unique_pos(unsigned int const&)
PUBLIC 61f80 0 std::_Rb_tree<unsigned int, std::pair<unsigned int const, google_breakpad::MinidumpThread*>, std::_Select1st<std::pair<unsigned int const, google_breakpad::MinidumpThread*> >, std::less<unsigned int>, std::allocator<std::pair<unsigned int const, google_breakpad::MinidumpThread*> > >::_M_get_insert_hint_unique_pos(std::_Rb_tree_const_iterator<std::pair<unsigned int const, google_breakpad::MinidumpThread*> >, unsigned int const&)
PUBLIC 62060 0 google_breakpad::MinidumpThreadList* google_breakpad::Minidump::GetStream<google_breakpad::MinidumpThreadList>(google_breakpad::MinidumpThreadList**)
PUBLIC 623a0 0 std::pair<std::_Rb_tree_iterator<std::pair<unsigned long const, google_breakpad::RangeMap<unsigned long, unsigned int>::Range> >, bool> std::_Rb_tree<unsigned long, std::pair<unsigned long const, google_breakpad::RangeMap<unsigned long, unsigned int>::Range>, std::_Select1st<std::pair<unsigned long const, google_breakpad::RangeMap<unsigned long, unsigned int>::Range> >, std::less<unsigned long>, std::allocator<std::pair<unsigned long const, google_breakpad::RangeMap<unsigned long, unsigned int>::Range> > >::_M_insert_unique<std::pair<unsigned long const, google_breakpad::RangeMap<unsigned long, unsigned int>::Range> >(std::pair<unsigned long const, google_breakpad::RangeMap<unsigned long, unsigned int>::Range>&&)
PUBLIC 624c0 0 google_breakpad::RangeMap<unsigned long, unsigned int>::StoreRangeInternal(unsigned long const&, unsigned long const&, unsigned long const&, unsigned int const&)
PUBLIC 62980 0 google_breakpad::MinidumpModuleList* google_breakpad::Minidump::GetStream<google_breakpad::MinidumpModuleList>(google_breakpad::MinidumpModuleList**)
PUBLIC 62cc0 0 google_breakpad::MinidumpMemoryList* google_breakpad::Minidump::GetStream<google_breakpad::MinidumpMemoryList>(google_breakpad::MinidumpMemoryList**)
PUBLIC 63000 0 google_breakpad::MinidumpUnloadedModuleList* google_breakpad::Minidump::GetStream<google_breakpad::MinidumpUnloadedModuleList>(google_breakpad::MinidumpUnloadedModuleList**)
PUBLIC 63340 0 google_breakpad::MinidumpMemoryInfoList* google_breakpad::Minidump::GetStream<google_breakpad::MinidumpMemoryInfoList>(google_breakpad::MinidumpMemoryInfoList**)
PUBLIC 63680 0 std::_Rb_tree<unsigned int, std::pair<unsigned int const, google_breakpad::Minidump::MinidumpStreamInfo>, std::_Select1st<std::pair<unsigned int const, google_breakpad::Minidump::MinidumpStreamInfo> >, std::less<unsigned int>, std::allocator<std::pair<unsigned int const, google_breakpad::Minidump::MinidumpStreamInfo> > >::_M_get_insert_unique_pos(unsigned int const&)
PUBLIC 63710 0 std::_Rb_tree<unsigned int, std::pair<unsigned int const, google_breakpad::Minidump::MinidumpStreamInfo>, std::_Select1st<std::pair<unsigned int const, google_breakpad::Minidump::MinidumpStreamInfo> >, std::less<unsigned int>, std::allocator<std::pair<unsigned int const, google_breakpad::Minidump::MinidumpStreamInfo> > >::_M_get_insert_hint_unique_pos(std::_Rb_tree_const_iterator<std::pair<unsigned int const, google_breakpad::Minidump::MinidumpStreamInfo> >, unsigned int const&)
PUBLIC 637f0 0 std::_Rb_tree_node<std::pair<std::__cxx11::basic_string<char, std::char_traits<char>, std::allocator<char> > const, std::__cxx11::basic_string<char, std::char_traits<char>, std::allocator<char> > > >* std::_Rb_tree<std::__cxx11::basic_string<char, std::char_traits<char>, std::allocator<char> >, std::pair<std::__cxx11::basic_string<char, std::char_traits<char>, std::allocator<char> > const, std::__cxx11::basic_string<char, std::char_traits<char>, std::allocator<char> > >, std::_Select1st<std::pair<std::__cxx11::basic_string<char, std::char_traits<char>, std::allocator<char> > const, std::__cxx11::basic_string<char, std::char_traits<char>, std::allocator<char> > > >, std::less<std::__cxx11::basic_string<char, std::char_traits<char>, std::allocator<char> > >, std::allocator<std::pair<std::__cxx11::basic_string<char, std::char_traits<char>, std::allocator<char> > const, std::__cxx11::basic_string<char, std::char_traits<char>, std::allocator<char> > > > >::_M_copy<std::_Rb_tree<std::__cxx11::basic_string<char, std::char_traits<char>, std::allocator<char> >, std::pair<std::__cxx11::basic_string<char, std::char_traits<char>, std::allocator<char> > const, std::__cxx11::basic_string<char, std::char_traits<char>, std::allocator<char> > >, std::_Select1st<std::pair<std::__cxx11::basic_string<char, std::char_traits<char>, std::allocator<char> > const, std::__cxx11::basic_string<char, std::char_traits<char>, std::allocator<char> > > >, std::less<std::__cxx11::basic_string<char, std::char_traits<char>, std::allocator<char> > >, std::allocator<std::pair<std::__cxx11::basic_string<char, std::char_traits<char>, std::allocator<char> > const, std::__cxx11::basic_string<char, std::char_traits<char>, std::allocator<char> > > > >::_Alloc_node>(std::_Rb_tree_node<std::pair<std::__cxx11::basic_string<char, std::char_traits<char>, std::allocator<char> > const, std::__cxx11::basic_string<char, std::char_traits<char>, std::allocator<char> > > > const*, std::_Rb_tree_node_base*, std::_Rb_tree<std::__cxx11::basic_string<char, std::char_traits<char>, std::allocator<char> >, std::pair<std::__cxx11::basic_string<char, std::char_traits<char>, std::allocator<char> > const, std::__cxx11::basic_string<char, std::char_traits<char>, std::allocator<char> > >, std::_Select1st<std::pair<std::__cxx11::basic_string<char, std::char_traits<char>, std::allocator<char> > const, std::__cxx11::basic_string<char, std::char_traits<char>, std::allocator<char> > > >, std::less<std::__cxx11::basic_string<char, std::char_traits<char>, std::allocator<char> > >, std::allocator<std::pair<std::__cxx11::basic_string<char, std::char_traits<char>, std::allocator<char> > const, std::__cxx11::basic_string<char, std::char_traits<char>, std::allocator<char> > > > >::_Alloc_node&)
PUBLIC 639f0 0 void std::vector<std::map<std::__cxx11::basic_string<char, std::char_traits<char>, std::allocator<char> >, std::__cxx11::basic_string<char, std::char_traits<char>, std::allocator<char> >, std::less<std::__cxx11::basic_string<char, std::char_traits<char>, std::allocator<char> > >, std::allocator<std::pair<std::__cxx11::basic_string<char, std::char_traits<char>, std::allocator<char> > const, std::__cxx11::basic_string<char, std::char_traits<char>, std::allocator<char> > > > >, std::allocator<std::map<std::__cxx11::basic_string<char, std::char_traits<char>, std::allocator<char> >, std::__cxx11::basic_string<char, std::char_traits<char>, std::allocator<char> >, std::less<std::__cxx11::basic_string<char, std::char_traits<char>, std::allocator<char> > >, std::allocator<std::pair<std::__cxx11::basic_string<char, std::char_traits<char>, std::allocator<char> > const, std::__cxx11::basic_string<char, std::char_traits<char>, std::allocator<char> > > > > > >::_M_realloc_insert<std::map<std::__cxx11::basic_string<char, std::char_traits<char>, std::allocator<char> >, std::__cxx11::basic_string<char, std::char_traits<char>, std::allocator<char> >, std::less<std::__cxx11::basic_string<char, std::char_traits<char>, std::allocator<char> > >, std::allocator<std::pair<std::__cxx11::basic_string<char, std::char_traits<char>, std::allocator<char> > const, std::__cxx11::basic_string<char, std::char_traits<char>, std::allocator<char> > > > > const&>(__gnu_cxx::__normal_iterator<std::map<std::__cxx11::basic_string<char, std::char_traits<char>, std::allocator<char> >, std::__cxx11::basic_string<char, std::char_traits<char>, std::allocator<char> >, std::less<std::__cxx11::basic_string<char, std::char_traits<char>, std::allocator<char> > >, std::allocator<std::pair<std::__cxx11::basic_string<char, std::char_traits<char>, std::allocator<char> > const, std::__cxx11::basic_string<char, std::char_traits<char>, std::allocator<char> > > > >*, std::vector<std::map<std::__cxx11::basic_string<char, std::char_traits<char>, std::allocator<char> >, std::__cxx11::basic_string<char, std::char_traits<char>, std::allocator<char> >, std::less<std::__cxx11::basic_string<char, std::char_traits<char>, std::allocator<char> > >, std::allocator<std::pair<std::__cxx11::basic_string<char, std::char_traits<char>, std::allocator<char> > const, std::__cxx11::basic_string<char, std::char_traits<char>, std::allocator<char> > > > >, std::allocator<std::map<std::__cxx11::basic_string<char, std::char_traits<char>, std::allocator<char> >, std::__cxx11::basic_string<char, std::char_traits<char>, std::allocator<char> >, std::less<std::__cxx11::basic_string<char, std::char_traits<char>, std::allocator<char> > >, std::allocator<std::pair<std::__cxx11::basic_string<char, std::char_traits<char>, std::allocator<char> > const, std::__cxx11::basic_string<char, std::char_traits<char>, std::allocator<char> > > > > > > >, std::map<std::__cxx11::basic_string<char, std::char_traits<char>, std::allocator<char> >, std::__cxx11::basic_string<char, std::char_traits<char>, std::allocator<char> >, std::less<std::__cxx11::basic_string<char, std::char_traits<char>, std::allocator<char> > >, std::allocator<std::pair<std::__cxx11::basic_string<char, std::char_traits<char>, std::allocator<char> > const, std::__cxx11::basic_string<char, std::char_traits<char>, std::allocator<char> > > > > const&)
PUBLIC 63de0 0 google_breakpad::MinidumpCrashpadInfo* google_breakpad::Minidump::GetStream<google_breakpad::MinidumpCrashpadInfo>(google_breakpad::MinidumpCrashpadInfo**)
PUBLIC 64120 0 void std::__cxx11::basic_string<char, std::char_traits<char>, std::allocator<char> >::_M_construct<char const*>(char const*, char const*, std::forward_iterator_tag) [clone .isra.55]
PUBLIC 641f0 0 google_breakpad::GetARMCpuInfo(MDRawSystemInfo const*, std::__cxx11::basic_string<char, std::char_traits<char>, std::allocator<char> >*)
PUBLIC 64840 0 google_breakpad::MinidumpProcessor::MinidumpProcessor(google_breakpad::SymbolSupplier*, google_breakpad::SourceLineResolverInterface*)
PUBLIC 648a0 0 google_breakpad::MinidumpProcessor::MinidumpProcessor(google_breakpad::SymbolSupplier*, google_breakpad::SourceLineResolverInterface*, bool)
PUBLIC 64900 0 google_breakpad::MinidumpProcessor::MinidumpProcessor(google_breakpad::StackFrameSymbolizer*, bool)
PUBLIC 64910 0 google_breakpad::MinidumpProcessor::GetCPUInfo(google_breakpad::Minidump*, google_breakpad::SystemInfo*)
PUBLIC 64ce0 0 google_breakpad::MinidumpProcessor::GetOSInfo(google_breakpad::Minidump*, google_breakpad::SystemInfo*)
PUBLIC 651b0 0 google_breakpad::MinidumpProcessor::GetProcessCreateTime(google_breakpad::Minidump*, unsigned int*)
PUBLIC 651f0 0 google_breakpad::MinidumpProcessor::GetCrashReason[abi:cxx11](google_breakpad::Minidump*, unsigned long*)
PUBLIC 678b0 0 google_breakpad::MinidumpProcessor::GetAssertion[abi:cxx11](google_breakpad::Minidump*)
PUBLIC 67f10 0 google_breakpad::MinidumpProcessor::~MinidumpProcessor()
PUBLIC 67f80 0 google_breakpad::MinidumpProcessor::Process(google_breakpad::Minidump*, google_breakpad::ProcessState*)
PUBLIC 69b70 0 google_breakpad::MinidumpProcessor::Process(std::__cxx11::basic_string<char, std::char_traits<char>, std::allocator<char> > const&, google_breakpad::ProcessState*)
PUBLIC 69d60 0 std::__cxx11::basic_string<char, std::char_traits<char>, std::allocator<char> > std::operator+<char, std::char_traits<char>, std::allocator<char> >(char const*, std::__cxx11::basic_string<char, std::char_traits<char>, std::allocator<char> > const&)
PUBLIC 69e10 0 std::_Rb_tree<std::__cxx11::basic_string<char, std::char_traits<char>, std::allocator<char> >, std::__cxx11::basic_string<char, std::char_traits<char>, std::allocator<char> >, std::_Identity<std::__cxx11::basic_string<char, std::char_traits<char>, std::allocator<char> > >, std::less<std::__cxx11::basic_string<char, std::char_traits<char>, std::allocator<char> > >, std::allocator<std::__cxx11::basic_string<char, std::char_traits<char>, std::allocator<char> > > >::_M_erase(std::_Rb_tree_node<std::__cxx11::basic_string<char, std::char_traits<char>, std::allocator<char> > >*)
PUBLIC 69e70 0 google_breakpad::StackFrameSymbolizer::~StackFrameSymbolizer()
PUBLIC 69e90 0 google_breakpad::StackFrameSymbolizer::~StackFrameSymbolizer()
PUBLIC 69ec0 0 google_breakpad::StackFrameSymbolizer::Reset()
PUBLIC 69ef0 0 void std::__cxx11::basic_string<char, std::char_traits<char>, std::allocator<char> >::_M_construct<char const*>(char const*, char const*, std::forward_iterator_tag) [clone .isra.79]
PUBLIC 69fc0 0 google_breakpad::ModuleComparer::CompareLine(google_breakpad::SourceLineResolverBase::Line const*, google_breakpad::FastSourceLineResolver::Line const*) const
PUBLIC 6a310 0 google_breakpad::ModuleComparer::ComparePubSymbol(google_breakpad::SourceLineResolverBase::PublicSymbol const*, google_breakpad::FastSourceLineResolver::PublicSymbol const*) const
PUBLIC 6a620 0 google_breakpad::ModuleComparer::CompareWFI(google_breakpad::WindowsFrameInfo const&, google_breakpad::WindowsFrameInfo const&) const
PUBLIC 6ad70 0 google_breakpad::ModuleComparer::CompareCRM(google_breakpad::ContainedRangeMap<unsigned long, google_breakpad::linked_ptr<google_breakpad::WindowsFrameInfo> > const*, google_breakpad::StaticContainedRangeMap<unsigned long, char> const*) const
PUBLIC 6b690 0 google_breakpad::ModuleComparer::CompareFunction(google_breakpad::BasicSourceLineResolver::Function const*, google_breakpad::FastSourceLineResolver::Function const*) const
PUBLIC 6c010 0 google_breakpad::ModuleComparer::CompareModule(google_breakpad::BasicSourceLineResolver::Module const*, google_breakpad::FastSourceLineResolver::Module const*) const
PUBLIC 6da70 0 google_breakpad::ModuleComparer::Compare(std::__cxx11::basic_string<char, std::char_traits<char>, std::allocator<char> > const&)
PUBLIC 6e4a0 0 __gnu_cxx::__enable_if<std::__is_char<char>::__value, bool>::__type std::operator==<char>(std::__cxx11::basic_string<char, std::char_traits<char>, std::allocator<char> > const&, std::__cxx11::basic_string<char, std::char_traits<char>, std::allocator<char> > const&)
PUBLIC 6e4e0 0 google_breakpad::StaticMapIterator<unsigned long, google_breakpad::StaticRangeMap<unsigned long, char>::Range, google_breakpad::DefaultCompare<unsigned long> >::GetValueRawPtr() const
PUBLIC 6e590 0 google_breakpad::StaticMapIterator<unsigned long, google_breakpad::StaticRangeMap<unsigned long, google_breakpad::FastSourceLineResolver::Line>::Range, google_breakpad::DefaultCompare<unsigned long> >::GetValueRawPtr() const
PUBLIC 6e640 0 void std::__cxx11::basic_string<char, std::char_traits<char>, std::allocator<char> >::_M_construct<char const*>(char const*, char const*, std::forward_iterator_tag) [clone .isra.73]
PUBLIC 6e710 0 google_breakpad::ModuleSerializer::SizeOf(google_breakpad::BasicSourceLineResolver::Module const&)
PUBLIC 6e910 0 google_breakpad::ModuleSerializer::Write(google_breakpad::BasicSourceLineResolver::Module const&, char*)
PUBLIC 6e9e0 0 google_breakpad::ModuleSerializer::Serialize(google_breakpad::BasicSourceLineResolver::Module const&, unsigned int*)
PUBLIC 6eb10 0 google_breakpad::ModuleSerializer::SerializeModuleAndLoadIntoFastResolver(std::_Rb_tree_const_iterator<std::pair<std::__cxx11::basic_string<char, std::char_traits<char>, std::allocator<char> > const, google_breakpad::SourceLineResolverBase::Module*> > const&, google_breakpad::FastSourceLineResolver*)
PUBLIC 6f130 0 google_breakpad::ModuleSerializer::ConvertAllModules(google_breakpad::BasicSourceLineResolver const*, google_breakpad::FastSourceLineResolver*)
PUBLIC 6f1c0 0 google_breakpad::ModuleSerializer::ConvertOneModule(std::__cxx11::basic_string<char, std::char_traits<char>, std::allocator<char> > const&, google_breakpad::BasicSourceLineResolver const*, google_breakpad::FastSourceLineResolver*)
PUBLIC 6f2e0 0 google_breakpad::ModuleSerializer::SerializeSymbolFileData(std::__cxx11::basic_string<char, std::char_traits<char>, std::allocator<char> > const&, unsigned int*)
PUBLIC 6f670 0 google_breakpad::RangeMapSerializer<unsigned long, google_breakpad::linked_ptr<google_breakpad::SourceLineResolverBase::Line> >::Write(google_breakpad::RangeMap<unsigned long, google_breakpad::linked_ptr<google_breakpad::SourceLineResolverBase::Line> > const&, char*) const
PUBLIC 6f850 0 google_breakpad::ContainedRangeMapSerializer<unsigned long, google_breakpad::linked_ptr<google_breakpad::WindowsFrameInfo> >::SizeOf(google_breakpad::ContainedRangeMap<unsigned long, google_breakpad::linked_ptr<google_breakpad::WindowsFrameInfo> > const*) const
PUBLIC 6f8d0 0 google_breakpad::StdMapSerializer<int, std::__cxx11::basic_string<char, std::char_traits<char>, std::allocator<char> > >::Write(std::map<int, std::__cxx11::basic_string<char, std::char_traits<char>, std::allocator<char> >, std::less<int>, std::allocator<std::pair<int const, std::__cxx11::basic_string<char, std::char_traits<char>, std::allocator<char> > > > > const&, char*) const
PUBLIC 6f9f0 0 google_breakpad::ContainedRangeMapSerializer<unsigned long, google_breakpad::linked_ptr<google_breakpad::WindowsFrameInfo> >::Write(google_breakpad::ContainedRangeMap<unsigned long, google_breakpad::linked_ptr<google_breakpad::WindowsFrameInfo> > const*, char*) const
PUBLIC 6fc00 0 google_breakpad::RangeMapSerializer<unsigned long, std::__cxx11::basic_string<char, std::char_traits<char>, std::allocator<char> > >::Write(google_breakpad::RangeMap<unsigned long, std::__cxx11::basic_string<char, std::char_traits<char>, std::allocator<char> > > const&, char*) const
PUBLIC 6fd80 0 google_breakpad::StdMapSerializer<unsigned long, std::__cxx11::basic_string<char, std::char_traits<char>, std::allocator<char> > >::Write(std::map<unsigned long, std::__cxx11::basic_string<char, std::char_traits<char>, std::allocator<char> >, std::less<unsigned long>, std::allocator<std::pair<unsigned long const, std::__cxx11::basic_string<char, std::char_traits<char>, std::allocator<char> > > > > const&, char*) const
PUBLIC 6fea0 0 google_breakpad::RangeMapSerializer<unsigned long, google_breakpad::linked_ptr<google_breakpad::BasicSourceLineResolver::Function> >::SizeOf(google_breakpad::RangeMap<unsigned long, google_breakpad::linked_ptr<google_breakpad::BasicSourceLineResolver::Function> > const&) const
PUBLIC 70090 0 google_breakpad::RangeMapSerializer<unsigned long, google_breakpad::linked_ptr<google_breakpad::BasicSourceLineResolver::Function> >::Write(google_breakpad::RangeMap<unsigned long, google_breakpad::linked_ptr<google_breakpad::BasicSourceLineResolver::Function> > const&, char*) const
PUBLIC 70340 0 google_breakpad::StdMapSerializer<unsigned long, google_breakpad::linked_ptr<google_breakpad::SourceLineResolverBase::PublicSymbol> >::Write(std::map<unsigned long, google_breakpad::linked_ptr<google_breakpad::SourceLineResolverBase::PublicSymbol>, std::less<unsigned long>, std::allocator<std::pair<unsigned long const, google_breakpad::linked_ptr<google_breakpad::SourceLineResolverBase::PublicSymbol> > > > const&, char*) const
PUBLIC 70480 0 google_breakpad::PathnameStripper::File(std::__cxx11::basic_string<char, std::char_traits<char>, std::allocator<char> > const&)
PUBLIC 70630 0 google_breakpad::ProcessState::Clear()
PUBLIC 707c0 0 google_breakpad::ProcessState::~ProcessState()
PUBLIC 70980 0 void std::__cxx11::basic_string<char, std::char_traits<char>, std::allocator<char> >::_M_construct<char const*>(char const*, char const*, std::forward_iterator_tag) [clone .isra.34]
PUBLIC 70a50 0 google_breakpad::ParseProcMaps(std::__cxx11::basic_string<char, std::char_traits<char>, std::allocator<char> > const&, std::vector<google_breakpad::MappedMemoryRegion, std::allocator<google_breakpad::MappedMemoryRegion> >*)
PUBLIC 712d0 0 google_breakpad::MappedMemoryRegion::~MappedMemoryRegion()
PUBLIC 71310 0 void std::vector<google_breakpad::MappedMemoryRegion, std::allocator<google_breakpad::MappedMemoryRegion> >::_M_realloc_insert<google_breakpad::MappedMemoryRegion const&>(__gnu_cxx::__normal_iterator<google_breakpad::MappedMemoryRegion*, std::vector<google_breakpad::MappedMemoryRegion, std::allocator<google_breakpad::MappedMemoryRegion> > >, google_breakpad::MappedMemoryRegion const&)
PUBLIC 717f0 0 void std::__cxx11::basic_string<char, std::char_traits<char>, std::allocator<char> >::_M_construct<char const*>(char const*, char const*, std::forward_iterator_tag) [clone .isra.36]
PUBLIC 718c0 0 google_breakpad::SimpleSymbolSupplier::GetSymbolFile(google_breakpad::CodeModule const*, google_breakpad::SystemInfo const*, std::__cxx11::basic_string<char, std::char_traits<char>, std::allocator<char> >*, std::__cxx11::basic_string<char, std::char_traits<char>, std::allocator<char> >*)
PUBLIC 71ba0 0 google_breakpad::SimpleSymbolSupplier::FreeSymbolData(google_breakpad::CodeModule const*)
PUBLIC 71e90 0 google_breakpad::SimpleSymbolSupplier::GetSymbolFileAtPathFromRoot(google_breakpad::CodeModule const*, google_breakpad::SystemInfo const*, std::__cxx11::basic_string<char, std::char_traits<char>, std::allocator<char> > const&, std::__cxx11::basic_string<char, std::char_traits<char>, std::allocator<char> >*)
PUBLIC 72780 0 google_breakpad::SimpleSymbolSupplier::GetSymbolFile(google_breakpad::CodeModule const*, google_breakpad::SystemInfo const*, std::__cxx11::basic_string<char, std::char_traits<char>, std::allocator<char> >*)
PUBLIC 728a0 0 google_breakpad::SimpleSymbolSupplier::GetCStringSymbolData(google_breakpad::CodeModule const*, google_breakpad::SystemInfo const*, std::__cxx11::basic_string<char, std::char_traits<char>, std::allocator<char> >*, char**, unsigned long*)
PUBLIC 72a60 0 std::_Rb_tree<std::__cxx11::basic_string<char, std::char_traits<char>, std::allocator<char> >, std::pair<std::__cxx11::basic_string<char, std::char_traits<char>, std::allocator<char> > const, char*>, std::_Select1st<std::pair<std::__cxx11::basic_string<char, std::char_traits<char>, std::allocator<char> > const, char*> >, std::less<std::__cxx11::basic_string<char, std::char_traits<char>, std::allocator<char> > >, std::allocator<std::pair<std::__cxx11::basic_string<char, std::char_traits<char>, std::allocator<char> > const, char*> > >::_M_erase(std::_Rb_tree_node<std::pair<std::__cxx11::basic_string<char, std::char_traits<char>, std::allocator<char> > const, char*> >*)
PUBLIC 72ac0 0 google_breakpad::SimpleSymbolSupplier::~SimpleSymbolSupplier()
PUBLIC 72b30 0 google_breakpad::SimpleSymbolSupplier::~SimpleSymbolSupplier()
PUBLIC 72bb0 0 std::pair<std::_Rb_tree_iterator<std::pair<std::__cxx11::basic_string<char, std::char_traits<char>, std::allocator<char> > const, char*> >, bool> std::_Rb_tree<std::__cxx11::basic_string<char, std::char_traits<char>, std::allocator<char> >, std::pair<std::__cxx11::basic_string<char, std::char_traits<char>, std::allocator<char> > const, char*>, std::_Select1st<std::pair<std::__cxx11::basic_string<char, std::char_traits<char>, std::allocator<char> > const, char*> >, std::less<std::__cxx11::basic_string<char, std::char_traits<char>, std::allocator<char> > >, std::allocator<std::pair<std::__cxx11::basic_string<char, std::char_traits<char>, std::allocator<char> > const, char*> > >::_M_emplace_unique<std::pair<std::__cxx11::basic_string<char, std::char_traits<char>, std::allocator<char> >, char*> >(std::pair<std::__cxx11::basic_string<char, std::char_traits<char>, std::allocator<char> >, char*>&&)
PUBLIC 72e70 0 google_breakpad::SourceLineResolverBase::ShouldDeleteMemoryBufferAfterLoadModule()
PUBLIC 72e80 0 google_breakpad::SourceLineResolverBase::Module::ParseCFIRuleSet(std::__cxx11::basic_string<char, std::char_traits<char>, std::allocator<char> > const&, google_breakpad::CFIFrameInfo*) const
PUBLIC 72f70 0 google_breakpad::SourceLineResolverBase::SourceLineResolverBase(google_breakpad::ModuleFactory*)
PUBLIC 73030 0 google_breakpad::SourceLineResolverBase::ReadSymbolFile(std::__cxx11::basic_string<char, std::char_traits<char>, std::allocator<char> > const&, char**, unsigned long*)
PUBLIC 73520 0 google_breakpad::SourceLineResolverBase::CompareString::operator()(std::__cxx11::basic_string<char, std::char_traits<char>, std::allocator<char> > const&, std::__cxx11::basic_string<char, std::char_traits<char>, std::allocator<char> > const&) const
PUBLIC 73540 0 google_breakpad::SourceLineResolverBase::IsModuleCorrupt(google_breakpad::CodeModule const*)
PUBLIC 73640 0 google_breakpad::SourceLineResolverBase::~SourceLineResolverBase()
PUBLIC 73790 0 google_breakpad::SourceLineResolverBase::~SourceLineResolverBase()
PUBLIC 737b0 0 google_breakpad::SourceLineResolverBase::HasModule(google_breakpad::CodeModule const*)
PUBLIC 73860 0 google_breakpad::SourceLineResolverBase::FillSourceLineInfo(google_breakpad::StackFrame*)
PUBLIC 73920 0 google_breakpad::SourceLineResolverBase::FindWindowsFrameInfo(google_breakpad::StackFrame const*)
PUBLIC 739e0 0 google_breakpad::SourceLineResolverBase::FindCFIFrameInfo(google_breakpad::StackFrame const*)
PUBLIC 73aa0 0 google_breakpad::SourceLineResolverBase::LoadModule(google_breakpad::CodeModule const*, std::__cxx11::basic_string<char, std::char_traits<char>, std::allocator<char> > const&)
PUBLIC 73e60 0 google_breakpad::SourceLineResolverBase::LoadModuleUsingMapBuffer(google_breakpad::CodeModule const*, std::__cxx11::basic_string<char, std::char_traits<char>, std::allocator<char> > const&)
PUBLIC 74120 0 google_breakpad::SourceLineResolverBase::LoadModuleUsingMemoryBuffer(google_breakpad::CodeModule const*, char*, unsigned long)
PUBLIC 74540 0 google_breakpad::SourceLineResolverBase::UnloadModule(google_breakpad::CodeModule const*)
PUBLIC 74730 0 std::_Rb_tree<std::__cxx11::basic_string<char, std::char_traits<char>, std::allocator<char> >, std::pair<std::__cxx11::basic_string<char, std::char_traits<char>, std::allocator<char> > const, google_breakpad::SourceLineResolverBase::Module*>, std::_Select1st<std::pair<std::__cxx11::basic_string<char, std::char_traits<char>, std::allocator<char> > const, google_breakpad::SourceLineResolverBase::Module*> >, google_breakpad::SourceLineResolverBase::CompareString, std::allocator<std::pair<std::__cxx11::basic_string<char, std::char_traits<char>, std::allocator<char> > const, google_breakpad::SourceLineResolverBase::Module*> > >::_M_erase(std::_Rb_tree_node<std::pair<std::__cxx11::basic_string<char, std::char_traits<char>, std::allocator<char> > const, google_breakpad::SourceLineResolverBase::Module*> >*)
PUBLIC 74790 0 std::_Rb_tree<std::__cxx11::basic_string<char, std::char_traits<char>, std::allocator<char> >, std::__cxx11::basic_string<char, std::char_traits<char>, std::allocator<char> >, std::_Identity<std::__cxx11::basic_string<char, std::char_traits<char>, std::allocator<char> > >, google_breakpad::SourceLineResolverBase::CompareString, std::allocator<std::__cxx11::basic_string<char, std::char_traits<char>, std::allocator<char> > > >::_M_erase(std::_Rb_tree_node<std::__cxx11::basic_string<char, std::char_traits<char>, std::allocator<char> > >*)
PUBLIC 747f0 0 std::_Rb_tree<std::__cxx11::basic_string<char, std::char_traits<char>, std::allocator<char> >, std::pair<std::__cxx11::basic_string<char, std::char_traits<char>, std::allocator<char> > const, char*>, std::_Select1st<std::pair<std::__cxx11::basic_string<char, std::char_traits<char>, std::allocator<char> > const, char*> >, google_breakpad::SourceLineResolverBase::CompareString, std::allocator<std::pair<std::__cxx11::basic_string<char, std::char_traits<char>, std::allocator<char> > const, char*> > >::_M_erase(std::_Rb_tree_node<std::pair<std::__cxx11::basic_string<char, std::char_traits<char>, std::allocator<char> > const, char*> >*)
PUBLIC 74850 0 std::_Rb_tree<std::__cxx11::basic_string<char, std::char_traits<char>, std::allocator<char> >, std::pair<std::__cxx11::basic_string<char, std::char_traits<char>, std::allocator<char> > const, google_breakpad::SourceLineResolverBase::Module*>, std::_Select1st<std::pair<std::__cxx11::basic_string<char, std::char_traits<char>, std::allocator<char> > const, google_breakpad::SourceLineResolverBase::Module*> >, google_breakpad::SourceLineResolverBase::CompareString, std::allocator<std::pair<std::__cxx11::basic_string<char, std::char_traits<char>, std::allocator<char> > const, google_breakpad::SourceLineResolverBase::Module*> > >::find(std::__cxx11::basic_string<char, std::char_traits<char>, std::allocator<char> > const&)
PUBLIC 748d0 0 std::pair<std::_Rb_tree_iterator<std::pair<std::__cxx11::basic_string<char, std::char_traits<char>, std::allocator<char> > const, char*> >, bool> std::_Rb_tree<std::__cxx11::basic_string<char, std::char_traits<char>, std::allocator<char> >, std::pair<std::__cxx11::basic_string<char, std::char_traits<char>, std::allocator<char> > const, char*>, std::_Select1st<std::pair<std::__cxx11::basic_string<char, std::char_traits<char>, std::allocator<char> > const, char*> >, google_breakpad::SourceLineResolverBase::CompareString, std::allocator<std::pair<std::__cxx11::basic_string<char, std::char_traits<char>, std::allocator<char> > const, char*> > >::_M_emplace_unique<std::pair<std::__cxx11::basic_string<char, std::char_traits<char>, std::allocator<char> >, char*> >(std::pair<std::__cxx11::basic_string<char, std::char_traits<char>, std::allocator<char> >, char*>&&)
PUBLIC 74ac0 0 std::pair<std::_Rb_tree_iterator<std::pair<std::__cxx11::basic_string<char, std::char_traits<char>, std::allocator<char> > const, google_breakpad::SourceLineResolverBase::Module*> >, bool> std::_Rb_tree<std::__cxx11::basic_string<char, std::char_traits<char>, std::allocator<char> >, std::pair<std::__cxx11::basic_string<char, std::char_traits<char>, std::allocator<char> > const, google_breakpad::SourceLineResolverBase::Module*>, std::_Select1st<std::pair<std::__cxx11::basic_string<char, std::char_traits<char>, std::allocator<char> > const, google_breakpad::SourceLineResolverBase::Module*> >, google_breakpad::SourceLineResolverBase::CompareString, std::allocator<std::pair<std::__cxx11::basic_string<char, std::char_traits<char>, std::allocator<char> > const, google_breakpad::SourceLineResolverBase::Module*> > >::_M_emplace_unique<std::pair<std::__cxx11::basic_string<char, std::char_traits<char>, std::allocator<char> >, google_breakpad::SourceLineResolverBase::Module*> >(std::pair<std::__cxx11::basic_string<char, std::char_traits<char>, std::allocator<char> >, google_breakpad::SourceLineResolverBase::Module*>&&)
PUBLIC 74cb0 0 std::pair<std::_Rb_tree_iterator<std::__cxx11::basic_string<char, std::char_traits<char>, std::allocator<char> > >, bool> std::_Rb_tree<std::__cxx11::basic_string<char, std::char_traits<char>, std::allocator<char> >, std::__cxx11::basic_string<char, std::char_traits<char>, std::allocator<char> >, std::_Identity<std::__cxx11::basic_string<char, std::char_traits<char>, std::allocator<char> > >, google_breakpad::SourceLineResolverBase::CompareString, std::allocator<std::__cxx11::basic_string<char, std::char_traits<char>, std::allocator<char> > > >::_M_insert_unique<std::__cxx11::basic_string<char, std::char_traits<char>, std::allocator<char> > >(std::__cxx11::basic_string<char, std::char_traits<char>, std::allocator<char> >&&)
PUBLIC 74e30 0 std::_Rb_tree<std::__cxx11::basic_string<char, std::char_traits<char>, std::allocator<char> >, std::__cxx11::basic_string<char, std::char_traits<char>, std::allocator<char> >, std::_Identity<std::__cxx11::basic_string<char, std::char_traits<char>, std::allocator<char> > >, google_breakpad::SourceLineResolverBase::CompareString, std::allocator<std::__cxx11::basic_string<char, std::char_traits<char>, std::allocator<char> > > >::equal_range(std::__cxx11::basic_string<char, std::char_traits<char>, std::allocator<char> > const&)
PUBLIC 74f30 0 std::_Rb_tree<std::__cxx11::basic_string<char, std::char_traits<char>, std::allocator<char> >, std::__cxx11::basic_string<char, std::char_traits<char>, std::allocator<char> >, std::_Identity<std::__cxx11::basic_string<char, std::char_traits<char>, std::allocator<char> > >, google_breakpad::SourceLineResolverBase::CompareString, std::allocator<std::__cxx11::basic_string<char, std::char_traits<char>, std::allocator<char> > > >::erase(std::__cxx11::basic_string<char, std::char_traits<char>, std::allocator<char> > const&)
PUBLIC 75010 0 google_breakpad::StackFrameSymbolizer::FindWindowsFrameInfo(google_breakpad::StackFrame const*)
PUBLIC 75030 0 google_breakpad::StackFrameSymbolizer::FindCFIFrameInfo(google_breakpad::StackFrame const*)
PUBLIC 75050 0 google_breakpad::StackFrameSymbolizer::StackFrameSymbolizer(google_breakpad::SymbolSupplier*, google_breakpad::SourceLineResolverInterface*)
PUBLIC 75090 0 google_breakpad::StackFrameSymbolizer::FillSourceLineInfo(google_breakpad::CodeModules const*, google_breakpad::CodeModules const*, google_breakpad::SystemInfo const*, google_breakpad::StackFrame*)
PUBLIC 75540 0 google_breakpad::StackFrameSymbolizer::HasImplementation()
PUBLIC 75560 0 std::pair<std::_Rb_tree_iterator<std::__cxx11::basic_string<char, std::char_traits<char>, std::allocator<char> > >, bool> std::_Rb_tree<std::__cxx11::basic_string<char, std::char_traits<char>, std::allocator<char> >, std::__cxx11::basic_string<char, std::char_traits<char>, std::allocator<char> >, std::_Identity<std::__cxx11::basic_string<char, std::char_traits<char>, std::allocator<char> > >, std::less<std::__cxx11::basic_string<char, std::char_traits<char>, std::allocator<char> > >, std::allocator<std::__cxx11::basic_string<char, std::char_traits<char>, std::allocator<char> > > >::_M_insert_unique<std::__cxx11::basic_string<char, std::char_traits<char>, std::allocator<char> > >(std::__cxx11::basic_string<char, std::char_traits<char>, std::allocator<char> >&&)
PUBLIC 75800 0 google_breakpad::Stackwalker::Stackwalker(google_breakpad::SystemInfo const*, google_breakpad::MemoryRegion*, google_breakpad::CodeModules const*, google_breakpad::StackFrameSymbolizer*)
PUBLIC 75830 0 google_breakpad::Stackwalker::StackwalkerForCPU(google_breakpad::SystemInfo const*, google_breakpad::DumpContext*, google_breakpad::MemoryRegion*, google_breakpad::CodeModules const*, google_breakpad::CodeModules const*, google_breakpad::StackFrameSymbolizer*)
PUBLIC 75cf0 0 google_breakpad::Stackwalker::TerminateWalk(unsigned long, unsigned long, unsigned long, bool) const
PUBLIC 75d20 0 google_breakpad::Stackwalker::InstructionAddressSeemsValid(unsigned long) const
PUBLIC 75ea0 0 google_breakpad::InsertSpecialAttentionModule(google_breakpad::StackFrameSymbolizer::SymbolizerResult, google_breakpad::CodeModule const*, std::vector<google_breakpad::CodeModule const*, std::allocator<google_breakpad::CodeModule const*> >*)
PUBLIC 76070 0 google_breakpad::Stackwalker::Walk(google_breakpad::CallStack*, std::vector<google_breakpad::CodeModule const*, std::allocator<google_breakpad::CodeModule const*> >*, std::vector<google_breakpad::CodeModule const*, std::allocator<google_breakpad::CodeModule const*> >*)
PUBLIC 76440 0 void std::vector<google_breakpad::CodeModule const*, std::allocator<google_breakpad::CodeModule const*> >::_M_realloc_insert<google_breakpad::CodeModule const* const&>(__gnu_cxx::__normal_iterator<google_breakpad::CodeModule const**, std::vector<google_breakpad::CodeModule const*, std::allocator<google_breakpad::CodeModule const*> > >, google_breakpad::CodeModule const* const&)
PUBLIC 76570 0 void std::vector<google_breakpad::StackFrame*, std::allocator<google_breakpad::StackFrame*> >::_M_realloc_insert<google_breakpad::StackFrame*>(__gnu_cxx::__normal_iterator<google_breakpad::StackFrame**, std::vector<google_breakpad::StackFrame*, std::allocator<google_breakpad::StackFrame*> > >, google_breakpad::StackFrame*&&)
PUBLIC 766a0 0 google_breakpad::StackFrameAMD64::ReturnAddress() const
PUBLIC 766b0 0 google_breakpad::StackwalkerAMD64::GetContextFrame()
PUBLIC 76810 0 google_breakpad::StackwalkerAMD64::StackwalkerAMD64(google_breakpad::SystemInfo const*, MDRawContextAMD64 const*, google_breakpad::MemoryRegion*, google_breakpad::CodeModules const*, google_breakpad::StackFrameSymbolizer*)
PUBLIC 76860 0 google_breakpad::StackwalkerAMD64::GetCallerByFramePointerRecovery(std::vector<google_breakpad::StackFrame*, std::allocator<google_breakpad::StackFrame*> > const&)
PUBLIC 76a00 0 google_breakpad::StackwalkerAMD64::GetCallerByStackScan(std::vector<google_breakpad::StackFrame*, std::allocator<google_breakpad::StackFrame*> > const&)
PUBLIC 76c30 0 google_breakpad::StackwalkerAMD64::GetCallerByCFIFrameInfo(std::vector<google_breakpad::StackFrame*, std::allocator<google_breakpad::StackFrame*> > const&, google_breakpad::CFIFrameInfo*)
PUBLIC 76d60 0 google_breakpad::StackwalkerAMD64::GetCallerFrame(google_breakpad::CallStack const*, bool)
PUBLIC 77020 0 google_breakpad::StackwalkerAMD64::~StackwalkerAMD64()
PUBLIC 77030 0 google_breakpad::StackwalkerAMD64::~StackwalkerAMD64()
PUBLIC 77040 0 google_breakpad::StackFrameAMD64::~StackFrameAMD64()
PUBLIC 77090 0 google_breakpad::StackFrameAMD64::~StackFrameAMD64()
PUBLIC 770e0 0 std::_Rb_tree<std::__cxx11::basic_string<char, std::char_traits<char>, std::allocator<char> >, std::pair<std::__cxx11::basic_string<char, std::char_traits<char>, std::allocator<char> > const, unsigned long>, std::_Select1st<std::pair<std::__cxx11::basic_string<char, std::char_traits<char>, std::allocator<char> > const, unsigned long> >, std::less<std::__cxx11::basic_string<char, std::char_traits<char>, std::allocator<char> > >, std::allocator<std::pair<std::__cxx11::basic_string<char, std::char_traits<char>, std::allocator<char> > const, unsigned long> > >::find(std::__cxx11::basic_string<char, std::char_traits<char>, std::allocator<char> > const&)
PUBLIC 771f0 0 google_breakpad::SimpleCFIWalker<unsigned long, MDRawContextAMD64>::FindCallerRegisters(google_breakpad::MemoryRegion const&, google_breakpad::CFIFrameInfo const&, MDRawContextAMD64 const&, int, MDRawContextAMD64*, int*) const
PUBLIC 77ad0 0 google_breakpad::StackwalkerARM::GetContextFrame()
PUBLIC 77c10 0 google_breakpad::StackwalkerARM::StackwalkerARM(google_breakpad::SystemInfo const*, MDRawContextARM const*, int, google_breakpad::MemoryRegion*, google_breakpad::CodeModules const*, google_breakpad::StackFrameSymbolizer*)
PUBLIC 77c50 0 google_breakpad::StackwalkerARM::GetCallerByStackScan(std::vector<google_breakpad::StackFrame*, std::allocator<google_breakpad::StackFrame*> > const&)
PUBLIC 77de0 0 google_breakpad::StackwalkerARM::GetCallerByFramePointer(std::vector<google_breakpad::StackFrame*, std::allocator<google_breakpad::StackFrame*> > const&)
PUBLIC 78080 0 google_breakpad::StackwalkerARM::GetCallerByCFIFrameInfo(std::vector<google_breakpad::StackFrame*, std::allocator<google_breakpad::StackFrame*> > const&, google_breakpad::CFIFrameInfo*)
PUBLIC 78930 0 google_breakpad::StackwalkerARM::GetCallerFrame(google_breakpad::CallStack const*, bool)
PUBLIC 78be0 0 google_breakpad::StackwalkerARM::~StackwalkerARM()
PUBLIC 78bf0 0 google_breakpad::StackwalkerARM::~StackwalkerARM()
PUBLIC 78c00 0 google_breakpad::StackFrameARM::~StackFrameARM()
PUBLIC 78c50 0 google_breakpad::StackFrameARM::~StackFrameARM()
PUBLIC 78ca0 0 std::_Rb_tree<std::__cxx11::basic_string<char, std::char_traits<char>, std::allocator<char> >, std::pair<std::__cxx11::basic_string<char, std::char_traits<char>, std::allocator<char> > const, unsigned int>, std::_Select1st<std::pair<std::__cxx11::basic_string<char, std::char_traits<char>, std::allocator<char> > const, unsigned int> >, std::less<std::__cxx11::basic_string<char, std::char_traits<char>, std::allocator<char> > >, std::allocator<std::pair<std::__cxx11::basic_string<char, std::char_traits<char>, std::allocator<char> > const, unsigned int> > >::find(std::__cxx11::basic_string<char, std::char_traits<char>, std::allocator<char> > const&)
PUBLIC 78db0 0 google_breakpad::StackwalkerARM64::GetContextFrame()
PUBLIC 78ef0 0 google_breakpad::StackwalkerARM64::StackwalkerARM64(google_breakpad::SystemInfo const*, MDRawContextARM64 const*, google_breakpad::MemoryRegion*, google_breakpad::CodeModules const*, google_breakpad::StackFrameSymbolizer*)
PUBLIC 78f30 0 google_breakpad::StackwalkerARM64::GetCallerByStackScan(std::vector<google_breakpad::StackFrame*, std::allocator<google_breakpad::StackFrame*> > const&)
PUBLIC 790c0 0 google_breakpad::StackwalkerARM64::GetCallerByFramePointer(std::vector<google_breakpad::StackFrame*, std::allocator<google_breakpad::StackFrame*> > const&)
PUBLIC 79330 0 google_breakpad::StackwalkerARM64::GetCallerByCFIFrameInfo(std::vector<google_breakpad::StackFrame*, std::allocator<google_breakpad::StackFrame*> > const&, google_breakpad::CFIFrameInfo*)
PUBLIC 79be0 0 google_breakpad::StackwalkerARM64::GetCallerFrame(google_breakpad::CallStack const*, bool)
PUBLIC 79e50 0 google_breakpad::StackwalkerARM64::~StackwalkerARM64()
PUBLIC 79e60 0 google_breakpad::StackwalkerARM64::~StackwalkerARM64()
PUBLIC 79e70 0 google_breakpad::StackFrameARM64::~StackFrameARM64()
PUBLIC 79ec0 0 google_breakpad::StackFrameARM64::~StackFrameARM64()
PUBLIC 79f10 0 google_breakpad::StackwalkerAddressList::GetContextFrame()
PUBLIC 79fb0 0 google_breakpad::StackwalkerAddressList::GetCallerFrame(google_breakpad::CallStack const*, bool)
PUBLIC 7a0f0 0 google_breakpad::StackwalkerAddressList::StackwalkerAddressList(unsigned long const*, unsigned long, google_breakpad::CodeModules const*, google_breakpad::StackFrameSymbolizer*)
PUBLIC 7a130 0 google_breakpad::StackwalkerAddressList::~StackwalkerAddressList()
PUBLIC 7a140 0 google_breakpad::StackwalkerAddressList::~StackwalkerAddressList()
PUBLIC 7a150 0 google_breakpad::StackwalkerMIPS::GetContextFrame()
PUBLIC 7a290 0 google_breakpad::StackwalkerMIPS::StackwalkerMIPS(google_breakpad::SystemInfo const*, MDRawContextMIPS const*, google_breakpad::MemoryRegion*, google_breakpad::CodeModules const*, google_breakpad::StackFrameSymbolizer*)
PUBLIC 7a540 0 google_breakpad::StackwalkerMIPS::GetCallerByStackScan(std::vector<google_breakpad::StackFrame*, std::allocator<google_breakpad::StackFrame*> > const&)
PUBLIC 7aa80 0 google_breakpad::StackwalkerMIPS::GetCallerByCFIFrameInfo(std::vector<google_breakpad::StackFrame*, std::allocator<google_breakpad::StackFrame*> > const&, google_breakpad::CFIFrameInfo*)
PUBLIC 7d860 0 google_breakpad::StackwalkerMIPS::GetCallerFrame(google_breakpad::CallStack const*, bool)
PUBLIC 7dab0 0 google_breakpad::StackwalkerMIPS::~StackwalkerMIPS()
PUBLIC 7dac0 0 google_breakpad::StackwalkerMIPS::~StackwalkerMIPS()
PUBLIC 7dad0 0 google_breakpad::StackFrameMIPS::~StackFrameMIPS()
PUBLIC 7db20 0 google_breakpad::StackFrameMIPS::~StackFrameMIPS()
PUBLIC 7db70 0 std::map<std::__cxx11::basic_string<char, std::char_traits<char>, std::allocator<char> >, unsigned int, std::less<std::__cxx11::basic_string<char, std::char_traits<char>, std::allocator<char> > >, std::allocator<std::pair<std::__cxx11::basic_string<char, std::char_traits<char>, std::allocator<char> > const, unsigned int> > >::operator[](std::__cxx11::basic_string<char, std::char_traits<char>, std::allocator<char> >&&)
PUBLIC 7ddd0 0 std::map<std::__cxx11::basic_string<char, std::char_traits<char>, std::allocator<char> >, unsigned long, std::less<std::__cxx11::basic_string<char, std::char_traits<char>, std::allocator<char> > >, std::allocator<std::pair<std::__cxx11::basic_string<char, std::char_traits<char>, std::allocator<char> > const, unsigned long> > >::operator[](std::__cxx11::basic_string<char, std::char_traits<char>, std::allocator<char> >&&)
PUBLIC 7e030 0 google_breakpad::StackwalkerPPC::GetCallerFrame(google_breakpad::CallStack const*, bool)
PUBLIC 7e290 0 google_breakpad::StackwalkerPPC::GetContextFrame()
PUBLIC 7e410 0 google_breakpad::StackwalkerPPC::StackwalkerPPC(google_breakpad::SystemInfo const*, MDRawContextPPC const*, google_breakpad::MemoryRegion*, google_breakpad::CodeModules const*, google_breakpad::StackFrameSymbolizer*)
PUBLIC 7e5d0 0 google_breakpad::StackwalkerPPC::~StackwalkerPPC()
PUBLIC 7e5e0 0 google_breakpad::StackwalkerPPC::~StackwalkerPPC()
PUBLIC 7e5f0 0 google_breakpad::StackFramePPC::~StackFramePPC()
PUBLIC 7e640 0 google_breakpad::StackFramePPC::~StackFramePPC()
PUBLIC 7e690 0 google_breakpad::StackwalkerPPC64::GetContextFrame()
PUBLIC 7e7d0 0 google_breakpad::StackwalkerPPC64::GetCallerFrame(google_breakpad::CallStack const*, bool)
PUBLIC 7ea00 0 google_breakpad::StackwalkerPPC64::StackwalkerPPC64(google_breakpad::SystemInfo const*, MDRawContextPPC64 const*, google_breakpad::MemoryRegion*, google_breakpad::CodeModules const*, google_breakpad::StackFrameSymbolizer*)
PUBLIC 7ea40 0 google_breakpad::StackwalkerPPC64::~StackwalkerPPC64()
PUBLIC 7ea50 0 google_breakpad::StackwalkerPPC64::~StackwalkerPPC64()
PUBLIC 7ea60 0 google_breakpad::StackFramePPC64::~StackFramePPC64()
PUBLIC 7eab0 0 google_breakpad::StackFramePPC64::~StackFramePPC64()
PUBLIC 7eb00 0 google_breakpad::StackwalkerSPARC::GetContextFrame()
PUBLIC 7ec40 0 google_breakpad::StackwalkerSPARC::GetCallerFrame(google_breakpad::CallStack const*, bool)
PUBLIC 7ee50 0 google_breakpad::StackwalkerSPARC::StackwalkerSPARC(google_breakpad::SystemInfo const*, MDRawContextSPARC const*, google_breakpad::MemoryRegion*, google_breakpad::CodeModules const*, google_breakpad::StackFrameSymbolizer*)
PUBLIC 7ee90 0 google_breakpad::StackwalkerSPARC::~StackwalkerSPARC()
PUBLIC 7eea0 0 google_breakpad::StackwalkerSPARC::~StackwalkerSPARC()
PUBLIC 7eeb0 0 google_breakpad::StackFrameSPARC::~StackFrameSPARC()
PUBLIC 7ef00 0 google_breakpad::StackFrameSPARC::~StackFrameSPARC()
PUBLIC 7ef50 0 google_breakpad::StackFrameX86::ReturnAddress() const
PUBLIC 7ef60 0 void std::__cxx11::basic_string<char, std::char_traits<char>, std::allocator<char> >::_M_construct<char const*>(char const*, char const*, std::forward_iterator_tag) [clone .isra.48]
PUBLIC 7f030 0 google_breakpad::StackwalkerX86::GetContextFrame()
PUBLIC 7f1e0 0 google_breakpad::StackwalkerX86::StackwalkerX86(google_breakpad::SystemInfo const*, MDRawContextX86 const*, google_breakpad::MemoryRegion*, google_breakpad::CodeModules const*, google_breakpad::StackFrameSymbolizer*)
PUBLIC 7f3c0 0 google_breakpad::StackwalkerX86::GetCallerByEBPAtBase(std::vector<google_breakpad::StackFrame*, std::allocator<google_breakpad::StackFrame*> > const&, bool)
PUBLIC 7f680 0 google_breakpad::StackFrameX86::~StackFrameX86()
PUBLIC 7f770 0 google_breakpad::StackFrameX86::~StackFrameX86()
PUBLIC 7f790 0 std::_Rb_tree_iterator<std::pair<std::__cxx11::basic_string<char, std::char_traits<char>, std::allocator<char> > const, unsigned int> > std::_Rb_tree<std::__cxx11::basic_string<char, std::char_traits<char>, std::allocator<char> >, std::pair<std::__cxx11::basic_string<char, std::char_traits<char>, std::allocator<char> > const, unsigned int>, std::_Select1st<std::pair<std::__cxx11::basic_string<char, std::char_traits<char>, std::allocator<char> > const, unsigned int> >, std::less<std::__cxx11::basic_string<char, std::char_traits<char>, std::allocator<char> > >, std::allocator<std::pair<std::__cxx11::basic_string<char, std::char_traits<char>, std::allocator<char> > const, unsigned int> > >::_M_emplace_hint_unique<std::piecewise_construct_t const&, std::tuple<std::__cxx11::basic_string<char, std::char_traits<char>, std::allocator<char> >&&>, std::tuple<> >(std::_Rb_tree_const_iterator<std::pair<std::__cxx11::basic_string<char, std::char_traits<char>, std::allocator<char> > const, unsigned int> >, std::piecewise_construct_t const&, std::tuple<std::__cxx11::basic_string<char, std::char_traits<char>, std::allocator<char> >&&>&&, std::tuple<>&&) [clone .isra.104]
PUBLIC 7f860 0 google_breakpad::StackwalkerX86::GetCallerByCFIFrameInfo(std::vector<google_breakpad::StackFrame*, std::allocator<google_breakpad::StackFrame*> > const&, google_breakpad::CFIFrameInfo*)
PUBLIC 7f9d0 0 google_breakpad::StackwalkerX86::GetCallerByWindowsFrameInfo(std::vector<google_breakpad::StackFrame*, std::allocator<google_breakpad::StackFrame*> > const&, google_breakpad::WindowsFrameInfo*, bool)
PUBLIC 828b0 0 google_breakpad::StackwalkerX86::GetCallerFrame(google_breakpad::CallStack const*, bool)
PUBLIC 82a70 0 google_breakpad::StackwalkerX86::~StackwalkerX86()
PUBLIC 82a80 0 google_breakpad::StackwalkerX86::~StackwalkerX86()
PUBLIC 82a90 0 std::_Rb_tree<std::__cxx11::basic_string<char, std::char_traits<char>, std::allocator<char> >, std::pair<std::__cxx11::basic_string<char, std::char_traits<char>, std::allocator<char> > const, bool>, std::_Select1st<std::pair<std::__cxx11::basic_string<char, std::char_traits<char>, std::allocator<char> > const, bool> >, std::less<std::__cxx11::basic_string<char, std::char_traits<char>, std::allocator<char> > >, std::allocator<std::pair<std::__cxx11::basic_string<char, std::char_traits<char>, std::allocator<char> > const, bool> > >::_M_erase(std::_Rb_tree_node<std::pair<std::__cxx11::basic_string<char, std::char_traits<char>, std::allocator<char> > const, bool> >*)
PUBLIC 82af0 0 std::_Rb_tree<std::__cxx11::basic_string<char, std::char_traits<char>, std::allocator<char> >, std::pair<std::__cxx11::basic_string<char, std::char_traits<char>, std::allocator<char> > const, bool>, std::_Select1st<std::pair<std::__cxx11::basic_string<char, std::char_traits<char>, std::allocator<char> > const, bool> >, std::less<std::__cxx11::basic_string<char, std::char_traits<char>, std::allocator<char> > >, std::allocator<std::pair<std::__cxx11::basic_string<char, std::char_traits<char>, std::allocator<char> > const, bool> > >::find(std::__cxx11::basic_string<char, std::char_traits<char>, std::allocator<char> > const&)
PUBLIC 82c00 0 google_breakpad::SimpleCFIWalker<unsigned int, MDRawContextX86>::FindCallerRegisters(google_breakpad::MemoryRegion const&, google_breakpad::CFIFrameInfo const&, MDRawContextX86 const&, int, MDRawContextX86*, int*) const
PUBLIC 83190 0 google_breakpad::NTStatusToString[abi:cxx11](unsigned int)
PUBLIC 91430 0 google_breakpad::StringToVector(std::__cxx11::basic_string<char, std::char_traits<char>, std::allocator<char> > const&, std::vector<char, std::allocator<char> >&)
PUBLIC 915b0 0 google_breakpad::Tokenize(char*, char const*, int, std::vector<char*, std::allocator<char*> >*)
PUBLIC 91778 0 _fini
STACK CFI INIT 27d90 2010 .cfa: $rsp 16 + .ra: .cfa -8 + ^
STACK CFI 27d96 .cfa: $rsp 24 +
STACK CFI INIT 29da0 8 .cfa: $rsp 8 + .ra: .cfa -8 + ^
STACK CFI INIT 2a510 5 .cfa: $rsp 8 + .ra: .cfa -8 + ^
STACK CFI INIT 2a520 a .cfa: $rsp 8 + .ra: .cfa -8 + ^
STACK CFI INIT 2a530 6 .cfa: $rsp 8 + .ra: .cfa -8 + ^
STACK CFI INIT 2a540 5 .cfa: $rsp 8 + .ra: .cfa -8 + ^
STACK CFI INIT 29db0 f .cfa: $rsp 8 + .ra: .cfa -8 + ^
STACK CFI INIT 2a550 fb .cfa: $rsp 8 + .ra: .cfa -8 + ^
STACK CFI 2a552 $r12: .cfa -16 + ^ .cfa: $rsp 16 +
STACK CFI 2a553 $rbp: .cfa -24 + ^ .cfa: $rsp 24 +
STACK CFI 2a557 $rbx: .cfa -32 + ^ .cfa: $rsp 32 +
STACK CFI 2a632 .cfa: $rsp 24 +
STACK CFI 2a633 .cfa: $rsp 16 +
STACK CFI 2a635 .cfa: $rsp 8 +
STACK CFI 2a640 .cfa: $rsp 32 +
STACK CFI INIT 2a650 2ed .cfa: $rsp 8 + .ra: .cfa -8 + ^
STACK CFI 2a652 $r15: .cfa -16 + ^ .cfa: $rsp 16 +
STACK CFI 2a654 $r14: .cfa -24 + ^ .cfa: $rsp 24 +
STACK CFI 2a656 $r13: .cfa -32 + ^ .cfa: $rsp 32 +
STACK CFI 2a658 $r12: .cfa -40 + ^ .cfa: $rsp 40 +
STACK CFI 2a65c $rbp: .cfa -48 + ^ .cfa: $rsp 48 +
STACK CFI 2a65d $rbx: .cfa -56 + ^ .cfa: $rsp 56 +
STACK CFI 2a664 .cfa: $rsp 128 +
STACK CFI 2a7b6 .cfa: $rsp 56 +
STACK CFI 2a7b7 .cfa: $rsp 48 +
STACK CFI 2a7b8 .cfa: $rsp 40 +
STACK CFI 2a7ba .cfa: $rsp 32 +
STACK CFI 2a7bc .cfa: $rsp 24 +
STACK CFI 2a7be .cfa: $rsp 16 +
STACK CFI 2a7c0 .cfa: $rsp 8 +
STACK CFI 2a7c8 .cfa: $rsp 128 +
STACK CFI INIT 2a940 56 .cfa: $rsp 8 + .ra: .cfa -8 + ^
STACK CFI INIT 2b520 2a3 .cfa: $rsp 8 + .ra: .cfa -8 + ^
STACK CFI 2b522 $r15: .cfa -16 + ^ .cfa: $rsp 16 +
STACK CFI 2b524 $r14: .cfa -24 + ^ .cfa: $rsp 24 +
STACK CFI 2b529 $r13: .cfa -32 + ^ .cfa: $rsp 32 +
STACK CFI 2b52b $r12: .cfa -40 + ^ .cfa: $rsp 40 +
STACK CFI 2b52f $rbp: .cfa -48 + ^ .cfa: $rsp 48 +
STACK CFI 2b530 $rbx: .cfa -56 + ^ .cfa: $rsp 56 +
STACK CFI 2b53d .cfa: $rsp 112 +
STACK CFI 2b6d0 .cfa: $rsp 56 +
STACK CFI 2b6d1 .cfa: $rsp 48 +
STACK CFI 2b6d2 .cfa: $rsp 40 +
STACK CFI 2b6d4 .cfa: $rsp 32 +
STACK CFI 2b6d6 .cfa: $rsp 24 +
STACK CFI 2b6d8 .cfa: $rsp 16 +
STACK CFI 2b6da .cfa: $rsp 8 +
STACK CFI 2b6e0 .cfa: $rsp 112 +
STACK CFI INIT 2a9a0 19a .cfa: $rsp 8 + .ra: .cfa -8 + ^
STACK CFI 2a9a2 $r13: .cfa -16 + ^ .cfa: $rsp 16 +
STACK CFI 2a9a4 $r12: .cfa -24 + ^ .cfa: $rsp 24 +
STACK CFI 2a9a9 $rbp: .cfa -32 + ^ .cfa: $rsp 32 +
STACK CFI 2a9aa $rbx: .cfa -40 + ^ .cfa: $rsp 40 +
STACK CFI 2a9b6 .cfa: $rsp 144 +
STACK CFI 2aa39 .cfa: $rsp 40 +
STACK CFI 2aa3a .cfa: $rsp 32 +
STACK CFI 2aa3b .cfa: $rsp 24 +
STACK CFI 2aa3d .cfa: $rsp 16 +
STACK CFI 2aa3f .cfa: $rsp 8 +
STACK CFI 2aa40 .cfa: $rsp 144 +
STACK CFI INIT 2b7d0 7a .cfa: $rsp 8 + .ra: .cfa -8 + ^
STACK CFI 2b7d7 $r12: .cfa -16 + ^ .cfa: $rsp 16 +
STACK CFI 2b7db $rbp: .cfa -24 + ^ .cfa: $rsp 24 +
STACK CFI 2b7dc $rbx: .cfa -32 + ^ .cfa: $rsp 32 +
STACK CFI 2b827 .cfa: $rsp 24 +
STACK CFI 2b828 .cfa: $rsp 16 +
STACK CFI 2b82a .cfa: $rsp 8 +
STACK CFI 2b830 .cfa: $rsp 32 +
STACK CFI 2b848 $r12: $r12 $rbp: $rbp $rbx: $rbx .cfa: $rsp 8 +
STACK CFI INIT 2ab40 90 .cfa: $rsp 8 + .ra: .cfa -8 + ^
STACK CFI 2ab42 $r12: .cfa -16 + ^ .cfa: $rsp 16 +
STACK CFI 2ab4a $rbp: .cfa -24 + ^ .cfa: $rsp 24 +
STACK CFI 2ab4b $rbx: .cfa -32 + ^ .cfa: $rsp 32 +
STACK CFI 2aba9 .cfa: $rsp 24 +
STACK CFI 2abb2 .cfa: $rsp 16 +
STACK CFI 2abb4 .cfa: $rsp 8 +
STACK CFI 2abc0 .cfa: $rsp 32 +
STACK CFI INIT 2abd0 17 .cfa: $rsp 8 + .ra: .cfa -8 + ^
STACK CFI 2abd1 $rbx: .cfa -16 + ^ .cfa: $rsp 16 +
STACK CFI 2abe2 .cfa: $rsp 8 +
STACK CFI INIT 2b850 2a9 .cfa: $rsp 8 + .ra: .cfa -8 + ^
STACK CFI 2b852 $r15: .cfa -16 + ^ .cfa: $rsp 16 +
STACK CFI 2b854 $r14: .cfa -24 + ^ .cfa: $rsp 24 +
STACK CFI 2b859 $r13: .cfa -32 + ^ .cfa: $rsp 32 +
STACK CFI 2b85b $r12: .cfa -40 + ^ .cfa: $rsp 40 +
STACK CFI 2b85f $rbp: .cfa -48 + ^ .cfa: $rsp 48 +
STACK CFI 2b860 $rbx: .cfa -56 + ^ .cfa: $rsp 56 +
STACK CFI 2b867 .cfa: $rsp 96 +
STACK CFI 2ba66 .cfa: $rsp 56 +
STACK CFI 2ba67 .cfa: $rsp 48 +
STACK CFI 2ba68 .cfa: $rsp 40 +
STACK CFI 2ba6a .cfa: $rsp 32 +
STACK CFI 2ba6c .cfa: $rsp 24 +
STACK CFI 2ba6e .cfa: $rsp 16 +
STACK CFI 2ba70 .cfa: $rsp 8 +
STACK CFI 2ba78 .cfa: $rsp 96 +
STACK CFI INIT 2bb00 17a .cfa: $rsp 8 + .ra: .cfa -8 + ^
STACK CFI 2bb02 $r15: .cfa -16 + ^ .cfa: $rsp 16 +
STACK CFI 2bb04 $r14: .cfa -24 + ^ .cfa: $rsp 24 +
STACK CFI 2bb0a $r13: .cfa -32 + ^ .cfa: $rsp 32 +
STACK CFI 2bb0c $r12: .cfa -40 + ^ .cfa: $rsp 40 +
STACK CFI 2bb10 $rbp: .cfa -48 + ^ .cfa: $rsp 48 +
STACK CFI 2bb11 $rbx: .cfa -56 + ^ .cfa: $rsp 56 +
STACK CFI 2bb18 .cfa: $rsp 64 +
STACK CFI 2bb68 .cfa: $rsp 56 +
STACK CFI 2bb6e .cfa: $rsp 48 +
STACK CFI 2bb6f .cfa: $rsp 40 +
STACK CFI 2bb71 .cfa: $rsp 32 +
STACK CFI 2bb73 .cfa: $rsp 24 +
STACK CFI 2bb75 .cfa: $rsp 16 +
STACK CFI 2bb77 .cfa: $rsp 8 +
STACK CFI 2bb80 .cfa: $rsp 64 +
STACK CFI 2bc2d .cfa: $rsp 56 +
STACK CFI 2bc36 .cfa: $rsp 48 +
STACK CFI 2bc37 .cfa: $rsp 40 +
STACK CFI 2bc39 .cfa: $rsp 32 +
STACK CFI 2bc3b .cfa: $rsp 24 +
STACK CFI 2bc3d .cfa: $rsp 16 +
STACK CFI 2bc3f .cfa: $rsp 8 +
STACK CFI 2bc40 .cfa: $rsp 64 +
STACK CFI INIT 2bc80 972 .cfa: $rsp 8 + .ra: .cfa -8 + ^
STACK CFI 2bc82 $r15: .cfa -16 + ^ .cfa: $rsp 16 +
STACK CFI 2bc84 $r14: .cfa -24 + ^ .cfa: $rsp 24 +
STACK CFI 2bc86 $r13: .cfa -32 + ^ .cfa: $rsp 32 +
STACK CFI 2bc88 $r12: .cfa -40 + ^ .cfa: $rsp 40 +
STACK CFI 2bc8c $rbp: .cfa -48 + ^ .cfa: $rsp 48 +
STACK CFI 2bc8d $rbx: .cfa -56 + ^ .cfa: $rsp 56 +
STACK CFI 2bc94 .cfa: $rsp 368 +
STACK CFI 2bf45 .cfa: $rsp 56 +
STACK CFI 2bf46 .cfa: $rsp 48 +
STACK CFI 2bf47 .cfa: $rsp 40 +
STACK CFI 2bf49 .cfa: $rsp 32 +
STACK CFI 2bf4b .cfa: $rsp 24 +
STACK CFI 2bf4d .cfa: $rsp 16 +
STACK CFI 2bf4f .cfa: $rsp 8 +
STACK CFI 2bf50 .cfa: $rsp 368 +
STACK CFI INIT 2abf0 8da .cfa: $rsp 8 + .ra: .cfa -8 + ^
STACK CFI 2abf2 $r15: .cfa -16 + ^ .cfa: $rsp 16 +
STACK CFI 2abf4 $r14: .cfa -24 + ^ .cfa: $rsp 24 +
STACK CFI 2abfa $r13: .cfa -32 + ^ .cfa: $rsp 32 +
STACK CFI 2abfc $r12: .cfa -40 + ^ .cfa: $rsp 40 +
STACK CFI 2abfd $rbp: .cfa -48 + ^ .cfa: $rsp 48 +
STACK CFI 2abfe $rbx: .cfa -56 + ^ .cfa: $rsp 56 +
STACK CFI 2ac08 .cfa: $rsp 288 +
STACK CFI 2aed9 .cfa: $rsp 56 +
STACK CFI 2aeda .cfa: $rsp 48 +
STACK CFI 2aedb .cfa: $rsp 40 +
STACK CFI 2aedd .cfa: $rsp 32 +
STACK CFI 2aedf .cfa: $rsp 24 +
STACK CFI 2aee1 .cfa: $rsp 16 +
STACK CFI 2aee3 .cfa: $rsp 8 +
STACK CFI 2aee8 .cfa: $rsp 288 +
STACK CFI INIT 2b4d0 43 .cfa: $rsp 8 + .ra: .cfa -8 + ^
STACK CFI 2b4d1 $rbp: .cfa -16 + ^ .cfa: $rsp 16 +
STACK CFI 2b4d2 $rbx: .cfa -24 + ^ .cfa: $rsp 24 +
STACK CFI 2b4de .cfa: $rsp 32 +
STACK CFI 2b4f5 .cfa: $rsp 24 +
STACK CFI 2b4f9 .cfa: $rsp 16 +
STACK CFI 2b4fa .cfa: $rsp 8 +
STACK CFI 2b4fb .cfa: $rsp 32 +
STACK CFI INIT 29e90 2e .cfa: $rsp 8 + .ra: .cfa -8 + ^
STACK CFI 29e9b .cfa: $rsp 16 +
STACK CFI 29eb9 .cfa: $rsp 8 +
STACK CFI INIT 2ef40 8 .cfa: $rsp 8 + .ra: .cfa -8 + ^
STACK CFI INIT 2ef50 2 .cfa: $rsp 8 + .ra: .cfa -8 + ^
STACK CFI INIT 2ef60 a .cfa: $rsp 8 + .ra: .cfa -8 + ^
STACK CFI INIT 2ef70 13 .cfa: $rsp 8 + .ra: .cfa -8 + ^
STACK CFI INIT 2ef90 25 .cfa: $rsp 8 + .ra: .cfa -8 + ^
STACK CFI 2ef98 $rbx: .cfa -16 + ^ .cfa: $rsp 16 +
STACK CFI 2efb0 .cfa: $rsp 8 +
STACK CFI INIT 29dc0 2b .cfa: $rsp 8 + .ra: .cfa -8 + ^
STACK CFI 29dc1 $rbx: .cfa -16 + ^ .cfa: $rsp 16 +
STACK CFI 29de4 .cfa: $rsp 8 +
STACK CFI 29de9 .cfa: $rsp 16 +
STACK CFI 29dea .cfa: $rsp 8 +
STACK CFI INIT 29dec 2a .cfa: $rsp 8 + .ra: .cfa -8 + ^
STACK CFI 29ded $rbx: .cfa -16 + ^ .cfa: $rsp 16 +
STACK CFI 29e0f .cfa: $rsp 8 +
STACK CFI 29e14 .cfa: $rsp 16 +
STACK CFI 29e15 .cfa: $rsp 8 +
STACK CFI INIT 2efc0 7d .cfa: $rsp 8 + .ra: .cfa -8 + ^
STACK CFI 2efc2 $r15: .cfa -16 + ^ .cfa: $rsp 16 +
STACK CFI 2efc4 $r14: .cfa -24 + ^ .cfa: $rsp 24 +
STACK CFI 2efc9 $r13: .cfa -32 + ^ .cfa: $rsp 32 +
STACK CFI 2efcb $r12: .cfa -40 + ^ .cfa: $rsp 40 +
STACK CFI 2efd0 $rbp: .cfa -48 + ^ .cfa: $rsp 48 +
STACK CFI 2efd1 $rbx: .cfa -56 + ^ .cfa: $rsp 56 +
STACK CFI 2efe1 .cfa: $rsp 64 +
STACK CFI 2f016 .cfa: $rsp 56 +
STACK CFI 2f01a .cfa: $rsp 48 +
STACK CFI 2f01b .cfa: $rsp 40 +
STACK CFI 2f01d .cfa: $rsp 32 +
STACK CFI 2f01f .cfa: $rsp 24 +
STACK CFI 2f021 .cfa: $rsp 16 +
STACK CFI 2f023 .cfa: $rsp 8 +
STACK CFI 2f028 .cfa: $rsp 64 +
STACK CFI INIT 2c600 c8 .cfa: $rsp 8 + .ra: .cfa -8 + ^
STACK CFI 2c602 $r12: .cfa -16 + ^ .cfa: $rsp 16 +
STACK CFI 2c603 $rbp: .cfa -24 + ^ .cfa: $rsp 24 +
STACK CFI 2c607 $rbx: .cfa -32 + ^ .cfa: $rsp 32 +
STACK CFI 2c60e .cfa: $rsp 48 +
STACK CFI 2c674 .cfa: $rsp 32 +
STACK CFI 2c675 .cfa: $rsp 24 +
STACK CFI 2c676 .cfa: $rsp 16 +
STACK CFI 2c678 .cfa: $rsp 8 +
STACK CFI 2c680 .cfa: $rsp 48 +
STACK CFI INIT 2f040 195 .cfa: $rsp 8 + .ra: .cfa -8 + ^
STACK CFI 2f041 $rbp: .cfa -16 + ^ .cfa: $rsp 16 +
STACK CFI 2f042 $rbx: .cfa -24 + ^ .cfa: $rsp 24 +
STACK CFI 2f04e .cfa: $rsp 32 +
STACK CFI 2f1ba .cfa: $rsp 24 +
STACK CFI 2f1bb .cfa: $rsp 16 +
STACK CFI 2f1bc .cfa: $rsp 8 +
STACK CFI 2f1bd .cfa: $rsp 32 +
STACK CFI INIT 2c6d0 37 .cfa: $rsp 8 + .ra: .cfa -8 + ^
STACK CFI 2c6d1 $rbx: .cfa -16 + ^ .cfa: $rsp 16 +
STACK CFI 2c706 .cfa: $rsp 8 +
STACK CFI INIT 2c710 11d .cfa: $rsp 8 + .ra: .cfa -8 + ^
STACK CFI 2c712 $r13: .cfa -16 + ^ .cfa: $rsp 16 +
STACK CFI 2c714 $r12: .cfa -24 + ^ .cfa: $rsp 24 +
STACK CFI 2c715 $rbp: .cfa -32 + ^ .cfa: $rsp 32 +
STACK CFI 2c716 $rbx: .cfa -40 + ^ .cfa: $rsp 40 +
STACK CFI 2c71a .cfa: $rsp 64 +
STACK CFI 2c7cf .cfa: $rsp 40 +
STACK CFI 2c7d0 .cfa: $rsp 32 +
STACK CFI 2c7d1 .cfa: $rsp 24 +
STACK CFI 2c7d3 .cfa: $rsp 16 +
STACK CFI 2c7d5 .cfa: $rsp 8 +
STACK CFI 2c7e0 .cfa: $rsp 64 +
STACK CFI INIT 2c830 2b .cfa: $rsp 8 + .ra: .cfa -8 + ^
STACK CFI 2c839 .cfa: $rsp 16 +
STACK CFI 2c852 .cfa: $rsp 8 +
STACK CFI INIT 2c860 ee .cfa: $rsp 8 + .ra: .cfa -8 + ^
STACK CFI 2c861 $rbp: .cfa -16 + ^ .cfa: $rsp 16 +
STACK CFI 2c862 $rbx: .cfa -24 + ^ .cfa: $rsp 24 +
STACK CFI 2c877 .cfa: $rsp 80 +
STACK CFI 2c8dc .cfa: $rsp 24 +
STACK CFI 2c8dd .cfa: $rsp 16 +
STACK CFI 2c8de .cfa: $rsp 8 +
STACK CFI 2c8e0 .cfa: $rsp 80 +
STACK CFI INIT 2c950 1c8 .cfa: $rsp 8 + .ra: .cfa -8 + ^
STACK CFI 2c952 $r14: .cfa -16 + ^ .cfa: $rsp 16 +
STACK CFI 2c954 $r13: .cfa -24 + ^ .cfa: $rsp 24 +
STACK CFI 2c959 $r12: .cfa -32 + ^ .cfa: $rsp 32 +
STACK CFI 2c95a $rbp: .cfa -40 + ^ .cfa: $rsp 40 +
STACK CFI 2c95e $rbx: .cfa -48 + ^ .cfa: $rsp 48 +
STACK CFI 2c974 .cfa: $rsp 112 +
STACK CFI 2c9dd .cfa: $rsp 48 +
STACK CFI 2c9de .cfa: $rsp 40 +
STACK CFI 2c9df .cfa: $rsp 32 +
STACK CFI 2c9e1 .cfa: $rsp 24 +
STACK CFI 2c9e3 .cfa: $rsp 16 +
STACK CFI 2c9e5 .cfa: $rsp 8 +
STACK CFI 2c9f0 .cfa: $rsp 112 +
STACK CFI INIT 2cb20 81 .cfa: $rsp 8 + .ra: .cfa -8 + ^
STACK CFI 2cb24 .cfa: $rsp 64 +
STACK CFI 2cb93 .cfa: $rsp 8 +
STACK CFI 2cb98 .cfa: $rsp 64 +
STACK CFI INIT 2f1e0 28c .cfa: $rsp 8 + .ra: .cfa -8 + ^
STACK CFI 2f1e2 $r15: .cfa -16 + ^ .cfa: $rsp 16 +
STACK CFI 2f1e4 $r14: .cfa -24 + ^ .cfa: $rsp 24 +
STACK CFI 2f1e9 $r13: .cfa -32 + ^ .cfa: $rsp 32 +
STACK CFI 2f1eb $r12: .cfa -40 + ^ .cfa: $rsp 40 +
STACK CFI 2f1ef $rbp: .cfa -48 + ^ .cfa: $rsp 48 +
STACK CFI 2f1f0 $rbx: .cfa -56 + ^ .cfa: $rsp 56 +
STACK CFI 2f1fd .cfa: $rsp 112 +
STACK CFI 2f380 .cfa: $rsp 56 +
STACK CFI 2f381 .cfa: $rsp 48 +
STACK CFI 2f382 .cfa: $rsp 40 +
STACK CFI 2f384 .cfa: $rsp 32 +
STACK CFI 2f386 .cfa: $rsp 24 +
STACK CFI 2f388 .cfa: $rsp 16 +
STACK CFI 2f38a .cfa: $rsp 8 +
STACK CFI 2f390 .cfa: $rsp 112 +
STACK CFI INIT 2f470 1bf .cfa: $rsp 8 + .ra: .cfa -8 + ^
STACK CFI 2f472 $r14: .cfa -16 + ^ .cfa: $rsp 16 +
STACK CFI 2f474 $r13: .cfa -24 + ^ .cfa: $rsp 24 +
STACK CFI 2f479 $r12: .cfa -32 + ^ .cfa: $rsp 32 +
STACK CFI 2f47a $rbp: .cfa -40 + ^ .cfa: $rsp 40 +
STACK CFI 2f47e $rbx: .cfa -48 + ^ .cfa: $rsp 48 +
STACK CFI 2f488 .cfa: $rsp 64 +
STACK CFI 2f57c .cfa: $rsp 48 +
STACK CFI 2f57d .cfa: $rsp 40 +
STACK CFI 2f57e .cfa: $rsp 32 +
STACK CFI 2f580 .cfa: $rsp 24 +
STACK CFI 2f582 .cfa: $rsp 16 +
STACK CFI 2f584 .cfa: $rsp 8 +
STACK CFI 2f588 .cfa: $rsp 64 +
STACK CFI INIT 2f630 1ce .cfa: $rsp 8 + .ra: .cfa -8 + ^
STACK CFI 2f632 $r13: .cfa -16 + ^ .cfa: $rsp 16 +
STACK CFI 2f634 $r12: .cfa -24 + ^ .cfa: $rsp 24 +
STACK CFI 2f638 $rbp: .cfa -32 + ^ .cfa: $rsp 32 +
STACK CFI 2f639 $rbx: .cfa -40 + ^ .cfa: $rsp 40 +
STACK CFI 2f643 .cfa: $rsp 64 +
STACK CFI 2f6c7 .cfa: $rsp 40 +
STACK CFI 2f6c8 .cfa: $rsp 32 +
STACK CFI 2f6c9 .cfa: $rsp 24 +
STACK CFI 2f6cb .cfa: $rsp 16 +
STACK CFI 2f6cd .cfa: $rsp 8 +
STACK CFI 2f6d0 .cfa: $rsp 64 +
STACK CFI INIT 2f800 26f .cfa: $rsp 8 + .ra: .cfa -8 + ^
STACK CFI 2f802 $r15: .cfa -16 + ^ .cfa: $rsp 16 +
STACK CFI 2f804 $r14: .cfa -24 + ^ .cfa: $rsp 24 +
STACK CFI 2f809 $r13: .cfa -32 + ^ .cfa: $rsp 32 +
STACK CFI 2f80b $r12: .cfa -40 + ^ .cfa: $rsp 40 +
STACK CFI 2f80f $rbp: .cfa -48 + ^ .cfa: $rsp 48 +
STACK CFI 2f810 $rbx: .cfa -56 + ^ .cfa: $rsp 56 +
STACK CFI 2f820 .cfa: $rsp 144 +
STACK CFI 2f898 .cfa: $rsp 56 +
STACK CFI 2f899 .cfa: $rsp 48 +
STACK CFI 2f89a .cfa: $rsp 40 +
STACK CFI 2f89c .cfa: $rsp 32 +
STACK CFI 2f89e .cfa: $rsp 24 +
STACK CFI 2f8a0 .cfa: $rsp 16 +
STACK CFI 2f8a2 .cfa: $rsp 8 +
STACK CFI 2f8a8 .cfa: $rsp 144 +
STACK CFI INIT 2fa70 72 .cfa: $rsp 8 + .ra: .cfa -8 + ^
STACK CFI 2fa77 $r12: .cfa -16 + ^ .cfa: $rsp 16 +
STACK CFI 2fa7b $rbp: .cfa -24 + ^ .cfa: $rsp 24 +
STACK CFI 2fa7c $rbx: .cfa -32 + ^ .cfa: $rsp 32 +
STACK CFI 2fac7 .cfa: $rsp 24 +
STACK CFI 2fac8 .cfa: $rsp 16 +
STACK CFI 2faca .cfa: $rsp 8 +
STACK CFI 2fad0 .cfa: $rsp 32 +
STACK CFI 2fae0 $r12: $r12 $rbp: $rbp $rbx: $rbx .cfa: $rsp 8 +
STACK CFI INIT 29e16 37 .cfa: $rsp 8 + .ra: .cfa -8 + ^
STACK CFI 29e17 $rbx: .cfa -16 + ^ .cfa: $rsp 16 +
STACK CFI 29e46 .cfa: $rsp 8 +
STACK CFI 29e4b .cfa: $rsp 16 +
STACK CFI 29e4c .cfa: $rsp 8 +
STACK CFI INIT 2faf0 52 .cfa: $rsp 8 + .ra: .cfa -8 + ^
STACK CFI 2faf7 $r12: .cfa -16 + ^ .cfa: $rsp 16 +
STACK CFI 2fafb $rbp: .cfa -24 + ^ .cfa: $rsp 24 +
STACK CFI 2fafc $rbx: .cfa -32 + ^ .cfa: $rsp 32 +
STACK CFI 2fb32 .cfa: $rsp 24 +
STACK CFI 2fb33 .cfa: $rsp 16 +
STACK CFI 2fb35 .cfa: $rsp 8 +
STACK CFI 2fb40 $r12: $r12 $rbp: $rbp $rbx: $rbx
STACK CFI INIT 2fb50 b2 .cfa: $rsp 8 + .ra: .cfa -8 + ^
STACK CFI 2fb5b $r13: .cfa -16 + ^ .cfa: $rsp 16 +
STACK CFI 2fb5d $r12: .cfa -24 + ^ .cfa: $rsp 24 +
STACK CFI 2fb61 $rbp: .cfa -32 + ^ .cfa: $rsp 32 +
STACK CFI 2fb62 $rbx: .cfa -40 + ^ .cfa: $rsp 40 +
STACK CFI 2fb69 .cfa: $rsp 48 +
STACK CFI 2fbb2 .cfa: $rsp 40 +
STACK CFI 2fbb3 .cfa: $rsp 32 +
STACK CFI 2fbb4 .cfa: $rsp 24 +
STACK CFI 2fbb6 .cfa: $rsp 16 +
STACK CFI 2fbb8 .cfa: $rsp 8 +
STACK CFI 2fbc0 .cfa: $rsp 48 +
STACK CFI 2fc00 $r12: $r12 $r13: $r13 $rbp: $rbp $rbx: $rbx .cfa: $rsp 8 +
STACK CFI INIT 2fc10 a2 .cfa: $rsp 8 + .ra: .cfa -8 + ^
STACK CFI 2fc1b $r13: .cfa -16 + ^ .cfa: $rsp 16 +
STACK CFI 2fc1d $r12: .cfa -24 + ^ .cfa: $rsp 24 +
STACK CFI 2fc21 $rbp: .cfa -32 + ^ .cfa: $rsp 32 +
STACK CFI 2fc22 $rbx: .cfa -40 + ^ .cfa: $rsp 40 +
STACK CFI 2fc29 .cfa: $rsp 48 +
STACK CFI 2fc72 .cfa: $rsp 40 +
STACK CFI 2fc73 .cfa: $rsp 32 +
STACK CFI 2fc74 .cfa: $rsp 24 +
STACK CFI 2fc76 .cfa: $rsp 16 +
STACK CFI 2fc78 .cfa: $rsp 8 +
STACK CFI 2fc80 .cfa: $rsp 48 +
STACK CFI 2fcb0 $r12: $r12 $r13: $r13 $rbp: $rbp $rbx: $rbx .cfa: $rsp 8 +
STACK CFI INIT 2fcc0 52 .cfa: $rsp 8 + .ra: .cfa -8 + ^
STACK CFI 2fcc7 $r12: .cfa -16 + ^ .cfa: $rsp 16 +
STACK CFI 2fccb $rbp: .cfa -24 + ^ .cfa: $rsp 24 +
STACK CFI 2fccc $rbx: .cfa -32 + ^ .cfa: $rsp 32 +
STACK CFI 2fd02 .cfa: $rsp 24 +
STACK CFI 2fd03 .cfa: $rsp 16 +
STACK CFI 2fd05 .cfa: $rsp 8 +
STACK CFI 2fd10 $r12: $r12 $rbp: $rbp $rbx: $rbx
STACK CFI INIT 2fd20 52 .cfa: $rsp 8 + .ra: .cfa -8 + ^
STACK CFI 2fd27 $r12: .cfa -16 + ^ .cfa: $rsp 16 +
STACK CFI 2fd2b $rbp: .cfa -24 + ^ .cfa: $rsp 24 +
STACK CFI 2fd2c $rbx: .cfa -32 + ^ .cfa: $rsp 32 +
STACK CFI 2fd62 .cfa: $rsp 24 +
STACK CFI 2fd63 .cfa: $rsp 16 +
STACK CFI 2fd65 .cfa: $rsp 8 +
STACK CFI 2fd70 $r12: $r12 $rbp: $rbp $rbx: $rbx
STACK CFI INIT 2fd80 12e .cfa: $rsp 8 + .ra: .cfa -8 + ^
STACK CFI 2fd82 $r15: .cfa -16 + ^ .cfa: $rsp 16 +
STACK CFI 2fd84 $r14: .cfa -24 + ^ .cfa: $rsp 24 +
STACK CFI 2fd89 $r13: .cfa -32 + ^ .cfa: $rsp 32 +
STACK CFI 2fd8b $r12: .cfa -40 + ^ .cfa: $rsp 40 +
STACK CFI 2fd8f $rbp: .cfa -48 + ^ .cfa: $rsp 48 +
STACK CFI 2fd90 $rbx: .cfa -56 + ^ .cfa: $rsp 56 +
STACK CFI 2fd97 .cfa: $rsp 80 +
STACK CFI 2fe5d .cfa: $rsp 56 +
STACK CFI 2fe5e .cfa: $rsp 48 +
STACK CFI 2fe5f .cfa: $rsp 40 +
STACK CFI 2fe61 .cfa: $rsp 32 +
STACK CFI 2fe63 .cfa: $rsp 24 +
STACK CFI 2fe65 .cfa: $rsp 16 +
STACK CFI 2fe67 .cfa: $rsp 8 +
STACK CFI 2fe70 .cfa: $rsp 80 +
STACK CFI INIT 2cbb0 152 .cfa: $rsp 8 + .ra: .cfa -8 + ^
STACK CFI 2cbb2 $r12: .cfa -16 + ^ .cfa: $rsp 16 +
STACK CFI 2cbb3 $rbp: .cfa -24 + ^ .cfa: $rsp 24 +
STACK CFI 2cbb7 $rbx: .cfa -32 + ^ .cfa: $rsp 32 +
STACK CFI 2cbc1 .cfa: $rsp 64 +
STACK CFI 2cc14 .cfa: $rsp 32 +
STACK CFI 2cc15 .cfa: $rsp 24 +
STACK CFI 2cc16 .cfa: $rsp 16 +
STACK CFI 2cc18 .cfa: $rsp 8 +
STACK CFI 2cc20 .cfa: $rsp 64 +
STACK CFI INIT 2cd10 186 .cfa: $rsp 8 + .ra: .cfa -8 + ^
STACK CFI 2cd12 $r14: .cfa -16 + ^ .cfa: $rsp 16 +
STACK CFI 2cd14 $r13: .cfa -24 + ^ .cfa: $rsp 24 +
STACK CFI 2cd19 $r12: .cfa -32 + ^ .cfa: $rsp 32 +
STACK CFI 2cd1a $rbp: .cfa -40 + ^ .cfa: $rsp 40 +
STACK CFI 2cd1e $rbx: .cfa -48 + ^ .cfa: $rsp 48 +
STACK CFI 2cd38 .cfa: $rsp 112 +
STACK CFI 2cdf3 .cfa: $rsp 48 +
STACK CFI 2cdf4 .cfa: $rsp 40 +
STACK CFI 2cdf5 .cfa: $rsp 32 +
STACK CFI 2cdf7 .cfa: $rsp 24 +
STACK CFI 2cdf9 .cfa: $rsp 16 +
STACK CFI 2cdfb .cfa: $rsp 8 +
STACK CFI 2ce00 .cfa: $rsp 112 +
STACK CFI INIT 2cea0 1bd .cfa: $rsp 8 + .ra: .cfa -8 + ^
STACK CFI 2cea2 $r15: .cfa -16 + ^ .cfa: $rsp 16 +
STACK CFI 2cea4 $r14: .cfa -24 + ^ .cfa: $rsp 24 +
STACK CFI 2ceaa $r13: .cfa -32 + ^ .cfa: $rsp 32 +
STACK CFI 2ceac $r12: .cfa -40 + ^ .cfa: $rsp 40 +
STACK CFI 2ceb0 $rbp: .cfa -48 + ^ .cfa: $rsp 48 +
STACK CFI 2ceb1 $rbx: .cfa -56 + ^ .cfa: $rsp 56 +
STACK CFI 2cec7 .cfa: $rsp 128 +
STACK CFI 2cf88 .cfa: $rsp 56 +
STACK CFI 2cf89 .cfa: $rsp 48 +
STACK CFI 2cf8a .cfa: $rsp 40 +
STACK CFI 2cf8c .cfa: $rsp 32 +
STACK CFI 2cf8e .cfa: $rsp 24 +
STACK CFI 2cf90 .cfa: $rsp 16 +
STACK CFI 2cf92 .cfa: $rsp 8 +
STACK CFI 2cf98 .cfa: $rsp 128 +
STACK CFI INIT 2d060 169 .cfa: $rsp 8 + .ra: .cfa -8 + ^
STACK CFI 2d062 $r15: .cfa -16 + ^ .cfa: $rsp 16 +
STACK CFI 2d064 $r14: .cfa -24 + ^ .cfa: $rsp 24 +
STACK CFI 2d069 $r13: .cfa -32 + ^ .cfa: $rsp 32 +
STACK CFI 2d06b $r12: .cfa -40 + ^ .cfa: $rsp 40 +
STACK CFI 2d06c $rbp: .cfa -48 + ^ .cfa: $rsp 48 +
STACK CFI 2d06d $rbx: .cfa -56 + ^ .cfa: $rsp 56 +
STACK CFI 2d071 .cfa: $rsp 160 +
STACK CFI 2d17c .cfa: $rsp 56 +
STACK CFI 2d17d .cfa: $rsp 48 +
STACK CFI 2d17e .cfa: $rsp 40 +
STACK CFI 2d180 .cfa: $rsp 32 +
STACK CFI 2d182 .cfa: $rsp 24 +
STACK CFI 2d184 .cfa: $rsp 16 +
STACK CFI 2d186 .cfa: $rsp 8 +
STACK CFI 2d190 .cfa: $rsp 160 +
STACK CFI INIT 2feb0 3d .cfa: $rsp 8 + .ra: .cfa -8 + ^
STACK CFI INIT 2fef0 310 .cfa: $rsp 8 + .ra: .cfa -8 + ^
STACK CFI 2fef2 $r15: .cfa -16 + ^ .cfa: $rsp 16 +
STACK CFI 2fef4 $r14: .cfa -24 + ^ .cfa: $rsp 24 +
STACK CFI 2fef9 $r13: .cfa -32 + ^ .cfa: $rsp 32 +
STACK CFI 2fefb $r12: .cfa -40 + ^ .cfa: $rsp 40 +
STACK CFI 2feff $rbp: .cfa -48 + ^ .cfa: $rsp 48 +
STACK CFI 2ff00 $rbx: .cfa -56 + ^ .cfa: $rsp 56 +
STACK CFI 2ff0d .cfa: $rsp 112 +
STACK CFI 3009f .cfa: $rsp 56 +
STACK CFI 300a0 .cfa: $rsp 48 +
STACK CFI 300a1 .cfa: $rsp 40 +
STACK CFI 300a3 .cfa: $rsp 32 +
STACK CFI 300a5 .cfa: $rsp 24 +
STACK CFI 300a7 .cfa: $rsp 16 +
STACK CFI 300a9 .cfa: $rsp 8 +
STACK CFI 300b0 .cfa: $rsp 112 +
STACK CFI INIT 30200 309 .cfa: $rsp 8 + .ra: .cfa -8 + ^
STACK CFI 30202 $r15: .cfa -16 + ^ .cfa: $rsp 16 +
STACK CFI 30204 $r14: .cfa -24 + ^ .cfa: $rsp 24 +
STACK CFI 30209 $r13: .cfa -32 + ^ .cfa: $rsp 32 +
STACK CFI 3020b $r12: .cfa -40 + ^ .cfa: $rsp 40 +
STACK CFI 3020f $rbp: .cfa -48 + ^ .cfa: $rsp 48 +
STACK CFI 30210 $rbx: .cfa -56 + ^ .cfa: $rsp 56 +
STACK CFI 30220 .cfa: $rsp 112 +
STACK CFI 303c1 .cfa: $rsp 56 +
STACK CFI 303c2 .cfa: $rsp 48 +
STACK CFI 303c3 .cfa: $rsp 40 +
STACK CFI 303c5 .cfa: $rsp 32 +
STACK CFI 303c7 .cfa: $rsp 24 +
STACK CFI 303c9 .cfa: $rsp 16 +
STACK CFI 303cb .cfa: $rsp 8 +
STACK CFI 303d0 .cfa: $rsp 112 +
STACK CFI INIT 2d1d0 403 .cfa: $rsp 8 + .ra: .cfa -8 + ^
STACK CFI 2d1d2 $r15: .cfa -16 + ^ .cfa: $rsp 16 +
STACK CFI 2d1d4 $r14: .cfa -24 + ^ .cfa: $rsp 24 +
STACK CFI 2d1d6 $r13: .cfa -32 + ^ .cfa: $rsp 32 +
STACK CFI 2d1d8 $r12: .cfa -40 + ^ .cfa: $rsp 40 +
STACK CFI 2d1dc $rbp: .cfa -48 + ^ .cfa: $rsp 48 +
STACK CFI 2d1dd $rbx: .cfa -56 + ^ .cfa: $rsp 56 +
STACK CFI 2d1e9 .cfa: $rsp 176 +
STACK CFI 2d306 .cfa: $rsp 56 +
STACK CFI 2d307 .cfa: $rsp 48 +
STACK CFI 2d308 .cfa: $rsp 40 +
STACK CFI 2d30a .cfa: $rsp 32 +
STACK CFI 2d30c .cfa: $rsp 24 +
STACK CFI 2d30e .cfa: $rsp 16 +
STACK CFI 2d310 .cfa: $rsp 8 +
STACK CFI 2d318 .cfa: $rsp 176 +
STACK CFI INIT 2d5e0 430 .cfa: $rsp 8 + .ra: .cfa -8 + ^
STACK CFI 2d5e2 $r15: .cfa -16 + ^ .cfa: $rsp 16 +
STACK CFI 2d5e4 $r14: .cfa -24 + ^ .cfa: $rsp 24 +
STACK CFI 2d5e6 $r13: .cfa -32 + ^ .cfa: $rsp 32 +
STACK CFI 2d5e8 $r12: .cfa -40 + ^ .cfa: $rsp 40 +
STACK CFI 2d5ec $rbp: .cfa -48 + ^ .cfa: $rsp 48 +
STACK CFI 2d5ed $rbx: .cfa -56 + ^ .cfa: $rsp 56 +
STACK CFI 2d5f1 .cfa: $rsp 176 +
STACK CFI 2d767 .cfa: $rsp 56 +
STACK CFI 2d768 .cfa: $rsp 48 +
STACK CFI 2d769 .cfa: $rsp 40 +
STACK CFI 2d76b .cfa: $rsp 32 +
STACK CFI 2d76d .cfa: $rsp 24 +
STACK CFI 2d76f .cfa: $rsp 16 +
STACK CFI 2d771 .cfa: $rsp 8 +
STACK CFI 2d778 .cfa: $rsp 176 +
STACK CFI INIT 30510 62 .cfa: $rsp 8 + .ra: .cfa -8 + ^
STACK CFI 30517 $r12: .cfa -16 + ^ .cfa: $rsp 16 +
STACK CFI 3051b $rbp: .cfa -24 + ^ .cfa: $rsp 24 +
STACK CFI 3051c $rbx: .cfa -32 + ^ .cfa: $rsp 32 +
STACK CFI 30564 .cfa: $rsp 24 +
STACK CFI 30565 .cfa: $rsp 16 +
STACK CFI 30567 .cfa: $rsp 8 +
STACK CFI 30570 $r12: $r12 $rbp: $rbp $rbx: $rbx
STACK CFI INIT 2da10 214 .cfa: $rsp 8 + .ra: .cfa -8 + ^
STACK CFI 2da12 $r15: .cfa -16 + ^ .cfa: $rsp 16 +
STACK CFI 2da14 $r14: .cfa -24 + ^ .cfa: $rsp 24 +
STACK CFI 2da16 $r13: .cfa -32 + ^ .cfa: $rsp 32 +
STACK CFI 2da18 $r12: .cfa -40 + ^ .cfa: $rsp 40 +
STACK CFI 2da1c $rbp: .cfa -48 + ^ .cfa: $rsp 48 +
STACK CFI 2da1d $rbx: .cfa -56 + ^ .cfa: $rsp 56 +
STACK CFI 2da21 .cfa: $rsp 160 +
STACK CFI 2db84 .cfa: $rsp 56 +
STACK CFI 2db85 .cfa: $rsp 48 +
STACK CFI 2db86 .cfa: $rsp 40 +
STACK CFI 2db88 .cfa: $rsp 32 +
STACK CFI 2db8a .cfa: $rsp 24 +
STACK CFI 2db8c .cfa: $rsp 16 +
STACK CFI 2db8e .cfa: $rsp 8 +
STACK CFI 2db90 .cfa: $rsp 160 +
STACK CFI INIT 30580 14e .cfa: $rsp 8 + .ra: .cfa -8 + ^
STACK CFI 30582 $r14: .cfa -16 + ^ .cfa: $rsp 16 +
STACK CFI 30584 $r13: .cfa -24 + ^ .cfa: $rsp 24 +
STACK CFI 30586 $r12: .cfa -32 + ^ .cfa: $rsp 32 +
STACK CFI 30587 $rbp: .cfa -40 + ^ .cfa: $rsp 40 +
STACK CFI 3058b $rbx: .cfa -48 + ^ .cfa: $rsp 48 +
STACK CFI 30642 .cfa: $rsp 40 +
STACK CFI 30643 .cfa: $rsp 32 +
STACK CFI 30645 .cfa: $rsp 24 +
STACK CFI 30647 .cfa: $rsp 16 +
STACK CFI 30649 .cfa: $rsp 8 +
STACK CFI 30650 .cfa: $rsp 48 +
STACK CFI 30673 .cfa: $rsp 40 +
STACK CFI 30682 .cfa: $rsp 32 +
STACK CFI 30684 .cfa: $rsp 24 +
STACK CFI 30686 .cfa: $rsp 16 +
STACK CFI 30688 .cfa: $rsp 8 +
STACK CFI 30690 .cfa: $rsp 48 +
STACK CFI INIT 2dc30 163 .cfa: $rsp 8 + .ra: .cfa -8 + ^
STACK CFI 2dc32 $r13: .cfa -16 + ^ .cfa: $rsp 16 +
STACK CFI 2dc34 $r12: .cfa -24 + ^ .cfa: $rsp 24 +
STACK CFI 2dc38 $rbp: .cfa -32 + ^ .cfa: $rsp 32 +
STACK CFI 2dc39 $rbx: .cfa -40 + ^ .cfa: $rsp 40 +
STACK CFI 2dc40 .cfa: $rsp 144 +
STACK CFI 2dc7d .cfa: $rsp 40 +
STACK CFI 2dc7e .cfa: $rsp 32 +
STACK CFI 2dc7f .cfa: $rsp 24 +
STACK CFI 2dc81 .cfa: $rsp 16 +
STACK CFI 2dc83 .cfa: $rsp 8 +
STACK CFI 2dc88 .cfa: $rsp 144 +
STACK CFI INIT 306d0 16a .cfa: $rsp 8 + .ra: .cfa -8 + ^
STACK CFI 306d2 $r15: .cfa -16 + ^ .cfa: $rsp 16 +
STACK CFI 306d4 $r14: .cfa -24 + ^ .cfa: $rsp 24 +
STACK CFI 306da $r13: .cfa -32 + ^ .cfa: $rsp 32 +
STACK CFI 306dc $r12: .cfa -40 + ^ .cfa: $rsp 40 +
STACK CFI 306e0 $rbp: .cfa -48 + ^ .cfa: $rsp 48 +
STACK CFI 306e1 $rbx: .cfa -56 + ^ .cfa: $rsp 56 +
STACK CFI 306e8 .cfa: $rsp 64 +
STACK CFI 30736 .cfa: $rsp 56 +
STACK CFI 3073c .cfa: $rsp 48 +
STACK CFI 3073d .cfa: $rsp 40 +
STACK CFI 3073f .cfa: $rsp 32 +
STACK CFI 30741 .cfa: $rsp 24 +
STACK CFI 30743 .cfa: $rsp 16 +
STACK CFI 30745 .cfa: $rsp 8 +
STACK CFI 30750 .cfa: $rsp 64 +
STACK CFI 307ed .cfa: $rsp 56 +
STACK CFI 307f6 .cfa: $rsp 48 +
STACK CFI 307f7 .cfa: $rsp 40 +
STACK CFI 307f9 .cfa: $rsp 32 +
STACK CFI 307fb .cfa: $rsp 24 +
STACK CFI 307fd .cfa: $rsp 16 +
STACK CFI 307ff .cfa: $rsp 8 +
STACK CFI 30800 .cfa: $rsp 64 +
STACK CFI INIT 30840 244 .cfa: $rsp 8 + .ra: .cfa -8 + ^
STACK CFI 30842 $r13: .cfa -16 + ^ .cfa: $rsp 16 +
STACK CFI 30844 $r12: .cfa -24 + ^ .cfa: $rsp 24 +
STACK CFI 30845 $rbp: .cfa -32 + ^ .cfa: $rsp 32 +
STACK CFI 30846 $rbx: .cfa -40 + ^ .cfa: $rsp 40 +
STACK CFI 3084a .cfa: $rsp 128 +
STACK CFI 30953 .cfa: $rsp 40 +
STACK CFI 30954 .cfa: $rsp 32 +
STACK CFI 30955 .cfa: $rsp 24 +
STACK CFI 30957 .cfa: $rsp 16 +
STACK CFI 30959 .cfa: $rsp 8 +
STACK CFI 30960 .cfa: $rsp 128 +
STACK CFI INIT 2dda0 214 .cfa: $rsp 8 + .ra: .cfa -8 + ^
STACK CFI 2dda2 $r15: .cfa -16 + ^ .cfa: $rsp 16 +
STACK CFI 2dda4 $r14: .cfa -24 + ^ .cfa: $rsp 24 +
STACK CFI 2dda6 $r13: .cfa -32 + ^ .cfa: $rsp 32 +
STACK CFI 2dda8 $r12: .cfa -40 + ^ .cfa: $rsp 40 +
STACK CFI 2dda9 $rbp: .cfa -48 + ^ .cfa: $rsp 48 +
STACK CFI 2ddaa $rbx: .cfa -56 + ^ .cfa: $rsp 56 +
STACK CFI 2ddb4 .cfa: $rsp 176 +
STACK CFI 2de04 .cfa: $rsp 56 +
STACK CFI 2de05 .cfa: $rsp 48 +
STACK CFI 2de06 .cfa: $rsp 40 +
STACK CFI 2de08 .cfa: $rsp 32 +
STACK CFI 2de0a .cfa: $rsp 24 +
STACK CFI 2de0c .cfa: $rsp 16 +
STACK CFI 2de0e .cfa: $rsp 8 +
STACK CFI 2de10 .cfa: $rsp 176 +
STACK CFI INIT 30a90 3a .cfa: $rsp 8 + .ra: .cfa -8 + ^
STACK CFI 30a97 $r12: .cfa -16 + ^ .cfa: $rsp 16 +
STACK CFI 30a9b $rbp: .cfa -24 + ^ .cfa: $rsp 24 +
STACK CFI 30a9c $rbx: .cfa -32 + ^ .cfa: $rsp 32 +
STACK CFI 30ac0 .cfa: $rsp 24 +
STACK CFI 30ac1 .cfa: $rsp 16 +
STACK CFI 30ac3 .cfa: $rsp 8 +
STACK CFI 30ac8 $r12: $r12 $rbp: $rbp $rbx: $rbx
STACK CFI INIT 30ad0 f3 .cfa: $rsp 8 + .ra: .cfa -8 + ^
STACK CFI 30ad2 $r13: .cfa -16 + ^ .cfa: $rsp 16 +
STACK CFI 30ad4 $r12: .cfa -24 + ^ .cfa: $rsp 24 +
STACK CFI 30ad8 $rbp: .cfa -32 + ^ .cfa: $rsp 32 +
STACK CFI 30ad9 $rbx: .cfa -40 + ^ .cfa: $rsp 40 +
STACK CFI 30add .cfa: $rsp 48 +
STACK CFI 30b62 .cfa: $rsp 40 +
STACK CFI 30b63 .cfa: $rsp 32 +
STACK CFI 30b64 .cfa: $rsp 24 +
STACK CFI 30b66 .cfa: $rsp 16 +
STACK CFI 30b68 .cfa: $rsp 8 +
STACK CFI 30b70 .cfa: $rsp 48 +
STACK CFI 30bb0 .cfa: $rsp 40 +
STACK CFI 30bb9 .cfa: $rsp 32 +
STACK CFI 30bba .cfa: $rsp 24 +
STACK CFI 30bbc .cfa: $rsp 16 +
STACK CFI 30bbe .cfa: $rsp 8 +
STACK CFI INIT 30bd0 ad .cfa: $rsp 8 + .ra: .cfa -8 + ^
STACK CFI 30bd9 $r12: .cfa -16 + ^ .cfa: $rsp 16 +
STACK CFI 30bda $rbp: .cfa -24 + ^ .cfa: $rsp 24 +
STACK CFI 30bdb $rbx: .cfa -32 + ^ .cfa: $rsp 32 +
STACK CFI 30c6c .cfa: $rsp 24 +
STACK CFI 30c6d .cfa: $rsp 16 +
STACK CFI 30c6f .cfa: $rsp 8 +
STACK CFI 30c78 .cfa: $rsp 32 +
STACK CFI 30c79 .cfa: $rsp 24 +
STACK CFI 30c7a .cfa: $rsp 16 +
STACK CFI 30c7c .cfa: $rsp 8 +
STACK CFI INIT 30c80 b1 .cfa: $rsp 8 + .ra: .cfa -8 + ^
STACK CFI 30c89 $r12: .cfa -16 + ^ .cfa: $rsp 16 +
STACK CFI 30c8a $rbp: .cfa -24 + ^ .cfa: $rsp 24 +
STACK CFI 30c8b $rbx: .cfa -32 + ^ .cfa: $rsp 32 +
STACK CFI 30d21 .cfa: $rsp 24 +
STACK CFI 30d2a .cfa: $rsp 16 +
STACK CFI 30d2c .cfa: $rsp 8 +
STACK CFI INIT 30d40 17a .cfa: $rsp 8 + .ra: .cfa -8 + ^
STACK CFI 30d42 $r15: .cfa -16 + ^ .cfa: $rsp 16 +
STACK CFI 30d44 $r14: .cfa -24 + ^ .cfa: $rsp 24 +
STACK CFI 30d4a $r13: .cfa -32 + ^ .cfa: $rsp 32 +
STACK CFI 30d4c $r12: .cfa -40 + ^ .cfa: $rsp 40 +
STACK CFI 30d50 $rbp: .cfa -48 + ^ .cfa: $rsp 48 +
STACK CFI 30d51 $rbx: .cfa -56 + ^ .cfa: $rsp 56 +
STACK CFI 30d58 .cfa: $rsp 64 +
STACK CFI 30da8 .cfa: $rsp 56 +
STACK CFI 30dae .cfa: $rsp 48 +
STACK CFI 30daf .cfa: $rsp 40 +
STACK CFI 30db1 .cfa: $rsp 32 +
STACK CFI 30db3 .cfa: $rsp 24 +
STACK CFI 30db5 .cfa: $rsp 16 +
STACK CFI 30db7 .cfa: $rsp 8 +
STACK CFI 30dc0 .cfa: $rsp 64 +
STACK CFI 30e6d .cfa: $rsp 56 +
STACK CFI 30e76 .cfa: $rsp 48 +
STACK CFI 30e77 .cfa: $rsp 40 +
STACK CFI 30e79 .cfa: $rsp 32 +
STACK CFI 30e7b .cfa: $rsp 24 +
STACK CFI 30e7d .cfa: $rsp 16 +
STACK CFI 30e7f .cfa: $rsp 8 +
STACK CFI 30e80 .cfa: $rsp 64 +
STACK CFI INIT 30ec0 9bf .cfa: $rsp 8 + .ra: .cfa -8 + ^
STACK CFI 30ec2 $r15: .cfa -16 + ^ .cfa: $rsp 16 +
STACK CFI 30ec4 $r14: .cfa -24 + ^ .cfa: $rsp 24 +
STACK CFI 30ec6 $r13: .cfa -32 + ^ .cfa: $rsp 32 +
STACK CFI 30ec8 $r12: .cfa -40 + ^ .cfa: $rsp 40 +
STACK CFI 30ecc $rbp: .cfa -48 + ^ .cfa: $rsp 48 +
STACK CFI 30ecd $rbx: .cfa -56 + ^ .cfa: $rsp 56 +
STACK CFI 30ed4 .cfa: $rsp 368 +
STACK CFI 31185 .cfa: $rsp 56 +
STACK CFI 31186 .cfa: $rsp 48 +
STACK CFI 31187 .cfa: $rsp 40 +
STACK CFI 31189 .cfa: $rsp 32 +
STACK CFI 3118b .cfa: $rsp 24 +
STACK CFI 3118d .cfa: $rsp 16 +
STACK CFI 3118f .cfa: $rsp 8 +
STACK CFI 31190 .cfa: $rsp 368 +
STACK CFI INIT 31880 17a .cfa: $rsp 8 + .ra: .cfa -8 + ^
STACK CFI 31882 $r15: .cfa -16 + ^ .cfa: $rsp 16 +
STACK CFI 31884 $r14: .cfa -24 + ^ .cfa: $rsp 24 +
STACK CFI 3188a $r13: .cfa -32 + ^ .cfa: $rsp 32 +
STACK CFI 3188c $r12: .cfa -40 + ^ .cfa: $rsp 40 +
STACK CFI 31890 $rbp: .cfa -48 + ^ .cfa: $rsp 48 +
STACK CFI 31891 $rbx: .cfa -56 + ^ .cfa: $rsp 56 +
STACK CFI 31898 .cfa: $rsp 64 +
STACK CFI 318e8 .cfa: $rsp 56 +
STACK CFI 318ee .cfa: $rsp 48 +
STACK CFI 318ef .cfa: $rsp 40 +
STACK CFI 318f1 .cfa: $rsp 32 +
STACK CFI 318f3 .cfa: $rsp 24 +
STACK CFI 318f5 .cfa: $rsp 16 +
STACK CFI 318f7 .cfa: $rsp 8 +
STACK CFI 31900 .cfa: $rsp 64 +
STACK CFI 319ad .cfa: $rsp 56 +
STACK CFI 319b6 .cfa: $rsp 48 +
STACK CFI 319b7 .cfa: $rsp 40 +
STACK CFI 319b9 .cfa: $rsp 32 +
STACK CFI 319bb .cfa: $rsp 24 +
STACK CFI 319bd .cfa: $rsp 16 +
STACK CFI 319bf .cfa: $rsp 8 +
STACK CFI 319c0 .cfa: $rsp 64 +
STACK CFI INIT 31a00 8ae .cfa: $rsp 8 + .ra: .cfa -8 + ^
STACK CFI 31a02 $r15: .cfa -16 + ^ .cfa: $rsp 16 +
STACK CFI 31a04 $r14: .cfa -24 + ^ .cfa: $rsp 24 +
STACK CFI 31a06 $r13: .cfa -32 + ^ .cfa: $rsp 32 +
STACK CFI 31a08 $r12: .cfa -40 + ^ .cfa: $rsp 40 +
STACK CFI 31a0c $rbp: .cfa -48 + ^ .cfa: $rsp 48 +
STACK CFI 31a0d $rbx: .cfa -56 + ^ .cfa: $rsp 56 +
STACK CFI 31a14 .cfa: $rsp 368 +
STACK CFI 31cc5 .cfa: $rsp 56 +
STACK CFI 31cc6 .cfa: $rsp 48 +
STACK CFI 31cc7 .cfa: $rsp 40 +
STACK CFI 31cc9 .cfa: $rsp 32 +
STACK CFI 31ccb .cfa: $rsp 24 +
STACK CFI 31ccd .cfa: $rsp 16 +
STACK CFI 31ccf .cfa: $rsp 8 +
STACK CFI 31cd0 .cfa: $rsp 368 +
STACK CFI INIT 322b0 8a .cfa: $rsp 8 + .ra: .cfa -8 + ^
STACK CFI 322b1 $rbp: .cfa -16 + ^ .cfa: $rsp 16 +
STACK CFI 322b2 $rbx: .cfa -24 + ^ .cfa: $rsp 24 +
STACK CFI 322b6 .cfa: $rsp 32 +
STACK CFI 3230b .cfa: $rsp 24 +
STACK CFI 3230c .cfa: $rsp 16 +
STACK CFI 3230d .cfa: $rsp 8 +
STACK CFI 32310 .cfa: $rsp 32 +
STACK CFI INIT 32340 163 .cfa: $rsp 8 + .ra: .cfa -8 + ^
STACK CFI 32342 $r15: .cfa -16 + ^ .cfa: $rsp 16 +
STACK CFI 32344 $r14: .cfa -24 + ^ .cfa: $rsp 24 +
STACK CFI 32349 $r13: .cfa -32 + ^ .cfa: $rsp 32 +
STACK CFI 3234b $r12: .cfa -40 + ^ .cfa: $rsp 40 +
STACK CFI 32350 $rbp: .cfa -48 + ^ .cfa: $rsp 48 +
STACK CFI 32351 $rbx: .cfa -56 + ^ .cfa: $rsp 56 +
STACK CFI 32358 .cfa: $rsp 64 +
STACK CFI 323a6 .cfa: $rsp 56 +
STACK CFI 323ac .cfa: $rsp 48 +
STACK CFI 323ad .cfa: $rsp 40 +
STACK CFI 323af .cfa: $rsp 32 +
STACK CFI 323b1 .cfa: $rsp 24 +
STACK CFI 323b3 .cfa: $rsp 16 +
STACK CFI 323b5 .cfa: $rsp 8 +
STACK CFI 323c0 .cfa: $rsp 64 +
STACK CFI 3244d .cfa: $rsp 56 +
STACK CFI 32456 .cfa: $rsp 48 +
STACK CFI 32457 .cfa: $rsp 40 +
STACK CFI 32459 .cfa: $rsp 32 +
STACK CFI 3245b .cfa: $rsp 24 +
STACK CFI 3245d .cfa: $rsp 16 +
STACK CFI 3245f .cfa: $rsp 8 +
STACK CFI 32460 .cfa: $rsp 64 +
STACK CFI INIT 324b0 725 .cfa: $rsp 8 + .ra: .cfa -8 + ^
STACK CFI 324b2 $r15: .cfa -16 + ^ .cfa: $rsp 16 +
STACK CFI 324b4 $r14: .cfa -24 + ^ .cfa: $rsp 24 +
STACK CFI 324b6 $r13: .cfa -32 + ^ .cfa: $rsp 32 +
STACK CFI 324b8 $r12: .cfa -40 + ^ .cfa: $rsp 40 +
STACK CFI 324bc $rbp: .cfa -48 + ^ .cfa: $rsp 48 +
STACK CFI 324bd $rbx: .cfa -56 + ^ .cfa: $rsp 56 +
STACK CFI 324c4 .cfa: $rsp 304 +
STACK CFI 3276b .cfa: $rsp 56 +
STACK CFI 3276c .cfa: $rsp 48 +
STACK CFI 3276d .cfa: $rsp 40 +
STACK CFI 3276f .cfa: $rsp 32 +
STACK CFI 32771 .cfa: $rsp 24 +
STACK CFI 32773 .cfa: $rsp 16 +
STACK CFI 32775 .cfa: $rsp 8 +
STACK CFI 32780 .cfa: $rsp 304 +
STACK CFI INIT 32be0 8a .cfa: $rsp 8 + .ra: .cfa -8 + ^
STACK CFI 32be1 $rbp: .cfa -16 + ^ .cfa: $rsp 16 +
STACK CFI 32be2 $rbx: .cfa -24 + ^ .cfa: $rsp 24 +
STACK CFI 32be6 .cfa: $rsp 32 +
STACK CFI 32c3b .cfa: $rsp 24 +
STACK CFI 32c3c .cfa: $rsp 16 +
STACK CFI 32c3d .cfa: $rsp 8 +
STACK CFI 32c40 .cfa: $rsp 32 +
STACK CFI INIT 32c70 f0 .cfa: $rsp 8 + .ra: .cfa -8 + ^
STACK CFI 32c72 $r13: .cfa -16 + ^ .cfa: $rsp 16 +
STACK CFI 32c78 $r12: .cfa -24 + ^ .cfa: $rsp 24 +
STACK CFI 32c79 $rbp: .cfa -32 + ^ .cfa: $rsp 32 +
STACK CFI 32c7a $rbx: .cfa -40 + ^ .cfa: $rsp 40 +
STACK CFI 32c84 .cfa: $rsp 48 +
STACK CFI 32cc8 .cfa: $rsp 40 +
STACK CFI 32cc9 .cfa: $rsp 32 +
STACK CFI 32cca .cfa: $rsp 24 +
STACK CFI 32ccc .cfa: $rsp 16 +
STACK CFI 32cce .cfa: $rsp 8 +
STACK CFI 32cd0 .cfa: $rsp 48 +
STACK CFI 32d20 .cfa: $rsp 40 +
STACK CFI 32d27 .cfa: $rsp 32 +
STACK CFI 32d28 .cfa: $rsp 24 +
STACK CFI 32d2a .cfa: $rsp 16 +
STACK CFI 32d2c .cfa: $rsp 8 +
STACK CFI 32d38 .cfa: $rsp 48 +
STACK CFI 32d3c .cfa: $rsp 40 +
STACK CFI 32d42 .cfa: $rsp 32 +
STACK CFI 32d43 .cfa: $rsp 24 +
STACK CFI 32d45 .cfa: $rsp 16 +
STACK CFI 32d47 .cfa: $rsp 8 +
STACK CFI 32d50 .cfa: $rsp 48 +
STACK CFI 32d54 .cfa: $rsp 40 +
STACK CFI 32d5a .cfa: $rsp 32 +
STACK CFI 32d5b .cfa: $rsp 24 +
STACK CFI 32d5d .cfa: $rsp 16 +
STACK CFI 32d5f .cfa: $rsp 8 +
STACK CFI INIT 2dfc0 2d9 .cfa: $rsp 8 + .ra: .cfa -8 + ^
STACK CFI 2dfc2 $r15: .cfa -16 + ^ .cfa: $rsp 16 +
STACK CFI 2dfc4 $r14: .cfa -24 + ^ .cfa: $rsp 24 +
STACK CFI 2dfc6 $r13: .cfa -32 + ^ .cfa: $rsp 32 +
STACK CFI 2dfc8 $r12: .cfa -40 + ^ .cfa: $rsp 40 +
STACK CFI 2dfcc $rbp: .cfa -48 + ^ .cfa: $rsp 48 +
STACK CFI 2dfcd $rbx: .cfa -56 + ^ .cfa: $rsp 56 +
STACK CFI 2dfdb .cfa: $rsp 144 +
STACK CFI 2e12a .cfa: $rsp 56 +
STACK CFI 2e12b .cfa: $rsp 48 +
STACK CFI 2e12c .cfa: $rsp 40 +
STACK CFI 2e12e .cfa: $rsp 32 +
STACK CFI 2e130 .cfa: $rsp 24 +
STACK CFI 2e132 .cfa: $rsp 16 +
STACK CFI 2e134 .cfa: $rsp 8 +
STACK CFI 2e138 .cfa: $rsp 144 +
STACK CFI INIT 32d60 f0 .cfa: $rsp 8 + .ra: .cfa -8 + ^
STACK CFI 32d62 $r13: .cfa -16 + ^ .cfa: $rsp 16 +
STACK CFI 32d68 $r12: .cfa -24 + ^ .cfa: $rsp 24 +
STACK CFI 32d69 $rbp: .cfa -32 + ^ .cfa: $rsp 32 +
STACK CFI 32d6a $rbx: .cfa -40 + ^ .cfa: $rsp 40 +
STACK CFI 32d74 .cfa: $rsp 48 +
STACK CFI 32db8 .cfa: $rsp 40 +
STACK CFI 32db9 .cfa: $rsp 32 +
STACK CFI 32dba .cfa: $rsp 24 +
STACK CFI 32dbc .cfa: $rsp 16 +
STACK CFI 32dbe .cfa: $rsp 8 +
STACK CFI 32dc0 .cfa: $rsp 48 +
STACK CFI 32e10 .cfa: $rsp 40 +
STACK CFI 32e17 .cfa: $rsp 32 +
STACK CFI 32e18 .cfa: $rsp 24 +
STACK CFI 32e1a .cfa: $rsp 16 +
STACK CFI 32e1c .cfa: $rsp 8 +
STACK CFI 32e28 .cfa: $rsp 48 +
STACK CFI 32e2c .cfa: $rsp 40 +
STACK CFI 32e32 .cfa: $rsp 32 +
STACK CFI 32e33 .cfa: $rsp 24 +
STACK CFI 32e35 .cfa: $rsp 16 +
STACK CFI 32e37 .cfa: $rsp 8 +
STACK CFI 32e40 .cfa: $rsp 48 +
STACK CFI 32e44 .cfa: $rsp 40 +
STACK CFI 32e4a .cfa: $rsp 32 +
STACK CFI 32e4b .cfa: $rsp 24 +
STACK CFI 32e4d .cfa: $rsp 16 +
STACK CFI 32e4f .cfa: $rsp 8 +
STACK CFI INIT 32e50 3b4 .cfa: $rsp 8 + .ra: .cfa -8 + ^
STACK CFI 32e52 $r15: .cfa -16 + ^ .cfa: $rsp 16 +
STACK CFI 32e54 $r14: .cfa -24 + ^ .cfa: $rsp 24 +
STACK CFI 32e56 $r13: .cfa -32 + ^ .cfa: $rsp 32 +
STACK CFI 32e58 $r12: .cfa -40 + ^ .cfa: $rsp 40 +
STACK CFI 32e59 $rbp: .cfa -48 + ^ .cfa: $rsp 48 +
STACK CFI 32e5a $rbx: .cfa -56 + ^ .cfa: $rsp 56 +
STACK CFI 32e5e .cfa: $rsp 128 +
STACK CFI 32ea8 .cfa: $rsp 56 +
STACK CFI 32ea9 .cfa: $rsp 48 +
STACK CFI 32eaa .cfa: $rsp 40 +
STACK CFI 32eac .cfa: $rsp 32 +
STACK CFI 32eae .cfa: $rsp 24 +
STACK CFI 32eb0 .cfa: $rsp 16 +
STACK CFI 32eb2 .cfa: $rsp 8 +
STACK CFI 32eb8 .cfa: $rsp 128 +
STACK CFI INIT 2e2a0 58b .cfa: $rsp 8 + .ra: .cfa -8 + ^
STACK CFI 2e2a2 $r15: .cfa -16 + ^ .cfa: $rsp 16 +
STACK CFI 2e2a4 $r14: .cfa -24 + ^ .cfa: $rsp 24 +
STACK CFI 2e2a9 $r13: .cfa -32 + ^ .cfa: $rsp 32 +
STACK CFI 2e2ab $r12: .cfa -40 + ^ .cfa: $rsp 40 +
STACK CFI 2e2ac $rbp: .cfa -48 + ^ .cfa: $rsp 48 +
STACK CFI 2e2ad $rbx: .cfa -56 + ^ .cfa: $rsp 56 +
STACK CFI 2e2b8 .cfa: $rsp 288 +
STACK CFI 2e36c .cfa: $rsp 56 +
STACK CFI 2e36d .cfa: $rsp 48 +
STACK CFI 2e36e .cfa: $rsp 40 +
STACK CFI 2e370 .cfa: $rsp 32 +
STACK CFI 2e372 .cfa: $rsp 24 +
STACK CFI 2e374 .cfa: $rsp 16 +
STACK CFI 2e376 .cfa: $rsp 8 +
STACK CFI 2e380 .cfa: $rsp 288 +
STACK CFI INIT 2e830 70c .cfa: $rsp 8 + .ra: .cfa -8 + ^
STACK CFI 2e832 $r15: .cfa -16 + ^ .cfa: $rsp 16 +
STACK CFI 2e834 $r14: .cfa -24 + ^ .cfa: $rsp 24 +
STACK CFI 2e836 $r13: .cfa -32 + ^ .cfa: $rsp 32 +
STACK CFI 2e838 $r12: .cfa -40 + ^ .cfa: $rsp 40 +
STACK CFI 2e839 $rbp: .cfa -48 + ^ .cfa: $rsp 48 +
STACK CFI 2e83a $rbx: .cfa -56 + ^ .cfa: $rsp 56 +
STACK CFI 2e841 .cfa: $rsp 208 +
STACK CFI 2ea61 .cfa: $rsp 56 +
STACK CFI 2ea62 .cfa: $rsp 48 +
STACK CFI 2ea63 .cfa: $rsp 40 +
STACK CFI 2ea65 .cfa: $rsp 32 +
STACK CFI 2ea67 .cfa: $rsp 24 +
STACK CFI 2ea69 .cfa: $rsp 16 +
STACK CFI 2ea6b .cfa: $rsp 8 +
STACK CFI 2ea70 .cfa: $rsp 208 +
STACK CFI INIT 29ec0 2e .cfa: $rsp 8 + .ra: .cfa -8 + ^
STACK CFI 29ecb .cfa: $rsp 16 +
STACK CFI 29ee9 .cfa: $rsp 8 +
STACK CFI INIT 332d0 5 .cfa: $rsp 8 + .ra: .cfa -8 + ^
STACK CFI INIT 332e0 42 .cfa: $rsp 8 + .ra: .cfa -8 + ^
STACK CFI 332e8 $rbx: .cfa -16 + ^ .cfa: $rsp 16 +
STACK CFI 33312 .cfa: $rsp 8 +
STACK CFI 33320 .cfa: $rsp 16 +
STACK CFI 33321 .cfa: $rsp 8 +
STACK CFI INIT 33330 44 .cfa: $rsp 8 + .ra: .cfa -8 + ^
STACK CFI 33338 $rbx: .cfa -16 + ^ .cfa: $rsp 16 +
STACK CFI 3336f .cfa: $rsp 8 +
STACK CFI INIT 33210 8f .cfa: $rsp 8 + .ra: .cfa -8 + ^
STACK CFI 33212 $r12: .cfa -16 + ^ .cfa: $rsp 16 +
STACK CFI 33213 $rbp: .cfa -24 + ^ .cfa: $rsp 24 +
STACK CFI 33217 $rbx: .cfa -32 + ^ .cfa: $rsp 32 +
STACK CFI 33284 .cfa: $rsp 24 +
STACK CFI 3328e .cfa: $rsp 16 +
STACK CFI 33290 .cfa: $rsp 8 +
STACK CFI 33298 .cfa: $rsp 32 +
STACK CFI INIT 332a0 22 .cfa: $rsp 8 + .ra: .cfa -8 + ^
STACK CFI 332a1 $rbx: .cfa -16 + ^ .cfa: $rsp 16 +
STACK CFI 332b2 .cfa: $rsp 8 +
STACK CFI 332c0 .cfa: $rsp 16 +
STACK CFI 332c1 .cfa: $rsp 8 +
STACK CFI INIT 33fe0 2 .cfa: $rsp 8 + .ra: .cfa -8 + ^
STACK CFI INIT 33ff0 a .cfa: $rsp 8 + .ra: .cfa -8 + ^
STACK CFI INIT 33380 9 .cfa: $rsp 8 + .ra: .cfa -8 + ^
STACK CFI INIT 33390 d .cfa: $rsp 8 + .ra: .cfa -8 + ^
STACK CFI INIT 333a0 c8 .cfa: $rsp 8 + .ra: .cfa -8 + ^
STACK CFI 333a2 $r12: .cfa -16 + ^ .cfa: $rsp 16 +
STACK CFI 333a3 $rbp: .cfa -24 + ^ .cfa: $rsp 24 +
STACK CFI 333a7 $rbx: .cfa -32 + ^ .cfa: $rsp 32 +
STACK CFI 333ae .cfa: $rsp 48 +
STACK CFI 33414 .cfa: $rsp 32 +
STACK CFI 33415 .cfa: $rsp 24 +
STACK CFI 33416 .cfa: $rsp 16 +
STACK CFI 33418 .cfa: $rsp 8 +
STACK CFI 33420 .cfa: $rsp 48 +
STACK CFI INIT 33470 8d .cfa: $rsp 8 + .ra: .cfa -8 + ^
STACK CFI 3348a $r12: .cfa -16 + ^ .cfa: $rsp 16 +
STACK CFI 3348b $rbp: .cfa -24 + ^ .cfa: $rsp 24 +
STACK CFI 33490 $rbx: .cfa -32 + ^ .cfa: $rsp 32 +
STACK CFI 334bc .cfa: $rsp 24 +
STACK CFI 334bd .cfa: $rsp 16 +
STACK CFI 334bf .cfa: $rsp 8 +
STACK CFI 334c0 .cfa: $rsp 32 +
STACK CFI INIT 33500 242 .cfa: $rsp 8 + .ra: .cfa -8 + ^
STACK CFI 33502 $r15: .cfa -16 + ^ .cfa: $rsp 16 +
STACK CFI 33504 $r14: .cfa -24 + ^ .cfa: $rsp 24 +
STACK CFI 33506 $r13: .cfa -32 + ^ .cfa: $rsp 32 +
STACK CFI 33508 $r12: .cfa -40 + ^ .cfa: $rsp 40 +
STACK CFI 3350c $rbp: .cfa -48 + ^ .cfa: $rsp 48 +
STACK CFI 3350d $rbx: .cfa -56 + ^ .cfa: $rsp 56 +
STACK CFI 33514 .cfa: $rsp 96 +
STACK CFI 3370a .cfa: $rsp 56 +
STACK CFI 3370b .cfa: $rsp 48 +
STACK CFI 3370c .cfa: $rsp 40 +
STACK CFI 3370e .cfa: $rsp 32 +
STACK CFI 33710 .cfa: $rsp 24 +
STACK CFI 33712 .cfa: $rsp 16 +
STACK CFI 33714 .cfa: $rsp 8 +
STACK CFI 33718 .cfa: $rsp 96 +
STACK CFI INIT 34000 4a .cfa: $rsp 8 + .ra: .cfa -8 + ^
STACK CFI 34002 $r13: .cfa -16 + ^ .cfa: $rsp 16 +
STACK CFI 34004 $r12: .cfa -24 + ^ .cfa: $rsp 24 +
STACK CFI 34008 $rbp: .cfa -32 + ^ .cfa: $rsp 32 +
STACK CFI 34009 $rbx: .cfa -40 + ^ .cfa: $rsp 40 +
STACK CFI 3400d .cfa: $rsp 48 +
STACK CFI 34043 .cfa: $rsp 40 +
STACK CFI 34044 .cfa: $rsp 32 +
STACK CFI 34045 .cfa: $rsp 24 +
STACK CFI 34047 .cfa: $rsp 16 +
STACK CFI 34049 .cfa: $rsp 8 +
STACK CFI INIT 34050 3c .cfa: $rsp 8 + .ra: .cfa -8 + ^
STACK CFI 34058 $rbx: .cfa -16 + ^ .cfa: $rsp 16 +
STACK CFI 34087 .cfa: $rsp 8 +
STACK CFI INIT 33750 5f4 .cfa: $rsp 8 + .ra: .cfa -8 + ^
STACK CFI 33752 $r15: .cfa -16 + ^ .cfa: $rsp 16 +
STACK CFI 33754 $r14: .cfa -24 + ^ .cfa: $rsp 24 +
STACK CFI 33759 $r13: .cfa -32 + ^ .cfa: $rsp 32 +
STACK CFI 3375b $r12: .cfa -40 + ^ .cfa: $rsp 40 +
STACK CFI 3375f $rbp: .cfa -48 + ^ .cfa: $rsp 48 +
STACK CFI 33760 $rbx: .cfa -56 + ^ .cfa: $rsp 56 +
STACK CFI 33767 .cfa: $rsp 528 +
STACK CFI 33ae2 .cfa: $rsp 56 +
STACK CFI 33ae3 .cfa: $rsp 48 +
STACK CFI 33ae4 .cfa: $rsp 40 +
STACK CFI 33ae6 .cfa: $rsp 32 +
STACK CFI 33ae8 .cfa: $rsp 24 +
STACK CFI 33aea .cfa: $rsp 16 +
STACK CFI 33aec .cfa: $rsp 8 +
STACK CFI 33af0 .cfa: $rsp 528 +
STACK CFI INIT 34090 49 .cfa: $rsp 8 + .ra: .cfa -8 + ^
STACK CFI 34098 $rbx: .cfa -16 + ^ .cfa: $rsp 16 +
STACK CFI 340d4 .cfa: $rsp 8 +
STACK CFI INIT 340e0 55 .cfa: $rsp 8 + .ra: .cfa -8 + ^
STACK CFI 340e2 $r12: .cfa -16 + ^ .cfa: $rsp 16 +
STACK CFI 340e3 $rbp: .cfa -24 + ^ .cfa: $rsp 24 +
STACK CFI 340e4 $rbx: .cfa -32 + ^ .cfa: $rsp 32 +
STACK CFI 3411f .cfa: $rsp 24 +
STACK CFI 34120 .cfa: $rsp 16 +
STACK CFI 34122 .cfa: $rsp 8 +
STACK CFI 34130 .cfa: $rsp 32 +
STACK CFI 34131 .cfa: $rsp 24 +
STACK CFI 34132 .cfa: $rsp 16 +
STACK CFI 34134 .cfa: $rsp 8 +
STACK CFI INIT 34140 52 .cfa: $rsp 8 + .ra: .cfa -8 + ^
STACK CFI 34147 $r12: .cfa -16 + ^ .cfa: $rsp 16 +
STACK CFI 3414b $rbp: .cfa -24 + ^ .cfa: $rsp 24 +
STACK CFI 3414c $rbx: .cfa -32 + ^ .cfa: $rsp 32 +
STACK CFI 34182 .cfa: $rsp 24 +
STACK CFI 34183 .cfa: $rsp 16 +
STACK CFI 34185 .cfa: $rsp 8 +
STACK CFI 34190 $r12: $r12 $rbp: $rbp $rbx: $rbx
STACK CFI INIT 341a0 52 .cfa: $rsp 8 + .ra: .cfa -8 + ^
STACK CFI 341a7 $r12: .cfa -16 + ^ .cfa: $rsp 16 +
STACK CFI 341ab $rbp: .cfa -24 + ^ .cfa: $rsp 24 +
STACK CFI 341ac $rbx: .cfa -32 + ^ .cfa: $rsp 32 +
STACK CFI 341e2 .cfa: $rsp 24 +
STACK CFI 341e3 .cfa: $rsp 16 +
STACK CFI 341e5 .cfa: $rsp 8 +
STACK CFI 341f0 $r12: $r12 $rbp: $rbp $rbx: $rbx
STACK CFI INIT 34200 184 .cfa: $rsp 8 + .ra: .cfa -8 + ^
STACK CFI 34202 $r15: .cfa -16 + ^ .cfa: $rsp 16 +
STACK CFI 34204 $r14: .cfa -24 + ^ .cfa: $rsp 24 +
STACK CFI 34206 $r13: .cfa -32 + ^ .cfa: $rsp 32 +
STACK CFI 34208 $r12: .cfa -40 + ^ .cfa: $rsp 40 +
STACK CFI 34209 $rbp: .cfa -48 + ^ .cfa: $rsp 48 +
STACK CFI 3420a $rbx: .cfa -56 + ^ .cfa: $rsp 56 +
STACK CFI 3420e .cfa: $rsp 80 +
STACK CFI 342c8 .cfa: $rsp 56 +
STACK CFI 342ce .cfa: $rsp 48 +
STACK CFI 342cf .cfa: $rsp 40 +
STACK CFI 342d1 .cfa: $rsp 32 +
STACK CFI 342d3 .cfa: $rsp 24 +
STACK CFI 342d5 .cfa: $rsp 16 +
STACK CFI 342d7 .cfa: $rsp 8 +
STACK CFI 342e0 .cfa: $rsp 80 +
STACK CFI 342e4 .cfa: $rsp 56 +
STACK CFI 342ea .cfa: $rsp 48 +
STACK CFI 342eb .cfa: $rsp 40 +
STACK CFI 342ed .cfa: $rsp 32 +
STACK CFI 342ef .cfa: $rsp 24 +
STACK CFI 342f1 .cfa: $rsp 16 +
STACK CFI 342f3 .cfa: $rsp 8 +
STACK CFI 342f8 .cfa: $rsp 80 +
STACK CFI 34374 .cfa: $rsp 56 +
STACK CFI 3437a .cfa: $rsp 48 +
STACK CFI 3437b .cfa: $rsp 40 +
STACK CFI 3437d .cfa: $rsp 32 +
STACK CFI 3437f .cfa: $rsp 24 +
STACK CFI 34381 .cfa: $rsp 16 +
STACK CFI 34383 .cfa: $rsp 8 +
STACK CFI INIT 34390 2b2 .cfa: $rsp 8 + .ra: .cfa -8 + ^
STACK CFI 34392 $r15: .cfa -16 + ^ .cfa: $rsp 16 +
STACK CFI 34398 $r14: .cfa -24 + ^ .cfa: $rsp 24 +
STACK CFI 3439a $r13: .cfa -32 + ^ .cfa: $rsp 32 +
STACK CFI 3439c $r12: .cfa -40 + ^ .cfa: $rsp 40 +
STACK CFI 343a0 $rbp: .cfa -48 + ^ .cfa: $rsp 48 +
STACK CFI 343a1 $rbx: .cfa -56 + ^ .cfa: $rsp 56 +
STACK CFI 343a8 .cfa: $rsp 80 +
STACK CFI 34477 .cfa: $rsp 56 +
STACK CFI 3447b .cfa: $rsp 48 +
STACK CFI 3447c .cfa: $rsp 40 +
STACK CFI 3447e .cfa: $rsp 32 +
STACK CFI 34480 .cfa: $rsp 24 +
STACK CFI 34482 .cfa: $rsp 16 +
STACK CFI 34484 .cfa: $rsp 8 +
STACK CFI 34488 .cfa: $rsp 80 +
STACK CFI 34599 .cfa: $rsp 56 +
STACK CFI 3459a .cfa: $rsp 48 +
STACK CFI 3459b .cfa: $rsp 40 +
STACK CFI 3459d .cfa: $rsp 32 +
STACK CFI 3459f .cfa: $rsp 24 +
STACK CFI 345a1 .cfa: $rsp 16 +
STACK CFI 345a3 .cfa: $rsp 8 +
STACK CFI 345a8 .cfa: $rsp 80 +
STACK CFI 345e9 .cfa: $rsp 56 +
STACK CFI 345ef .cfa: $rsp 48 +
STACK CFI 345f0 .cfa: $rsp 40 +
STACK CFI 345f2 .cfa: $rsp 32 +
STACK CFI 345f4 .cfa: $rsp 24 +
STACK CFI 345f6 .cfa: $rsp 16 +
STACK CFI 345f8 .cfa: $rsp 8 +
STACK CFI 34600 .cfa: $rsp 80 +
STACK CFI 34604 .cfa: $rsp 56 +
STACK CFI 3460b .cfa: $rsp 48 +
STACK CFI 3460c .cfa: $rsp 40 +
STACK CFI 3460e .cfa: $rsp 32 +
STACK CFI 34610 .cfa: $rsp 24 +
STACK CFI 34612 .cfa: $rsp 16 +
STACK CFI 34614 .cfa: $rsp 8 +
STACK CFI 34620 .cfa: $rsp 80 +
STACK CFI INIT 33d50 28b .cfa: $rsp 8 + .ra: .cfa -8 + ^
STACK CFI 33d52 $r15: .cfa -16 + ^ .cfa: $rsp 16 +
STACK CFI 33d54 $r14: .cfa -24 + ^ .cfa: $rsp 24 +
STACK CFI 33d56 $r13: .cfa -32 + ^ .cfa: $rsp 32 +
STACK CFI 33d58 $r12: .cfa -40 + ^ .cfa: $rsp 40 +
STACK CFI 33d5c $rbp: .cfa -48 + ^ .cfa: $rsp 48 +
STACK CFI 33d5d $rbx: .cfa -56 + ^ .cfa: $rsp 56 +
STACK CFI 33d61 .cfa: $rsp 96 +
STACK CFI 33ecc .cfa: $rsp 56 +
STACK CFI 33ed1 .cfa: $rsp 48 +
STACK CFI 33ed2 .cfa: $rsp 40 +
STACK CFI 33ed4 .cfa: $rsp 32 +
STACK CFI 33ed6 .cfa: $rsp 24 +
STACK CFI 33ed8 .cfa: $rsp 16 +
STACK CFI 33eda .cfa: $rsp 8 +
STACK CFI 33ee0 .cfa: $rsp 96 +
STACK CFI INIT 34650 398 .cfa: $rsp 8 + .ra: .cfa -8 + ^
STACK CFI 34652 $r15: .cfa -16 + ^ .cfa: $rsp 16 +
STACK CFI 34654 $r14: .cfa -24 + ^ .cfa: $rsp 24 +
STACK CFI 34656 $r13: .cfa -32 + ^ .cfa: $rsp 32 +
STACK CFI 34658 $r12: .cfa -40 + ^ .cfa: $rsp 40 +
STACK CFI 3465c $rbp: .cfa -48 + ^ .cfa: $rsp 48 +
STACK CFI 3465d $rbx: .cfa -56 + ^ .cfa: $rsp 56 +
STACK CFI 34667 .cfa: $rsp 80 +
STACK CFI 347a7 .cfa: $rsp 56 +
STACK CFI 347ab .cfa: $rsp 48 +
STACK CFI 347ac .cfa: $rsp 40 +
STACK CFI 347ae .cfa: $rsp 32 +
STACK CFI 347b0 .cfa: $rsp 24 +
STACK CFI 347b2 .cfa: $rsp 16 +
STACK CFI 347b4 .cfa: $rsp 8 +
STACK CFI 347b8 .cfa: $rsp 80 +
STACK CFI INIT 349f0 133 .cfa: $rsp 8 + .ra: .cfa -8 + ^
STACK CFI 349f1 $rbp: .cfa -16 + ^ .cfa: $rsp 16 +
STACK CFI 349f2 $rbx: .cfa -24 + ^ .cfa: $rsp 24 +
STACK CFI 349f9 .cfa: $rsp 64 +
STACK CFI 34ae4 .cfa: $rsp 24 +
STACK CFI 34ae5 .cfa: $rsp 16 +
STACK CFI 34ae6 .cfa: $rsp 8 +
STACK CFI 34af0 .cfa: $rsp 64 +
STACK CFI INIT 34b30 41f .cfa: $rsp 8 + .ra: .cfa -8 + ^
STACK CFI 34b32 $r15: .cfa -16 + ^ .cfa: $rsp 16 +
STACK CFI 34b34 $r14: .cfa -24 + ^ .cfa: $rsp 24 +
STACK CFI 34b36 $r13: .cfa -32 + ^ .cfa: $rsp 32 +
STACK CFI 34b38 $r12: .cfa -40 + ^ .cfa: $rsp 40 +
STACK CFI 34b39 $rbp: .cfa -48 + ^ .cfa: $rsp 48 +
STACK CFI 34b3a $rbx: .cfa -56 + ^ .cfa: $rsp 56 +
STACK CFI 34b41 .cfa: $rsp 528 +
STACK CFI 34e31 .cfa: $rsp 56 +
STACK CFI 34e32 .cfa: $rsp 48 +
STACK CFI 34e33 .cfa: $rsp 40 +
STACK CFI 34e35 .cfa: $rsp 32 +
STACK CFI 34e37 .cfa: $rsp 24 +
STACK CFI 34e39 .cfa: $rsp 16 +
STACK CFI 34e3b .cfa: $rsp 8 +
STACK CFI 34e40 .cfa: $rsp 528 +
STACK CFI INIT 34f50 246 .cfa: $rsp 8 + .ra: .cfa -8 + ^
STACK CFI 34f52 $r15: .cfa -16 + ^ .cfa: $rsp 16 +
STACK CFI 34f54 $r14: .cfa -24 + ^ .cfa: $rsp 24 +
STACK CFI 34f59 $r13: .cfa -32 + ^ .cfa: $rsp 32 +
STACK CFI 34f5b $r12: .cfa -40 + ^ .cfa: $rsp 40 +
STACK CFI 34f5c $rbp: .cfa -48 + ^ .cfa: $rsp 48 +
STACK CFI 34f5d $rbx: .cfa -56 + ^ .cfa: $rsp 56 +
STACK CFI 34f64 .cfa: $rsp 144 +
STACK CFI 35002 .cfa: $rsp 56 +
STACK CFI 35003 .cfa: $rsp 48 +
STACK CFI 35004 .cfa: $rsp 40 +
STACK CFI 35006 .cfa: $rsp 32 +
STACK CFI 35008 .cfa: $rsp 24 +
STACK CFI 3500a .cfa: $rsp 16 +
STACK CFI 3500c .cfa: $rsp 8 +
STACK CFI 35010 .cfa: $rsp 144 +
STACK CFI INIT 351a0 b2 .cfa: $rsp 8 + .ra: .cfa -8 + ^
STACK CFI 351a2 $r14: .cfa -16 + ^ .cfa: $rsp 16 +
STACK CFI 351a4 $r13: .cfa -24 + ^ .cfa: $rsp 24 +
STACK CFI 351a6 $r12: .cfa -32 + ^ .cfa: $rsp 32 +
STACK CFI 351a7 $rbp: .cfa -40 + ^ .cfa: $rsp 40 +
STACK CFI 351ab $rbx: .cfa -48 + ^ .cfa: $rsp 48 +
STACK CFI 351be .cfa: $rsp 64 +
STACK CFI 351d7 .cfa: $rsp 48 +
STACK CFI 351db .cfa: $rsp 40 +
STACK CFI 351dc .cfa: $rsp 32 +
STACK CFI 351de .cfa: $rsp 24 +
STACK CFI 351e0 .cfa: $rsp 16 +
STACK CFI 351e2 .cfa: $rsp 8 +
STACK CFI 351e8 .cfa: $rsp 64 +
STACK CFI INIT 35260 3a8 .cfa: $rsp 8 + .ra: .cfa -8 + ^
STACK CFI 35262 $r15: .cfa -16 + ^ .cfa: $rsp 16 +
STACK CFI 35264 $r14: .cfa -24 + ^ .cfa: $rsp 24 +
STACK CFI 35266 $r13: .cfa -32 + ^ .cfa: $rsp 32 +
STACK CFI 35268 $r12: .cfa -40 + ^ .cfa: $rsp 40 +
STACK CFI 3526c $rbp: .cfa -48 + ^ .cfa: $rsp 48 +
STACK CFI 3526d $rbx: .cfa -56 + ^ .cfa: $rsp 56 +
STACK CFI 35277 .cfa: $rsp 80 +
STACK CFI 353ba .cfa: $rsp 56 +
STACK CFI 353be .cfa: $rsp 48 +
STACK CFI 353bf .cfa: $rsp 40 +
STACK CFI 353c1 .cfa: $rsp 32 +
STACK CFI 353c3 .cfa: $rsp 24 +
STACK CFI 353c5 .cfa: $rsp 16 +
STACK CFI 353c7 .cfa: $rsp 8 +
STACK CFI 353d0 .cfa: $rsp 80 +
STACK CFI INIT 35610 133 .cfa: $rsp 8 + .ra: .cfa -8 + ^
STACK CFI 35611 $rbp: .cfa -16 + ^ .cfa: $rsp 16 +
STACK CFI 35612 $rbx: .cfa -24 + ^ .cfa: $rsp 24 +
STACK CFI 35619 .cfa: $rsp 64 +
STACK CFI 35704 .cfa: $rsp 24 +
STACK CFI 35705 .cfa: $rsp 16 +
STACK CFI 35706 .cfa: $rsp 8 +
STACK CFI 35710 .cfa: $rsp 64 +
STACK CFI INIT 35750 422 .cfa: $rsp 8 + .ra: .cfa -8 + ^
STACK CFI 35752 $r15: .cfa -16 + ^ .cfa: $rsp 16 +
STACK CFI 35754 $r14: .cfa -24 + ^ .cfa: $rsp 24 +
STACK CFI 35756 $r13: .cfa -32 + ^ .cfa: $rsp 32 +
STACK CFI 35758 $r12: .cfa -40 + ^ .cfa: $rsp 40 +
STACK CFI 35759 $rbp: .cfa -48 + ^ .cfa: $rsp 48 +
STACK CFI 3575a $rbx: .cfa -56 + ^ .cfa: $rsp 56 +
STACK CFI 35761 .cfa: $rsp 528 +
STACK CFI 35a52 .cfa: $rsp 56 +
STACK CFI 35a53 .cfa: $rsp 48 +
STACK CFI 35a54 .cfa: $rsp 40 +
STACK CFI 35a56 .cfa: $rsp 32 +
STACK CFI 35a58 .cfa: $rsp 24 +
STACK CFI 35a5a .cfa: $rsp 16 +
STACK CFI 35a5c .cfa: $rsp 8 +
STACK CFI 35a60 .cfa: $rsp 528 +
STACK CFI INIT 35b80 246 .cfa: $rsp 8 + .ra: .cfa -8 + ^
STACK CFI 35b82 $r15: .cfa -16 + ^ .cfa: $rsp 16 +
STACK CFI 35b84 $r14: .cfa -24 + ^ .cfa: $rsp 24 +
STACK CFI 35b89 $r13: .cfa -32 + ^ .cfa: $rsp 32 +
STACK CFI 35b8b $r12: .cfa -40 + ^ .cfa: $rsp 40 +
STACK CFI 35b8c $rbp: .cfa -48 + ^ .cfa: $rsp 48 +
STACK CFI 35b8d $rbx: .cfa -56 + ^ .cfa: $rsp 56 +
STACK CFI 35b94 .cfa: $rsp 144 +
STACK CFI 35c32 .cfa: $rsp 56 +
STACK CFI 35c33 .cfa: $rsp 48 +
STACK CFI 35c34 .cfa: $rsp 40 +
STACK CFI 35c36 .cfa: $rsp 32 +
STACK CFI 35c38 .cfa: $rsp 24 +
STACK CFI 35c3a .cfa: $rsp 16 +
STACK CFI 35c3c .cfa: $rsp 8 +
STACK CFI 35c40 .cfa: $rsp 144 +
STACK CFI INIT 35dd0 b2 .cfa: $rsp 8 + .ra: .cfa -8 + ^
STACK CFI 35dd2 $r14: .cfa -16 + ^ .cfa: $rsp 16 +
STACK CFI 35dd4 $r13: .cfa -24 + ^ .cfa: $rsp 24 +
STACK CFI 35dd6 $r12: .cfa -32 + ^ .cfa: $rsp 32 +
STACK CFI 35dd7 $rbp: .cfa -40 + ^ .cfa: $rsp 40 +
STACK CFI 35ddb $rbx: .cfa -48 + ^ .cfa: $rsp 48 +
STACK CFI 35dee .cfa: $rsp 64 +
STACK CFI 35e07 .cfa: $rsp 48 +
STACK CFI 35e0b .cfa: $rsp 40 +
STACK CFI 35e0c .cfa: $rsp 32 +
STACK CFI 35e0e .cfa: $rsp 24 +
STACK CFI 35e10 .cfa: $rsp 16 +
STACK CFI 35e12 .cfa: $rsp 8 +
STACK CFI 35e18 .cfa: $rsp 64 +
STACK CFI INIT 35e90 184 .cfa: $rsp 8 + .ra: .cfa -8 + ^
STACK CFI 35e92 $r15: .cfa -16 + ^ .cfa: $rsp 16 +
STACK CFI 35e94 $r14: .cfa -24 + ^ .cfa: $rsp 24 +
STACK CFI 35e96 $r13: .cfa -32 + ^ .cfa: $rsp 32 +
STACK CFI 35e98 $r12: .cfa -40 + ^ .cfa: $rsp 40 +
STACK CFI 35e99 $rbp: .cfa -48 + ^ .cfa: $rsp 48 +
STACK CFI 35e9a $rbx: .cfa -56 + ^ .cfa: $rsp 56 +
STACK CFI 35e9e .cfa: $rsp 80 +
STACK CFI 35f58 .cfa: $rsp 56 +
STACK CFI 35f5e .cfa: $rsp 48 +
STACK CFI 35f5f .cfa: $rsp 40 +
STACK CFI 35f61 .cfa: $rsp 32 +
STACK CFI 35f63 .cfa: $rsp 24 +
STACK CFI 35f65 .cfa: $rsp 16 +
STACK CFI 35f67 .cfa: $rsp 8 +
STACK CFI 35f70 .cfa: $rsp 80 +
STACK CFI 35f74 .cfa: $rsp 56 +
STACK CFI 35f7a .cfa: $rsp 48 +
STACK CFI 35f7b .cfa: $rsp 40 +
STACK CFI 35f7d .cfa: $rsp 32 +
STACK CFI 35f7f .cfa: $rsp 24 +
STACK CFI 35f81 .cfa: $rsp 16 +
STACK CFI 35f83 .cfa: $rsp 8 +
STACK CFI 35f88 .cfa: $rsp 80 +
STACK CFI 36004 .cfa: $rsp 56 +
STACK CFI 3600a .cfa: $rsp 48 +
STACK CFI 3600b .cfa: $rsp 40 +
STACK CFI 3600d .cfa: $rsp 32 +
STACK CFI 3600f .cfa: $rsp 24 +
STACK CFI 36011 .cfa: $rsp 16 +
STACK CFI 36013 .cfa: $rsp 8 +
STACK CFI INIT 36020 2b2 .cfa: $rsp 8 + .ra: .cfa -8 + ^
STACK CFI 36022 $r15: .cfa -16 + ^ .cfa: $rsp 16 +
STACK CFI 36028 $r14: .cfa -24 + ^ .cfa: $rsp 24 +
STACK CFI 3602a $r13: .cfa -32 + ^ .cfa: $rsp 32 +
STACK CFI 3602c $r12: .cfa -40 + ^ .cfa: $rsp 40 +
STACK CFI 36030 $rbp: .cfa -48 + ^ .cfa: $rsp 48 +
STACK CFI 36031 $rbx: .cfa -56 + ^ .cfa: $rsp 56 +
STACK CFI 36038 .cfa: $rsp 80 +
STACK CFI 36107 .cfa: $rsp 56 +
STACK CFI 3610b .cfa: $rsp 48 +
STACK CFI 3610c .cfa: $rsp 40 +
STACK CFI 3610e .cfa: $rsp 32 +
STACK CFI 36110 .cfa: $rsp 24 +
STACK CFI 36112 .cfa: $rsp 16 +
STACK CFI 36114 .cfa: $rsp 8 +
STACK CFI 36118 .cfa: $rsp 80 +
STACK CFI 36229 .cfa: $rsp 56 +
STACK CFI 3622a .cfa: $rsp 48 +
STACK CFI 3622b .cfa: $rsp 40 +
STACK CFI 3622d .cfa: $rsp 32 +
STACK CFI 3622f .cfa: $rsp 24 +
STACK CFI 36231 .cfa: $rsp 16 +
STACK CFI 36233 .cfa: $rsp 8 +
STACK CFI 36238 .cfa: $rsp 80 +
STACK CFI 36279 .cfa: $rsp 56 +
STACK CFI 3627f .cfa: $rsp 48 +
STACK CFI 36280 .cfa: $rsp 40 +
STACK CFI 36282 .cfa: $rsp 32 +
STACK CFI 36284 .cfa: $rsp 24 +
STACK CFI 36286 .cfa: $rsp 16 +
STACK CFI 36288 .cfa: $rsp 8 +
STACK CFI 36290 .cfa: $rsp 80 +
STACK CFI 36294 .cfa: $rsp 56 +
STACK CFI 3629b .cfa: $rsp 48 +
STACK CFI 3629c .cfa: $rsp 40 +
STACK CFI 3629e .cfa: $rsp 32 +
STACK CFI 362a0 .cfa: $rsp 24 +
STACK CFI 362a2 .cfa: $rsp 16 +
STACK CFI 362a4 .cfa: $rsp 8 +
STACK CFI 362b0 .cfa: $rsp 80 +
STACK CFI INIT 362e0 1bf .cfa: $rsp 8 + .ra: .cfa -8 + ^
STACK CFI 362e2 $r15: .cfa -16 + ^ .cfa: $rsp 16 +
STACK CFI 362e4 $r14: .cfa -24 + ^ .cfa: $rsp 24 +
STACK CFI 362e9 $r13: .cfa -32 + ^ .cfa: $rsp 32 +
STACK CFI 362eb $r12: .cfa -40 + ^ .cfa: $rsp 40 +
STACK CFI 362ef $rbp: .cfa -48 + ^ .cfa: $rsp 48 +
STACK CFI 362f0 $rbx: .cfa -56 + ^ .cfa: $rsp 56 +
STACK CFI 362f8 .cfa: $rsp 80 +
STACK CFI 36412 .cfa: $rsp 56 +
STACK CFI 36417 .cfa: $rsp 48 +
STACK CFI 36418 .cfa: $rsp 40 +
STACK CFI 3641a .cfa: $rsp 32 +
STACK CFI 3641c .cfa: $rsp 24 +
STACK CFI 3641e .cfa: $rsp 16 +
STACK CFI 36420 .cfa: $rsp 8 +
STACK CFI 36428 .cfa: $rsp 80 +
STACK CFI INIT 364a0 184 .cfa: $rsp 8 + .ra: .cfa -8 + ^
STACK CFI 364a2 $r15: .cfa -16 + ^ .cfa: $rsp 16 +
STACK CFI 364a4 $r14: .cfa -24 + ^ .cfa: $rsp 24 +
STACK CFI 364a6 $r13: .cfa -32 + ^ .cfa: $rsp 32 +
STACK CFI 364a8 $r12: .cfa -40 + ^ .cfa: $rsp 40 +
STACK CFI 364a9 $rbp: .cfa -48 + ^ .cfa: $rsp 48 +
STACK CFI 364aa $rbx: .cfa -56 + ^ .cfa: $rsp 56 +
STACK CFI 364ae .cfa: $rsp 80 +
STACK CFI 36568 .cfa: $rsp 56 +
STACK CFI 3656e .cfa: $rsp 48 +
STACK CFI 3656f .cfa: $rsp 40 +
STACK CFI 36571 .cfa: $rsp 32 +
STACK CFI 36573 .cfa: $rsp 24 +
STACK CFI 36575 .cfa: $rsp 16 +
STACK CFI 36577 .cfa: $rsp 8 +
STACK CFI 36580 .cfa: $rsp 80 +
STACK CFI 36584 .cfa: $rsp 56 +
STACK CFI 3658a .cfa: $rsp 48 +
STACK CFI 3658b .cfa: $rsp 40 +
STACK CFI 3658d .cfa: $rsp 32 +
STACK CFI 3658f .cfa: $rsp 24 +
STACK CFI 36591 .cfa: $rsp 16 +
STACK CFI 36593 .cfa: $rsp 8 +
STACK CFI 36598 .cfa: $rsp 80 +
STACK CFI 36614 .cfa: $rsp 56 +
STACK CFI 3661a .cfa: $rsp 48 +
STACK CFI 3661b .cfa: $rsp 40 +
STACK CFI 3661d .cfa: $rsp 32 +
STACK CFI 3661f .cfa: $rsp 24 +
STACK CFI 36621 .cfa: $rsp 16 +
STACK CFI 36623 .cfa: $rsp 8 +
STACK CFI INIT 36630 2b2 .cfa: $rsp 8 + .ra: .cfa -8 + ^
STACK CFI 36632 $r15: .cfa -16 + ^ .cfa: $rsp 16 +
STACK CFI 36638 $r14: .cfa -24 + ^ .cfa: $rsp 24 +
STACK CFI 3663a $r13: .cfa -32 + ^ .cfa: $rsp 32 +
STACK CFI 3663c $r12: .cfa -40 + ^ .cfa: $rsp 40 +
STACK CFI 36640 $rbp: .cfa -48 + ^ .cfa: $rsp 48 +
STACK CFI 36641 $rbx: .cfa -56 + ^ .cfa: $rsp 56 +
STACK CFI 36648 .cfa: $rsp 80 +
STACK CFI 36717 .cfa: $rsp 56 +
STACK CFI 3671b .cfa: $rsp 48 +
STACK CFI 3671c .cfa: $rsp 40 +
STACK CFI 3671e .cfa: $rsp 32 +
STACK CFI 36720 .cfa: $rsp 24 +
STACK CFI 36722 .cfa: $rsp 16 +
STACK CFI 36724 .cfa: $rsp 8 +
STACK CFI 36728 .cfa: $rsp 80 +
STACK CFI 36839 .cfa: $rsp 56 +
STACK CFI 3683a .cfa: $rsp 48 +
STACK CFI 3683b .cfa: $rsp 40 +
STACK CFI 3683d .cfa: $rsp 32 +
STACK CFI 3683f .cfa: $rsp 24 +
STACK CFI 36841 .cfa: $rsp 16 +
STACK CFI 36843 .cfa: $rsp 8 +
STACK CFI 36848 .cfa: $rsp 80 +
STACK CFI 36889 .cfa: $rsp 56 +
STACK CFI 3688f .cfa: $rsp 48 +
STACK CFI 36890 .cfa: $rsp 40 +
STACK CFI 36892 .cfa: $rsp 32 +
STACK CFI 36894 .cfa: $rsp 24 +
STACK CFI 36896 .cfa: $rsp 16 +
STACK CFI 36898 .cfa: $rsp 8 +
STACK CFI 368a0 .cfa: $rsp 80 +
STACK CFI 368a4 .cfa: $rsp 56 +
STACK CFI 368ab .cfa: $rsp 48 +
STACK CFI 368ac .cfa: $rsp 40 +
STACK CFI 368ae .cfa: $rsp 32 +
STACK CFI 368b0 .cfa: $rsp 24 +
STACK CFI 368b2 .cfa: $rsp 16 +
STACK CFI 368b4 .cfa: $rsp 8 +
STACK CFI 368c0 .cfa: $rsp 80 +
STACK CFI INIT 368f0 1bf .cfa: $rsp 8 + .ra: .cfa -8 + ^
STACK CFI 368f2 $r15: .cfa -16 + ^ .cfa: $rsp 16 +
STACK CFI 368f4 $r14: .cfa -24 + ^ .cfa: $rsp 24 +
STACK CFI 368f9 $r13: .cfa -32 + ^ .cfa: $rsp 32 +
STACK CFI 368fb $r12: .cfa -40 + ^ .cfa: $rsp 40 +
STACK CFI 368ff $rbp: .cfa -48 + ^ .cfa: $rsp 48 +
STACK CFI 36900 $rbx: .cfa -56 + ^ .cfa: $rsp 56 +
STACK CFI 36908 .cfa: $rsp 80 +
STACK CFI 36a23 .cfa: $rsp 56 +
STACK CFI 36a28 .cfa: $rsp 48 +
STACK CFI 36a29 .cfa: $rsp 40 +
STACK CFI 36a2b .cfa: $rsp 32 +
STACK CFI 36a2d .cfa: $rsp 24 +
STACK CFI 36a2f .cfa: $rsp 16 +
STACK CFI 36a31 .cfa: $rsp 8 +
STACK CFI 36a38 .cfa: $rsp 80 +
STACK CFI INIT 36ab0 28a .cfa: $rsp 8 + .ra: .cfa -8 + ^
STACK CFI 36ab2 $r15: .cfa -16 + ^ .cfa: $rsp 16 +
STACK CFI 36ab4 $r14: .cfa -24 + ^ .cfa: $rsp 24 +
STACK CFI 36ab9 $r13: .cfa -32 + ^ .cfa: $rsp 32 +
STACK CFI 36abb $r12: .cfa -40 + ^ .cfa: $rsp 40 +
STACK CFI 36abf $rbp: .cfa -48 + ^ .cfa: $rsp 48 +
STACK CFI 36ac0 $rbx: .cfa -56 + ^ .cfa: $rsp 56 +
STACK CFI 36aca .cfa: $rsp 80 +
STACK CFI 36cc4 .cfa: $rsp 56 +
STACK CFI 36cc5 .cfa: $rsp 48 +
STACK CFI 36cc6 .cfa: $rsp 40 +
STACK CFI 36cc8 .cfa: $rsp 32 +
STACK CFI 36cca .cfa: $rsp 24 +
STACK CFI 36ccc .cfa: $rsp 16 +
STACK CFI 36cce .cfa: $rsp 8 +
STACK CFI 36cd0 .cfa: $rsp 80 +
STACK CFI INIT 36d40 4b .cfa: $rsp 8 + .ra: .cfa -8 + ^
STACK CFI 36d4e $rbx: .cfa -16 + ^ .cfa: $rsp 16 +
STACK CFI 36d7f .cfa: $rsp 8 +
STACK CFI 36d80 $rbx: $rbx
STACK CFI INIT 36d90 277 .cfa: $rsp 8 + .ra: .cfa -8 + ^
STACK CFI 36d92 $r15: .cfa -16 + ^ .cfa: $rsp 16 +
STACK CFI 36d94 $r14: .cfa -24 + ^ .cfa: $rsp 24 +
STACK CFI 36d99 $r13: .cfa -32 + ^ .cfa: $rsp 32 +
STACK CFI 36d9b $r12: .cfa -40 + ^ .cfa: $rsp 40 +
STACK CFI 36d9f $rbp: .cfa -48 + ^ .cfa: $rsp 48 +
STACK CFI 36da0 $rbx: .cfa -56 + ^ .cfa: $rsp 56 +
STACK CFI 36da7 .cfa: $rsp 80 +
STACK CFI 36f9b .cfa: $rsp 56 +
STACK CFI 36f9c .cfa: $rsp 48 +
STACK CFI 36f9d .cfa: $rsp 40 +
STACK CFI 36f9f .cfa: $rsp 32 +
STACK CFI 36fa1 .cfa: $rsp 24 +
STACK CFI 36fa3 .cfa: $rsp 16 +
STACK CFI 36fa5 .cfa: $rsp 8 +
STACK CFI 36fb0 .cfa: $rsp 80 +
STACK CFI INIT 37010 73 .cfa: $rsp 8 + .ra: .cfa -8 + ^
STACK CFI INIT 37090 52e .cfa: $rsp 8 + .ra: .cfa -8 + ^
STACK CFI 37092 $r15: .cfa -16 + ^ .cfa: $rsp 16 +
STACK CFI 37094 $r14: .cfa -24 + ^ .cfa: $rsp 24 +
STACK CFI 37099 $r13: .cfa -32 + ^ .cfa: $rsp 32 +
STACK CFI 3709b $r12: .cfa -40 + ^ .cfa: $rsp 40 +
STACK CFI 3709c $rbp: .cfa -48 + ^ .cfa: $rsp 48 +
STACK CFI 3709d $rbx: .cfa -56 + ^ .cfa: $rsp 56 +
STACK CFI 370a4 .cfa: $rsp 560 +
STACK CFI 373c0 .cfa: $rsp 56 +
STACK CFI 373c1 .cfa: $rsp 48 +
STACK CFI 373c2 .cfa: $rsp 40 +
STACK CFI 373c4 .cfa: $rsp 32 +
STACK CFI 373c6 .cfa: $rsp 24 +
STACK CFI 373c8 .cfa: $rsp 16 +
STACK CFI 373ca .cfa: $rsp 8 +
STACK CFI 373d0 .cfa: $rsp 560 +
STACK CFI INIT 375c0 52e .cfa: $rsp 8 + .ra: .cfa -8 + ^
STACK CFI 375c2 $r15: .cfa -16 + ^ .cfa: $rsp 16 +
STACK CFI 375c4 $r14: .cfa -24 + ^ .cfa: $rsp 24 +
STACK CFI 375c9 $r13: .cfa -32 + ^ .cfa: $rsp 32 +
STACK CFI 375cb $r12: .cfa -40 + ^ .cfa: $rsp 40 +
STACK CFI 375cc $rbp: .cfa -48 + ^ .cfa: $rsp 48 +
STACK CFI 375cd $rbx: .cfa -56 + ^ .cfa: $rsp 56 +
STACK CFI 375d4 .cfa: $rsp 560 +
STACK CFI 378f0 .cfa: $rsp 56 +
STACK CFI 378f1 .cfa: $rsp 48 +
STACK CFI 378f2 .cfa: $rsp 40 +
STACK CFI 378f4 .cfa: $rsp 32 +
STACK CFI 378f6 .cfa: $rsp 24 +
STACK CFI 378f8 .cfa: $rsp 16 +
STACK CFI 378fa .cfa: $rsp 8 +
STACK CFI 37900 .cfa: $rsp 560 +
STACK CFI INIT 37af0 184 .cfa: $rsp 8 + .ra: .cfa -8 + ^
STACK CFI 37af2 $r15: .cfa -16 + ^ .cfa: $rsp 16 +
STACK CFI 37af4 $r14: .cfa -24 + ^ .cfa: $rsp 24 +
STACK CFI 37af6 $r13: .cfa -32 + ^ .cfa: $rsp 32 +
STACK CFI 37af8 $r12: .cfa -40 + ^ .cfa: $rsp 40 +
STACK CFI 37af9 $rbp: .cfa -48 + ^ .cfa: $rsp 48 +
STACK CFI 37afa $rbx: .cfa -56 + ^ .cfa: $rsp 56 +
STACK CFI 37afe .cfa: $rsp 80 +
STACK CFI 37bb8 .cfa: $rsp 56 +
STACK CFI 37bbe .cfa: $rsp 48 +
STACK CFI 37bbf .cfa: $rsp 40 +
STACK CFI 37bc1 .cfa: $rsp 32 +
STACK CFI 37bc3 .cfa: $rsp 24 +
STACK CFI 37bc5 .cfa: $rsp 16 +
STACK CFI 37bc7 .cfa: $rsp 8 +
STACK CFI 37bd0 .cfa: $rsp 80 +
STACK CFI 37bd4 .cfa: $rsp 56 +
STACK CFI 37bda .cfa: $rsp 48 +
STACK CFI 37bdb .cfa: $rsp 40 +
STACK CFI 37bdd .cfa: $rsp 32 +
STACK CFI 37bdf .cfa: $rsp 24 +
STACK CFI 37be1 .cfa: $rsp 16 +
STACK CFI 37be3 .cfa: $rsp 8 +
STACK CFI 37be8 .cfa: $rsp 80 +
STACK CFI 37c64 .cfa: $rsp 56 +
STACK CFI 37c6a .cfa: $rsp 48 +
STACK CFI 37c6b .cfa: $rsp 40 +
STACK CFI 37c6d .cfa: $rsp 32 +
STACK CFI 37c6f .cfa: $rsp 24 +
STACK CFI 37c71 .cfa: $rsp 16 +
STACK CFI 37c73 .cfa: $rsp 8 +
STACK CFI INIT 37c80 2b2 .cfa: $rsp 8 + .ra: .cfa -8 + ^
STACK CFI 37c82 $r15: .cfa -16 + ^ .cfa: $rsp 16 +
STACK CFI 37c88 $r14: .cfa -24 + ^ .cfa: $rsp 24 +
STACK CFI 37c8a $r13: .cfa -32 + ^ .cfa: $rsp 32 +
STACK CFI 37c8c $r12: .cfa -40 + ^ .cfa: $rsp 40 +
STACK CFI 37c90 $rbp: .cfa -48 + ^ .cfa: $rsp 48 +
STACK CFI 37c91 $rbx: .cfa -56 + ^ .cfa: $rsp 56 +
STACK CFI 37c98 .cfa: $rsp 80 +
STACK CFI 37d67 .cfa: $rsp 56 +
STACK CFI 37d6b .cfa: $rsp 48 +
STACK CFI 37d6c .cfa: $rsp 40 +
STACK CFI 37d6e .cfa: $rsp 32 +
STACK CFI 37d70 .cfa: $rsp 24 +
STACK CFI 37d72 .cfa: $rsp 16 +
STACK CFI 37d74 .cfa: $rsp 8 +
STACK CFI 37d78 .cfa: $rsp 80 +
STACK CFI 37e89 .cfa: $rsp 56 +
STACK CFI 37e8a .cfa: $rsp 48 +
STACK CFI 37e8b .cfa: $rsp 40 +
STACK CFI 37e8d .cfa: $rsp 32 +
STACK CFI 37e8f .cfa: $rsp 24 +
STACK CFI 37e91 .cfa: $rsp 16 +
STACK CFI 37e93 .cfa: $rsp 8 +
STACK CFI 37e98 .cfa: $rsp 80 +
STACK CFI 37ed9 .cfa: $rsp 56 +
STACK CFI 37edf .cfa: $rsp 48 +
STACK CFI 37ee0 .cfa: $rsp 40 +
STACK CFI 37ee2 .cfa: $rsp 32 +
STACK CFI 37ee4 .cfa: $rsp 24 +
STACK CFI 37ee6 .cfa: $rsp 16 +
STACK CFI 37ee8 .cfa: $rsp 8 +
STACK CFI 37ef0 .cfa: $rsp 80 +
STACK CFI 37ef4 .cfa: $rsp 56 +
STACK CFI 37efb .cfa: $rsp 48 +
STACK CFI 37efc .cfa: $rsp 40 +
STACK CFI 37efe .cfa: $rsp 32 +
STACK CFI 37f00 .cfa: $rsp 24 +
STACK CFI 37f02 .cfa: $rsp 16 +
STACK CFI 37f04 .cfa: $rsp 8 +
STACK CFI 37f10 .cfa: $rsp 80 +
STACK CFI INIT 37f40 23b .cfa: $rsp 8 + .ra: .cfa -8 + ^
STACK CFI 37f42 $r15: .cfa -16 + ^ .cfa: $rsp 16 +
STACK CFI 37f44 $r14: .cfa -24 + ^ .cfa: $rsp 24 +
STACK CFI 37f46 $r13: .cfa -32 + ^ .cfa: $rsp 32 +
STACK CFI 37f48 $r12: .cfa -40 + ^ .cfa: $rsp 40 +
STACK CFI 37f4c $rbp: .cfa -48 + ^ .cfa: $rsp 48 +
STACK CFI 37f4d $rbx: .cfa -56 + ^ .cfa: $rsp 56 +
STACK CFI 37f58 .cfa: $rsp 80 +
STACK CFI 38091 .cfa: $rsp 56 +
STACK CFI 38096 .cfa: $rsp 48 +
STACK CFI 38097 .cfa: $rsp 40 +
STACK CFI 38099 .cfa: $rsp 32 +
STACK CFI 3809b .cfa: $rsp 24 +
STACK CFI 3809d .cfa: $rsp 16 +
STACK CFI 3809f .cfa: $rsp 8 +
STACK CFI 380a0 .cfa: $rsp 80 +
STACK CFI INIT 38180 705 .cfa: $rsp 8 + .ra: .cfa -8 + ^
STACK CFI 38182 $r15: .cfa -16 + ^ .cfa: $rsp 16 +
STACK CFI 38184 $r14: .cfa -24 + ^ .cfa: $rsp 24 +
STACK CFI 38189 $r13: .cfa -32 + ^ .cfa: $rsp 32 +
STACK CFI 3818b $r12: .cfa -40 + ^ .cfa: $rsp 40 +
STACK CFI 3818f $rbp: .cfa -48 + ^ .cfa: $rsp 48 +
STACK CFI 38190 $rbx: .cfa -56 + ^ .cfa: $rsp 56 +
STACK CFI 381a4 .cfa: $rsp 160 +
STACK CFI 3829c .cfa: $rsp 56 +
STACK CFI 3829d .cfa: $rsp 48 +
STACK CFI 3829e .cfa: $rsp 40 +
STACK CFI 382a0 .cfa: $rsp 32 +
STACK CFI 382a2 .cfa: $rsp 24 +
STACK CFI 382a4 .cfa: $rsp 16 +
STACK CFI 382a6 .cfa: $rsp 8 +
STACK CFI 382b0 .cfa: $rsp 160 +
STACK CFI INIT 38890 4b9 .cfa: $rsp 8 + .ra: .cfa -8 + ^
STACK CFI 38892 $r15: .cfa -16 + ^ .cfa: $rsp 16 +
STACK CFI 38894 $r14: .cfa -24 + ^ .cfa: $rsp 24 +
STACK CFI 38899 $r13: .cfa -32 + ^ .cfa: $rsp 32 +
STACK CFI 3889b $r12: .cfa -40 + ^ .cfa: $rsp 40 +
STACK CFI 3889f $rbp: .cfa -48 + ^ .cfa: $rsp 48 +
STACK CFI 388a0 $rbx: .cfa -56 + ^ .cfa: $rsp 56 +
STACK CFI 388aa .cfa: $rsp 544 +
STACK CFI 38c46 .cfa: $rsp 56 +
STACK CFI 38c47 .cfa: $rsp 48 +
STACK CFI 38c48 .cfa: $rsp 40 +
STACK CFI 38c4a .cfa: $rsp 32 +
STACK CFI 38c4c .cfa: $rsp 24 +
STACK CFI 38c4e .cfa: $rsp 16 +
STACK CFI 38c50 .cfa: $rsp 8 +
STACK CFI 38c58 .cfa: $rsp 544 +
STACK CFI INIT 38d50 15e .cfa: $rsp 8 + .ra: .cfa -8 + ^
STACK CFI 38d52 $r15: .cfa -16 + ^ .cfa: $rsp 16 +
STACK CFI 38d54 $r14: .cfa -24 + ^ .cfa: $rsp 24 +
STACK CFI 38d59 $r13: .cfa -32 + ^ .cfa: $rsp 32 +
STACK CFI 38d5b $r12: .cfa -40 + ^ .cfa: $rsp 40 +
STACK CFI 38d5e $rbp: .cfa -48 + ^ .cfa: $rsp 48 +
STACK CFI 38d5f $rbx: .cfa -56 + ^ .cfa: $rsp 56 +
STACK CFI 38d69 .cfa: $rsp 80 +
STACK CFI 38e65 .cfa: $rsp 56 +
STACK CFI 38e66 .cfa: $rsp 48 +
STACK CFI 38e67 .cfa: $rsp 40 +
STACK CFI 38e69 .cfa: $rsp 32 +
STACK CFI 38e6b .cfa: $rsp 24 +
STACK CFI 38e6d .cfa: $rsp 16 +
STACK CFI 38e6f .cfa: $rsp 8 +
STACK CFI 38e70 .cfa: $rsp 80 +
STACK CFI INIT 38eb0 cc5 .cfa: $rsp 8 + .ra: .cfa -8 + ^
STACK CFI 38eb2 $r15: .cfa -16 + ^ .cfa: $rsp 16 +
STACK CFI 38eb4 $r14: .cfa -24 + ^ .cfa: $rsp 24 +
STACK CFI 38eb6 $r13: .cfa -32 + ^ .cfa: $rsp 32 +
STACK CFI 38eb8 $r12: .cfa -40 + ^ .cfa: $rsp 40 +
STACK CFI 38eb9 $rbp: .cfa -48 + ^ .cfa: $rsp 48 +
STACK CFI 38eba $rbx: .cfa -56 + ^ .cfa: $rsp 56 +
STACK CFI 38ec1 .cfa: $rsp 304 +
STACK CFI 38f12 .cfa: $rsp 56 +
STACK CFI 38f13 .cfa: $rsp 48 +
STACK CFI 38f14 .cfa: $rsp 40 +
STACK CFI 38f16 .cfa: $rsp 32 +
STACK CFI 38f18 .cfa: $rsp 24 +
STACK CFI 38f1a .cfa: $rsp 16 +
STACK CFI 38f1c .cfa: $rsp 8 +
STACK CFI 38f20 .cfa: $rsp 304 +
STACK CFI INIT 39b80 71f .cfa: $rsp 8 + .ra: .cfa -8 + ^
STACK CFI 39b82 $r15: .cfa -16 + ^ .cfa: $rsp 16 +
STACK CFI 39b84 $r14: .cfa -24 + ^ .cfa: $rsp 24 +
STACK CFI 39b89 $r13: .cfa -32 + ^ .cfa: $rsp 32 +
STACK CFI 39b8b $r12: .cfa -40 + ^ .cfa: $rsp 40 +
STACK CFI 39b8f $rbp: .cfa -48 + ^ .cfa: $rsp 48 +
STACK CFI 39b90 $rbx: .cfa -56 + ^ .cfa: $rsp 56 +
STACK CFI 39ba4 .cfa: $rsp 176 +
STACK CFI 39c9f .cfa: $rsp 56 +
STACK CFI 39ca0 .cfa: $rsp 48 +
STACK CFI 39ca1 .cfa: $rsp 40 +
STACK CFI 39ca3 .cfa: $rsp 32 +
STACK CFI 39ca5 .cfa: $rsp 24 +
STACK CFI 39ca7 .cfa: $rsp 16 +
STACK CFI 39ca9 .cfa: $rsp 8 +
STACK CFI 39cb0 .cfa: $rsp 176 +
STACK CFI INIT 3a2a0 4b9 .cfa: $rsp 8 + .ra: .cfa -8 + ^
STACK CFI 3a2a2 $r15: .cfa -16 + ^ .cfa: $rsp 16 +
STACK CFI 3a2a4 $r14: .cfa -24 + ^ .cfa: $rsp 24 +
STACK CFI 3a2a9 $r13: .cfa -32 + ^ .cfa: $rsp 32 +
STACK CFI 3a2ab $r12: .cfa -40 + ^ .cfa: $rsp 40 +
STACK CFI 3a2af $rbp: .cfa -48 + ^ .cfa: $rsp 48 +
STACK CFI 3a2b0 $rbx: .cfa -56 + ^ .cfa: $rsp 56 +
STACK CFI 3a2ba .cfa: $rsp 544 +
STACK CFI 3a656 .cfa: $rsp 56 +
STACK CFI 3a657 .cfa: $rsp 48 +
STACK CFI 3a658 .cfa: $rsp 40 +
STACK CFI 3a65a .cfa: $rsp 32 +
STACK CFI 3a65c .cfa: $rsp 24 +
STACK CFI 3a65e .cfa: $rsp 16 +
STACK CFI 3a660 .cfa: $rsp 8 +
STACK CFI 3a668 .cfa: $rsp 544 +
STACK CFI INIT 3a760 15e .cfa: $rsp 8 + .ra: .cfa -8 + ^
STACK CFI 3a762 $r15: .cfa -16 + ^ .cfa: $rsp 16 +
STACK CFI 3a764 $r14: .cfa -24 + ^ .cfa: $rsp 24 +
STACK CFI 3a769 $r13: .cfa -32 + ^ .cfa: $rsp 32 +
STACK CFI 3a76b $r12: .cfa -40 + ^ .cfa: $rsp 40 +
STACK CFI 3a76e $rbp: .cfa -48 + ^ .cfa: $rsp 48 +
STACK CFI 3a76f $rbx: .cfa -56 + ^ .cfa: $rsp 56 +
STACK CFI 3a779 .cfa: $rsp 80 +
STACK CFI 3a875 .cfa: $rsp 56 +
STACK CFI 3a876 .cfa: $rsp 48 +
STACK CFI 3a877 .cfa: $rsp 40 +
STACK CFI 3a879 .cfa: $rsp 32 +
STACK CFI 3a87b .cfa: $rsp 24 +
STACK CFI 3a87d .cfa: $rsp 16 +
STACK CFI 3a87f .cfa: $rsp 8 +
STACK CFI 3a880 .cfa: $rsp 80 +
STACK CFI INIT 3a8c0 cd7 .cfa: $rsp 8 + .ra: .cfa -8 + ^
STACK CFI 3a8c2 $r15: .cfa -16 + ^ .cfa: $rsp 16 +
STACK CFI 3a8c4 $r14: .cfa -24 + ^ .cfa: $rsp 24 +
STACK CFI 3a8c6 $r13: .cfa -32 + ^ .cfa: $rsp 32 +
STACK CFI 3a8c8 $r12: .cfa -40 + ^ .cfa: $rsp 40 +
STACK CFI 3a8c9 $rbp: .cfa -48 + ^ .cfa: $rsp 48 +
STACK CFI 3a8ca $rbx: .cfa -56 + ^ .cfa: $rsp 56 +
STACK CFI 3a8d1 .cfa: $rsp 320 +
STACK CFI 3a922 .cfa: $rsp 56 +
STACK CFI 3a923 .cfa: $rsp 48 +
STACK CFI 3a924 .cfa: $rsp 40 +
STACK CFI 3a926 .cfa: $rsp 32 +
STACK CFI 3a928 .cfa: $rsp 24 +
STACK CFI 3a92a .cfa: $rsp 16 +
STACK CFI 3a92c .cfa: $rsp 8 +
STACK CFI 3a930 .cfa: $rsp 320 +
STACK CFI INIT 29ef0 2e .cfa: $rsp 8 + .ra: .cfa -8 + ^
STACK CFI 29efb .cfa: $rsp 16 +
STACK CFI 29f19 .cfa: $rsp 8 +
STACK CFI INIT 3b5a0 115 .cfa: $rsp 8 + .ra: .cfa -8 + ^
STACK CFI INIT 3b6c0 3e .cfa: $rsp 8 + .ra: .cfa -8 + ^
STACK CFI INIT 3b700 26 .cfa: $rsp 8 + .ra: .cfa -8 + ^
STACK CFI 3b714 .cfa: $rsp 16 +
STACK CFI 3b721 .cfa: $rsp 8 +
STACK CFI INIT 3b730 4ae .cfa: $rsp 8 + .ra: .cfa -8 + ^
STACK CFI 3b732 $r13: .cfa -16 + ^ .cfa: $rsp 16 +
STACK CFI 3b734 $r12: .cfa -24 + ^ .cfa: $rsp 24 +
STACK CFI 3b735 $rbp: .cfa -32 + ^ .cfa: $rsp 32 +
STACK CFI 3b736 $rbx: .cfa -40 + ^ .cfa: $rsp 40 +
STACK CFI 3b73d .cfa: $rsp 48 +
STACK CFI 3b75b .cfa: $rsp 40 +
STACK CFI 3b75e .cfa: $rsp 32 +
STACK CFI 3b75f .cfa: $rsp 24 +
STACK CFI 3b761 .cfa: $rsp 16 +
STACK CFI 3b763 .cfa: $rsp 8 +
STACK CFI 3b768 .cfa: $rsp 48 +
STACK CFI INIT 3bbe0 63 .cfa: $rsp 8 + .ra: .cfa -8 + ^
STACK CFI 3bbe1 $rbp: .cfa -16 + ^ .cfa: $rsp 16 +
STACK CFI 3bbe2 $rbx: .cfa -24 + ^ .cfa: $rsp 24 +
STACK CFI 3bbe6 .cfa: $rsp 32 +
STACK CFI 3bbf4 .cfa: $rsp 24 +
STACK CFI 3bbf7 .cfa: $rsp 16 +
STACK CFI 3bbf8 .cfa: $rsp 8 +
STACK CFI 3bc00 .cfa: $rsp 32 +
STACK CFI INIT 3bc50 63 .cfa: $rsp 8 + .ra: .cfa -8 + ^
STACK CFI 3bc51 $rbp: .cfa -16 + ^ .cfa: $rsp 16 +
STACK CFI 3bc52 $rbx: .cfa -24 + ^ .cfa: $rsp 24 +
STACK CFI 3bc56 .cfa: $rsp 32 +
STACK CFI 3bc64 .cfa: $rsp 24 +
STACK CFI 3bc67 .cfa: $rsp 16 +
STACK CFI 3bc68 .cfa: $rsp 8 +
STACK CFI 3bc70 .cfa: $rsp 32 +
STACK CFI INIT 3bcc0 2c .cfa: $rsp 8 + .ra: .cfa -8 + ^
STACK CFI 3bcc1 $rbx: .cfa -16 + ^ .cfa: $rsp 16 +
STACK CFI 3bceb .cfa: $rsp 8 +
STACK CFI INIT 3bcf0 f .cfa: $rsp 8 + .ra: .cfa -8 + ^
STACK CFI INIT 3bd00 4 .cfa: $rsp 8 + .ra: .cfa -8 + ^
STACK CFI INIT 3bd10 9d .cfa: $rsp 8 + .ra: .cfa -8 + ^
STACK CFI 3bd11 $rbp: .cfa -16 + ^ .cfa: $rsp 16 +
STACK CFI 3bd12 $rbx: .cfa -24 + ^ .cfa: $rsp 24 +
STACK CFI 3bd19 .cfa: $rsp 48 +
STACK CFI 3bd4d .cfa: $rsp 24 +
STACK CFI 3bd4e .cfa: $rsp 16 +
STACK CFI 3bd4f .cfa: $rsp 8 +
STACK CFI 3bd50 .cfa: $rsp 48 +
STACK CFI INIT 3bdb0 9d .cfa: $rsp 8 + .ra: .cfa -8 + ^
STACK CFI 3bdb1 $rbp: .cfa -16 + ^ .cfa: $rsp 16 +
STACK CFI 3bdb2 $rbx: .cfa -24 + ^ .cfa: $rsp 24 +
STACK CFI 3bdb9 .cfa: $rsp 48 +
STACK CFI 3bded .cfa: $rsp 24 +
STACK CFI 3bdee .cfa: $rsp 16 +
STACK CFI 3bdef .cfa: $rsp 8 +
STACK CFI 3bdf0 .cfa: $rsp 48 +
STACK CFI INIT 3be50 9d .cfa: $rsp 8 + .ra: .cfa -8 + ^
STACK CFI 3be51 $rbp: .cfa -16 + ^ .cfa: $rsp 16 +
STACK CFI 3be52 $rbx: .cfa -24 + ^ .cfa: $rsp 24 +
STACK CFI 3be59 .cfa: $rsp 48 +
STACK CFI 3be8d .cfa: $rsp 24 +
STACK CFI 3be8e .cfa: $rsp 16 +
STACK CFI 3be8f .cfa: $rsp 8 +
STACK CFI 3be90 .cfa: $rsp 48 +
STACK CFI INIT 3bef0 9d .cfa: $rsp 8 + .ra: .cfa -8 + ^
STACK CFI 3bef1 $rbp: .cfa -16 + ^ .cfa: $rsp 16 +
STACK CFI 3bef2 $rbx: .cfa -24 + ^ .cfa: $rsp 24 +
STACK CFI 3bef9 .cfa: $rsp 48 +
STACK CFI 3bf2d .cfa: $rsp 24 +
STACK CFI 3bf2e .cfa: $rsp 16 +
STACK CFI 3bf2f .cfa: $rsp 8 +
STACK CFI 3bf30 .cfa: $rsp 48 +
STACK CFI INIT 3bf90 9d .cfa: $rsp 8 + .ra: .cfa -8 + ^
STACK CFI 3bf91 $rbp: .cfa -16 + ^ .cfa: $rsp 16 +
STACK CFI 3bf92 $rbx: .cfa -24 + ^ .cfa: $rsp 24 +
STACK CFI 3bf99 .cfa: $rsp 48 +
STACK CFI 3bfcd .cfa: $rsp 24 +
STACK CFI 3bfce .cfa: $rsp 16 +
STACK CFI 3bfcf .cfa: $rsp 8 +
STACK CFI 3bfd0 .cfa: $rsp 48 +
STACK CFI INIT 3c030 9d .cfa: $rsp 8 + .ra: .cfa -8 + ^
STACK CFI 3c031 $rbp: .cfa -16 + ^ .cfa: $rsp 16 +
STACK CFI 3c032 $rbx: .cfa -24 + ^ .cfa: $rsp 24 +
STACK CFI 3c039 .cfa: $rsp 48 +
STACK CFI 3c06d .cfa: $rsp 24 +
STACK CFI 3c06e .cfa: $rsp 16 +
STACK CFI 3c06f .cfa: $rsp 8 +
STACK CFI 3c070 .cfa: $rsp 48 +
STACK CFI INIT 3c0d0 9d .cfa: $rsp 8 + .ra: .cfa -8 + ^
STACK CFI 3c0d1 $rbp: .cfa -16 + ^ .cfa: $rsp 16 +
STACK CFI 3c0d2 $rbx: .cfa -24 + ^ .cfa: $rsp 24 +
STACK CFI 3c0d9 .cfa: $rsp 48 +
STACK CFI 3c10d .cfa: $rsp 24 +
STACK CFI 3c10e .cfa: $rsp 16 +
STACK CFI 3c10f .cfa: $rsp 8 +
STACK CFI 3c110 .cfa: $rsp 48 +
STACK CFI INIT 3c170 ad .cfa: $rsp 8 + .ra: .cfa -8 + ^
STACK CFI 3c171 $rbp: .cfa -16 + ^ .cfa: $rsp 16 +
STACK CFI 3c172 $rbx: .cfa -24 + ^ .cfa: $rsp 24 +
STACK CFI 3c179 .cfa: $rsp 48 +
STACK CFI 3c1bc .cfa: $rsp 24 +
STACK CFI 3c1bd .cfa: $rsp 16 +
STACK CFI 3c1be .cfa: $rsp 8 +
STACK CFI 3c1c0 .cfa: $rsp 48 +
STACK CFI INIT 3c220 28f .cfa: $rsp 8 + .ra: .cfa -8 + ^
STACK CFI 3c222 $r13: .cfa -16 + ^ .cfa: $rsp 16 +
STACK CFI 3c224 $r12: .cfa -24 + ^ .cfa: $rsp 24 +
STACK CFI 3c228 $rbp: .cfa -32 + ^ .cfa: $rsp 32 +
STACK CFI 3c229 $rbx: .cfa -40 + ^ .cfa: $rsp 40 +
STACK CFI 3c230 .cfa: $rsp 64 +
STACK CFI 3c2b6 .cfa: $rsp 40 +
STACK CFI 3c2b7 .cfa: $rsp 32 +
STACK CFI 3c2b8 .cfa: $rsp 24 +
STACK CFI 3c2ba .cfa: $rsp 16 +
STACK CFI 3c2bc .cfa: $rsp 8 +
STACK CFI 3c2c0 .cfa: $rsp 64 +
STACK CFI INIT 3c4b0 28f .cfa: $rsp 8 + .ra: .cfa -8 + ^
STACK CFI 3c4b2 $r13: .cfa -16 + ^ .cfa: $rsp 16 +
STACK CFI 3c4b4 $r12: .cfa -24 + ^ .cfa: $rsp 24 +
STACK CFI 3c4b8 $rbp: .cfa -32 + ^ .cfa: $rsp 32 +
STACK CFI 3c4b9 $rbx: .cfa -40 + ^ .cfa: $rsp 40 +
STACK CFI 3c4c0 .cfa: $rsp 64 +
STACK CFI 3c546 .cfa: $rsp 40 +
STACK CFI 3c547 .cfa: $rsp 32 +
STACK CFI 3c548 .cfa: $rsp 24 +
STACK CFI 3c54a .cfa: $rsp 16 +
STACK CFI 3c54c .cfa: $rsp 8 +
STACK CFI 3c550 .cfa: $rsp 64 +
STACK CFI INIT 3c740 4 .cfa: $rsp 8 + .ra: .cfa -8 + ^
STACK CFI INIT 3c750 5 .cfa: $rsp 8 + .ra: .cfa -8 + ^
STACK CFI INIT 3c760 5 .cfa: $rsp 8 + .ra: .cfa -8 + ^
STACK CFI INIT 3c770 5 .cfa: $rsp 8 + .ra: .cfa -8 + ^
STACK CFI INIT 3c780 5 .cfa: $rsp 8 + .ra: .cfa -8 + ^
STACK CFI INIT 3c790 5 .cfa: $rsp 8 + .ra: .cfa -8 + ^
STACK CFI INIT 3c7a0 5 .cfa: $rsp 8 + .ra: .cfa -8 + ^
STACK CFI INIT 3c7b0 5 .cfa: $rsp 8 + .ra: .cfa -8 + ^
STACK CFI INIT 3c7c0 5 .cfa: $rsp 8 + .ra: .cfa -8 + ^
STACK CFI INIT 3c7d0 11b .cfa: $rsp 8 + .ra: .cfa -8 + ^
STACK CFI 3c7d1 $rbx: .cfa -16 + ^ .cfa: $rsp 16 +
STACK CFI 3c85d .cfa: $rsp 8 +
STACK CFI 3c860 .cfa: $rsp 16 +
STACK CFI INIT 3c8f0 13 .cfa: $rsp 8 + .ra: .cfa -8 + ^
STACK CFI INIT 3c910 17 .cfa: $rsp 8 + .ra: .cfa -8 + ^
STACK CFI 3c911 $rbx: .cfa -16 + ^ .cfa: $rsp 16 +
STACK CFI 3c922 .cfa: $rsp 8 +
STACK CFI INIT 3c930 116a .cfa: $rsp 8 + .ra: .cfa -8 + ^
STACK CFI 3c932 $r13: .cfa -16 + ^ .cfa: $rsp 16 +
STACK CFI 3c934 $r12: .cfa -24 + ^ .cfa: $rsp 24 +
STACK CFI 3c935 $rbp: .cfa -32 + ^ .cfa: $rsp 32 +
STACK CFI 3c936 $rbx: .cfa -40 + ^ .cfa: $rsp 40 +
STACK CFI 3c93d .cfa: $rsp 208 +
STACK CFI 3c9b8 .cfa: $rsp 40 +
STACK CFI 3c9b9 .cfa: $rsp 32 +
STACK CFI 3c9ba .cfa: $rsp 24 +
STACK CFI 3c9bc .cfa: $rsp 16 +
STACK CFI 3c9be .cfa: $rsp 8 +
STACK CFI 3c9c0 .cfa: $rsp 208 +
STACK CFI INIT 29f20 2e .cfa: $rsp 8 + .ra: .cfa -8 + ^
STACK CFI 29f2b .cfa: $rsp 16 +
STACK CFI 29f49 .cfa: $rsp 8 +
STACK CFI INIT 3daa0 4 .cfa: $rsp 8 + .ra: .cfa -8 + ^
STACK CFI INIT 3dab0 17 .cfa: $rsp 8 + .ra: .cfa -8 + ^
STACK CFI INIT 3dad0 6 .cfa: $rsp 8 + .ra: .cfa -8 + ^
STACK CFI INIT 3dae0 16f .cfa: $rsp 8 + .ra: .cfa -8 + ^
STACK CFI 3dae2 $r13: .cfa -16 + ^ .cfa: $rsp 16 +
STACK CFI 3dae4 $r12: .cfa -24 + ^ .cfa: $rsp 24 +
STACK CFI 3dae8 $rbp: .cfa -32 + ^ .cfa: $rsp 32 +
STACK CFI 3dae9 $rbx: .cfa -40 + ^ .cfa: $rsp 40 +
STACK CFI 3daf3 .cfa: $rsp 64 +
STACK CFI 3db6a .cfa: $rsp 40 +
STACK CFI 3db6b .cfa: $rsp 32 +
STACK CFI 3db6c .cfa: $rsp 24 +
STACK CFI 3db6e .cfa: $rsp 16 +
STACK CFI 3db70 .cfa: $rsp 8 +
STACK CFI 3db78 .cfa: $rsp 64 +
STACK CFI INIT 3dc50 7 .cfa: $rsp 8 + .ra: .cfa -8 + ^
STACK CFI INIT 3dc60 2a .cfa: $rsp 8 + .ra: .cfa -8 + ^
STACK CFI INIT 29f50 2e .cfa: $rsp 8 + .ra: .cfa -8 + ^
STACK CFI 29f5b .cfa: $rsp 16 +
STACK CFI 29f79 .cfa: $rsp 8 +
STACK CFI INIT 40ec0 3 .cfa: $rsp 8 + .ra: .cfa -8 + ^
STACK CFI INIT 40ed0 2 .cfa: $rsp 8 + .ra: .cfa -8 + ^
STACK CFI INIT 40ee0 a .cfa: $rsp 8 + .ra: .cfa -8 + ^
STACK CFI INIT 3dc90 c8 .cfa: $rsp 8 + .ra: .cfa -8 + ^
STACK CFI 3dc92 $r12: .cfa -16 + ^ .cfa: $rsp 16 +
STACK CFI 3dc93 $rbp: .cfa -24 + ^ .cfa: $rsp 24 +
STACK CFI 3dc97 $rbx: .cfa -32 + ^ .cfa: $rsp 32 +
STACK CFI 3dc9e .cfa: $rsp 48 +
STACK CFI 3dd04 .cfa: $rsp 32 +
STACK CFI 3dd05 .cfa: $rsp 24 +
STACK CFI 3dd06 .cfa: $rsp 16 +
STACK CFI 3dd08 .cfa: $rsp 8 +
STACK CFI 3dd10 .cfa: $rsp 48 +
STACK CFI INIT 3dd60 1d .cfa: $rsp 8 + .ra: .cfa -8 + ^
STACK CFI 3dd61 $rbx: .cfa -16 + ^ .cfa: $rsp 16 +
STACK CFI 3dd7c .cfa: $rsp 8 +
STACK CFI INIT 3dd80 29 .cfa: $rsp 8 + .ra: .cfa -8 + ^
STACK CFI 3dd81 $rbp: .cfa -16 + ^ .cfa: $rsp 16 +
STACK CFI 3dd82 $rbx: .cfa -24 + ^ .cfa: $rsp 24 +
STACK CFI 3dd8b .cfa: $rsp 32 +
STACK CFI 3dda6 .cfa: $rsp 24 +
STACK CFI 3dda7 .cfa: $rsp 16 +
STACK CFI 3dda8 .cfa: $rsp 8 +
STACK CFI INIT 3ddb0 856 .cfa: $rsp 8 + .ra: .cfa -8 + ^
STACK CFI 3ddb2 $r15: .cfa -16 + ^ .cfa: $rsp 16 +
STACK CFI 3ddb4 $r14: .cfa -24 + ^ .cfa: $rsp 24 +
STACK CFI 3ddb6 $r13: .cfa -32 + ^ .cfa: $rsp 32 +
STACK CFI 3ddb8 $r12: .cfa -40 + ^ .cfa: $rsp 40 +
STACK CFI 3ddb9 $rbp: .cfa -48 + ^ .cfa: $rsp 48 +
STACK CFI 3ddba $rbx: .cfa -56 + ^ .cfa: $rsp 56 +
STACK CFI 3ddc1 .cfa: $rsp 208 +
STACK CFI 3df1c .cfa: $rsp 56 +
STACK CFI 3df1d .cfa: $rsp 48 +
STACK CFI 3df1e .cfa: $rsp 40 +
STACK CFI 3df20 .cfa: $rsp 32 +
STACK CFI 3df22 .cfa: $rsp 24 +
STACK CFI 3df24 .cfa: $rsp 16 +
STACK CFI 3df26 .cfa: $rsp 8 +
STACK CFI 3df30 .cfa: $rsp 208 +
STACK CFI INIT 3e610 310 .cfa: $rsp 8 + .ra: .cfa -8 + ^
STACK CFI 3e612 $r15: .cfa -16 + ^ .cfa: $rsp 16 +
STACK CFI 3e614 $r14: .cfa -24 + ^ .cfa: $rsp 24 +
STACK CFI 3e619 $r13: .cfa -32 + ^ .cfa: $rsp 32 +
STACK CFI 3e61b $r12: .cfa -40 + ^ .cfa: $rsp 40 +
STACK CFI 3e61c $rbp: .cfa -48 + ^ .cfa: $rsp 48 +
STACK CFI 3e61d $rbx: .cfa -56 + ^ .cfa: $rsp 56 +
STACK CFI 3e624 .cfa: $rsp 1168 +
STACK CFI 3e6af .cfa: $rsp 56 +
STACK CFI 3e6b0 .cfa: $rsp 48 +
STACK CFI 3e6b1 .cfa: $rsp 40 +
STACK CFI 3e6b3 .cfa: $rsp 32 +
STACK CFI 3e6b5 .cfa: $rsp 24 +
STACK CFI 3e6b7 .cfa: $rsp 16 +
STACK CFI 3e6b9 .cfa: $rsp 8 +
STACK CFI 3e6c0 .cfa: $rsp 1168 +
STACK CFI 3e7d0 .cfa: $rsp 1176 +
STACK CFI 3e7e1 .cfa: $rsp 1184 +
STACK CFI 3e7fd .cfa: $rsp 1176 +
STACK CFI 3e7fe .cfa: $rsp 1168 +
STACK CFI INIT 3e920 19f .cfa: $rsp 8 + .ra: .cfa -8 + ^
STACK CFI 3e922 $r13: .cfa -16 + ^ .cfa: $rsp 16 +
STACK CFI 3e924 $r12: .cfa -24 + ^ .cfa: $rsp 24 +
STACK CFI 3e925 $rbp: .cfa -32 + ^ .cfa: $rsp 32 +
STACK CFI 3e926 $rbx: .cfa -40 + ^ .cfa: $rsp 40 +
STACK CFI 3e92d .cfa: $rsp 128 +
STACK CFI 3e9d7 .cfa: $rsp 40 +
STACK CFI 3e9d8 .cfa: $rsp 32 +
STACK CFI 3e9d9 .cfa: $rsp 24 +
STACK CFI 3e9db .cfa: $rsp 16 +
STACK CFI 3e9dd .cfa: $rsp 8 +
STACK CFI 3e9e0 .cfa: $rsp 128 +
STACK CFI INIT 3eac0 26a .cfa: $rsp 8 + .ra: .cfa -8 + ^
STACK CFI 3eac2 $r15: .cfa -16 + ^ .cfa: $rsp 16 +
STACK CFI 3eac4 $r14: .cfa -24 + ^ .cfa: $rsp 24 +
STACK CFI 3eac6 $r13: .cfa -32 + ^ .cfa: $rsp 32 +
STACK CFI 3eac8 $r12: .cfa -40 + ^ .cfa: $rsp 40 +
STACK CFI 3eac9 $rbp: .cfa -48 + ^ .cfa: $rsp 48 +
STACK CFI 3eaca $rbx: .cfa -56 + ^ .cfa: $rsp 56 +
STACK CFI 3eace .cfa: $rsp 160 +
STACK CFI 3ebee .cfa: $rsp 56 +
STACK CFI 3ebef .cfa: $rsp 48 +
STACK CFI 3ebf0 .cfa: $rsp 40 +
STACK CFI 3ebf2 .cfa: $rsp 32 +
STACK CFI 3ebf4 .cfa: $rsp 24 +
STACK CFI 3ebf6 .cfa: $rsp 16 +
STACK CFI 3ebf8 .cfa: $rsp 8 +
STACK CFI 3ec00 .cfa: $rsp 160 +
STACK CFI INIT 3ed30 3c .cfa: $rsp 8 + .ra: .cfa -8 + ^
STACK CFI 3ed31 $rbx: .cfa -16 + ^ .cfa: $rsp 16 +
STACK CFI 3ed5e .cfa: $rsp 8 +
STACK CFI 3ed68 .cfa: $rsp 16 +
STACK CFI 3ed6b .cfa: $rsp 8 +
STACK CFI INIT 3ed70 48 .cfa: $rsp 8 + .ra: .cfa -8 + ^
STACK CFI INIT 3edc0 576 .cfa: $rsp 8 + .ra: .cfa -8 + ^
STACK CFI 3edc2 $r15: .cfa -16 + ^ .cfa: $rsp 16 +
STACK CFI 3edc4 $r14: .cfa -24 + ^ .cfa: $rsp 24 +
STACK CFI 3edc6 $r13: .cfa -32 + ^ .cfa: $rsp 32 +
STACK CFI 3edc8 $r12: .cfa -40 + ^ .cfa: $rsp 40 +
STACK CFI 3edcc $rbp: .cfa -48 + ^ .cfa: $rsp 48 +
STACK CFI 3edcd $rbx: .cfa -56 + ^ .cfa: $rsp 56 +
STACK CFI 3edd7 .cfa: $rsp 544 +
STACK CFI 3f1bc .cfa: $rsp 56 +
STACK CFI 3f1bd .cfa: $rsp 48 +
STACK CFI 3f1be .cfa: $rsp 40 +
STACK CFI 3f1c0 .cfa: $rsp 32 +
STACK CFI 3f1c2 .cfa: $rsp 24 +
STACK CFI 3f1c4 .cfa: $rsp 16 +
STACK CFI 3f1c6 .cfa: $rsp 8 +
STACK CFI 3f1d0 .cfa: $rsp 544 +
STACK CFI INIT 3f340 1163 .cfa: $rsp 8 + .ra: .cfa -8 + ^
STACK CFI 3f342 $r15: .cfa -16 + ^ .cfa: $rsp 16 +
STACK CFI 3f344 $r14: .cfa -24 + ^ .cfa: $rsp 24 +
STACK CFI 3f349 $r13: .cfa -32 + ^ .cfa: $rsp 32 +
STACK CFI 3f34b $r12: .cfa -40 + ^ .cfa: $rsp 40 +
STACK CFI 3f34c $rbp: .cfa -48 + ^ .cfa: $rsp 48 +
STACK CFI 3f34d $rbx: .cfa -56 + ^ .cfa: $rsp 56 +
STACK CFI 3f354 .cfa: $rsp 1248 +
STACK CFI 3f3f9 .cfa: $rsp 56 +
STACK CFI 3f3fa .cfa: $rsp 48 +
STACK CFI 3f3fb .cfa: $rsp 40 +
STACK CFI 3f3fd .cfa: $rsp 32 +
STACK CFI 3f3ff .cfa: $rsp 24 +
STACK CFI 3f401 .cfa: $rsp 16 +
STACK CFI 3f403 .cfa: $rsp 8 +
STACK CFI 3f408 .cfa: $rsp 1248 +
STACK CFI INIT 404b0 6c5 .cfa: $rsp 8 + .ra: .cfa -8 + ^
STACK CFI 404b2 $r15: .cfa -16 + ^ .cfa: $rsp 16 +
STACK CFI 404b4 $r14: .cfa -24 + ^ .cfa: $rsp 24 +
STACK CFI 404b6 $r13: .cfa -32 + ^ .cfa: $rsp 32 +
STACK CFI 404b8 $r12: .cfa -40 + ^ .cfa: $rsp 40 +
STACK CFI 404bc $rbp: .cfa -48 + ^ .cfa: $rsp 48 +
STACK CFI 404bd $rbx: .cfa -56 + ^ .cfa: $rsp 56 +
STACK CFI 404c7 .cfa: $rsp 4400 +
STACK CFI 406c5 .cfa: $rsp 56 +
STACK CFI 406c6 .cfa: $rsp 48 +
STACK CFI 406c7 .cfa: $rsp 40 +
STACK CFI 406c9 .cfa: $rsp 32 +
STACK CFI 406cb .cfa: $rsp 24 +
STACK CFI 406cd .cfa: $rsp 16 +
STACK CFI 406cf .cfa: $rsp 8 +
STACK CFI 406d0 .cfa: $rsp 4400 +
STACK CFI INIT 40b80 336 .cfa: $rsp 8 + .ra: .cfa -8 + ^
STACK CFI 40b82 $r13: .cfa -16 + ^ .cfa: $rsp 16 +
STACK CFI 40b84 $r12: .cfa -24 + ^ .cfa: $rsp 24 +
STACK CFI 40b88 $rbp: .cfa -32 + ^ .cfa: $rsp 32 +
STACK CFI 40b89 $rbx: .cfa -40 + ^ .cfa: $rsp 40 +
STACK CFI 40b8d .cfa: $rsp 80 +
STACK CFI 40c42 .cfa: $rsp 40 +
STACK CFI 40c43 .cfa: $rsp 32 +
STACK CFI 40c44 .cfa: $rsp 24 +
STACK CFI 40c46 .cfa: $rsp 16 +
STACK CFI 40c48 .cfa: $rsp 8 +
STACK CFI 40c50 .cfa: $rsp 80 +
STACK CFI INIT 29f80 2e .cfa: $rsp 8 + .ra: .cfa -8 + ^
STACK CFI 29f8b .cfa: $rsp 16 +
STACK CFI 29fa9 .cfa: $rsp 8 +
STACK CFI INIT 415b0 2 .cfa: $rsp 8 + .ra: .cfa -8 + ^
STACK CFI INIT 415c0 a .cfa: $rsp 8 + .ra: .cfa -8 + ^
STACK CFI INIT 40ef0 69e .cfa: $rsp 8 + .ra: .cfa -8 + ^
STACK CFI 40ef2 $r15: .cfa -16 + ^ .cfa: $rsp 16 +
STACK CFI 40ef4 $r14: .cfa -24 + ^ .cfa: $rsp 24 +
STACK CFI 40ef6 $r13: .cfa -32 + ^ .cfa: $rsp 32 +
STACK CFI 40ef8 $r12: .cfa -40 + ^ .cfa: $rsp 40 +
STACK CFI 40ef9 $rbp: .cfa -48 + ^ .cfa: $rsp 48 +
STACK CFI 40efa $rbx: .cfa -56 + ^ .cfa: $rsp 56 +
STACK CFI 40f04 .cfa: $rsp 384 +
STACK CFI 410f4 .cfa: $rsp 56 +
STACK CFI 410f5 .cfa: $rsp 48 +
STACK CFI 410f6 .cfa: $rsp 40 +
STACK CFI 410f8 .cfa: $rsp 32 +
STACK CFI 410fa .cfa: $rsp 24 +
STACK CFI 410fc .cfa: $rsp 16 +
STACK CFI 410fe .cfa: $rsp 8 +
STACK CFI 41100 .cfa: $rsp 384 +
STACK CFI INIT 41590 19 .cfa: $rsp 8 + .ra: .cfa -8 + ^
STACK CFI 41591 $rbx: .cfa -16 + ^ .cfa: $rsp 16 +
STACK CFI 415a8 .cfa: $rsp 8 +
STACK CFI INIT 29fb0 2e .cfa: $rsp 8 + .ra: .cfa -8 + ^
STACK CFI 29fbb .cfa: $rsp 16 +
STACK CFI 29fd9 .cfa: $rsp 8 +
STACK CFI INIT 42840 8 .cfa: $rsp 8 + .ra: .cfa -8 + ^
STACK CFI INIT 42850 2 .cfa: $rsp 8 + .ra: .cfa -8 + ^
STACK CFI INIT 415d0 3 .cfa: $rsp 8 + .ra: .cfa -8 + ^
STACK CFI INIT 415e0 1d2 .cfa: $rsp 8 + .ra: .cfa -8 + ^
STACK CFI 415e2 $r13: .cfa -16 + ^ .cfa: $rsp 16 +
STACK CFI 415e4 $r12: .cfa -24 + ^ .cfa: $rsp 24 +
STACK CFI 415e5 $rbp: .cfa -32 + ^ .cfa: $rsp 32 +
STACK CFI 415e6 $rbx: .cfa -40 + ^ .cfa: $rsp 40 +
STACK CFI 415ea .cfa: $rsp 96 +
STACK CFI 417a6 .cfa: $rsp 40 +
STACK CFI 417a7 .cfa: $rsp 32 +
STACK CFI 417a8 .cfa: $rsp 24 +
STACK CFI 417aa .cfa: $rsp 16 +
STACK CFI 417ac .cfa: $rsp 8 +
STACK CFI 417ad .cfa: $rsp 96 +
STACK CFI INIT 42860 a .cfa: $rsp 8 + .ra: .cfa -8 + ^
STACK CFI INIT 42870 2a .cfa: $rsp 8 + .ra: .cfa -8 + ^
STACK CFI INIT 428a0 32 .cfa: $rsp 8 + .ra: .cfa -8 + ^
STACK CFI 428a8 $rbx: .cfa -16 + ^ .cfa: $rsp 16 +
STACK CFI 428cd .cfa: $rsp 8 +
STACK CFI INIT 428e0 13 .cfa: $rsp 8 + .ra: .cfa -8 + ^
STACK CFI INIT 42900 25 .cfa: $rsp 8 + .ra: .cfa -8 + ^
STACK CFI 42908 $rbx: .cfa -16 + ^ .cfa: $rsp 16 +
STACK CFI 42920 .cfa: $rsp 8 +
STACK CFI INIT 417c0 c8 .cfa: $rsp 8 + .ra: .cfa -8 + ^
STACK CFI 417c2 $r12: .cfa -16 + ^ .cfa: $rsp 16 +
STACK CFI 417c3 $rbp: .cfa -24 + ^ .cfa: $rsp 24 +
STACK CFI 417c7 $rbx: .cfa -32 + ^ .cfa: $rsp 32 +
STACK CFI 417ce .cfa: $rsp 48 +
STACK CFI 41834 .cfa: $rsp 32 +
STACK CFI 41835 .cfa: $rsp 24 +
STACK CFI 41836 .cfa: $rsp 16 +
STACK CFI 41838 .cfa: $rsp 8 +
STACK CFI 41840 .cfa: $rsp 48 +
STACK CFI INIT 42930 138 .cfa: $rsp 8 + .ra: .cfa -8 + ^
STACK CFI 42931 $rbp: .cfa -16 + ^ .cfa: $rsp 16 +
STACK CFI 42932 $rbx: .cfa -24 + ^ .cfa: $rsp 24 +
STACK CFI 4293e .cfa: $rsp 32 +
STACK CFI 42a4d .cfa: $rsp 24 +
STACK CFI 42a4e .cfa: $rsp 16 +
STACK CFI 42a4f .cfa: $rsp 8 +
STACK CFI 42a50 .cfa: $rsp 32 +
STACK CFI INIT 41890 a4 .cfa: $rsp 8 + .ra: .cfa -8 + ^
STACK CFI 41891 $rbp: .cfa -16 + ^ .cfa: $rsp 16 +
STACK CFI 41892 $rbx: .cfa -24 + ^ .cfa: $rsp 24 +
STACK CFI 41896 .cfa: $rsp 48 +
STACK CFI 41905 .cfa: $rsp 24 +
STACK CFI 41906 .cfa: $rsp 16 +
STACK CFI 41907 .cfa: $rsp 8 +
STACK CFI 41910 .cfa: $rsp 48 +
STACK CFI INIT 41940 37 .cfa: $rsp 8 + .ra: .cfa -8 + ^
STACK CFI 41941 $rbx: .cfa -16 + ^ .cfa: $rsp 16 +
STACK CFI 41976 .cfa: $rsp 8 +
STACK CFI INIT 41980 177 .cfa: $rsp 8 + .ra: .cfa -8 + ^
STACK CFI 41982 $r15: .cfa -16 + ^ .cfa: $rsp 16 +
STACK CFI 41984 $r14: .cfa -24 + ^ .cfa: $rsp 24 +
STACK CFI 41986 $r13: .cfa -32 + ^ .cfa: $rsp 32 +
STACK CFI 41988 $r12: .cfa -40 + ^ .cfa: $rsp 40 +
STACK CFI 4198d $rbp: .cfa -48 + ^ .cfa: $rsp 48 +
STACK CFI 4198e $rbx: .cfa -56 + ^ .cfa: $rsp 56 +
STACK CFI 41995 .cfa: $rsp 176 +
STACK CFI 41ab1 .cfa: $rsp 56 +
STACK CFI 41ab2 .cfa: $rsp 48 +
STACK CFI 41ab3 .cfa: $rsp 40 +
STACK CFI 41ab5 .cfa: $rsp 32 +
STACK CFI 41ab7 .cfa: $rsp 24 +
STACK CFI 41ab9 .cfa: $rsp 16 +
STACK CFI 41abb .cfa: $rsp 8 +
STACK CFI 41abc .cfa: $rsp 176 +
STACK CFI INIT 42a70 32 .cfa: $rsp 8 + .ra: .cfa -8 + ^
STACK CFI 42a71 $rbx: .cfa -16 + ^ .cfa: $rsp 16 +
STACK CFI 42a93 .cfa: $rsp 8 +
STACK CFI 42aa0 .cfa: $rsp 16 +
STACK CFI 42aa1 .cfa: $rsp 8 +
STACK CFI INIT 42ab0 32 .cfa: $rsp 8 + .ra: .cfa -8 + ^
STACK CFI 42ab1 $rbx: .cfa -16 + ^ .cfa: $rsp 16 +
STACK CFI 42ad3 .cfa: $rsp 8 +
STACK CFI 42ae0 .cfa: $rsp 16 +
STACK CFI 42ae1 .cfa: $rsp 8 +
STACK CFI INIT 42af0 166 .cfa: $rsp 8 + .ra: .cfa -8 + ^
STACK CFI 42af2 $r15: .cfa -16 + ^ .cfa: $rsp 16 +
STACK CFI 42af4 $r14: .cfa -24 + ^ .cfa: $rsp 24 +
STACK CFI 42af6 $r13: .cfa -32 + ^ .cfa: $rsp 32 +
STACK CFI 42af8 $r12: .cfa -40 + ^ .cfa: $rsp 40 +
STACK CFI 42afc $rbp: .cfa -48 + ^ .cfa: $rsp 48 +
STACK CFI 42afd $rbx: .cfa -56 + ^ .cfa: $rsp 56 +
STACK CFI 42b01 .cfa: $rsp 96 +
STACK CFI 42bb1 .cfa: $rsp 56 +
STACK CFI 42bb2 .cfa: $rsp 48 +
STACK CFI 42bb3 .cfa: $rsp 40 +
STACK CFI 42bb5 .cfa: $rsp 32 +
STACK CFI 42bb7 .cfa: $rsp 24 +
STACK CFI 42bb9 .cfa: $rsp 16 +
STACK CFI 42bbb .cfa: $rsp 8 +
STACK CFI 42bc0 .cfa: $rsp 96 +
STACK CFI INIT 42c60 2b1 .cfa: $rsp 8 + .ra: .cfa -8 + ^
STACK CFI 42c62 $r15: .cfa -16 + ^ .cfa: $rsp 16 +
STACK CFI 42c64 $r14: .cfa -24 + ^ .cfa: $rsp 24 +
STACK CFI 42c69 $r13: .cfa -32 + ^ .cfa: $rsp 32 +
STACK CFI 42c6b $r12: .cfa -40 + ^ .cfa: $rsp 40 +
STACK CFI 42c6c $rbp: .cfa -48 + ^ .cfa: $rsp 48 +
STACK CFI 42c6d $rbx: .cfa -56 + ^ .cfa: $rsp 56 +
STACK CFI 42c71 .cfa: $rsp 112 +
STACK CFI 42dd8 .cfa: $rsp 56 +
STACK CFI 42dd9 .cfa: $rsp 48 +
STACK CFI 42dda .cfa: $rsp 40 +
STACK CFI 42ddc .cfa: $rsp 32 +
STACK CFI 42dde .cfa: $rsp 24 +
STACK CFI 42de0 .cfa: $rsp 16 +
STACK CFI 42de2 .cfa: $rsp 8 +
STACK CFI 42de8 .cfa: $rsp 112 +
STACK CFI INIT 42f20 1ee .cfa: $rsp 8 + .ra: .cfa -8 + ^
STACK CFI 42f22 $r15: .cfa -16 + ^ .cfa: $rsp 16 +
STACK CFI 42f24 $r14: .cfa -24 + ^ .cfa: $rsp 24 +
STACK CFI 42f26 $r13: .cfa -32 + ^ .cfa: $rsp 32 +
STACK CFI 42f28 $r12: .cfa -40 + ^ .cfa: $rsp 40 +
STACK CFI 42f29 $rbp: .cfa -48 + ^ .cfa: $rsp 48 +
STACK CFI 42f2a $rbx: .cfa -56 + ^ .cfa: $rsp 56 +
STACK CFI 42f31 .cfa: $rsp 160 +
STACK CFI 43041 .cfa: $rsp 56 +
STACK CFI 43042 .cfa: $rsp 48 +
STACK CFI 43043 .cfa: $rsp 40 +
STACK CFI 43045 .cfa: $rsp 32 +
STACK CFI 43047 .cfa: $rsp 24 +
STACK CFI 43049 .cfa: $rsp 16 +
STACK CFI 4304b .cfa: $rsp 8 +
STACK CFI 43050 .cfa: $rsp 160 +
STACK CFI INIT 43110 1d6 .cfa: $rsp 8 + .ra: .cfa -8 + ^
STACK CFI 43112 $r15: .cfa -16 + ^ .cfa: $rsp 16 +
STACK CFI 43114 $r14: .cfa -24 + ^ .cfa: $rsp 24 +
STACK CFI 43119 $r13: .cfa -32 + ^ .cfa: $rsp 32 +
STACK CFI 4311b $r12: .cfa -40 + ^ .cfa: $rsp 40 +
STACK CFI 4311c $rbp: .cfa -48 + ^ .cfa: $rsp 48 +
STACK CFI 4311d $rbx: .cfa -56 + ^ .cfa: $rsp 56 +
STACK CFI 43124 .cfa: $rsp 112 +
STACK CFI 43239 .cfa: $rsp 56 +
STACK CFI 4323a .cfa: $rsp 48 +
STACK CFI 4323b .cfa: $rsp 40 +
STACK CFI 4323d .cfa: $rsp 32 +
STACK CFI 4323f .cfa: $rsp 24 +
STACK CFI 43241 .cfa: $rsp 16 +
STACK CFI 43243 .cfa: $rsp 8 +
STACK CFI 43248 .cfa: $rsp 112 +
STACK CFI INIT 41b00 3f3 .cfa: $rsp 8 + .ra: .cfa -8 + ^
STACK CFI 41b02 $r15: .cfa -16 + ^ .cfa: $rsp 16 +
STACK CFI 41b04 $r14: .cfa -24 + ^ .cfa: $rsp 24 +
STACK CFI 41b06 $r13: .cfa -32 + ^ .cfa: $rsp 32 +
STACK CFI 41b08 $r12: .cfa -40 + ^ .cfa: $rsp 40 +
STACK CFI 41b0c $rbp: .cfa -48 + ^ .cfa: $rsp 48 +
STACK CFI 41b0d $rbx: .cfa -56 + ^ .cfa: $rsp 56 +
STACK CFI 41b14 .cfa: $rsp 208 +
STACK CFI 41c6f .cfa: $rsp 56 +
STACK CFI 41c70 .cfa: $rsp 48 +
STACK CFI 41c71 .cfa: $rsp 40 +
STACK CFI 41c73 .cfa: $rsp 32 +
STACK CFI 41c75 .cfa: $rsp 24 +
STACK CFI 41c77 .cfa: $rsp 16 +
STACK CFI 41c79 .cfa: $rsp 8 +
STACK CFI 41c80 .cfa: $rsp 208 +
STACK CFI INIT 432f0 ad .cfa: $rsp 8 + .ra: .cfa -8 + ^
STACK CFI 432f1 $rbp: .cfa -16 + ^ .cfa: $rsp 16 +
STACK CFI 432f2 $rbx: .cfa -24 + ^ .cfa: $rsp 24 +
STACK CFI 432f6 .cfa: $rsp 48 +
STACK CFI 43339 .cfa: $rsp 24 +
STACK CFI 4333a .cfa: $rsp 16 +
STACK CFI 4333b .cfa: $rsp 8 +
STACK CFI 43340 .cfa: $rsp 48 +
STACK CFI INIT 433a0 ad .cfa: $rsp 8 + .ra: .cfa -8 + ^
STACK CFI 433a1 $rbp: .cfa -16 + ^ .cfa: $rsp 16 +
STACK CFI 433a2 $rbx: .cfa -24 + ^ .cfa: $rsp 24 +
STACK CFI 433a6 .cfa: $rsp 48 +
STACK CFI 433e5 .cfa: $rsp 24 +
STACK CFI 433e6 .cfa: $rsp 16 +
STACK CFI 433e7 .cfa: $rsp 8 +
STACK CFI 433f0 .cfa: $rsp 48 +
STACK CFI INIT 43450 32a .cfa: $rsp 8 + .ra: .cfa -8 + ^
STACK CFI 43452 $r15: .cfa -16 + ^ .cfa: $rsp 16 +
STACK CFI 43454 $r14: .cfa -24 + ^ .cfa: $rsp 24 +
STACK CFI 43456 $r13: .cfa -32 + ^ .cfa: $rsp 32 +
STACK CFI 43458 $r12: .cfa -40 + ^ .cfa: $rsp 40 +
STACK CFI 4345c $rbp: .cfa -48 + ^ .cfa: $rsp 48 +
STACK CFI 4345d $rbx: .cfa -56 + ^ .cfa: $rsp 56 +
STACK CFI 43464 .cfa: $rsp 160 +
STACK CFI 43588 .cfa: $rsp 56 +
STACK CFI 43589 .cfa: $rsp 48 +
STACK CFI 4358a .cfa: $rsp 40 +
STACK CFI 4358c .cfa: $rsp 32 +
STACK CFI 4358e .cfa: $rsp 24 +
STACK CFI 43590 .cfa: $rsp 16 +
STACK CFI 43592 .cfa: $rsp 8 +
STACK CFI 43598 .cfa: $rsp 160 +
STACK CFI INIT 41f00 53b .cfa: $rsp 8 + .ra: .cfa -8 + ^
STACK CFI 41f02 $r15: .cfa -16 + ^ .cfa: $rsp 16 +
STACK CFI 41f04 $r14: .cfa -24 + ^ .cfa: $rsp 24 +
STACK CFI 41f06 $r13: .cfa -32 + ^ .cfa: $rsp 32 +
STACK CFI 41f08 $r12: .cfa -40 + ^ .cfa: $rsp 40 +
STACK CFI 41f0c $rbp: .cfa -48 + ^ .cfa: $rsp 48 +
STACK CFI 41f0d $rbx: .cfa -56 + ^ .cfa: $rsp 56 +
STACK CFI 41f17 .cfa: $rsp 256 +
STACK CFI 420de .cfa: $rsp 56 +
STACK CFI 420df .cfa: $rsp 48 +
STACK CFI 420e0 .cfa: $rsp 40 +
STACK CFI 420e2 .cfa: $rsp 32 +
STACK CFI 420e4 .cfa: $rsp 24 +
STACK CFI 420e6 .cfa: $rsp 16 +
STACK CFI 420e8 .cfa: $rsp 8 +
STACK CFI 420f0 .cfa: $rsp 256 +
STACK CFI INIT 42440 3f2 .cfa: $rsp 8 + .ra: .cfa -8 + ^
STACK CFI 42442 $r14: .cfa -16 + ^ .cfa: $rsp 16 +
STACK CFI 42444 $r13: .cfa -24 + ^ .cfa: $rsp 24 +
STACK CFI 42446 $r12: .cfa -32 + ^ .cfa: $rsp 32 +
STACK CFI 42447 $rbp: .cfa -40 + ^ .cfa: $rsp 40 +
STACK CFI 4244b $rbx: .cfa -48 + ^ .cfa: $rsp 48 +
STACK CFI 42452 .cfa: $rsp 208 +
STACK CFI 42591 .cfa: $rsp 48 +
STACK CFI 42592 .cfa: $rsp 40 +
STACK CFI 42593 .cfa: $rsp 32 +
STACK CFI 42595 .cfa: $rsp 24 +
STACK CFI 42597 .cfa: $rsp 16 +
STACK CFI 42599 .cfa: $rsp 8 +
STACK CFI 425a0 .cfa: $rsp 208 +
STACK CFI INIT 29fe0 2e .cfa: $rsp 8 + .ra: .cfa -8 + ^
STACK CFI 29feb .cfa: $rsp 16 +
STACK CFI 2a009 .cfa: $rsp 8 +
STACK CFI INIT 43780 2d8 .cfa: $rsp 8 + .ra: .cfa -8 + ^
STACK CFI 43782 $r15: .cfa -16 + ^ .cfa: $rsp 16 +
STACK CFI 43784 $r14: .cfa -24 + ^ .cfa: $rsp 24 +
STACK CFI 43789 $r13: .cfa -32 + ^ .cfa: $rsp 32 +
STACK CFI 4378b $r12: .cfa -40 + ^ .cfa: $rsp 40 +
STACK CFI 4378f $rbp: .cfa -48 + ^ .cfa: $rsp 48 +
STACK CFI 43790 $rbx: .cfa -56 + ^ .cfa: $rsp 56 +
STACK CFI 4379d .cfa: $rsp 256 +
STACK CFI 4399d .cfa: $rsp 56 +
STACK CFI 4399e .cfa: $rsp 48 +
STACK CFI 4399f .cfa: $rsp 40 +
STACK CFI 439a1 .cfa: $rsp 32 +
STACK CFI 439a3 .cfa: $rsp 24 +
STACK CFI 439a5 .cfa: $rsp 16 +
STACK CFI 439a7 .cfa: $rsp 8 +
STACK CFI 439b0 .cfa: $rsp 256 +
STACK CFI INIT 43a60 6c .cfa: $rsp 8 + .ra: .cfa -8 + ^
STACK CFI 43a61 $rbp: .cfa -16 + ^ .cfa: $rsp 16 +
STACK CFI 43a62 $rbx: .cfa -24 + ^ .cfa: $rsp 24 +
STACK CFI 43a66 .cfa: $rsp 32 +
STACK CFI 43a94 .cfa: $rsp 24 +
STACK CFI 43a98 .cfa: $rsp 16 +
STACK CFI 43a99 .cfa: $rsp 8 +
STACK CFI 43aa0 .cfa: $rsp 32 +
STACK CFI INIT 43ad0 dc .cfa: $rsp 8 + .ra: .cfa -8 + ^
STACK CFI 43ad2 $r13: .cfa -16 + ^ .cfa: $rsp 16 +
STACK CFI 43ad4 $r12: .cfa -24 + ^ .cfa: $rsp 24 +
STACK CFI 43adc $rbp: .cfa -32 + ^ .cfa: $rsp 32 +
STACK CFI 43add $rbx: .cfa -40 + ^ .cfa: $rsp 40 +
STACK CFI 43af0 .cfa: $rsp 80 +
STACK CFI 43b5d .cfa: $rsp 40 +
STACK CFI 43b5e .cfa: $rsp 32 +
STACK CFI 43b5f .cfa: $rsp 24 +
STACK CFI 43b61 .cfa: $rsp 16 +
STACK CFI 43b63 .cfa: $rsp 8 +
STACK CFI 43b68 .cfa: $rsp 80 +
STACK CFI INIT 43bb0 110 .cfa: $rsp 8 + .ra: .cfa -8 + ^
STACK CFI 43bb2 $r12: .cfa -16 + ^ .cfa: $rsp 16 +
STACK CFI 43bb3 $rbp: .cfa -24 + ^ .cfa: $rsp 24 +
STACK CFI 43bbb $rbx: .cfa -32 + ^ .cfa: $rsp 32 +
STACK CFI 43bd4 .cfa: $rsp 80 +
STACK CFI 43c6e .cfa: $rsp 32 +
STACK CFI 43c6f .cfa: $rsp 24 +
STACK CFI 43c70 .cfa: $rsp 16 +
STACK CFI 43c72 .cfa: $rsp 8 +
STACK CFI 43c78 .cfa: $rsp 80 +
STACK CFI INIT 43cc0 110 .cfa: $rsp 8 + .ra: .cfa -8 + ^
STACK CFI 43cc2 $r12: .cfa -16 + ^ .cfa: $rsp 16 +
STACK CFI 43cc3 $rbp: .cfa -24 + ^ .cfa: $rsp 24 +
STACK CFI 43ccb $rbx: .cfa -32 + ^ .cfa: $rsp 32 +
STACK CFI 43ce4 .cfa: $rsp 80 +
STACK CFI 43d7e .cfa: $rsp 32 +
STACK CFI 43d7f .cfa: $rsp 24 +
STACK CFI 43d80 .cfa: $rsp 16 +
STACK CFI 43d82 .cfa: $rsp 8 +
STACK CFI 43d88 .cfa: $rsp 80 +
STACK CFI INIT 43dd0 3c .cfa: $rsp 8 + .ra: .cfa -8 + ^
STACK CFI 43dd2 $r12: .cfa -16 + ^ .cfa: $rsp 16 +
STACK CFI 43dd3 $rbp: .cfa -24 + ^ .cfa: $rsp 24 +
STACK CFI 43dd7 $rbx: .cfa -32 + ^ .cfa: $rsp 32 +
STACK CFI 43e08 .cfa: $rsp 24 +
STACK CFI 43e09 .cfa: $rsp 16 +
STACK CFI 43e0b .cfa: $rsp 8 +
STACK CFI INIT 2a010 2e .cfa: $rsp 8 + .ra: .cfa -8 + ^
STACK CFI 2a01b .cfa: $rsp 16 +
STACK CFI 2a039 .cfa: $rsp 8 +
STACK CFI INIT 47890 5 .cfa: $rsp 8 + .ra: .cfa -8 + ^
STACK CFI INIT 478a0 5 .cfa: $rsp 8 + .ra: .cfa -8 + ^
STACK CFI INIT 478b0 5 .cfa: $rsp 8 + .ra: .cfa -8 + ^
STACK CFI INIT 478c0 5 .cfa: $rsp 8 + .ra: .cfa -8 + ^
STACK CFI INIT 478d0 8 .cfa: $rsp 8 + .ra: .cfa -8 + ^
STACK CFI INIT 43e10 5 .cfa: $rsp 8 + .ra: .cfa -8 + ^
STACK CFI INIT 43e20 9 .cfa: $rsp 8 + .ra: .cfa -8 + ^
STACK CFI INIT 43e30 30 .cfa: $rsp 8 + .ra: .cfa -8 + ^
STACK CFI INIT 43e60 3e .cfa: $rsp 8 + .ra: .cfa -8 + ^
STACK CFI INIT 43ea0 49 .cfa: $rsp 8 + .ra: .cfa -8 + ^
STACK CFI INIT 43ef0 4f .cfa: $rsp 8 + .ra: .cfa -8 + ^
STACK CFI INIT 43f40 2 .cfa: $rsp 8 + .ra: .cfa -8 + ^
STACK CFI INIT 478e0 22 .cfa: $rsp 8 + .ra: .cfa -8 + ^
STACK CFI INIT 47910 82 .cfa: $rsp 8 + .ra: .cfa -8 + ^
STACK CFI 47918 $rbx: .cfa -16 + ^ .cfa: $rsp 16 +
STACK CFI 47984 .cfa: $rsp 8 +
STACK CFI 47990 .cfa: $rsp 16 +
STACK CFI 47991 .cfa: $rsp 8 +
STACK CFI INIT 479a0 2e .cfa: $rsp 8 + .ra: .cfa -8 + ^
STACK CFI 479a8 $rbx: .cfa -16 + ^ .cfa: $rsp 16 +
STACK CFI 479c9 .cfa: $rsp 8 +
STACK CFI INIT 43f50 2c .cfa: $rsp 8 + .ra: .cfa -8 + ^
STACK CFI 43f51 $rbp: .cfa -16 + ^ .cfa: $rsp 16 +
STACK CFI 43f52 $rbx: .cfa -24 + ^ .cfa: $rsp 24 +
STACK CFI 43f61 .cfa: $rsp 32 +
STACK CFI 43f79 .cfa: $rsp 24 +
STACK CFI 43f7a .cfa: $rsp 16 +
STACK CFI 43f7b .cfa: $rsp 8 +
STACK CFI INIT 43f80 2c .cfa: $rsp 8 + .ra: .cfa -8 + ^
STACK CFI 43f81 $rbp: .cfa -16 + ^ .cfa: $rsp 16 +
STACK CFI 43f82 $rbx: .cfa -24 + ^ .cfa: $rsp 24 +
STACK CFI 43f91 .cfa: $rsp 32 +
STACK CFI 43fa9 .cfa: $rsp 24 +
STACK CFI 43faa .cfa: $rsp 16 +
STACK CFI 43fab .cfa: $rsp 8 +
STACK CFI INIT 43fb0 2c .cfa: $rsp 8 + .ra: .cfa -8 + ^
STACK CFI 43fb1 $rbp: .cfa -16 + ^ .cfa: $rsp 16 +
STACK CFI 43fb2 $rbx: .cfa -24 + ^ .cfa: $rsp 24 +
STACK CFI 43fc1 .cfa: $rsp 32 +
STACK CFI 43fd9 .cfa: $rsp 24 +
STACK CFI 43fda .cfa: $rsp 16 +
STACK CFI 43fdb .cfa: $rsp 8 +
STACK CFI INIT 43fe0 2c .cfa: $rsp 8 + .ra: .cfa -8 + ^
STACK CFI 43fe1 $rbp: .cfa -16 + ^ .cfa: $rsp 16 +
STACK CFI 43fe2 $rbx: .cfa -24 + ^ .cfa: $rsp 24 +
STACK CFI 43ff1 .cfa: $rsp 32 +
STACK CFI 44009 .cfa: $rsp 24 +
STACK CFI 4400a .cfa: $rsp 16 +
STACK CFI 4400b .cfa: $rsp 8 +
STACK CFI INIT 44010 2c .cfa: $rsp 8 + .ra: .cfa -8 + ^
STACK CFI 44011 $rbp: .cfa -16 + ^ .cfa: $rsp 16 +
STACK CFI 44012 $rbx: .cfa -24 + ^ .cfa: $rsp 24 +
STACK CFI 44021 .cfa: $rsp 32 +
STACK CFI 44039 .cfa: $rsp 24 +
STACK CFI 4403a .cfa: $rsp 16 +
STACK CFI 4403b .cfa: $rsp 8 +
STACK CFI INIT 479d0 13 .cfa: $rsp 8 + .ra: .cfa -8 + ^
STACK CFI INIT 479f0 25 .cfa: $rsp 8 + .ra: .cfa -8 + ^
STACK CFI 479f8 $rbx: .cfa -16 + ^ .cfa: $rsp 16 +
STACK CFI 47a10 .cfa: $rsp 8 +
STACK CFI INIT 47a20 13 .cfa: $rsp 8 + .ra: .cfa -8 + ^
STACK CFI INIT 47a40 25 .cfa: $rsp 8 + .ra: .cfa -8 + ^
STACK CFI 47a48 $rbx: .cfa -16 + ^ .cfa: $rsp 16 +
STACK CFI 47a60 .cfa: $rsp 8 +
STACK CFI INIT 29e4e f .cfa: $rsp 8 + .ra: .cfa -8 + ^
STACK CFI INIT 44040 c8 .cfa: $rsp 8 + .ra: .cfa -8 + ^
STACK CFI 44042 $r12: .cfa -16 + ^ .cfa: $rsp 16 +
STACK CFI 44043 $rbp: .cfa -24 + ^ .cfa: $rsp 24 +
STACK CFI 44047 $rbx: .cfa -32 + ^ .cfa: $rsp 32 +
STACK CFI 4404e .cfa: $rsp 48 +
STACK CFI 440b4 .cfa: $rsp 32 +
STACK CFI 440b5 .cfa: $rsp 24 +
STACK CFI 440b6 .cfa: $rsp 16 +
STACK CFI 440b8 .cfa: $rsp 8 +
STACK CFI 440c0 .cfa: $rsp 48 +
STACK CFI INIT 47a70 23 .cfa: $rsp 8 + .ra: .cfa -8 + ^
STACK CFI 47a75 $rbx: .cfa -16 + ^ .cfa: $rsp 16 +
STACK CFI 47a92 .cfa: $rsp 8 +
STACK CFI INIT 47aa0 29 .cfa: $rsp 8 + .ra: .cfa -8 + ^
STACK CFI 47aa5 $rbx: .cfa -16 + ^ .cfa: $rsp 16 +
STACK CFI 47ac8 .cfa: $rsp 8 +
STACK CFI INIT 47ad0 29 .cfa: $rsp 8 + .ra: .cfa -8 + ^
STACK CFI 47ad5 $rbx: .cfa -16 + ^ .cfa: $rsp 16 +
STACK CFI 47af8 .cfa: $rsp 8 +
STACK CFI INIT 47b00 23 .cfa: $rsp 8 + .ra: .cfa -8 + ^
STACK CFI 47b05 $rbx: .cfa -16 + ^ .cfa: $rsp 16 +
STACK CFI 47b22 .cfa: $rsp 8 +
STACK CFI INIT 47b30 23 .cfa: $rsp 8 + .ra: .cfa -8 + ^
STACK CFI 47b35 $rbx: .cfa -16 + ^ .cfa: $rsp 16 +
STACK CFI 47b52 .cfa: $rsp 8 +
STACK CFI INIT 47b60 310 .cfa: $rsp 8 + .ra: .cfa -8 + ^
STACK CFI 47b61 $rbp: .cfa -16 + ^ .cfa: $rsp 16 +
STACK CFI 47b62 $rbx: .cfa -24 + ^ .cfa: $rsp 24 +
STACK CFI 47b6e .cfa: $rsp 48 +
STACK CFI 47d26 .cfa: $rsp 24 +
STACK CFI 47d27 .cfa: $rsp 16 +
STACK CFI 47d28 .cfa: $rsp 8 +
STACK CFI 47d30 .cfa: $rsp 48 +
STACK CFI INIT 47e70 167 .cfa: $rsp 8 + .ra: .cfa -8 + ^
STACK CFI 47e71 $rbp: .cfa -16 + ^ .cfa: $rsp 16 +
STACK CFI 47e72 $rbx: .cfa -24 + ^ .cfa: $rsp 24 +
STACK CFI 47e79 .cfa: $rsp 32 +
STACK CFI 47fbf .cfa: $rsp 24 +
STACK CFI 47fc0 .cfa: $rsp 16 +
STACK CFI 47fc1 .cfa: $rsp 8 +
STACK CFI 47fc8 .cfa: $rsp 32 +
STACK CFI 47fcc .cfa: $rsp 24 +
STACK CFI 47fcd .cfa: $rsp 16 +
STACK CFI 47fce .cfa: $rsp 8 +
STACK CFI 47fd0 .cfa: $rsp 32 +
STACK CFI INIT 47fe0 86 .cfa: $rsp 8 + .ra: .cfa -8 + ^
STACK CFI 47fe8 $rbx: .cfa -16 + ^ .cfa: $rsp 16 +
STACK CFI 48061 .cfa: $rsp 8 +
STACK CFI INIT 44110 af .cfa: $rsp 8 + .ra: .cfa -8 + ^
STACK CFI 44112 $r12: .cfa -16 + ^ .cfa: $rsp 16 +
STACK CFI 44113 $rbp: .cfa -24 + ^ .cfa: $rsp 24 +
STACK CFI 44114 $rbx: .cfa -32 + ^ .cfa: $rsp 32 +
STACK CFI 4417a .cfa: $rsp 24 +
STACK CFI 4417b .cfa: $rsp 16 +
STACK CFI 4417d .cfa: $rsp 8 +
STACK CFI 44180 .cfa: $rsp 32 +
STACK CFI INIT 48070 167 .cfa: $rsp 8 + .ra: .cfa -8 + ^
STACK CFI 48071 $rbp: .cfa -16 + ^ .cfa: $rsp 16 +
STACK CFI 48072 $rbx: .cfa -24 + ^ .cfa: $rsp 24 +
STACK CFI 48079 .cfa: $rsp 32 +
STACK CFI 481be .cfa: $rsp 24 +
STACK CFI 481c7 .cfa: $rsp 16 +
STACK CFI 481c8 .cfa: $rsp 8 +
STACK CFI 481d0 .cfa: $rsp 32 +
STACK CFI INIT 441c0 5 .cfa: $rsp 8 + .ra: .cfa -8 + ^
STACK CFI INIT 441d0 2f .cfa: $rsp 8 + .ra: .cfa -8 + ^
STACK CFI INIT 44200 153 .cfa: $rsp 8 + .ra: .cfa -8 + ^
STACK CFI 44213 $r13: .cfa -16 + ^ .cfa: $rsp 16 +
STACK CFI 44215 $r12: .cfa -24 + ^ .cfa: $rsp 24 +
STACK CFI 44216 $rbp: .cfa -32 + ^ .cfa: $rsp 32 +
STACK CFI 44217 $rbx: .cfa -40 + ^ .cfa: $rsp 40 +
STACK CFI 44221 .cfa: $rsp 48 +
STACK CFI 4425e .cfa: $rsp 40 +
STACK CFI 4425f .cfa: $rsp 32 +
STACK CFI 44260 .cfa: $rsp 24 +
STACK CFI 44262 .cfa: $rsp 16 +
STACK CFI 44264 .cfa: $rsp 8 +
STACK CFI 44268 .cfa: $rsp 48 +
STACK CFI 4429b .cfa: $rsp 40 +
STACK CFI 4429c .cfa: $rsp 32 +
STACK CFI 4429d .cfa: $rsp 24 +
STACK CFI 4429f .cfa: $rsp 16 +
STACK CFI 442a1 .cfa: $rsp 8 +
STACK CFI 442a8 $r12: $r12 $r13: $r13 $rbp: $rbp $rbx: $rbx
STACK CFI 442b0 $r12: .cfa -24 + ^ $r13: .cfa -16 + ^ $rbp: .cfa -32 + ^ $rbx: .cfa -40 + ^ .cfa: $rsp 48 +
STACK CFI 442ca .cfa: $rsp 40 +
STACK CFI 442cb .cfa: $rsp 32 +
STACK CFI 442cc .cfa: $rsp 24 +
STACK CFI 442ce .cfa: $rsp 16 +
STACK CFI 442d0 .cfa: $rsp 8 +
STACK CFI 442d8 .cfa: $rsp 48 +
STACK CFI INIT 481e0 ca .cfa: $rsp 8 + .ra: .cfa -8 + ^
STACK CFI 481e1 $rbx: .cfa -16 + ^ .cfa: $rsp 16 +
STACK CFI 4829d .cfa: $rsp 8 +
STACK CFI 482a8 .cfa: $rsp 16 +
STACK CFI 482a9 .cfa: $rsp 8 +
STACK CFI INIT 44360 2fd .cfa: $rsp 8 + .ra: .cfa -8 + ^
STACK CFI 44362 $r15: .cfa -16 + ^ .cfa: $rsp 16 +
STACK CFI 44364 $r14: .cfa -24 + ^ .cfa: $rsp 24 +
STACK CFI 44369 $r13: .cfa -32 + ^ .cfa: $rsp 32 +
STACK CFI 4436b $r12: .cfa -40 + ^ .cfa: $rsp 40 +
STACK CFI 4436c $rbp: .cfa -48 + ^ .cfa: $rsp 48 +
STACK CFI 4436d $rbx: .cfa -56 + ^ .cfa: $rsp 56 +
STACK CFI 44374 .cfa: $rsp 480 +
STACK CFI 445bf .cfa: $rsp 56 +
STACK CFI 445c0 .cfa: $rsp 48 +
STACK CFI 445c1 .cfa: $rsp 40 +
STACK CFI 445c3 .cfa: $rsp 32 +
STACK CFI 445c5 .cfa: $rsp 24 +
STACK CFI 445c7 .cfa: $rsp 16 +
STACK CFI 445c9 .cfa: $rsp 8 +
STACK CFI 445ca .cfa: $rsp 480 +
STACK CFI INIT 44660 2fd .cfa: $rsp 8 + .ra: .cfa -8 + ^
STACK CFI 44662 $r15: .cfa -16 + ^ .cfa: $rsp 16 +
STACK CFI 44664 $r14: .cfa -24 + ^ .cfa: $rsp 24 +
STACK CFI 44669 $r13: .cfa -32 + ^ .cfa: $rsp 32 +
STACK CFI 4466b $r12: .cfa -40 + ^ .cfa: $rsp 40 +
STACK CFI 4466c $rbp: .cfa -48 + ^ .cfa: $rsp 48 +
STACK CFI 4466d $rbx: .cfa -56 + ^ .cfa: $rsp 56 +
STACK CFI 44674 .cfa: $rsp 480 +
STACK CFI 448bf .cfa: $rsp 56 +
STACK CFI 448c0 .cfa: $rsp 48 +
STACK CFI 448c1 .cfa: $rsp 40 +
STACK CFI 448c3 .cfa: $rsp 32 +
STACK CFI 448c5 .cfa: $rsp 24 +
STACK CFI 448c7 .cfa: $rsp 16 +
STACK CFI 448c9 .cfa: $rsp 8 +
STACK CFI 448ca .cfa: $rsp 480 +
STACK CFI INIT 44960 26c .cfa: $rsp 8 + .ra: .cfa -8 + ^
STACK CFI 44962 $r15: .cfa -16 + ^ .cfa: $rsp 16 +
STACK CFI 44964 $r14: .cfa -24 + ^ .cfa: $rsp 24 +
STACK CFI 44966 $r13: .cfa -32 + ^ .cfa: $rsp 32 +
STACK CFI 44968 $r12: .cfa -40 + ^ .cfa: $rsp 40 +
STACK CFI 4496c $rbp: .cfa -48 + ^ .cfa: $rsp 48 +
STACK CFI 4496d $rbx: .cfa -56 + ^ .cfa: $rsp 56 +
STACK CFI 44971 .cfa: $rsp 144 +
STACK CFI 44b0b .cfa: $rsp 56 +
STACK CFI 44b0c .cfa: $rsp 48 +
STACK CFI 44b0d .cfa: $rsp 40 +
STACK CFI 44b0f .cfa: $rsp 32 +
STACK CFI 44b11 .cfa: $rsp 24 +
STACK CFI 44b13 .cfa: $rsp 16 +
STACK CFI 44b15 .cfa: $rsp 8 +
STACK CFI 44b20 .cfa: $rsp 144 +
STACK CFI INIT 482b0 274 .cfa: $rsp 8 + .ra: .cfa -8 + ^
STACK CFI 482bb $r15: .cfa -16 + ^ .cfa: $rsp 16 +
STACK CFI 482bd $r14: .cfa -24 + ^ .cfa: $rsp 24 +
STACK CFI 482bf $r13: .cfa -32 + ^ .cfa: $rsp 32 +
STACK CFI 482c1 $r12: .cfa -40 + ^ .cfa: $rsp 40 +
STACK CFI 482c5 $rbp: .cfa -48 + ^ .cfa: $rsp 48 +
STACK CFI 482c6 $rbx: .cfa -56 + ^ .cfa: $rsp 56 +
STACK CFI 482d6 .cfa: $rsp 96 +
STACK CFI 4831a .cfa: $rsp 56 +
STACK CFI 4831b .cfa: $rsp 48 +
STACK CFI 4831c .cfa: $rsp 40 +
STACK CFI 4831e .cfa: $rsp 32 +
STACK CFI 48320 .cfa: $rsp 24 +
STACK CFI 48322 .cfa: $rsp 16 +
STACK CFI 48324 .cfa: $rsp 8 +
STACK CFI 48328 .cfa: $rsp 96 +
STACK CFI 483b6 .cfa: $rsp 56 +
STACK CFI 483b7 .cfa: $rsp 48 +
STACK CFI 483b8 .cfa: $rsp 40 +
STACK CFI 483ba .cfa: $rsp 32 +
STACK CFI 483bc .cfa: $rsp 24 +
STACK CFI 483be .cfa: $rsp 16 +
STACK CFI 483c0 .cfa: $rsp 8 +
STACK CFI 483c8 .cfa: $rsp 96 +
STACK CFI 48401 .cfa: $rsp 56 +
STACK CFI 48402 $rbx: $rbx .cfa: $rsp 48 +
STACK CFI 48403 $rbp: $rbp .cfa: $rsp 40 +
STACK CFI 48405 $r12: $r12 .cfa: $rsp 32 +
STACK CFI 48407 $r13: $r13 .cfa: $rsp 24 +
STACK CFI 48409 $r14: $r14 .cfa: $rsp 16 +
STACK CFI 4840b $r15: $r15 .cfa: $rsp 8 +
STACK CFI 48418 $r12: .cfa -40 + ^ $r13: .cfa -32 + ^ $r14: .cfa -24 + ^ $r15: .cfa -16 + ^ $rbp: .cfa -48 + ^ $rbx: .cfa -56 + ^ .cfa: $rsp 96 +
STACK CFI INIT 44bd0 2ea .cfa: $rsp 8 + .ra: .cfa -8 + ^
STACK CFI 44bd2 $r14: .cfa -16 + ^ .cfa: $rsp 16 +
STACK CFI 44bd4 $r13: .cfa -24 + ^ .cfa: $rsp 24 +
STACK CFI 44bd6 $r12: .cfa -32 + ^ .cfa: $rsp 32 +
STACK CFI 44bd7 $rbp: .cfa -40 + ^ .cfa: $rsp 40 +
STACK CFI 44bdc $rbx: .cfa -48 + ^ .cfa: $rsp 48 +
STACK CFI 44be3 .cfa: $rsp 144 +
STACK CFI 44ca6 .cfa: $rsp 48 +
STACK CFI 44ca7 .cfa: $rsp 40 +
STACK CFI 44ca8 .cfa: $rsp 32 +
STACK CFI 44caa .cfa: $rsp 24 +
STACK CFI 44cac .cfa: $rsp 16 +
STACK CFI 44cae .cfa: $rsp 8 +
STACK CFI 44cb0 .cfa: $rsp 144 +
STACK CFI INIT 44ec0 29c7 .cfa: $rsp 8 + .ra: .cfa -8 + ^
STACK CFI 44ec1 $rbp: .cfa -16 + ^ .cfa: $rsp 16 +
STACK CFI 44ec4 .cfa: $rbp 16 +
STACK CFI 44ecc $r12: .cfa -48 + ^ $r13: .cfa -40 + ^ $r14: .cfa -32 + ^ $r15: .cfa -24 + ^
STACK CFI 44eda $rbx: .cfa -56 + ^
STACK CFI 45995 .cfa: $rsp 8 +
STACK CFI 459a0 .cfa: $rbp 16 +
STACK CFI INIT 2a040 2e .cfa: $rsp 8 + .ra: .cfa -8 + ^
STACK CFI 2a04b .cfa: $rsp 16 +
STACK CFI 2a069 .cfa: $rsp 8 +
STACK CFI INIT 48530 2 .cfa: $rsp 8 + .ra: .cfa -8 + ^
STACK CFI INIT 48540 17 .cfa: $rsp 8 + .ra: .cfa -8 + ^
STACK CFI 48541 $rbx: .cfa -16 + ^ .cfa: $rsp 16 +
STACK CFI 48552 .cfa: $rsp 8 +
STACK CFI INIT 48560 13 .cfa: $rsp 8 + .ra: .cfa -8 + ^
STACK CFI INIT 48aa0 12e .cfa: $rsp 8 + .ra: .cfa -8 + ^
STACK CFI 48aa2 $r15: .cfa -16 + ^ .cfa: $rsp 16 +
STACK CFI 48aa4 $r14: .cfa -24 + ^ .cfa: $rsp 24 +
STACK CFI 48aa9 $r13: .cfa -32 + ^ .cfa: $rsp 32 +
STACK CFI 48aab $r12: .cfa -40 + ^ .cfa: $rsp 40 +
STACK CFI 48aaf $rbp: .cfa -48 + ^ .cfa: $rsp 48 +
STACK CFI 48ab0 $rbx: .cfa -56 + ^ .cfa: $rsp 56 +
STACK CFI 48ab7 .cfa: $rsp 80 +
STACK CFI 48b7d .cfa: $rsp 56 +
STACK CFI 48b7e .cfa: $rsp 48 +
STACK CFI 48b7f .cfa: $rsp 40 +
STACK CFI 48b81 .cfa: $rsp 32 +
STACK CFI 48b83 .cfa: $rsp 24 +
STACK CFI 48b85 .cfa: $rsp 16 +
STACK CFI 48b87 .cfa: $rsp 8 +
STACK CFI 48b90 .cfa: $rsp 80 +
STACK CFI INIT 48bd0 12e .cfa: $rsp 8 + .ra: .cfa -8 + ^
STACK CFI 48bd2 $r15: .cfa -16 + ^ .cfa: $rsp 16 +
STACK CFI 48bd4 $r14: .cfa -24 + ^ .cfa: $rsp 24 +
STACK CFI 48bd9 $r13: .cfa -32 + ^ .cfa: $rsp 32 +
STACK CFI 48bdb $r12: .cfa -40 + ^ .cfa: $rsp 40 +
STACK CFI 48bdf $rbp: .cfa -48 + ^ .cfa: $rsp 48 +
STACK CFI 48be0 $rbx: .cfa -56 + ^ .cfa: $rsp 56 +
STACK CFI 48be7 .cfa: $rsp 80 +
STACK CFI 48cad .cfa: $rsp 56 +
STACK CFI 48cae .cfa: $rsp 48 +
STACK CFI 48caf .cfa: $rsp 40 +
STACK CFI 48cb1 .cfa: $rsp 32 +
STACK CFI 48cb3 .cfa: $rsp 24 +
STACK CFI 48cb5 .cfa: $rsp 16 +
STACK CFI 48cb7 .cfa: $rsp 8 +
STACK CFI 48cc0 .cfa: $rsp 80 +
STACK CFI INIT 48580 512 .cfa: $rsp 8 + .ra: .cfa -8 + ^
STACK CFI 48582 $r15: .cfa -16 + ^ .cfa: $rsp 16 +
STACK CFI 48584 $r14: .cfa -24 + ^ .cfa: $rsp 24 +
STACK CFI 48586 $r13: .cfa -32 + ^ .cfa: $rsp 32 +
STACK CFI 48588 $r12: .cfa -40 + ^ .cfa: $rsp 40 +
STACK CFI 4858c $rbp: .cfa -48 + ^ .cfa: $rsp 48 +
STACK CFI 4858d $rbx: .cfa -56 + ^ .cfa: $rsp 56 +
STACK CFI 4859a .cfa: $rsp 144 +
STACK CFI 48829 .cfa: $rsp 56 +
STACK CFI 4882a .cfa: $rsp 48 +
STACK CFI 4882b .cfa: $rsp 40 +
STACK CFI 4882d .cfa: $rsp 32 +
STACK CFI 4882f .cfa: $rsp 24 +
STACK CFI 48831 .cfa: $rsp 16 +
STACK CFI 48833 .cfa: $rsp 8 +
STACK CFI 48838 .cfa: $rsp 144 +
STACK CFI INIT 2a070 2e .cfa: $rsp 8 + .ra: .cfa -8 + ^
STACK CFI 2a07b .cfa: $rsp 16 +
STACK CFI 2a099 .cfa: $rsp 8 +
STACK CFI INIT 5e920 2 .cfa: $rsp 8 + .ra: .cfa -8 + ^
STACK CFI INIT 5e930 d .cfa: $rsp 8 + .ra: .cfa -8 + ^
STACK CFI INIT 5e940 13 .cfa: $rsp 8 + .ra: .cfa -8 + ^
STACK CFI INIT 5e980 d .cfa: $rsp 8 + .ra: .cfa -8 + ^
STACK CFI INIT 5e9a0 3 .cfa: $rsp 8 + .ra: .cfa -8 + ^
STACK CFI INIT 5e9c0 d .cfa: $rsp 8 + .ra: .cfa -8 + ^
STACK CFI INIT 5e9e0 e .cfa: $rsp 8 + .ra: .cfa -8 + ^
STACK CFI INIT 5ea00 d .cfa: $rsp 8 + .ra: .cfa -8 + ^
STACK CFI INIT 5ea20 6 .cfa: $rsp 8 + .ra: .cfa -8 + ^
STACK CFI INIT 5ea40 d .cfa: $rsp 8 + .ra: .cfa -8 + ^
STACK CFI INIT 5ea60 13 .cfa: $rsp 8 + .ra: .cfa -8 + ^
STACK CFI INIT 48d00 f .cfa: $rsp 8 + .ra: .cfa -8 + ^
STACK CFI INIT 48d10 3a .cfa: $rsp 8 + .ra: .cfa -8 + ^
STACK CFI 48d18 $rbx: .cfa -16 + ^ .cfa: $rsp 16 +
STACK CFI 48d3e .cfa: $rsp 8 +
STACK CFI 48d48 .cfa: $rsp 16 +
STACK CFI 48d49 .cfa: $rsp 8 +
STACK CFI INIT 48d50 3 .cfa: $rsp 8 + .ra: .cfa -8 + ^
STACK CFI INIT 48d60 2 .cfa: $rsp 8 + .ra: .cfa -8 + ^
STACK CFI INIT 48d70 1b .cfa: $rsp 8 + .ra: .cfa -8 + ^
STACK CFI INIT 48d90 6 .cfa: $rsp 8 + .ra: .cfa -8 + ^
STACK CFI INIT 48da0 6 .cfa: $rsp 8 + .ra: .cfa -8 + ^
STACK CFI INIT 48db0 8 .cfa: $rsp 8 + .ra: .cfa -8 + ^
STACK CFI INIT 48dc0 6 .cfa: $rsp 8 + .ra: .cfa -8 + ^
STACK CFI INIT 48dd0 22 .cfa: $rsp 8 + .ra: .cfa -8 + ^
STACK CFI INIT 48e00 3 .cfa: $rsp 8 + .ra: .cfa -8 + ^
STACK CFI INIT 48e10 8 .cfa: $rsp 8 + .ra: .cfa -8 + ^
STACK CFI INIT 48e20 6 .cfa: $rsp 8 + .ra: .cfa -8 + ^
STACK CFI INIT 48e30 288 .cfa: $rsp 8 + .ra: .cfa -8 + ^
STACK CFI INIT 5ea80 2 .cfa: $rsp 8 + .ra: .cfa -8 + ^
STACK CFI INIT 5ea90 2 .cfa: $rsp 8 + .ra: .cfa -8 + ^
STACK CFI INIT 5eaa0 a .cfa: $rsp 8 + .ra: .cfa -8 + ^
STACK CFI INIT 490c0 17 .cfa: $rsp 8 + .ra: .cfa -8 + ^
STACK CFI 490c1 $rbx: .cfa -16 + ^ .cfa: $rsp 16 +
STACK CFI 490d2 .cfa: $rsp 8 +
STACK CFI INIT 5eab0 a .cfa: $rsp 8 + .ra: .cfa -8 + ^
STACK CFI INIT 490e0 17 .cfa: $rsp 8 + .ra: .cfa -8 + ^
STACK CFI 490e1 $rbx: .cfa -16 + ^ .cfa: $rsp 16 +
STACK CFI 490f2 .cfa: $rsp 8 +
STACK CFI INIT 5eac0 a .cfa: $rsp 8 + .ra: .cfa -8 + ^
STACK CFI INIT 49100 13 .cfa: $rsp 8 + .ra: .cfa -8 + ^
STACK CFI INIT 49120 17 .cfa: $rsp 8 + .ra: .cfa -8 + ^
STACK CFI 49121 $rbx: .cfa -16 + ^ .cfa: $rsp 16 +
STACK CFI 49132 .cfa: $rsp 8 +
STACK CFI INIT 49140 178 .cfa: $rsp 8 + .ra: .cfa -8 + ^
STACK CFI 49142 $r12: .cfa -16 + ^ .cfa: $rsp 16 +
STACK CFI 49143 $rbp: .cfa -24 + ^ .cfa: $rsp 24 +
STACK CFI 49147 $rbx: .cfa -32 + ^ .cfa: $rsp 32 +
STACK CFI 49154 .cfa: $rsp 48 +
STACK CFI 49217 .cfa: $rsp 32 +
STACK CFI 49218 .cfa: $rsp 24 +
STACK CFI 49219 .cfa: $rsp 16 +
STACK CFI 4921b .cfa: $rsp 8 +
STACK CFI 4921c .cfa: $rsp 48 +
STACK CFI INIT 492c0 9 .cfa: $rsp 8 + .ra: .cfa -8 + ^
STACK CFI INIT 492d0 62 .cfa: $rsp 8 + .ra: .cfa -8 + ^
STACK CFI 492d8 $rbx: .cfa -16 + ^ .cfa: $rsp 16 +
STACK CFI 49326 .cfa: $rsp 8 +
STACK CFI 49330 .cfa: $rsp 16 +
STACK CFI 49331 .cfa: $rsp 8 +
STACK CFI INIT 49340 17 .cfa: $rsp 8 + .ra: .cfa -8 + ^
STACK CFI 49341 $rbx: .cfa -16 + ^ .cfa: $rsp 16 +
STACK CFI 49352 .cfa: $rsp 8 +
STACK CFI INIT 49360 77 .cfa: $rsp 8 + .ra: .cfa -8 + ^
STACK CFI 49361 $rbp: .cfa -16 + ^ .cfa: $rsp 16 +
STACK CFI 49362 $rbx: .cfa -24 + ^ .cfa: $rsp 24 +
STACK CFI 49369 .cfa: $rsp 32 +
STACK CFI 493bc .cfa: $rsp 24 +
STACK CFI 493c5 .cfa: $rsp 16 +
STACK CFI 493c6 .cfa: $rsp 8 +
STACK CFI 493d0 .cfa: $rsp 32 +
STACK CFI 493d4 .cfa: $rsp 24 +
STACK CFI 493d5 .cfa: $rsp 16 +
STACK CFI 493d6 .cfa: $rsp 8 +
STACK CFI INIT 493e0 17 .cfa: $rsp 8 + .ra: .cfa -8 + ^
STACK CFI 493e1 $rbx: .cfa -16 + ^ .cfa: $rsp 16 +
STACK CFI 493f2 .cfa: $rsp 8 +
STACK CFI INIT 49400 4a .cfa: $rsp 8 + .ra: .cfa -8 + ^
STACK CFI 49408 $rbx: .cfa -16 + ^ .cfa: $rsp 16 +
STACK CFI 4943c .cfa: $rsp 8 +
STACK CFI 49448 .cfa: $rsp 16 +
STACK CFI 49449 .cfa: $rsp 8 +
STACK CFI INIT 49450 6 .cfa: $rsp 8 + .ra: .cfa -8 + ^
STACK CFI INIT 49460 17 .cfa: $rsp 8 + .ra: .cfa -8 + ^
STACK CFI 49461 $rbx: .cfa -16 + ^ .cfa: $rsp 16 +
STACK CFI 49472 .cfa: $rsp 8 +
STACK CFI INIT 49480 6 .cfa: $rsp 8 + .ra: .cfa -8 + ^
STACK CFI INIT 5ead0 44 .cfa: $rsp 8 + .ra: .cfa -8 + ^
STACK CFI 5ead8 $rbx: .cfa -16 + ^ .cfa: $rsp 16 +
STACK CFI 5eb0f .cfa: $rsp 8 +
STACK CFI INIT 5eb20 7a .cfa: $rsp 8 + .ra: .cfa -8 + ^
STACK CFI 5eb28 $rbx: .cfa -16 + ^ .cfa: $rsp 16 +
STACK CFI 5eb8e .cfa: $rsp 8 +
STACK CFI 5eb98 .cfa: $rsp 16 +
STACK CFI 5eb99 .cfa: $rsp 8 +
STACK CFI INIT 49490 42 .cfa: $rsp 8 + .ra: .cfa -8 + ^
STACK CFI 49498 $rbx: .cfa -16 + ^ .cfa: $rsp 16 +
STACK CFI 494c6 .cfa: $rsp 8 +
STACK CFI 494d0 .cfa: $rsp 16 +
STACK CFI 494d1 .cfa: $rsp 8 +
STACK CFI INIT 494e0 6 .cfa: $rsp 8 + .ra: .cfa -8 + ^
STACK CFI INIT 494f0 17 .cfa: $rsp 8 + .ra: .cfa -8 + ^
STACK CFI 494f1 $rbx: .cfa -16 + ^ .cfa: $rsp 16 +
STACK CFI 49502 .cfa: $rsp 8 +
STACK CFI INIT 49510 6 .cfa: $rsp 8 + .ra: .cfa -8 + ^
STACK CFI INIT 49520 a7 .cfa: $rsp 8 + .ra: .cfa -8 + ^
STACK CFI 49521 $rbp: .cfa -16 + ^ .cfa: $rsp 16 +
STACK CFI 49522 $rbx: .cfa -24 + ^ .cfa: $rsp 24 +
STACK CFI 49529 .cfa: $rsp 32 +
STACK CFI 495b0 .cfa: $rsp 24 +
STACK CFI 495b9 .cfa: $rsp 16 +
STACK CFI 495ba .cfa: $rsp 8 +
STACK CFI 495c0 .cfa: $rsp 32 +
STACK CFI 495c4 .cfa: $rsp 24 +
STACK CFI 495c5 .cfa: $rsp 16 +
STACK CFI 495c6 .cfa: $rsp 8 +
STACK CFI INIT 495d0 9 .cfa: $rsp 8 + .ra: .cfa -8 + ^
STACK CFI INIT 495e0 17 .cfa: $rsp 8 + .ra: .cfa -8 + ^
STACK CFI 495e1 $rbx: .cfa -16 + ^ .cfa: $rsp 16 +
STACK CFI 495f2 .cfa: $rsp 8 +
STACK CFI INIT 49600 6 .cfa: $rsp 8 + .ra: .cfa -8 + ^
STACK CFI INIT 49610 44 .cfa: $rsp 8 + .ra: .cfa -8 + ^
STACK CFI 49611 $rbp: .cfa -16 + ^ .cfa: $rsp 16 +
STACK CFI 49612 $rbx: .cfa -24 + ^ .cfa: $rsp 24 +
STACK CFI 4961e .cfa: $rsp 32 +
STACK CFI 49636 .cfa: $rsp 24 +
STACK CFI 4963a .cfa: $rsp 16 +
STACK CFI 4963b .cfa: $rsp 8 +
STACK CFI 4963c .cfa: $rsp 32 +
STACK CFI INIT 49660 6 .cfa: $rsp 8 + .ra: .cfa -8 + ^
STACK CFI INIT 49670 44 .cfa: $rsp 8 + .ra: .cfa -8 + ^
STACK CFI 49671 $rbp: .cfa -16 + ^ .cfa: $rsp 16 +
STACK CFI 49672 $rbx: .cfa -24 + ^ .cfa: $rsp 24 +
STACK CFI 4967e .cfa: $rsp 32 +
STACK CFI 49696 .cfa: $rsp 24 +
STACK CFI 4969a .cfa: $rsp 16 +
STACK CFI 4969b .cfa: $rsp 8 +
STACK CFI 4969c .cfa: $rsp 32 +
STACK CFI INIT 496c0 6 .cfa: $rsp 8 + .ra: .cfa -8 + ^
STACK CFI INIT 496d0 c .cfa: $rsp 8 + .ra: .cfa -8 + ^
STACK CFI INIT 496e0 85 .cfa: $rsp 8 + .ra: .cfa -8 + ^
STACK CFI 496e2 $r12: .cfa -16 + ^ .cfa: $rsp 16 +
STACK CFI 496ea $rbp: .cfa -24 + ^ .cfa: $rsp 24 +
STACK CFI 496eb $rbx: .cfa -32 + ^ .cfa: $rsp 32 +
STACK CFI 49751 .cfa: $rsp 24 +
STACK CFI 49752 .cfa: $rsp 16 +
STACK CFI 49754 .cfa: $rsp 8 +
STACK CFI 49760 .cfa: $rsp 32 +
STACK CFI 49761 .cfa: $rsp 24 +
STACK CFI 49762 .cfa: $rsp 16 +
STACK CFI 49764 .cfa: $rsp 8 +
STACK CFI INIT 49770 17 .cfa: $rsp 8 + .ra: .cfa -8 + ^
STACK CFI 49771 $rbx: .cfa -16 + ^ .cfa: $rsp 16 +
STACK CFI 49782 .cfa: $rsp 8 +
STACK CFI INIT 5e9b0 3 .cfa: $rsp 8 + .ra: .cfa -8 + ^
STACK CFI INIT 5ea30 6 .cfa: $rsp 8 + .ra: .cfa -8 + ^
STACK CFI INIT 49790 3 .cfa: $rsp 8 + .ra: .cfa -8 + ^
STACK CFI INIT 497a0 3 .cfa: $rsp 8 + .ra: .cfa -8 + ^
STACK CFI INIT 497b0 2 .cfa: $rsp 8 + .ra: .cfa -8 + ^
STACK CFI INIT 497c0 3 .cfa: $rsp 8 + .ra: .cfa -8 + ^
STACK CFI INIT 497d0 2 .cfa: $rsp 8 + .ra: .cfa -8 + ^
STACK CFI INIT 497e0 c8 .cfa: $rsp 8 + .ra: .cfa -8 + ^
STACK CFI 497e2 $r12: .cfa -16 + ^ .cfa: $rsp 16 +
STACK CFI 497e3 $rbp: .cfa -24 + ^ .cfa: $rsp 24 +
STACK CFI 497e7 $rbx: .cfa -32 + ^ .cfa: $rsp 32 +
STACK CFI 497ee .cfa: $rsp 48 +
STACK CFI 49854 .cfa: $rsp 32 +
STACK CFI 49855 .cfa: $rsp 24 +
STACK CFI 49856 .cfa: $rsp 16 +
STACK CFI 49858 .cfa: $rsp 8 +
STACK CFI 49860 .cfa: $rsp 48 +
STACK CFI INIT 5eba0 23 .cfa: $rsp 8 + .ra: .cfa -8 + ^
STACK CFI 5eba5 $rbx: .cfa -16 + ^ .cfa: $rsp 16 +
STACK CFI 5ebc2 .cfa: $rsp 8 +
STACK CFI INIT 5ea50 d .cfa: $rsp 8 + .ra: .cfa -8 + ^
STACK CFI INIT 5e960 13 .cfa: $rsp 8 + .ra: .cfa -8 + ^
STACK CFI INIT 5e990 d .cfa: $rsp 8 + .ra: .cfa -8 + ^
STACK CFI INIT 5e9d0 d .cfa: $rsp 8 + .ra: .cfa -8 + ^
STACK CFI INIT 5e9f0 e .cfa: $rsp 8 + .ra: .cfa -8 + ^
STACK CFI INIT 5ea10 d .cfa: $rsp 8 + .ra: .cfa -8 + ^
STACK CFI INIT 5ebd0 42 .cfa: $rsp 8 + .ra: .cfa -8 + ^
STACK CFI 5ebd8 $rbx: .cfa -16 + ^ .cfa: $rsp 16 +
STACK CFI 5ec02 .cfa: $rsp 8 +
STACK CFI 5ec10 .cfa: $rsp 16 +
STACK CFI 5ec11 .cfa: $rsp 8 +
STACK CFI INIT 5ec20 80 .cfa: $rsp 8 + .ra: .cfa -8 + ^
STACK CFI 5ec28 $rbx: .cfa -16 + ^ .cfa: $rsp 16 +
STACK CFI 5ec9b .cfa: $rsp 8 +
STACK CFI INIT 498b0 1f .cfa: $rsp 8 + .ra: .cfa -8 + ^
STACK CFI 498bc $rbx: .cfa -16 + ^ .cfa: $rsp 16 +
STACK CFI 498ce .cfa: $rsp 8 +
STACK CFI INIT 498d0 6 .cfa: $rsp 8 + .ra: .cfa -8 + ^
STACK CFI INIT 498e0 6 .cfa: $rsp 8 + .ra: .cfa -8 + ^
STACK CFI INIT 498f0 6 .cfa: $rsp 8 + .ra: .cfa -8 + ^
STACK CFI INIT 49900 e4 .cfa: $rsp 8 + .ra: .cfa -8 + ^
STACK CFI 49901 $rbp: .cfa -16 + ^ .cfa: $rsp 16 +
STACK CFI 49915 .cfa: $rbp 16 +
STACK CFI 49918 $r14: .cfa -24 + ^ $rbx: .cfa -32 + ^
STACK CFI 499de .cfa: $rsp 8 +
STACK CFI 499df .cfa: $rbp 16 +
STACK CFI INIT 499f0 e5 .cfa: $rsp 8 + .ra: .cfa -8 + ^
STACK CFI 499f1 $rbp: .cfa -16 + ^ .cfa: $rsp 16 +
STACK CFI 49a00 .cfa: $rbp 16 +
STACK CFI 49a03 $r14: .cfa -24 + ^ $rbx: .cfa -32 + ^
STACK CFI 49acf .cfa: $rsp 8 +
STACK CFI 49ad0 .cfa: $rbp 16 +
STACK CFI INIT 49ae0 d1 .cfa: $rsp 8 + .ra: .cfa -8 + ^
STACK CFI 49ae2 $r12: .cfa -16 + ^ .cfa: $rsp 16 +
STACK CFI 49ae3 $rbp: .cfa -24 + ^ .cfa: $rsp 24 +
STACK CFI 49ae4 $rbx: .cfa -32 + ^ .cfa: $rsp 32 +
STACK CFI 49aeb .cfa: $rsp 144 +
STACK CFI 49b5d .cfa: $rsp 32 +
STACK CFI 49b5e .cfa: $rsp 24 +
STACK CFI 49b5f .cfa: $rsp 16 +
STACK CFI 49b61 .cfa: $rsp 8 +
STACK CFI 49b68 .cfa: $rsp 144 +
STACK CFI INIT 49bc0 cc .cfa: $rsp 8 + .ra: .cfa -8 + ^
STACK CFI 49bc1 $rbp: .cfa -16 + ^ .cfa: $rsp 16 +
STACK CFI 49bc2 $rbx: .cfa -24 + ^ .cfa: $rsp 24 +
STACK CFI 49bc9 .cfa: $rsp 48 +
STACK CFI 49c50 .cfa: $rsp 24 +
STACK CFI 49c51 .cfa: $rsp 16 +
STACK CFI 49c52 .cfa: $rsp 8 +
STACK CFI 49c58 .cfa: $rsp 48 +
STACK CFI INIT 49c90 9 .cfa: $rsp 8 + .ra: .cfa -8 + ^
STACK CFI INIT 49ca0 cf .cfa: $rsp 8 + .ra: .cfa -8 + ^
STACK CFI 49ca1 $rbp: .cfa -16 + ^ .cfa: $rsp 16 +
STACK CFI 49ca2 $rbx: .cfa -24 + ^ .cfa: $rsp 24 +
STACK CFI 49ca9 .cfa: $rsp 48 +
STACK CFI 49d30 .cfa: $rsp 24 +
STACK CFI 49d31 .cfa: $rsp 16 +
STACK CFI 49d32 .cfa: $rsp 8 +
STACK CFI 49d38 .cfa: $rsp 48 +
STACK CFI INIT 49d70 9 .cfa: $rsp 8 + .ra: .cfa -8 + ^
STACK CFI INIT 49d80 9d .cfa: $rsp 8 + .ra: .cfa -8 + ^
STACK CFI 49d81 $rbp: .cfa -16 + ^ .cfa: $rsp 16 +
STACK CFI 49d82 $rbx: .cfa -24 + ^ .cfa: $rsp 24 +
STACK CFI 49d86 .cfa: $rsp 48 +
STACK CFI 49db4 .cfa: $rsp 24 +
STACK CFI 49db5 .cfa: $rsp 16 +
STACK CFI 49db6 .cfa: $rsp 8 +
STACK CFI 49dc0 .cfa: $rsp 48 +
STACK CFI INIT 49e20 9d .cfa: $rsp 8 + .ra: .cfa -8 + ^
STACK CFI 49e21 $rbp: .cfa -16 + ^ .cfa: $rsp 16 +
STACK CFI 49e22 $rbx: .cfa -24 + ^ .cfa: $rsp 24 +
STACK CFI 49e26 .cfa: $rsp 48 +
STACK CFI 49e57 .cfa: $rsp 24 +
STACK CFI 49e58 .cfa: $rsp 16 +
STACK CFI 49e59 .cfa: $rsp 8 +
STACK CFI 49e60 .cfa: $rsp 48 +
STACK CFI INIT 49ec0 9 .cfa: $rsp 8 + .ra: .cfa -8 + ^
STACK CFI INIT 49ed0 a2 .cfa: $rsp 8 + .ra: .cfa -8 + ^
STACK CFI 49ed1 $rbp: .cfa -16 + ^ .cfa: $rsp 16 +
STACK CFI 49ed2 $rbx: .cfa -24 + ^ .cfa: $rsp 24 +
STACK CFI 49ed6 .cfa: $rsp 48 +
STACK CFI 49f07 .cfa: $rsp 24 +
STACK CFI 49f08 .cfa: $rsp 16 +
STACK CFI 49f09 .cfa: $rsp 8 +
STACK CFI 49f10 .cfa: $rsp 48 +
STACK CFI INIT 49f80 9 .cfa: $rsp 8 + .ra: .cfa -8 + ^
STACK CFI INIT 49f90 110 .cfa: $rsp 8 + .ra: .cfa -8 + ^
STACK CFI 49f92 $r13: .cfa -16 + ^ .cfa: $rsp 16 +
STACK CFI 49f94 $r12: .cfa -24 + ^ .cfa: $rsp 24 +
STACK CFI 49f98 $rbp: .cfa -32 + ^ .cfa: $rsp 32 +
STACK CFI 49f99 $rbx: .cfa -40 + ^ .cfa: $rsp 40 +
STACK CFI 49fa0 .cfa: $rsp 64 +
STACK CFI 49feb .cfa: $rsp 40 +
STACK CFI 49fec .cfa: $rsp 32 +
STACK CFI 49fed .cfa: $rsp 24 +
STACK CFI 49fef .cfa: $rsp 16 +
STACK CFI 49ff1 .cfa: $rsp 8 +
STACK CFI 49ff8 .cfa: $rsp 64 +
STACK CFI INIT 4a0a0 9d .cfa: $rsp 8 + .ra: .cfa -8 + ^
STACK CFI 4a0a1 $rbp: .cfa -16 + ^ .cfa: $rsp 16 +
STACK CFI 4a0a2 $rbx: .cfa -24 + ^ .cfa: $rsp 24 +
STACK CFI 4a0a6 .cfa: $rsp 48 +
STACK CFI 4a0d8 .cfa: $rsp 24 +
STACK CFI 4a0d9 .cfa: $rsp 16 +
STACK CFI 4a0da .cfa: $rsp 8 +
STACK CFI 4a0e0 .cfa: $rsp 48 +
STACK CFI INIT 4a140 9d .cfa: $rsp 8 + .ra: .cfa -8 + ^
STACK CFI 4a141 $rbp: .cfa -16 + ^ .cfa: $rsp 16 +
STACK CFI 4a142 $rbx: .cfa -24 + ^ .cfa: $rsp 24 +
STACK CFI 4a146 .cfa: $rsp 48 +
STACK CFI 4a174 .cfa: $rsp 24 +
STACK CFI 4a175 .cfa: $rsp 16 +
STACK CFI 4a176 .cfa: $rsp 8 +
STACK CFI 4a180 .cfa: $rsp 48 +
STACK CFI INIT 4a1e0 276 .cfa: $rsp 8 + .ra: .cfa -8 + ^
STACK CFI 4a1e1 $rbp: .cfa -16 + ^ .cfa: $rsp 16 +
STACK CFI 4a1e4 .cfa: $rbp 16 +
STACK CFI 4a1ed $r12: .cfa -48 + ^ $r13: .cfa -40 + ^ $r14: .cfa -32 + ^ $r15: .cfa -24 + ^ $rbx: .cfa -56 + ^
STACK CFI 4a2f3 .cfa: $rsp 8 +
STACK CFI 4a2f8 .cfa: $rbp 16 +
STACK CFI INIT 4a460 9 .cfa: $rsp 8 + .ra: .cfa -8 + ^
STACK CFI INIT 4a470 12c .cfa: $rsp 8 + .ra: .cfa -8 + ^
STACK CFI 4a472 $r13: .cfa -16 + ^ .cfa: $rsp 16 +
STACK CFI 4a474 $r12: .cfa -24 + ^ .cfa: $rsp 24 +
STACK CFI 4a475 $rbp: .cfa -32 + ^ .cfa: $rsp 32 +
STACK CFI 4a476 $rbx: .cfa -40 + ^ .cfa: $rsp 40 +
STACK CFI 4a47a .cfa: $rsp 64 +
STACK CFI 4a4c7 .cfa: $rsp 40 +
STACK CFI 4a4c8 .cfa: $rsp 32 +
STACK CFI 4a4c9 .cfa: $rsp 24 +
STACK CFI 4a4cb .cfa: $rsp 16 +
STACK CFI 4a4cd .cfa: $rsp 8 +
STACK CFI 4a4d0 .cfa: $rsp 64 +
STACK CFI INIT 4a5a0 12c .cfa: $rsp 8 + .ra: .cfa -8 + ^
STACK CFI 4a5a2 $r13: .cfa -16 + ^ .cfa: $rsp 16 +
STACK CFI 4a5a4 $r12: .cfa -24 + ^ .cfa: $rsp 24 +
STACK CFI 4a5a5 $rbp: .cfa -32 + ^ .cfa: $rsp 32 +
STACK CFI 4a5a6 $rbx: .cfa -40 + ^ .cfa: $rsp 40 +
STACK CFI 4a5aa .cfa: $rsp 64 +
STACK CFI 4a5f1 .cfa: $rsp 40 +
STACK CFI 4a5f2 .cfa: $rsp 32 +
STACK CFI 4a5f3 .cfa: $rsp 24 +
STACK CFI 4a5f5 .cfa: $rsp 16 +
STACK CFI 4a5f7 .cfa: $rsp 8 +
STACK CFI 4a600 .cfa: $rsp 64 +
STACK CFI INIT 4a6d0 12c .cfa: $rsp 8 + .ra: .cfa -8 + ^
STACK CFI 4a6d2 $r13: .cfa -16 + ^ .cfa: $rsp 16 +
STACK CFI 4a6d4 $r12: .cfa -24 + ^ .cfa: $rsp 24 +
STACK CFI 4a6d5 $rbp: .cfa -32 + ^ .cfa: $rsp 32 +
STACK CFI 4a6d6 $rbx: .cfa -40 + ^ .cfa: $rsp 40 +
STACK CFI 4a6da .cfa: $rsp 64 +
STACK CFI 4a722 .cfa: $rsp 40 +
STACK CFI 4a723 .cfa: $rsp 32 +
STACK CFI 4a724 .cfa: $rsp 24 +
STACK CFI 4a726 .cfa: $rsp 16 +
STACK CFI 4a728 .cfa: $rsp 8 +
STACK CFI 4a730 .cfa: $rsp 64 +
STACK CFI INIT 4a800 178 .cfa: $rsp 8 + .ra: .cfa -8 + ^
STACK CFI 4a802 $r12: .cfa -16 + ^ .cfa: $rsp 16 +
STACK CFI 4a803 $rbp: .cfa -24 + ^ .cfa: $rsp 24 +
STACK CFI 4a807 $rbx: .cfa -32 + ^ .cfa: $rsp 32 +
STACK CFI 4a814 .cfa: $rsp 48 +
STACK CFI 4a8d7 .cfa: $rsp 32 +
STACK CFI 4a8d8 .cfa: $rsp 24 +
STACK CFI 4a8d9 .cfa: $rsp 16 +
STACK CFI 4a8db .cfa: $rsp 8 +
STACK CFI 4a8dc .cfa: $rsp 48 +
STACK CFI INIT 4a980 9 .cfa: $rsp 8 + .ra: .cfa -8 + ^
STACK CFI INIT 4a990 3f0 .cfa: $rsp 8 + .ra: .cfa -8 + ^
STACK CFI 4a991 $rbp: .cfa -16 + ^ .cfa: $rsp 16 +
STACK CFI 4a994 .cfa: $rbp 16 +
STACK CFI 4a99d $r12: .cfa -48 + ^ $r13: .cfa -40 + ^ $r14: .cfa -32 + ^ $r15: .cfa -24 + ^ $rbx: .cfa -56 + ^
STACK CFI 4ab6f .cfa: $rsp 8 +
STACK CFI 4ab70 .cfa: $rbp 16 +
STACK CFI INIT 4ad80 9 .cfa: $rsp 8 + .ra: .cfa -8 + ^
STACK CFI INIT 4ad90 515 .cfa: $rsp 8 + .ra: .cfa -8 + ^
STACK CFI 4ad91 $rbp: .cfa -16 + ^ .cfa: $rsp 16 +
STACK CFI 4ad94 .cfa: $rbp 16 +
STACK CFI 4ad9d $r12: .cfa -48 + ^ $r13: .cfa -40 + ^ $r14: .cfa -32 + ^ $r15: .cfa -24 + ^ $rbx: .cfa -56 + ^
STACK CFI 4af67 .cfa: $rsp 8 +
STACK CFI 4af70 .cfa: $rbp 16 +
STACK CFI INIT 4b2b0 9 .cfa: $rsp 8 + .ra: .cfa -8 + ^
STACK CFI INIT 4b2c0 526 .cfa: $rsp 8 + .ra: .cfa -8 + ^
STACK CFI 4b2c1 $rbp: .cfa -16 + ^ .cfa: $rsp 16 +
STACK CFI 4b2c4 .cfa: $rbp 16 +
STACK CFI 4b2cd $r12: .cfa -48 + ^ $r13: .cfa -40 + ^ $r14: .cfa -32 + ^ $r15: .cfa -24 + ^ $rbx: .cfa -56 + ^
STACK CFI 4b475 .cfa: $rsp 8 +
STACK CFI 4b480 .cfa: $rbp 16 +
STACK CFI INIT 4b7f0 9 .cfa: $rsp 8 + .ra: .cfa -8 + ^
STACK CFI INIT 4b800 2e .cfa: $rsp 8 + .ra: .cfa -8 + ^
STACK CFI 4b801 $rbp: .cfa -16 + ^ .cfa: $rsp 16 +
STACK CFI 4b802 $rbx: .cfa -24 + ^ .cfa: $rsp 24 +
STACK CFI 4b810 .cfa: $rsp 32 +
STACK CFI 4b82b .cfa: $rsp 24 +
STACK CFI 4b82c .cfa: $rsp 16 +
STACK CFI 4b82d .cfa: $rsp 8 +
STACK CFI INIT 4b830 19 .cfa: $rsp 8 + .ra: .cfa -8 + ^
STACK CFI 4b831 $rbx: .cfa -16 + ^ .cfa: $rsp 16 +
STACK CFI 4b848 .cfa: $rsp 8 +
STACK CFI INIT 4b850 2a .cfa: $rsp 8 + .ra: .cfa -8 + ^
STACK CFI 4b851 $rbp: .cfa -16 + ^ .cfa: $rsp 16 +
STACK CFI 4b852 $rbx: .cfa -24 + ^ .cfa: $rsp 24 +
STACK CFI 4b85c .cfa: $rsp 32 +
STACK CFI 4b877 .cfa: $rsp 24 +
STACK CFI 4b878 .cfa: $rsp 16 +
STACK CFI 4b879 .cfa: $rsp 8 +
STACK CFI INIT 4b880 3b0 .cfa: $rsp 8 + .ra: .cfa -8 + ^
STACK CFI 4b882 $r15: .cfa -16 + ^ .cfa: $rsp 16 +
STACK CFI 4b884 $r14: .cfa -24 + ^ .cfa: $rsp 24 +
STACK CFI 4b886 $r13: .cfa -32 + ^ .cfa: $rsp 32 +
STACK CFI 4b888 $r12: .cfa -40 + ^ .cfa: $rsp 40 +
STACK CFI 4b889 $rbp: .cfa -48 + ^ .cfa: $rsp 48 +
STACK CFI 4b88a $rbx: .cfa -56 + ^ .cfa: $rsp 56 +
STACK CFI 4b890 .cfa: $rsp 160 +
STACK CFI 4ba7b .cfa: $rsp 56 +
STACK CFI 4ba7c .cfa: $rsp 48 +
STACK CFI 4ba7d .cfa: $rsp 40 +
STACK CFI 4ba7f .cfa: $rsp 32 +
STACK CFI 4ba81 .cfa: $rsp 24 +
STACK CFI 4ba83 .cfa: $rsp 16 +
STACK CFI 4ba85 .cfa: $rsp 8 +
STACK CFI 4ba90 .cfa: $rsp 160 +
STACK CFI INIT 4bc30 64 .cfa: $rsp 8 + .ra: .cfa -8 + ^
STACK CFI 4bc31 $rbx: .cfa -16 + ^ .cfa: $rsp 16 +
STACK CFI 4bc81 .cfa: $rsp 8 +
STACK CFI 4bc88 .cfa: $rsp 16 +
STACK CFI 4bc93 .cfa: $rsp 8 +
STACK CFI INIT 4bca0 1e .cfa: $rsp 8 + .ra: .cfa -8 + ^
STACK CFI INIT 4bcc0 3b .cfa: $rsp 8 + .ra: .cfa -8 + ^
STACK CFI 4bcc1 $rbp: .cfa -16 + ^ .cfa: $rsp 16 +
STACK CFI 4bcc2 $rbx: .cfa -24 + ^ .cfa: $rsp 24 +
STACK CFI 4bcc9 .cfa: $rsp 32 +
STACK CFI 4bcf8 .cfa: $rsp 24 +
STACK CFI 4bcf9 .cfa: $rsp 16 +
STACK CFI 4bcfa .cfa: $rsp 8 +
STACK CFI INIT 4bd00 b1 .cfa: $rsp 8 + .ra: .cfa -8 + ^
STACK CFI 4bd02 $r12: .cfa -16 + ^ .cfa: $rsp 16 +
STACK CFI 4bd03 $rbp: .cfa -24 + ^ .cfa: $rsp 24 +
STACK CFI 4bd04 $rbx: .cfa -32 + ^ .cfa: $rsp 32 +
STACK CFI 4bd0a .cfa: $rsp 48 +
STACK CFI 4bd85 .cfa: $rsp 32 +
STACK CFI 4bd86 .cfa: $rsp 24 +
STACK CFI 4bd87 .cfa: $rsp 16 +
STACK CFI 4bd89 .cfa: $rsp 8 +
STACK CFI 4bd90 .cfa: $rsp 48 +
STACK CFI INIT 4bdc0 39 .cfa: $rsp 8 + .ra: .cfa -8 + ^
STACK CFI 4bdc1 $rbx: .cfa -16 + ^ .cfa: $rsp 16 +
STACK CFI 4bdf8 .cfa: $rsp 8 +
STACK CFI INIT 4be00 206 .cfa: $rsp 8 + .ra: .cfa -8 + ^
STACK CFI 4be01 $rbp: .cfa -16 + ^ .cfa: $rsp 16 +
STACK CFI 4be02 $rbx: .cfa -24 + ^ .cfa: $rsp 24 +
STACK CFI 4be06 .cfa: $rsp 48 +
STACK CFI 4be75 .cfa: $rsp 24 +
STACK CFI 4be76 .cfa: $rsp 16 +
STACK CFI 4be77 .cfa: $rsp 8 +
STACK CFI 4be80 .cfa: $rsp 48 +
STACK CFI INIT 4c010 4b .cfa: $rsp 8 + .ra: .cfa -8 + ^
STACK CFI 4c011 $rbx: .cfa -16 + ^ .cfa: $rsp 16 +
STACK CFI 4c05a .cfa: $rsp 8 +
STACK CFI INIT 4c060 110 .cfa: $rsp 8 + .ra: .cfa -8 + ^
STACK CFI 4c062 $r12: .cfa -16 + ^ .cfa: $rsp 16 +
STACK CFI 4c063 $rbp: .cfa -24 + ^ .cfa: $rsp 24 +
STACK CFI 4c064 $rbx: .cfa -32 + ^ .cfa: $rsp 32 +
STACK CFI 4c068 .cfa: $rsp 48 +
STACK CFI 4c0d7 .cfa: $rsp 32 +
STACK CFI 4c0d8 .cfa: $rsp 24 +
STACK CFI 4c0d9 .cfa: $rsp 16 +
STACK CFI 4c0db .cfa: $rsp 8 +
STACK CFI 4c0e0 .cfa: $rsp 48 +
STACK CFI INIT 4c170 64 .cfa: $rsp 8 + .ra: .cfa -8 + ^
STACK CFI 4c171 $rbx: .cfa -16 + ^ .cfa: $rsp 16 +
STACK CFI 4c1d3 .cfa: $rsp 8 +
STACK CFI INIT 4c1e0 19 .cfa: $rsp 8 + .ra: .cfa -8 + ^
STACK CFI 4c1e4 .cfa: $rsp 16 +
STACK CFI 4c1f8 .cfa: $rsp 8 +
STACK CFI INIT 4c200 6 .cfa: $rsp 8 + .ra: .cfa -8 + ^
STACK CFI INIT 4c210 19 .cfa: $rsp 8 + .ra: .cfa -8 + ^
STACK CFI 4c214 .cfa: $rsp 16 +
STACK CFI 4c228 .cfa: $rsp 8 +
STACK CFI INIT 4c230 6 .cfa: $rsp 8 + .ra: .cfa -8 + ^
STACK CFI INIT 4c240 64 .cfa: $rsp 8 + .ra: .cfa -8 + ^
STACK CFI 4c241 $rbx: .cfa -16 + ^ .cfa: $rsp 16 +
STACK CFI 4c2a3 .cfa: $rsp 8 +
STACK CFI INIT 4c2b0 12c .cfa: $rsp 8 + .ra: .cfa -8 + ^
STACK CFI 4c2b2 $r13: .cfa -16 + ^ .cfa: $rsp 16 +
STACK CFI 4c2b4 $r12: .cfa -24 + ^ .cfa: $rsp 24 +
STACK CFI 4c2b5 $rbp: .cfa -32 + ^ .cfa: $rsp 32 +
STACK CFI 4c2b6 $rbx: .cfa -40 + ^ .cfa: $rsp 40 +
STACK CFI 4c2ba .cfa: $rsp 64 +
STACK CFI 4c308 .cfa: $rsp 40 +
STACK CFI 4c309 .cfa: $rsp 32 +
STACK CFI 4c30a .cfa: $rsp 24 +
STACK CFI 4c30c .cfa: $rsp 16 +
STACK CFI 4c30e .cfa: $rsp 8 +
STACK CFI 4c310 .cfa: $rsp 64 +
STACK CFI INIT 4c3e0 1a1 .cfa: $rsp 8 + .ra: .cfa -8 + ^
STACK CFI 4c3e2 $r13: .cfa -16 + ^ .cfa: $rsp 16 +
STACK CFI 4c3e4 $r12: .cfa -24 + ^ .cfa: $rsp 24 +
STACK CFI 4c3e5 $rbp: .cfa -32 + ^ .cfa: $rsp 32 +
STACK CFI 4c3e6 $rbx: .cfa -40 + ^ .cfa: $rsp 40 +
STACK CFI 4c3ea .cfa: $rsp 64 +
STACK CFI 4c459 .cfa: $rsp 40 +
STACK CFI 4c45a .cfa: $rsp 32 +
STACK CFI 4c45b .cfa: $rsp 24 +
STACK CFI 4c45d .cfa: $rsp 16 +
STACK CFI 4c45f .cfa: $rsp 8 +
STACK CFI 4c460 .cfa: $rsp 64 +
STACK CFI INIT 4c590 32 .cfa: $rsp 8 + .ra: .cfa -8 + ^
STACK CFI 4c591 $rbx: .cfa -16 + ^ .cfa: $rsp 16 +
STACK CFI 4c5c1 .cfa: $rsp 8 +
STACK CFI INIT 4c5d0 110 .cfa: $rsp 8 + .ra: .cfa -8 + ^
STACK CFI 4c5d2 $r13: .cfa -16 + ^ .cfa: $rsp 16 +
STACK CFI 4c5d4 $r12: .cfa -24 + ^ .cfa: $rsp 24 +
STACK CFI 4c5d8 $rbp: .cfa -32 + ^ .cfa: $rsp 32 +
STACK CFI 4c5d9 $rbx: .cfa -40 + ^ .cfa: $rsp 40 +
STACK CFI 4c5e0 .cfa: $rsp 64 +
STACK CFI 4c62b .cfa: $rsp 40 +
STACK CFI 4c62c .cfa: $rsp 32 +
STACK CFI 4c62d .cfa: $rsp 24 +
STACK CFI 4c62f .cfa: $rsp 16 +
STACK CFI 4c631 .cfa: $rsp 8 +
STACK CFI 4c638 .cfa: $rsp 64 +
STACK CFI INIT 4c6e0 87 .cfa: $rsp 8 + .ra: .cfa -8 + ^
STACK CFI 4c6e1 $rbx: .cfa -16 + ^ .cfa: $rsp 16 +
STACK CFI 4c766 .cfa: $rsp 8 +
STACK CFI INIT 4c770 136 .cfa: $rsp 8 + .ra: .cfa -8 + ^
STACK CFI 4c771 $rbp: .cfa -16 + ^ .cfa: $rsp 16 +
STACK CFI 4c772 $rbx: .cfa -24 + ^ .cfa: $rsp 24 +
STACK CFI 4c776 .cfa: $rsp 48 +
STACK CFI 4c7e5 .cfa: $rsp 24 +
STACK CFI 4c7e6 .cfa: $rsp 16 +
STACK CFI 4c7e7 .cfa: $rsp 8 +
STACK CFI 4c7f0 .cfa: $rsp 48 +
STACK CFI INIT 4c8b0 41 .cfa: $rsp 8 + .ra: .cfa -8 + ^
STACK CFI 4c8b1 $rbx: .cfa -16 + ^ .cfa: $rsp 16 +
STACK CFI 4c8f0 .cfa: $rsp 8 +
STACK CFI INIT 4c900 2b7 .cfa: $rsp 8 + .ra: .cfa -8 + ^
STACK CFI 4c902 $r15: .cfa -16 + ^ .cfa: $rsp 16 +
STACK CFI 4c904 $r14: .cfa -24 + ^ .cfa: $rsp 24 +
STACK CFI 4c906 $r13: .cfa -32 + ^ .cfa: $rsp 32 +
STACK CFI 4c908 $r12: .cfa -40 + ^ .cfa: $rsp 40 +
STACK CFI 4c90d $rbp: .cfa -48 + ^ .cfa: $rsp 48 +
STACK CFI 4c90e $rbx: .cfa -56 + ^ .cfa: $rsp 56 +
STACK CFI 4c915 .cfa: $rsp 128 +
STACK CFI 4ca27 .cfa: $rsp 56 +
STACK CFI 4ca28 .cfa: $rsp 48 +
STACK CFI 4ca29 .cfa: $rsp 40 +
STACK CFI 4ca2b .cfa: $rsp 32 +
STACK CFI 4ca2d .cfa: $rsp 24 +
STACK CFI 4ca2f .cfa: $rsp 16 +
STACK CFI 4ca31 .cfa: $rsp 8 +
STACK CFI 4ca38 .cfa: $rsp 128 +
STACK CFI INIT 4cbc0 349 .cfa: $rsp 8 + .ra: .cfa -8 + ^
STACK CFI 4cbc2 $r15: .cfa -16 + ^ .cfa: $rsp 16 +
STACK CFI 4cbc4 $r14: .cfa -24 + ^ .cfa: $rsp 24 +
STACK CFI 4cbc6 $r13: .cfa -32 + ^ .cfa: $rsp 32 +
STACK CFI 4cbc8 $r12: .cfa -40 + ^ .cfa: $rsp 40 +
STACK CFI 4cbc9 $rbp: .cfa -48 + ^ .cfa: $rsp 48 +
STACK CFI 4cbca $rbx: .cfa -56 + ^ .cfa: $rsp 56 +
STACK CFI 4cbd1 .cfa: $rsp 160 +
STACK CFI 4cd48 .cfa: $rsp 56 +
STACK CFI 4cd49 .cfa: $rsp 48 +
STACK CFI 4cd4a .cfa: $rsp 40 +
STACK CFI 4cd4c .cfa: $rsp 32 +
STACK CFI 4cd4e .cfa: $rsp 24 +
STACK CFI 4cd50 .cfa: $rsp 16 +
STACK CFI 4cd52 .cfa: $rsp 8 +
STACK CFI 4cd58 .cfa: $rsp 160 +
STACK CFI INIT 4cf10 188 .cfa: $rsp 8 + .ra: .cfa -8 + ^
STACK CFI 4cf12 $r12: .cfa -16 + ^ .cfa: $rsp 16 +
STACK CFI 4cf13 $rbp: .cfa -24 + ^ .cfa: $rsp 24 +
STACK CFI 4cf14 $rbx: .cfa -32 + ^ .cfa: $rsp 32 +
STACK CFI 4cf18 .cfa: $rsp 64 +
STACK CFI 4cf59 .cfa: $rsp 32 +
STACK CFI 4cf5a .cfa: $rsp 24 +
STACK CFI 4cf5b .cfa: $rsp 16 +
STACK CFI 4cf5d .cfa: $rsp 8 +
STACK CFI 4cf60 .cfa: $rsp 64 +
STACK CFI 4cf7b .cfa: $rsp 72 +
STACK CFI 4cf95 .cfa: $rsp 80 +
STACK CFI 4cf9f .cfa: $rsp 88 +
STACK CFI 4cfa6 .cfa: $rsp 96 +
STACK CFI 4cfa7 .cfa: $rsp 104 +
STACK CFI 4cfb2 .cfa: $rsp 112 +
STACK CFI 4cfbb .cfa: $rsp 120 +
STACK CFI 4cfc2 .cfa: $rsp 128 +
STACK CFI 4cfc3 .cfa: $rsp 136 +
STACK CFI 4cfce .cfa: $rsp 144 +
STACK CFI 4cfd7 .cfa: $rsp 152 +
STACK CFI 4cfe0 .cfa: $rsp 160 +
STACK CFI 4cfeb .cfa: $rsp 64 +
STACK CFI INIT 4d0a0 47 .cfa: $rsp 8 + .ra: .cfa -8 + ^
STACK CFI 4d0a1 $rbx: .cfa -16 + ^ .cfa: $rsp 16 +
STACK CFI 4d0e6 .cfa: $rsp 8 +
STACK CFI INIT 4d0f0 64 .cfa: $rsp 8 + .ra: .cfa -8 + ^
STACK CFI 4d0f1 $rbx: .cfa -16 + ^ .cfa: $rsp 16 +
STACK CFI 4d153 .cfa: $rsp 8 +
STACK CFI INIT 4d160 19 .cfa: $rsp 8 + .ra: .cfa -8 + ^
STACK CFI 4d164 .cfa: $rsp 16 +
STACK CFI 4d178 .cfa: $rsp 8 +
STACK CFI INIT 4d180 6 .cfa: $rsp 8 + .ra: .cfa -8 + ^
STACK CFI INIT 4d190 a7 .cfa: $rsp 8 + .ra: .cfa -8 + ^
STACK CFI 4d191 $rbx: .cfa -16 + ^ .cfa: $rsp 16 +
STACK CFI 4d236 .cfa: $rsp 8 +
STACK CFI INIT 4d240 7c2 .cfa: $rsp 8 + .ra: .cfa -8 + ^
STACK CFI 4d242 $r12: .cfa -16 + ^ .cfa: $rsp 16 +
STACK CFI 4d243 $rbp: .cfa -24 + ^ .cfa: $rsp 24 +
STACK CFI 4d244 $rbx: .cfa -32 + ^ .cfa: $rsp 32 +
STACK CFI 4d248 .cfa: $rsp 96 +
STACK CFI 4d2ba .cfa: $rsp 32 +
STACK CFI 4d2bb .cfa: $rsp 24 +
STACK CFI 4d2bc .cfa: $rsp 16 +
STACK CFI 4d2be .cfa: $rsp 8 +
STACK CFI 4d2c0 .cfa: $rsp 96 +
STACK CFI 4d5b6 .cfa: $rsp 104 +
STACK CFI 4d5be .cfa: $rsp 112 +
STACK CFI 4d5c6 .cfa: $rsp 120 +
STACK CFI 4d5ce .cfa: $rsp 128 +
STACK CFI 4d5e6 .cfa: $rsp 96 +
STACK CFI 4d63e .cfa: $rsp 104 +
STACK CFI 4d646 .cfa: $rsp 112 +
STACK CFI 4d64e .cfa: $rsp 120 +
STACK CFI 4d656 .cfa: $rsp 128 +
STACK CFI 4d66e .cfa: $rsp 96 +
STACK CFI INIT 4da10 28 .cfa: $rsp 8 + .ra: .cfa -8 + ^
STACK CFI 4da11 $rbx: .cfa -16 + ^ .cfa: $rsp 16 +
STACK CFI 4da37 .cfa: $rsp 8 +
STACK CFI INIT 4da40 162 .cfa: $rsp 8 + .ra: .cfa -8 + ^
STACK CFI 4da42 $r13: .cfa -16 + ^ .cfa: $rsp 16 +
STACK CFI 4da44 $r12: .cfa -24 + ^ .cfa: $rsp 24 +
STACK CFI 4da48 $rbp: .cfa -32 + ^ .cfa: $rsp 32 +
STACK CFI 4da49 $rbx: .cfa -40 + ^ .cfa: $rsp 40 +
STACK CFI 4da50 .cfa: $rsp 64 +
STACK CFI 4daa3 .cfa: $rsp 40 +
STACK CFI 4daa4 .cfa: $rsp 32 +
STACK CFI 4daa5 .cfa: $rsp 24 +
STACK CFI 4daa7 .cfa: $rsp 16 +
STACK CFI 4daa9 .cfa: $rsp 8 +
STACK CFI 4dab0 .cfa: $rsp 64 +
STACK CFI INIT 4dbb0 162 .cfa: $rsp 8 + .ra: .cfa -8 + ^
STACK CFI 4dbb2 $r13: .cfa -16 + ^ .cfa: $rsp 16 +
STACK CFI 4dbb4 $r12: .cfa -24 + ^ .cfa: $rsp 24 +
STACK CFI 4dbb8 $rbp: .cfa -32 + ^ .cfa: $rsp 32 +
STACK CFI 4dbb9 $rbx: .cfa -40 + ^ .cfa: $rsp 40 +
STACK CFI 4dbc0 .cfa: $rsp 64 +
STACK CFI 4dc13 .cfa: $rsp 40 +
STACK CFI 4dc14 .cfa: $rsp 32 +
STACK CFI 4dc15 .cfa: $rsp 24 +
STACK CFI 4dc17 .cfa: $rsp 16 +
STACK CFI 4dc19 .cfa: $rsp 8 +
STACK CFI 4dc20 .cfa: $rsp 64 +
STACK CFI INIT 4dd20 140 .cfa: $rsp 8 + .ra: .cfa -8 + ^
STACK CFI 4dd21 $rbp: .cfa -16 + ^ .cfa: $rsp 16 +
STACK CFI 4dd22 $rbx: .cfa -24 + ^ .cfa: $rsp 24 +
STACK CFI 4dd26 .cfa: $rsp 48 +
STACK CFI 4dd95 .cfa: $rsp 24 +
STACK CFI 4dd96 .cfa: $rsp 16 +
STACK CFI 4dd97 .cfa: $rsp 8 +
STACK CFI 4dda0 .cfa: $rsp 48 +
STACK CFI INIT 4de60 29 .cfa: $rsp 8 + .ra: .cfa -8 + ^
STACK CFI 4de61 $rbx: .cfa -16 + ^ .cfa: $rsp 16 +
STACK CFI 4de88 .cfa: $rsp 8 +
STACK CFI INIT 4de90 16 .cfa: $rsp 8 + .ra: .cfa -8 + ^
STACK CFI INIT 4deb0 1c .cfa: $rsp 8 + .ra: .cfa -8 + ^
STACK CFI INIT 4ded0 149 .cfa: $rsp 8 + .ra: .cfa -8 + ^
STACK CFI 4ded1 $rbp: .cfa -16 + ^ .cfa: $rsp 16 +
STACK CFI 4ded2 $rbx: .cfa -24 + ^ .cfa: $rsp 24 +
STACK CFI 4ded6 .cfa: $rsp 48 +
STACK CFI 4df45 .cfa: $rsp 24 +
STACK CFI 4df46 .cfa: $rsp 16 +
STACK CFI 4df47 .cfa: $rsp 8 +
STACK CFI 4df50 .cfa: $rsp 48 +
STACK CFI INIT 4e020 5c .cfa: $rsp 8 + .ra: .cfa -8 + ^
STACK CFI 4e021 $rbx: .cfa -16 + ^ .cfa: $rsp 16 +
STACK CFI 4e07b .cfa: $rsp 8 +
STACK CFI INIT 4e080 12c .cfa: $rsp 8 + .ra: .cfa -8 + ^
STACK CFI 4e082 $r13: .cfa -16 + ^ .cfa: $rsp 16 +
STACK CFI 4e084 $r12: .cfa -24 + ^ .cfa: $rsp 24 +
STACK CFI 4e085 $rbp: .cfa -32 + ^ .cfa: $rsp 32 +
STACK CFI 4e086 $rbx: .cfa -40 + ^ .cfa: $rsp 40 +
STACK CFI 4e08a .cfa: $rsp 64 +
STACK CFI 4e0d1 .cfa: $rsp 40 +
STACK CFI 4e0d2 .cfa: $rsp 32 +
STACK CFI 4e0d3 .cfa: $rsp 24 +
STACK CFI 4e0d5 .cfa: $rsp 16 +
STACK CFI 4e0d7 .cfa: $rsp 8 +
STACK CFI 4e0e0 .cfa: $rsp 64 +
STACK CFI INIT 4e1b0 116 .cfa: $rsp 8 + .ra: .cfa -8 + ^
STACK CFI 4e1b2 $r12: .cfa -16 + ^ .cfa: $rsp 16 +
STACK CFI 4e1b3 $rbp: .cfa -24 + ^ .cfa: $rsp 24 +
STACK CFI 4e1b4 $rbx: .cfa -32 + ^ .cfa: $rsp 32 +
STACK CFI 4e1b8 .cfa: $rsp 48 +
STACK CFI 4e227 .cfa: $rsp 32 +
STACK CFI 4e228 .cfa: $rsp 24 +
STACK CFI 4e229 .cfa: $rsp 16 +
STACK CFI 4e22b .cfa: $rsp 8 +
STACK CFI 4e230 .cfa: $rsp 48 +
STACK CFI INIT 4e2d0 41 .cfa: $rsp 8 + .ra: .cfa -8 + ^
STACK CFI 4e2d1 $rbx: .cfa -16 + ^ .cfa: $rsp 16 +
STACK CFI 4e310 .cfa: $rsp 8 +
STACK CFI INIT 4e320 104 .cfa: $rsp 8 + .ra: .cfa -8 + ^
STACK CFI 4e321 $rbp: .cfa -16 + ^ .cfa: $rsp 16 +
STACK CFI 4e322 $rbx: .cfa -24 + ^ .cfa: $rsp 24 +
STACK CFI 4e326 .cfa: $rsp 48 +
STACK CFI 4e391 .cfa: $rsp 24 +
STACK CFI 4e392 .cfa: $rsp 16 +
STACK CFI 4e393 .cfa: $rsp 8 +
STACK CFI 4e398 .cfa: $rsp 48 +
STACK CFI INIT 4e430 28 .cfa: $rsp 8 + .ra: .cfa -8 + ^
STACK CFI 4e431 $rbx: .cfa -16 + ^ .cfa: $rsp 16 +
STACK CFI 4e457 .cfa: $rsp 8 +
STACK CFI INIT 4e460 188 .cfa: $rsp 8 + .ra: .cfa -8 + ^
STACK CFI 4e462 $r13: .cfa -16 + ^ .cfa: $rsp 16 +
STACK CFI 4e464 $r12: .cfa -24 + ^ .cfa: $rsp 24 +
STACK CFI 4e465 $rbp: .cfa -32 + ^ .cfa: $rsp 32 +
STACK CFI 4e466 $rbx: .cfa -40 + ^ .cfa: $rsp 40 +
STACK CFI 4e46a .cfa: $rsp 112 +
STACK CFI 4e55e .cfa: $rsp 40 +
STACK CFI 4e55f .cfa: $rsp 32 +
STACK CFI 4e560 .cfa: $rsp 24 +
STACK CFI 4e562 .cfa: $rsp 16 +
STACK CFI 4e564 .cfa: $rsp 8 +
STACK CFI 4e565 .cfa: $rsp 112 +
STACK CFI INIT 4e5f0 12c .cfa: $rsp 8 + .ra: .cfa -8 + ^
STACK CFI 4e5f2 $r13: .cfa -16 + ^ .cfa: $rsp 16 +
STACK CFI 4e5f4 $r12: .cfa -24 + ^ .cfa: $rsp 24 +
STACK CFI 4e5f5 $rbp: .cfa -32 + ^ .cfa: $rsp 32 +
STACK CFI 4e5f6 $rbx: .cfa -40 + ^ .cfa: $rsp 40 +
STACK CFI 4e5fa .cfa: $rsp 64 +
STACK CFI 4e642 .cfa: $rsp 40 +
STACK CFI 4e643 .cfa: $rsp 32 +
STACK CFI 4e644 .cfa: $rsp 24 +
STACK CFI 4e646 .cfa: $rsp 16 +
STACK CFI 4e648 .cfa: $rsp 8 +
STACK CFI 4e650 .cfa: $rsp 64 +
STACK CFI INIT 4e720 d0 .cfa: $rsp 8 + .ra: .cfa -8 + ^
STACK CFI 4e721 $rbp: .cfa -16 + ^ .cfa: $rsp 16 +
STACK CFI 4e722 $rbx: .cfa -24 + ^ .cfa: $rsp 24 +
STACK CFI 4e726 .cfa: $rsp 48 +
STACK CFI 4e7d5 .cfa: $rsp 24 +
STACK CFI 4e7d6 .cfa: $rsp 16 +
STACK CFI 4e7d7 .cfa: $rsp 8 +
STACK CFI 4e7d8 .cfa: $rsp 48 +
STACK CFI INIT 4e7f0 d7 .cfa: $rsp 8 + .ra: .cfa -8 + ^
STACK CFI 4e7f1 $rbx: .cfa -16 + ^ .cfa: $rsp 16 +
STACK CFI 4e8c6 .cfa: $rsp 8 +
STACK CFI INIT 4e8d0 2f1 .cfa: $rsp 8 + .ra: .cfa -8 + ^
STACK CFI 4e8d2 $r15: .cfa -16 + ^ .cfa: $rsp 16 +
STACK CFI 4e8d4 $r14: .cfa -24 + ^ .cfa: $rsp 24 +
STACK CFI 4e8d6 $r13: .cfa -32 + ^ .cfa: $rsp 32 +
STACK CFI 4e8d8 $r12: .cfa -40 + ^ .cfa: $rsp 40 +
STACK CFI 4e8d9 $rbp: .cfa -48 + ^ .cfa: $rsp 48 +
STACK CFI 4e8da $rbx: .cfa -56 + ^ .cfa: $rsp 56 +
STACK CFI 4e8de .cfa: $rsp 128 +
STACK CFI 4e950 .cfa: $rsp 56 +
STACK CFI 4e951 .cfa: $rsp 48 +
STACK CFI 4e952 .cfa: $rsp 40 +
STACK CFI 4e954 .cfa: $rsp 32 +
STACK CFI 4e956 .cfa: $rsp 24 +
STACK CFI 4e958 .cfa: $rsp 16 +
STACK CFI 4e95a .cfa: $rsp 8 +
STACK CFI 4e960 .cfa: $rsp 128 +
STACK CFI INIT 4ebd0 ac .cfa: $rsp 8 + .ra: .cfa -8 + ^
STACK CFI 4ebd2 $r13: .cfa -16 + ^ .cfa: $rsp 16 +
STACK CFI 4ebd4 $r12: .cfa -24 + ^ .cfa: $rsp 24 +
STACK CFI 4ebd8 $rbp: .cfa -32 + ^ .cfa: $rsp 32 +
STACK CFI 4ebd9 $rbx: .cfa -40 + ^ .cfa: $rsp 40 +
STACK CFI 4ebe7 .cfa: $rsp 48 +
STACK CFI 4ec75 .cfa: $rsp 40 +
STACK CFI 4ec76 .cfa: $rsp 32 +
STACK CFI 4ec77 .cfa: $rsp 24 +
STACK CFI 4ec79 .cfa: $rsp 16 +
STACK CFI 4ec7b .cfa: $rsp 8 +
STACK CFI INIT 4ec80 95 .cfa: $rsp 8 + .ra: .cfa -8 + ^
STACK CFI 4ec81 $rbp: .cfa -16 + ^ .cfa: $rsp 16 +
STACK CFI 4ec82 $rbx: .cfa -24 + ^ .cfa: $rsp 24 +
STACK CFI 4ec90 .cfa: $rsp 32 +
STACK CFI 4ed12 .cfa: $rsp 24 +
STACK CFI 4ed13 .cfa: $rsp 16 +
STACK CFI 4ed14 .cfa: $rsp 8 +
STACK CFI INIT 4ed20 2bf .cfa: $rsp 8 + .ra: .cfa -8 + ^
STACK CFI 4ed22 $r13: .cfa -16 + ^ .cfa: $rsp 16 +
STACK CFI 4ed24 $r12: .cfa -24 + ^ .cfa: $rsp 24 +
STACK CFI 4ed25 $rbp: .cfa -32 + ^ .cfa: $rsp 32 +
STACK CFI 4ed26 $rbx: .cfa -40 + ^ .cfa: $rsp 40 +
STACK CFI 4ed2a .cfa: $rsp 112 +
STACK CFI 4ed9c .cfa: $rsp 40 +
STACK CFI 4ed9d .cfa: $rsp 32 +
STACK CFI 4ed9e .cfa: $rsp 24 +
STACK CFI 4eda0 .cfa: $rsp 16 +
STACK CFI 4eda2 .cfa: $rsp 8 +
STACK CFI 4eda8 .cfa: $rsp 112 +
STACK CFI INIT 4efe0 12c .cfa: $rsp 8 + .ra: .cfa -8 + ^
STACK CFI 4efe2 $r13: .cfa -16 + ^ .cfa: $rsp 16 +
STACK CFI 4efe4 $r12: .cfa -24 + ^ .cfa: $rsp 24 +
STACK CFI 4efe5 $rbp: .cfa -32 + ^ .cfa: $rsp 32 +
STACK CFI 4efe6 $rbx: .cfa -40 + ^ .cfa: $rsp 40 +
STACK CFI 4efea .cfa: $rsp 64 +
STACK CFI 4f031 .cfa: $rsp 40 +
STACK CFI 4f032 .cfa: $rsp 32 +
STACK CFI 4f033 .cfa: $rsp 24 +
STACK CFI 4f035 .cfa: $rsp 16 +
STACK CFI 4f037 .cfa: $rsp 8 +
STACK CFI 4f040 .cfa: $rsp 64 +
STACK CFI INIT 4f110 1fa .cfa: $rsp 8 + .ra: .cfa -8 + ^
STACK CFI 4f112 $r13: .cfa -16 + ^ .cfa: $rsp 16 +
STACK CFI 4f114 $r12: .cfa -24 + ^ .cfa: $rsp 24 +
STACK CFI 4f115 $rbp: .cfa -32 + ^ .cfa: $rsp 32 +
STACK CFI 4f116 $rbx: .cfa -40 + ^ .cfa: $rsp 40 +
STACK CFI 4f11d .cfa: $rsp 112 +
STACK CFI 4f2b6 .cfa: $rsp 40 +
STACK CFI 4f2b7 .cfa: $rsp 32 +
STACK CFI 4f2b8 .cfa: $rsp 24 +
STACK CFI 4f2ba .cfa: $rsp 16 +
STACK CFI 4f2bc .cfa: $rsp 8 +
STACK CFI 4f2c0 .cfa: $rsp 112 +
STACK CFI INIT 4f310 203 .cfa: $rsp 8 + .ra: .cfa -8 + ^
STACK CFI 4f312 $r12: .cfa -16 + ^ .cfa: $rsp 16 +
STACK CFI 4f313 $rbp: .cfa -24 + ^ .cfa: $rsp 24 +
STACK CFI 4f316 $rbx: .cfa -32 + ^ .cfa: $rsp 32 +
STACK CFI 4f31d .cfa: $rsp 48 +
STACK CFI 4f3e8 .cfa: $rsp 32 +
STACK CFI 4f3e9 .cfa: $rsp 24 +
STACK CFI 4f3ea .cfa: $rsp 16 +
STACK CFI 4f3ec .cfa: $rsp 8 +
STACK CFI 4f3f0 .cfa: $rsp 48 +
STACK CFI INIT 4f520 170 .cfa: $rsp 8 + .ra: .cfa -8 + ^
STACK CFI 4f522 $r12: .cfa -16 + ^ .cfa: $rsp 16 +
STACK CFI 4f523 $rbp: .cfa -24 + ^ .cfa: $rsp 24 +
STACK CFI 4f524 $rbx: .cfa -32 + ^ .cfa: $rsp 32 +
STACK CFI 4f528 .cfa: $rsp 48 +
STACK CFI 4f5d5 .cfa: $rsp 32 +
STACK CFI 4f5d6 .cfa: $rsp 24 +
STACK CFI 4f5d7 .cfa: $rsp 16 +
STACK CFI 4f5d9 .cfa: $rsp 8 +
STACK CFI 4f5e0 .cfa: $rsp 48 +
STACK CFI INIT 4f690 350 .cfa: $rsp 8 + .ra: .cfa -8 + ^
STACK CFI 4f692 $r15: .cfa -16 + ^ .cfa: $rsp 16 +
STACK CFI 4f694 $r14: .cfa -24 + ^ .cfa: $rsp 24 +
STACK CFI 4f696 $r13: .cfa -32 + ^ .cfa: $rsp 32 +
STACK CFI 4f698 $r12: .cfa -40 + ^ .cfa: $rsp 40 +
STACK CFI 4f699 $rbp: .cfa -48 + ^ .cfa: $rsp 48 +
STACK CFI 4f69a $rbx: .cfa -56 + ^ .cfa: $rsp 56 +
STACK CFI 4f6a4 .cfa: $rsp 208 +
STACK CFI 4f874 .cfa: $rsp 56 +
STACK CFI 4f875 .cfa: $rsp 48 +
STACK CFI 4f876 .cfa: $rsp 40 +
STACK CFI 4f878 .cfa: $rsp 32 +
STACK CFI 4f87a .cfa: $rsp 24 +
STACK CFI 4f87c .cfa: $rsp 16 +
STACK CFI 4f87e .cfa: $rsp 8 +
STACK CFI 4f880 .cfa: $rsp 208 +
STACK CFI INIT 4f9e0 262 .cfa: $rsp 8 + .ra: .cfa -8 + ^
STACK CFI 4f9e2 $r12: .cfa -16 + ^ .cfa: $rsp 16 +
STACK CFI 4f9e3 $rbp: .cfa -24 + ^ .cfa: $rsp 24 +
STACK CFI 4f9e7 $rbx: .cfa -32 + ^ .cfa: $rsp 32 +
STACK CFI 4f9ee .cfa: $rsp 48 +
STACK CFI 4fafb .cfa: $rsp 32 +
STACK CFI 4fafc .cfa: $rsp 24 +
STACK CFI 4fafd .cfa: $rsp 16 +
STACK CFI 4faff .cfa: $rsp 8 +
STACK CFI 4fb00 .cfa: $rsp 48 +
STACK CFI INIT 4fc50 264 .cfa: $rsp 8 + .ra: .cfa -8 + ^
STACK CFI 4fc52 $r14: .cfa -16 + ^ .cfa: $rsp 16 +
STACK CFI 4fc54 $r13: .cfa -24 + ^ .cfa: $rsp 24 +
STACK CFI 4fc5a $r12: .cfa -32 + ^ .cfa: $rsp 32 +
STACK CFI 4fc5b $rbp: .cfa -40 + ^ .cfa: $rsp 40 +
STACK CFI 4fc61 $rbx: .cfa -48 + ^ .cfa: $rsp 48 +
STACK CFI 4fc68 .cfa: $rsp 144 +
STACK CFI 4fcd6 .cfa: $rsp 48 +
STACK CFI 4fcd7 .cfa: $rsp 40 +
STACK CFI 4fcd8 .cfa: $rsp 32 +
STACK CFI 4fcda .cfa: $rsp 24 +
STACK CFI 4fcdc .cfa: $rsp 16 +
STACK CFI 4fcde .cfa: $rsp 8 +
STACK CFI 4fce0 .cfa: $rsp 144 +
STACK CFI INIT 4fec0 36d .cfa: $rsp 8 + .ra: .cfa -8 + ^
STACK CFI 4fec2 $r14: .cfa -16 + ^ .cfa: $rsp 16 +
STACK CFI 4fec4 $r13: .cfa -24 + ^ .cfa: $rsp 24 +
STACK CFI 4fec6 $r12: .cfa -32 + ^ .cfa: $rsp 32 +
STACK CFI 4fec7 $rbp: .cfa -40 + ^ .cfa: $rsp 40 +
STACK CFI 4fec8 $rbx: .cfa -48 + ^ .cfa: $rsp 48 +
STACK CFI 4fecf .cfa: $rsp 144 +
STACK CFI 4fff2 .cfa: $rsp 48 +
STACK CFI 4fff3 .cfa: $rsp 40 +
STACK CFI 4fff4 .cfa: $rsp 32 +
STACK CFI 4fff6 .cfa: $rsp 24 +
STACK CFI 4fff8 .cfa: $rsp 16 +
STACK CFI 4fffa .cfa: $rsp 8 +
STACK CFI 50000 .cfa: $rsp 144 +
STACK CFI INIT 50230 15f .cfa: $rsp 8 + .ra: .cfa -8 + ^
STACK CFI 50232 $r13: .cfa -16 + ^ .cfa: $rsp 16 +
STACK CFI 50234 $r12: .cfa -24 + ^ .cfa: $rsp 24 +
STACK CFI 50235 $rbp: .cfa -32 + ^ .cfa: $rsp 32 +
STACK CFI 50236 $rbx: .cfa -40 + ^ .cfa: $rsp 40 +
STACK CFI 5023d .cfa: $rsp 112 +
STACK CFI 50291 .cfa: $rsp 40 +
STACK CFI 50292 .cfa: $rsp 32 +
STACK CFI 50293 .cfa: $rsp 24 +
STACK CFI 50295 .cfa: $rsp 16 +
STACK CFI 50297 .cfa: $rsp 8 +
STACK CFI 502a0 .cfa: $rsp 112 +
STACK CFI INIT 50390 3c7 .cfa: $rsp 8 + .ra: .cfa -8 + ^
STACK CFI 50392 $r15: .cfa -16 + ^ .cfa: $rsp 16 +
STACK CFI 50394 $r14: .cfa -24 + ^ .cfa: $rsp 24 +
STACK CFI 50396 $r13: .cfa -32 + ^ .cfa: $rsp 32 +
STACK CFI 50398 $r12: .cfa -40 + ^ .cfa: $rsp 40 +
STACK CFI 50399 $rbp: .cfa -48 + ^ .cfa: $rsp 48 +
STACK CFI 5039a $rbx: .cfa -56 + ^ .cfa: $rsp 56 +
STACK CFI 503a1 .cfa: $rsp 144 +
STACK CFI 50432 .cfa: $rsp 56 +
STACK CFI 50433 .cfa: $rsp 48 +
STACK CFI 50434 .cfa: $rsp 40 +
STACK CFI 50436 .cfa: $rsp 32 +
STACK CFI 50438 .cfa: $rsp 24 +
STACK CFI 5043a .cfa: $rsp 16 +
STACK CFI 5043c .cfa: $rsp 8 +
STACK CFI 50440 .cfa: $rsp 144 +
STACK CFI INIT 50760 4e .cfa: $rsp 8 + .ra: .cfa -8 + ^
STACK CFI 50764 .cfa: $rsp 32 +
STACK CFI 5079c .cfa: $rsp 8 +
STACK CFI 507a0 .cfa: $rsp 32 +
STACK CFI INIT 507b0 17d .cfa: $rsp 8 + .ra: .cfa -8 + ^
STACK CFI 507b2 $r12: .cfa -16 + ^ .cfa: $rsp 16 +
STACK CFI 507b3 $rbp: .cfa -24 + ^ .cfa: $rsp 24 +
STACK CFI 507b7 $rbx: .cfa -32 + ^ .cfa: $rsp 32 +
STACK CFI 5082c .cfa: $rsp 24 +
STACK CFI 5082d .cfa: $rsp 16 +
STACK CFI 5082f .cfa: $rsp 8 +
STACK CFI 50838 .cfa: $rsp 32 +
STACK CFI 50839 .cfa: $rsp 24 +
STACK CFI 5083f .cfa: $rsp 16 +
STACK CFI 50841 .cfa: $rsp 8 +
STACK CFI 50848 .cfa: $rsp 32 +
STACK CFI INIT 50930 2210 .cfa: $rsp 8 + .ra: .cfa -8 + ^
STACK CFI 50932 $r13: .cfa -16 + ^ .cfa: $rsp 16 +
STACK CFI 50934 $r12: .cfa -24 + ^ .cfa: $rsp 24 +
STACK CFI 50935 $rbp: .cfa -32 + ^ .cfa: $rsp 32 +
STACK CFI 50936 $rbx: .cfa -40 + ^ .cfa: $rsp 40 +
STACK CFI 5093f .cfa: $rsp 128 +
STACK CFI 50baa .cfa: $rsp 40 +
STACK CFI 50bab .cfa: $rsp 32 +
STACK CFI 50bac .cfa: $rsp 24 +
STACK CFI 50bae .cfa: $rsp 16 +
STACK CFI 50bb0 .cfa: $rsp 8 +
STACK CFI 50bb8 .cfa: $rsp 128 +
STACK CFI INIT 52b40 1da .cfa: $rsp 8 + .ra: .cfa -8 + ^
STACK CFI 52b42 $r12: .cfa -16 + ^ .cfa: $rsp 16 +
STACK CFI 52b43 $rbp: .cfa -24 + ^ .cfa: $rsp 24 +
STACK CFI 52b44 $rbx: .cfa -32 + ^ .cfa: $rsp 32 +
STACK CFI 52b48 .cfa: $rsp 48 +
STACK CFI 52b89 .cfa: $rsp 32 +
STACK CFI 52b8a .cfa: $rsp 24 +
STACK CFI 52b8b .cfa: $rsp 16 +
STACK CFI 52b8d .cfa: $rsp 8 +
STACK CFI 52b90 .cfa: $rsp 48 +
STACK CFI INIT 52d20 1e7 .cfa: $rsp 8 + .ra: .cfa -8 + ^
STACK CFI 52d22 $r12: .cfa -16 + ^ .cfa: $rsp 16 +
STACK CFI 52d23 $rbp: .cfa -24 + ^ .cfa: $rsp 24 +
STACK CFI 52d24 $rbx: .cfa -32 + ^ .cfa: $rsp 32 +
STACK CFI 52d28 .cfa: $rsp 48 +
STACK CFI 52d6c .cfa: $rsp 32 +
STACK CFI 52d6d .cfa: $rsp 24 +
STACK CFI 52d6e .cfa: $rsp 16 +
STACK CFI 52d70 .cfa: $rsp 8 +
STACK CFI 52d78 .cfa: $rsp 48 +
STACK CFI INIT 52f10 1e3 .cfa: $rsp 8 + .ra: .cfa -8 + ^
STACK CFI 52f12 $r13: .cfa -16 + ^ .cfa: $rsp 16 +
STACK CFI 52f14 $r12: .cfa -24 + ^ .cfa: $rsp 24 +
STACK CFI 52f15 $rbp: .cfa -32 + ^ .cfa: $rsp 32 +
STACK CFI 52f16 $rbx: .cfa -40 + ^ .cfa: $rsp 40 +
STACK CFI 52f1a .cfa: $rsp 64 +
STACK CFI 52f89 .cfa: $rsp 40 +
STACK CFI 52f8a .cfa: $rsp 32 +
STACK CFI 52f8b .cfa: $rsp 24 +
STACK CFI 52f8d .cfa: $rsp 16 +
STACK CFI 52f8f .cfa: $rsp 8 +
STACK CFI 52f90 .cfa: $rsp 64 +
STACK CFI INIT 53100 f3 .cfa: $rsp 8 + .ra: .cfa -8 + ^
STACK CFI 53102 $r12: .cfa -16 + ^ .cfa: $rsp 16 +
STACK CFI 53103 $rbp: .cfa -24 + ^ .cfa: $rsp 24 +
STACK CFI 53104 $rbx: .cfa -32 + ^ .cfa: $rsp 32 +
STACK CFI 5310b .cfa: $rsp 48 +
STACK CFI 531d6 .cfa: $rsp 32 +
STACK CFI 531d7 .cfa: $rsp 24 +
STACK CFI 531d8 .cfa: $rsp 16 +
STACK CFI 531da .cfa: $rsp 8 +
STACK CFI 531db .cfa: $rsp 48 +
STACK CFI INIT 53200 7d .cfa: $rsp 8 + .ra: .cfa -8 + ^
STACK CFI 53201 $rbp: .cfa -16 + ^ .cfa: $rsp 16 +
STACK CFI 53202 $rbx: .cfa -24 + ^ .cfa: $rsp 24 +
STACK CFI 53209 .cfa: $rsp 32 +
STACK CFI 5327a .cfa: $rsp 24 +
STACK CFI 5327b .cfa: $rsp 16 +
STACK CFI 5327c .cfa: $rsp 8 +
STACK CFI INIT 53280 37f .cfa: $rsp 8 + .ra: .cfa -8 + ^
STACK CFI 53282 $r14: .cfa -16 + ^ .cfa: $rsp 16 +
STACK CFI 53284 $r13: .cfa -24 + ^ .cfa: $rsp 24 +
STACK CFI 53286 $r12: .cfa -32 + ^ .cfa: $rsp 32 +
STACK CFI 53287 $rbp: .cfa -40 + ^ .cfa: $rsp 40 +
STACK CFI 5328b $rbx: .cfa -48 + ^ .cfa: $rsp 48 +
STACK CFI 53292 .cfa: $rsp 144 +
STACK CFI 5337e .cfa: $rsp 48 +
STACK CFI 5337f .cfa: $rsp 40 +
STACK CFI 53380 .cfa: $rsp 32 +
STACK CFI 53382 .cfa: $rsp 24 +
STACK CFI 53384 .cfa: $rsp 16 +
STACK CFI 53386 .cfa: $rsp 8 +
STACK CFI 53390 .cfa: $rsp 144 +
STACK CFI INIT 53600 2d8 .cfa: $rsp 8 + .ra: .cfa -8 + ^
STACK CFI 53602 $r13: .cfa -16 + ^ .cfa: $rsp 16 +
STACK CFI 53604 $r12: .cfa -24 + ^ .cfa: $rsp 24 +
STACK CFI 53605 $rbp: .cfa -32 + ^ .cfa: $rsp 32 +
STACK CFI 53606 $rbx: .cfa -40 + ^ .cfa: $rsp 40 +
STACK CFI 5360a .cfa: $rsp 80 +
STACK CFI 53680 .cfa: $rsp 40 +
STACK CFI 53681 .cfa: $rsp 32 +
STACK CFI 53682 .cfa: $rsp 24 +
STACK CFI 53684 .cfa: $rsp 16 +
STACK CFI 53686 .cfa: $rsp 8 +
STACK CFI 53690 .cfa: $rsp 80 +
STACK CFI INIT 538e0 2e6 .cfa: $rsp 8 + .ra: .cfa -8 + ^
STACK CFI 538e2 $r14: .cfa -16 + ^ .cfa: $rsp 16 +
STACK CFI 538e4 $r13: .cfa -24 + ^ .cfa: $rsp 24 +
STACK CFI 538e9 $r12: .cfa -32 + ^ .cfa: $rsp 32 +
STACK CFI 538ea $rbp: .cfa -40 + ^ .cfa: $rsp 40 +
STACK CFI 538ee $rbx: .cfa -48 + ^ .cfa: $rsp 48 +
STACK CFI 538f4 .cfa: $rsp 64 +
STACK CFI 539e3 .cfa: $rsp 48 +
STACK CFI 539e4 .cfa: $rsp 40 +
STACK CFI 539e5 .cfa: $rsp 32 +
STACK CFI 539e7 .cfa: $rsp 24 +
STACK CFI 539e9 .cfa: $rsp 16 +
STACK CFI 539eb .cfa: $rsp 8 +
STACK CFI 539f0 .cfa: $rsp 64 +
STACK CFI INIT 5eca0 32 .cfa: $rsp 8 + .ra: .cfa -8 + ^
STACK CFI 5eca1 $rbx: .cfa -16 + ^ .cfa: $rsp 16 +
STACK CFI 5ecc3 .cfa: $rsp 8 +
STACK CFI 5ecd0 .cfa: $rsp 16 +
STACK CFI 5ecd1 .cfa: $rsp 8 +
STACK CFI INIT 53bd0 72b .cfa: $rsp 8 + .ra: .cfa -8 + ^
STACK CFI 53bd2 $r15: .cfa -16 + ^ .cfa: $rsp 16 +
STACK CFI 53bd4 $r14: .cfa -24 + ^ .cfa: $rsp 24 +
STACK CFI 53bd6 $r13: .cfa -32 + ^ .cfa: $rsp 32 +
STACK CFI 53bd8 $r12: .cfa -40 + ^ .cfa: $rsp 40 +
STACK CFI 53bd9 $rbp: .cfa -48 + ^ .cfa: $rsp 48 +
STACK CFI 53bda $rbx: .cfa -56 + ^ .cfa: $rsp 56 +
STACK CFI 53be1 .cfa: $rsp 176 +
STACK CFI 5405d .cfa: $rsp 56 +
STACK CFI 5405e .cfa: $rsp 48 +
STACK CFI 5405f .cfa: $rsp 40 +
STACK CFI 54061 .cfa: $rsp 32 +
STACK CFI 54063 .cfa: $rsp 24 +
STACK CFI 54065 .cfa: $rsp 16 +
STACK CFI 54067 .cfa: $rsp 8 +
STACK CFI 54070 .cfa: $rsp 176 +
STACK CFI INIT 54300 40a .cfa: $rsp 8 + .ra: .cfa -8 + ^
STACK CFI 54302 $r14: .cfa -16 + ^ .cfa: $rsp 16 +
STACK CFI 54304 $r13: .cfa -24 + ^ .cfa: $rsp 24 +
STACK CFI 54306 $r12: .cfa -32 + ^ .cfa: $rsp 32 +
STACK CFI 54307 $rbp: .cfa -40 + ^ .cfa: $rsp 40 +
STACK CFI 54308 $rbx: .cfa -48 + ^ .cfa: $rsp 48 +
STACK CFI 5430c .cfa: $rsp 112 +
STACK CFI 5442f .cfa: $rsp 48 +
STACK CFI 54430 .cfa: $rsp 40 +
STACK CFI 54431 .cfa: $rsp 32 +
STACK CFI 54433 .cfa: $rsp 24 +
STACK CFI 54435 .cfa: $rsp 16 +
STACK CFI 54437 .cfa: $rsp 8 +
STACK CFI 54440 .cfa: $rsp 112 +
STACK CFI INIT 54710 112 .cfa: $rsp 8 + .ra: .cfa -8 + ^
STACK CFI 54711 $rbp: .cfa -16 + ^ .cfa: $rsp 16 +
STACK CFI 54712 $rbx: .cfa -24 + ^ .cfa: $rsp 24 +
STACK CFI 54716 .cfa: $rsp 48 +
STACK CFI 54754 .cfa: $rsp 24 +
STACK CFI 54755 .cfa: $rsp 16 +
STACK CFI 54756 .cfa: $rsp 8 +
STACK CFI 54760 .cfa: $rsp 48 +
STACK CFI INIT 54830 316 .cfa: $rsp 8 + .ra: .cfa -8 + ^
STACK CFI 54832 $r12: .cfa -16 + ^ .cfa: $rsp 16 +
STACK CFI 54833 $rbp: .cfa -24 + ^ .cfa: $rsp 24 +
STACK CFI 54834 $rbx: .cfa -32 + ^ .cfa: $rsp 32 +
STACK CFI 54838 .cfa: $rsp 48 +
STACK CFI 548a7 .cfa: $rsp 32 +
STACK CFI 548a8 .cfa: $rsp 24 +
STACK CFI 548a9 .cfa: $rsp 16 +
STACK CFI 548ab .cfa: $rsp 8 +
STACK CFI 548b0 .cfa: $rsp 48 +
STACK CFI INIT 54b50 102 .cfa: $rsp 8 + .ra: .cfa -8 + ^
STACK CFI 54b51 $rbp: .cfa -16 + ^ .cfa: $rsp 16 +
STACK CFI 54b52 $rbx: .cfa -24 + ^ .cfa: $rsp 24 +
STACK CFI 54b56 .cfa: $rsp 48 +
STACK CFI 54bc6 .cfa: $rsp 24 +
STACK CFI 54bc7 .cfa: $rsp 16 +
STACK CFI 54bc8 .cfa: $rsp 8 +
STACK CFI 54bd0 .cfa: $rsp 48 +
STACK CFI INIT 54c60 4a3 .cfa: $rsp 8 + .ra: .cfa -8 + ^
STACK CFI 54c62 $r15: .cfa -16 + ^ .cfa: $rsp 16 +
STACK CFI 54c64 $r14: .cfa -24 + ^ .cfa: $rsp 24 +
STACK CFI 54c66 $r13: .cfa -32 + ^ .cfa: $rsp 32 +
STACK CFI 54c68 $r12: .cfa -40 + ^ .cfa: $rsp 40 +
STACK CFI 54c69 $rbp: .cfa -48 + ^ .cfa: $rsp 48 +
STACK CFI 54c6a $rbx: .cfa -56 + ^ .cfa: $rsp 56 +
STACK CFI 54c74 .cfa: $rsp 208 +
STACK CFI 54e26 .cfa: $rsp 56 +
STACK CFI 54e27 .cfa: $rsp 48 +
STACK CFI 54e28 .cfa: $rsp 40 +
STACK CFI 54e2a .cfa: $rsp 32 +
STACK CFI 54e2c .cfa: $rsp 24 +
STACK CFI 54e2e .cfa: $rsp 16 +
STACK CFI 54e30 .cfa: $rsp 8 +
STACK CFI 54e38 .cfa: $rsp 208 +
STACK CFI INIT 55110 9 .cfa: $rsp 8 + .ra: .cfa -8 + ^
STACK CFI INIT 55120 168 .cfa: $rsp 8 + .ra: .cfa -8 + ^
STACK CFI 55122 $r13: .cfa -16 + ^ .cfa: $rsp 16 +
STACK CFI 55124 $r12: .cfa -24 + ^ .cfa: $rsp 24 +
STACK CFI 55125 $rbp: .cfa -32 + ^ .cfa: $rsp 32 +
STACK CFI 55126 $rbx: .cfa -40 + ^ .cfa: $rsp 40 +
STACK CFI 5512d .cfa: $rsp 96 +
STACK CFI 55253 .cfa: $rsp 40 +
STACK CFI 55254 .cfa: $rsp 32 +
STACK CFI 55255 .cfa: $rsp 24 +
STACK CFI 55257 .cfa: $rsp 16 +
STACK CFI 55259 .cfa: $rsp 8 +
STACK CFI 5525a .cfa: $rsp 96 +
STACK CFI INIT 55290 200 .cfa: $rsp 8 + .ra: .cfa -8 + ^
STACK CFI 55292 $r13: .cfa -16 + ^ .cfa: $rsp 16 +
STACK CFI 55294 $r12: .cfa -24 + ^ .cfa: $rsp 24 +
STACK CFI 55295 $rbp: .cfa -32 + ^ .cfa: $rsp 32 +
STACK CFI 55296 $rbx: .cfa -40 + ^ .cfa: $rsp 40 +
STACK CFI 5529a .cfa: $rsp 64 +
STACK CFI 5534a .cfa: $rsp 40 +
STACK CFI 5534b .cfa: $rsp 32 +
STACK CFI 5534c .cfa: $rsp 24 +
STACK CFI 5534e .cfa: $rsp 16 +
STACK CFI 55350 .cfa: $rsp 8 +
STACK CFI 55358 .cfa: $rsp 64 +
STACK CFI INIT 55490 69b .cfa: $rsp 8 + .ra: .cfa -8 + ^
STACK CFI 55492 $r14: .cfa -16 + ^ .cfa: $rsp 16 +
STACK CFI 55494 $r13: .cfa -24 + ^ .cfa: $rsp 24 +
STACK CFI 55496 $r12: .cfa -32 + ^ .cfa: $rsp 32 +
STACK CFI 55497 $rbp: .cfa -40 + ^ .cfa: $rsp 40 +
STACK CFI 5549a $rbx: .cfa -48 + ^ .cfa: $rsp 48 +
STACK CFI 554a1 .cfa: $rsp 64 +
STACK CFI 55724 .cfa: $rsp 48 +
STACK CFI 55725 .cfa: $rsp 40 +
STACK CFI 55726 .cfa: $rsp 32 +
STACK CFI 55728 .cfa: $rsp 24 +
STACK CFI 5572a .cfa: $rsp 16 +
STACK CFI 5572c .cfa: $rsp 8 +
STACK CFI 55730 .cfa: $rsp 64 +
STACK CFI INIT 5ece0 2a .cfa: $rsp 8 + .ra: .cfa -8 + ^
STACK CFI 5ece1 $rbx: .cfa -16 + ^ .cfa: $rsp 16 +
STACK CFI 5ecff .cfa: $rsp 8 +
STACK CFI 5ed08 .cfa: $rsp 16 +
STACK CFI 5ed09 .cfa: $rsp 8 +
STACK CFI INIT 55b30 359 .cfa: $rsp 8 + .ra: .cfa -8 + ^
STACK CFI 55b32 $r13: .cfa -16 + ^ .cfa: $rsp 16 +
STACK CFI 55b34 $r12: .cfa -24 + ^ .cfa: $rsp 24 +
STACK CFI 55b35 $rbp: .cfa -32 + ^ .cfa: $rsp 32 +
STACK CFI 55b36 $rbx: .cfa -40 + ^ .cfa: $rsp 40 +
STACK CFI 55b3a .cfa: $rsp 80 +
STACK CFI 55b7b .cfa: $rsp 40 +
STACK CFI 55b7c .cfa: $rsp 32 +
STACK CFI 55b7d .cfa: $rsp 24 +
STACK CFI 55b7f .cfa: $rsp 16 +
STACK CFI 55b81 .cfa: $rsp 8 +
STACK CFI 55b88 .cfa: $rsp 80 +
STACK CFI INIT 55e90 25a .cfa: $rsp 8 + .ra: .cfa -8 + ^
STACK CFI 55e92 $r15: .cfa -16 + ^ .cfa: $rsp 16 +
STACK CFI 55e94 $r14: .cfa -24 + ^ .cfa: $rsp 24 +
STACK CFI 55e96 $r13: .cfa -32 + ^ .cfa: $rsp 32 +
STACK CFI 55e98 $r12: .cfa -40 + ^ .cfa: $rsp 40 +
STACK CFI 55e99 $rbp: .cfa -48 + ^ .cfa: $rsp 48 +
STACK CFI 55e9a $rbx: .cfa -56 + ^ .cfa: $rsp 56 +
STACK CFI 55e9e .cfa: $rsp 80 +
STACK CFI 55f0d .cfa: $rsp 56 +
STACK CFI 55f0e .cfa: $rsp 48 +
STACK CFI 55f0f .cfa: $rsp 40 +
STACK CFI 55f11 .cfa: $rsp 32 +
STACK CFI 55f13 .cfa: $rsp 24 +
STACK CFI 55f15 .cfa: $rsp 16 +
STACK CFI 55f17 .cfa: $rsp 8 +
STACK CFI 55f20 .cfa: $rsp 80 +
STACK CFI INIT 560f0 9 .cfa: $rsp 8 + .ra: .cfa -8 + ^
STACK CFI INIT 56100 578 .cfa: $rsp 8 + .ra: .cfa -8 + ^
STACK CFI 56102 $r14: .cfa -16 + ^ .cfa: $rsp 16 +
STACK CFI 56104 $r13: .cfa -24 + ^ .cfa: $rsp 24 +
STACK CFI 56106 $r12: .cfa -32 + ^ .cfa: $rsp 32 +
STACK CFI 56107 $rbp: .cfa -40 + ^ .cfa: $rsp 40 +
STACK CFI 56108 $rbx: .cfa -48 + ^ .cfa: $rsp 48 +
STACK CFI 5610c .cfa: $rsp 80 +
STACK CFI 5615e .cfa: $rsp 48 +
STACK CFI 5615f .cfa: $rsp 40 +
STACK CFI 56160 .cfa: $rsp 32 +
STACK CFI 56162 .cfa: $rsp 24 +
STACK CFI 56164 .cfa: $rsp 16 +
STACK CFI 56166 .cfa: $rsp 8 +
STACK CFI 56170 .cfa: $rsp 80 +
STACK CFI INIT 56680 483 .cfa: $rsp 8 + .ra: .cfa -8 + ^
STACK CFI 56682 $r15: .cfa -16 + ^ .cfa: $rsp 16 +
STACK CFI 56684 $r14: .cfa -24 + ^ .cfa: $rsp 24 +
STACK CFI 56686 $r13: .cfa -32 + ^ .cfa: $rsp 32 +
STACK CFI 56688 $r12: .cfa -40 + ^ .cfa: $rsp 40 +
STACK CFI 56689 $rbp: .cfa -48 + ^ .cfa: $rsp 48 +
STACK CFI 5668a $rbx: .cfa -56 + ^ .cfa: $rsp 56 +
STACK CFI 5668e .cfa: $rsp 96 +
STACK CFI 566e0 .cfa: $rsp 56 +
STACK CFI 566e1 .cfa: $rsp 48 +
STACK CFI 566e2 .cfa: $rsp 40 +
STACK CFI 566e4 .cfa: $rsp 32 +
STACK CFI 566e6 .cfa: $rsp 24 +
STACK CFI 566e8 .cfa: $rsp 16 +
STACK CFI 566ea .cfa: $rsp 8 +
STACK CFI 566f0 .cfa: $rsp 96 +
STACK CFI INIT 56b10 1cf .cfa: $rsp 8 + .ra: .cfa -8 + ^
STACK CFI 56b11 $rbp: .cfa -16 + ^ .cfa: $rsp 16 +
STACK CFI 56b12 $rbx: .cfa -24 + ^ .cfa: $rsp 24 +
STACK CFI 56b16 .cfa: $rsp 48 +
STACK CFI 56b8a .cfa: $rsp 24 +
STACK CFI 56b8b .cfa: $rsp 16 +
STACK CFI 56b8c .cfa: $rsp 8 +
STACK CFI 56b90 .cfa: $rsp 48 +
STACK CFI INIT 56ce0 72a .cfa: $rsp 8 + .ra: .cfa -8 + ^
STACK CFI 56ce2 $r14: .cfa -16 + ^ .cfa: $rsp 16 +
STACK CFI 56ce4 $r13: .cfa -24 + ^ .cfa: $rsp 24 +
STACK CFI 56ce6 $r12: .cfa -32 + ^ .cfa: $rsp 32 +
STACK CFI 56ce7 $rbp: .cfa -40 + ^ .cfa: $rsp 40 +
STACK CFI 56ce8 $rbx: .cfa -48 + ^ .cfa: $rsp 48 +
STACK CFI 56cec .cfa: $rsp 112 +
STACK CFI 56d5e .cfa: $rsp 48 +
STACK CFI 56d5f .cfa: $rsp 40 +
STACK CFI 56d60 .cfa: $rsp 32 +
STACK CFI 56d62 .cfa: $rsp 24 +
STACK CFI 56d64 .cfa: $rsp 16 +
STACK CFI 56d66 .cfa: $rsp 8 +
STACK CFI 56d70 .cfa: $rsp 112 +
STACK CFI INIT 57410 10b .cfa: $rsp 8 + .ra: .cfa -8 + ^
STACK CFI 57412 $r12: .cfa -16 + ^ .cfa: $rsp 16 +
STACK CFI 57413 $rbp: .cfa -24 + ^ .cfa: $rsp 24 +
STACK CFI 57414 $rbx: .cfa -32 + ^ .cfa: $rsp 32 +
STACK CFI 57418 .cfa: $rsp 48 +
STACK CFI 57487 .cfa: $rsp 32 +
STACK CFI 57488 .cfa: $rsp 24 +
STACK CFI 57489 .cfa: $rsp 16 +
STACK CFI 5748b .cfa: $rsp 8 +
STACK CFI 57490 .cfa: $rsp 48 +
STACK CFI INIT 5ed10 31b .cfa: $rsp 8 + .ra: .cfa -8 + ^
STACK CFI 5ed12 $r15: .cfa -16 + ^ .cfa: $rsp 16 +
STACK CFI 5ed14 $r14: .cfa -24 + ^ .cfa: $rsp 24 +
STACK CFI 5ed19 $r13: .cfa -32 + ^ .cfa: $rsp 32 +
STACK CFI 5ed1b $r12: .cfa -40 + ^ .cfa: $rsp 40 +
STACK CFI 5ed1f $rbp: .cfa -48 + ^ .cfa: $rsp 48 +
STACK CFI 5ed20 $rbx: .cfa -56 + ^ .cfa: $rsp 56 +
STACK CFI 5ed2a .cfa: $rsp 192 +
STACK CFI 5eece .cfa: $rsp 56 +
STACK CFI 5eecf .cfa: $rsp 48 +
STACK CFI 5eed0 .cfa: $rsp 40 +
STACK CFI 5eed2 .cfa: $rsp 32 +
STACK CFI 5eed4 .cfa: $rsp 24 +
STACK CFI 5eed6 .cfa: $rsp 16 +
STACK CFI 5eed8 .cfa: $rsp 8 +
STACK CFI 5eee0 .cfa: $rsp 192 +
STACK CFI INIT 57520 5 .cfa: $rsp 8 + .ra: .cfa -8 + ^
STACK CFI INIT 57530 6 .cfa: $rsp 8 + .ra: .cfa -8 + ^
STACK CFI INIT 5f030 32b .cfa: $rsp 8 + .ra: .cfa -8 + ^
STACK CFI 5f032 $r15: .cfa -16 + ^ .cfa: $rsp 16 +
STACK CFI 5f034 $r14: .cfa -24 + ^ .cfa: $rsp 24 +
STACK CFI 5f039 $r13: .cfa -32 + ^ .cfa: $rsp 32 +
STACK CFI 5f03b $r12: .cfa -40 + ^ .cfa: $rsp 40 +
STACK CFI 5f03f $rbp: .cfa -48 + ^ .cfa: $rsp 48 +
STACK CFI 5f040 $rbx: .cfa -56 + ^ .cfa: $rsp 56 +
STACK CFI 5f04a .cfa: $rsp 192 +
STACK CFI 5f1f0 .cfa: $rsp 56 +
STACK CFI 5f1f1 .cfa: $rsp 48 +
STACK CFI 5f1f2 .cfa: $rsp 40 +
STACK CFI 5f1f4 .cfa: $rsp 32 +
STACK CFI 5f1f6 .cfa: $rsp 24 +
STACK CFI 5f1f8 .cfa: $rsp 16 +
STACK CFI 5f1fa .cfa: $rsp 8 +
STACK CFI 5f200 .cfa: $rsp 192 +
STACK CFI INIT 57540 5 .cfa: $rsp 8 + .ra: .cfa -8 + ^
STACK CFI INIT 57550 6 .cfa: $rsp 8 + .ra: .cfa -8 + ^
STACK CFI INIT 5f360 32b .cfa: $rsp 8 + .ra: .cfa -8 + ^
STACK CFI 5f362 $r15: .cfa -16 + ^ .cfa: $rsp 16 +
STACK CFI 5f364 $r14: .cfa -24 + ^ .cfa: $rsp 24 +
STACK CFI 5f369 $r13: .cfa -32 + ^ .cfa: $rsp 32 +
STACK CFI 5f36b $r12: .cfa -40 + ^ .cfa: $rsp 40 +
STACK CFI 5f36f $rbp: .cfa -48 + ^ .cfa: $rsp 48 +
STACK CFI 5f370 $rbx: .cfa -56 + ^ .cfa: $rsp 56 +
STACK CFI 5f37a .cfa: $rsp 192 +
STACK CFI 5f521 .cfa: $rsp 56 +
STACK CFI 5f522 .cfa: $rsp 48 +
STACK CFI 5f523 .cfa: $rsp 40 +
STACK CFI 5f525 .cfa: $rsp 32 +
STACK CFI 5f527 .cfa: $rsp 24 +
STACK CFI 5f529 .cfa: $rsp 16 +
STACK CFI 5f52b .cfa: $rsp 8 +
STACK CFI 5f530 .cfa: $rsp 192 +
STACK CFI INIT 57560 5 .cfa: $rsp 8 + .ra: .cfa -8 + ^
STACK CFI INIT 57570 6 .cfa: $rsp 8 + .ra: .cfa -8 + ^
STACK CFI INIT 5f690 33b .cfa: $rsp 8 + .ra: .cfa -8 + ^
STACK CFI 5f692 $r15: .cfa -16 + ^ .cfa: $rsp 16 +
STACK CFI 5f694 $r14: .cfa -24 + ^ .cfa: $rsp 24 +
STACK CFI 5f699 $r13: .cfa -32 + ^ .cfa: $rsp 32 +
STACK CFI 5f69b $r12: .cfa -40 + ^ .cfa: $rsp 40 +
STACK CFI 5f69f $rbp: .cfa -48 + ^ .cfa: $rsp 48 +
STACK CFI 5f6a0 $rbx: .cfa -56 + ^ .cfa: $rsp 56 +
STACK CFI 5f6aa .cfa: $rsp 192 +
STACK CFI 5f851 .cfa: $rsp 56 +
STACK CFI 5f852 .cfa: $rsp 48 +
STACK CFI 5f853 .cfa: $rsp 40 +
STACK CFI 5f855 .cfa: $rsp 32 +
STACK CFI 5f857 .cfa: $rsp 24 +
STACK CFI 5f859 .cfa: $rsp 16 +
STACK CFI 5f85b .cfa: $rsp 8 +
STACK CFI 5f860 .cfa: $rsp 192 +
STACK CFI INIT 57580 5 .cfa: $rsp 8 + .ra: .cfa -8 + ^
STACK CFI INIT 57590 6 .cfa: $rsp 8 + .ra: .cfa -8 + ^
STACK CFI INIT 5f9d0 152 .cfa: $rsp 8 + .ra: .cfa -8 + ^
STACK CFI 5f9d2 $r15: .cfa -16 + ^ .cfa: $rsp 16 +
STACK CFI 5f9d4 $r14: .cfa -24 + ^ .cfa: $rsp 24 +
STACK CFI 5f9d9 $r13: .cfa -32 + ^ .cfa: $rsp 32 +
STACK CFI 5f9db $r12: .cfa -40 + ^ .cfa: $rsp 40 +
STACK CFI 5f9df $rbp: .cfa -48 + ^ .cfa: $rsp 48 +
STACK CFI 5f9e0 $rbx: .cfa -56 + ^ .cfa: $rsp 56 +
STACK CFI 5f9f0 .cfa: $rsp 96 +
STACK CFI 5fa9b .cfa: $rsp 56 +
STACK CFI 5fa9c .cfa: $rsp 48 +
STACK CFI 5fa9d .cfa: $rsp 40 +
STACK CFI 5fa9f .cfa: $rsp 32 +
STACK CFI 5faa1 .cfa: $rsp 24 +
STACK CFI 5faa3 .cfa: $rsp 16 +
STACK CFI 5faa5 .cfa: $rsp 8 +
STACK CFI 5fab0 .cfa: $rsp 96 +
STACK CFI INIT 575a0 17f .cfa: $rsp 8 + .ra: .cfa -8 + ^
STACK CFI 575a2 $r12: .cfa -16 + ^ .cfa: $rsp 16 +
STACK CFI 575a3 $rbp: .cfa -24 + ^ .cfa: $rsp 24 +
STACK CFI 575a4 $rbx: .cfa -32 + ^ .cfa: $rsp 32 +
STACK CFI 575a8 .cfa: $rsp 112 +
STACK CFI 5760a .cfa: $rsp 32 +
STACK CFI 5760b .cfa: $rsp 24 +
STACK CFI 5760c .cfa: $rsp 16 +
STACK CFI 5760e .cfa: $rsp 8 +
STACK CFI 57610 .cfa: $rsp 112 +
STACK CFI INIT 57720 19 .cfa: $rsp 8 + .ra: .cfa -8 + ^
STACK CFI 57724 .cfa: $rsp 16 +
STACK CFI 57738 .cfa: $rsp 8 +
STACK CFI INIT 57740 6 .cfa: $rsp 8 + .ra: .cfa -8 + ^
STACK CFI INIT 57750 17f .cfa: $rsp 8 + .ra: .cfa -8 + ^
STACK CFI 57752 $r12: .cfa -16 + ^ .cfa: $rsp 16 +
STACK CFI 57753 $rbp: .cfa -24 + ^ .cfa: $rsp 24 +
STACK CFI 57754 $rbx: .cfa -32 + ^ .cfa: $rsp 32 +
STACK CFI 57758 .cfa: $rsp 112 +
STACK CFI 577b9 .cfa: $rsp 32 +
STACK CFI 577ba .cfa: $rsp 24 +
STACK CFI 577bb .cfa: $rsp 16 +
STACK CFI 577bd .cfa: $rsp 8 +
STACK CFI 577c0 .cfa: $rsp 112 +
STACK CFI INIT 578d0 17f .cfa: $rsp 8 + .ra: .cfa -8 + ^
STACK CFI 578d2 $r12: .cfa -16 + ^ .cfa: $rsp 16 +
STACK CFI 578d3 $rbp: .cfa -24 + ^ .cfa: $rsp 24 +
STACK CFI 578d4 $rbx: .cfa -32 + ^ .cfa: $rsp 32 +
STACK CFI 578d8 .cfa: $rsp 112 +
STACK CFI 5793a .cfa: $rsp 32 +
STACK CFI 5793b .cfa: $rsp 24 +
STACK CFI 5793c .cfa: $rsp 16 +
STACK CFI 5793e .cfa: $rsp 8 +
STACK CFI 57940 .cfa: $rsp 112 +
STACK CFI INIT 57a50 19 .cfa: $rsp 8 + .ra: .cfa -8 + ^
STACK CFI 57a54 .cfa: $rsp 16 +
STACK CFI 57a68 .cfa: $rsp 8 +
STACK CFI INIT 57a70 6 .cfa: $rsp 8 + .ra: .cfa -8 + ^
STACK CFI INIT 57a80 17f .cfa: $rsp 8 + .ra: .cfa -8 + ^
STACK CFI 57a82 $r12: .cfa -16 + ^ .cfa: $rsp 16 +
STACK CFI 57a83 $rbp: .cfa -24 + ^ .cfa: $rsp 24 +
STACK CFI 57a84 $rbx: .cfa -32 + ^ .cfa: $rsp 32 +
STACK CFI 57a88 .cfa: $rsp 112 +
STACK CFI 57ae9 .cfa: $rsp 32 +
STACK CFI 57aea .cfa: $rsp 24 +
STACK CFI 57aeb .cfa: $rsp 16 +
STACK CFI 57aed .cfa: $rsp 8 +
STACK CFI 57af0 .cfa: $rsp 112 +
STACK CFI INIT 5fb30 1ac .cfa: $rsp 8 + .ra: .cfa -8 + ^
STACK CFI 5fb32 $r15: .cfa -16 + ^ .cfa: $rsp 16 +
STACK CFI 5fb34 $r14: .cfa -24 + ^ .cfa: $rsp 24 +
STACK CFI 5fb39 $r13: .cfa -32 + ^ .cfa: $rsp 32 +
STACK CFI 5fb3b $r12: .cfa -40 + ^ .cfa: $rsp 40 +
STACK CFI 5fb3f $rbp: .cfa -48 + ^ .cfa: $rsp 48 +
STACK CFI 5fb40 $rbx: .cfa -56 + ^ .cfa: $rsp 56 +
STACK CFI 5fb4f .cfa: $rsp 96 +
STACK CFI 5fbe0 .cfa: $rsp 56 +
STACK CFI 5fbe1 .cfa: $rsp 48 +
STACK CFI 5fbe2 .cfa: $rsp 40 +
STACK CFI 5fbe4 .cfa: $rsp 32 +
STACK CFI 5fbe6 .cfa: $rsp 24 +
STACK CFI 5fbe8 .cfa: $rsp 16 +
STACK CFI 5fbea .cfa: $rsp 8 +
STACK CFI 5fbf0 .cfa: $rsp 96 +
STACK CFI INIT 57c00 1ad .cfa: $rsp 8 + .ra: .cfa -8 + ^
STACK CFI 57c02 $r13: .cfa -16 + ^ .cfa: $rsp 16 +
STACK CFI 57c04 $r12: .cfa -24 + ^ .cfa: $rsp 24 +
STACK CFI 57c05 $rbp: .cfa -32 + ^ .cfa: $rsp 32 +
STACK CFI 57c06 $rbx: .cfa -40 + ^ .cfa: $rsp 40 +
STACK CFI 57c0a .cfa: $rsp 80 +
STACK CFI 57c71 .cfa: $rsp 40 +
STACK CFI 57c72 .cfa: $rsp 32 +
STACK CFI 57c73 .cfa: $rsp 24 +
STACK CFI 57c75 .cfa: $rsp 16 +
STACK CFI 57c77 .cfa: $rsp 8 +
STACK CFI 57c80 .cfa: $rsp 80 +
STACK CFI INIT 57db0 19 .cfa: $rsp 8 + .ra: .cfa -8 + ^
STACK CFI 57db4 .cfa: $rsp 16 +
STACK CFI 57dc8 .cfa: $rsp 8 +
STACK CFI INIT 57dd0 6 .cfa: $rsp 8 + .ra: .cfa -8 + ^
STACK CFI INIT 57de0 1ad .cfa: $rsp 8 + .ra: .cfa -8 + ^
STACK CFI 57de2 $r13: .cfa -16 + ^ .cfa: $rsp 16 +
STACK CFI 57de4 $r12: .cfa -24 + ^ .cfa: $rsp 24 +
STACK CFI 57de5 $rbp: .cfa -32 + ^ .cfa: $rsp 32 +
STACK CFI 57de6 $rbx: .cfa -40 + ^ .cfa: $rsp 40 +
STACK CFI 57dea .cfa: $rsp 80 +
STACK CFI 57e51 .cfa: $rsp 40 +
STACK CFI 57e52 .cfa: $rsp 32 +
STACK CFI 57e53 .cfa: $rsp 24 +
STACK CFI 57e55 .cfa: $rsp 16 +
STACK CFI 57e57 .cfa: $rsp 8 +
STACK CFI 57e60 .cfa: $rsp 80 +
STACK CFI INIT 57f90 19 .cfa: $rsp 8 + .ra: .cfa -8 + ^
STACK CFI 57f94 .cfa: $rsp 16 +
STACK CFI 57fa8 .cfa: $rsp 8 +
STACK CFI INIT 57fb0 6 .cfa: $rsp 8 + .ra: .cfa -8 + ^
STACK CFI INIT 5fce0 33f .cfa: $rsp 8 + .ra: .cfa -8 + ^
STACK CFI 5fce2 $r13: .cfa -16 + ^ .cfa: $rsp 16 +
STACK CFI 5fce4 $r12: .cfa -24 + ^ .cfa: $rsp 24 +
STACK CFI 5fce8 $rbp: .cfa -32 + ^ .cfa: $rsp 32 +
STACK CFI 5fce9 $rbx: .cfa -40 + ^ .cfa: $rsp 40 +
STACK CFI 5fcf0 .cfa: $rsp 80 +
STACK CFI 5fdf8 .cfa: $rsp 40 +
STACK CFI 5fdf9 .cfa: $rsp 32 +
STACK CFI 5fdfa .cfa: $rsp 24 +
STACK CFI 5fdfc .cfa: $rsp 16 +
STACK CFI 5fdfe .cfa: $rsp 8 +
STACK CFI 5fe00 .cfa: $rsp 80 +
STACK CFI INIT 57fc0 36 .cfa: $rsp 8 + .ra: .cfa -8 + ^
STACK CFI 57fc4 .cfa: $rsp 32 +
STACK CFI 57ff0 .cfa: $rsp 8 +
STACK CFI 57ff1 .cfa: $rsp 32 +
STACK CFI INIT 60020 33f .cfa: $rsp 8 + .ra: .cfa -8 + ^
STACK CFI 60022 $r13: .cfa -16 + ^ .cfa: $rsp 16 +
STACK CFI 60024 $r12: .cfa -24 + ^ .cfa: $rsp 24 +
STACK CFI 60028 $rbp: .cfa -32 + ^ .cfa: $rsp 32 +
STACK CFI 60029 $rbx: .cfa -40 + ^ .cfa: $rsp 40 +
STACK CFI 60030 .cfa: $rsp 80 +
STACK CFI 60138 .cfa: $rsp 40 +
STACK CFI 60139 .cfa: $rsp 32 +
STACK CFI 6013a .cfa: $rsp 24 +
STACK CFI 6013c .cfa: $rsp 16 +
STACK CFI 6013e .cfa: $rsp 8 +
STACK CFI 60140 .cfa: $rsp 80 +
STACK CFI INIT 58000 36 .cfa: $rsp 8 + .ra: .cfa -8 + ^
STACK CFI 58004 .cfa: $rsp 32 +
STACK CFI 58030 .cfa: $rsp 8 +
STACK CFI 58031 .cfa: $rsp 32 +
STACK CFI INIT 60360 33f .cfa: $rsp 8 + .ra: .cfa -8 + ^
STACK CFI 60362 $r13: .cfa -16 + ^ .cfa: $rsp 16 +
STACK CFI 60364 $r12: .cfa -24 + ^ .cfa: $rsp 24 +
STACK CFI 60368 $rbp: .cfa -32 + ^ .cfa: $rsp 32 +
STACK CFI 60369 $rbx: .cfa -40 + ^ .cfa: $rsp 40 +
STACK CFI 60370 .cfa: $rsp 80 +
STACK CFI 60478 .cfa: $rsp 40 +
STACK CFI 60479 .cfa: $rsp 32 +
STACK CFI 6047a .cfa: $rsp 24 +
STACK CFI 6047c .cfa: $rsp 16 +
STACK CFI 6047e .cfa: $rsp 8 +
STACK CFI 60480 .cfa: $rsp 80 +
STACK CFI INIT 58040 36 .cfa: $rsp 8 + .ra: .cfa -8 + ^
STACK CFI 58044 .cfa: $rsp 32 +
STACK CFI 58070 .cfa: $rsp 8 +
STACK CFI 58071 .cfa: $rsp 32 +
STACK CFI INIT 606a0 33f .cfa: $rsp 8 + .ra: .cfa -8 + ^
STACK CFI 606a2 $r13: .cfa -16 + ^ .cfa: $rsp 16 +
STACK CFI 606a4 $r12: .cfa -24 + ^ .cfa: $rsp 24 +
STACK CFI 606a8 $rbp: .cfa -32 + ^ .cfa: $rsp 32 +
STACK CFI 606a9 $rbx: .cfa -40 + ^ .cfa: $rsp 40 +
STACK CFI 606b0 .cfa: $rsp 80 +
STACK CFI 607b8 .cfa: $rsp 40 +
STACK CFI 607b9 .cfa: $rsp 32 +
STACK CFI 607ba .cfa: $rsp 24 +
STACK CFI 607bc .cfa: $rsp 16 +
STACK CFI 607be .cfa: $rsp 8 +
STACK CFI 607c0 .cfa: $rsp 80 +
STACK CFI INIT 58080 36 .cfa: $rsp 8 + .ra: .cfa -8 + ^
STACK CFI 58084 .cfa: $rsp 32 +
STACK CFI 580b0 .cfa: $rsp 8 +
STACK CFI 580b1 .cfa: $rsp 32 +
STACK CFI INIT 609e0 33f .cfa: $rsp 8 + .ra: .cfa -8 + ^
STACK CFI 609e2 $r13: .cfa -16 + ^ .cfa: $rsp 16 +
STACK CFI 609e4 $r12: .cfa -24 + ^ .cfa: $rsp 24 +
STACK CFI 609e8 $rbp: .cfa -32 + ^ .cfa: $rsp 32 +
STACK CFI 609e9 $rbx: .cfa -40 + ^ .cfa: $rsp 40 +
STACK CFI 609f0 .cfa: $rsp 80 +
STACK CFI 60af8 .cfa: $rsp 40 +
STACK CFI 60af9 .cfa: $rsp 32 +
STACK CFI 60afa .cfa: $rsp 24 +
STACK CFI 60afc .cfa: $rsp 16 +
STACK CFI 60afe .cfa: $rsp 8 +
STACK CFI 60b00 .cfa: $rsp 80 +
STACK CFI INIT 580c0 36 .cfa: $rsp 8 + .ra: .cfa -8 + ^
STACK CFI 580c4 .cfa: $rsp 32 +
STACK CFI 580f0 .cfa: $rsp 8 +
STACK CFI 580f1 .cfa: $rsp 32 +
STACK CFI INIT 60d20 3a .cfa: $rsp 8 + .ra: .cfa -8 + ^
STACK CFI 60d27 $r12: .cfa -16 + ^ .cfa: $rsp 16 +
STACK CFI 60d2b $rbp: .cfa -24 + ^ .cfa: $rsp 24 +
STACK CFI 60d2c $rbx: .cfa -32 + ^ .cfa: $rsp 32 +
STACK CFI 60d50 .cfa: $rsp 24 +
STACK CFI 60d51 .cfa: $rsp 16 +
STACK CFI 60d53 .cfa: $rsp 8 +
STACK CFI 60d58 $r12: $r12 $rbp: $rbp $rbx: $rbx
STACK CFI INIT 58100 b3 .cfa: $rsp 8 + .ra: .cfa -8 + ^
STACK CFI 58102 $r13: .cfa -16 + ^ .cfa: $rsp 16 +
STACK CFI 58104 $r12: .cfa -24 + ^ .cfa: $rsp 24 +
STACK CFI 58105 $rbp: .cfa -32 + ^ .cfa: $rsp 32 +
STACK CFI 58106 $rbx: .cfa -40 + ^ .cfa: $rsp 40 +
STACK CFI 5810d .cfa: $rsp 48 +
STACK CFI 581a4 .cfa: $rsp 40 +
STACK CFI 581a9 .cfa: $rsp 32 +
STACK CFI 581aa .cfa: $rsp 24 +
STACK CFI 581ac .cfa: $rsp 16 +
STACK CFI 581ae .cfa: $rsp 8 +
STACK CFI INIT 581c0 17 .cfa: $rsp 8 + .ra: .cfa -8 + ^
STACK CFI 581c1 $rbx: .cfa -16 + ^ .cfa: $rsp 16 +
STACK CFI 581d2 .cfa: $rsp 8 +
STACK CFI INIT 60d60 3a .cfa: $rsp 8 + .ra: .cfa -8 + ^
STACK CFI 60d67 $r12: .cfa -16 + ^ .cfa: $rsp 16 +
STACK CFI 60d6b $rbp: .cfa -24 + ^ .cfa: $rsp 24 +
STACK CFI 60d6c $rbx: .cfa -32 + ^ .cfa: $rsp 32 +
STACK CFI 60d90 .cfa: $rsp 24 +
STACK CFI 60d91 .cfa: $rsp 16 +
STACK CFI 60d93 .cfa: $rsp 8 +
STACK CFI 60d98 $r12: $r12 $rbp: $rbp $rbx: $rbx
STACK CFI INIT 581e0 dd .cfa: $rsp 8 + .ra: .cfa -8 + ^
STACK CFI 581e9 $r12: .cfa -16 + ^ .cfa: $rsp 16 +
STACK CFI 581ea $rbp: .cfa -24 + ^ .cfa: $rsp 24 +
STACK CFI 581eb $rbx: .cfa -32 + ^ .cfa: $rsp 32 +
STACK CFI 582a3 .cfa: $rsp 24 +
STACK CFI 582ac .cfa: $rsp 16 +
STACK CFI 582ae .cfa: $rsp 8 +
STACK CFI 582b8 .cfa: $rsp 32 +
STACK CFI 582b9 .cfa: $rsp 24 +
STACK CFI 582ba .cfa: $rsp 16 +
STACK CFI 582bc .cfa: $rsp 8 +
STACK CFI INIT 582c0 9 .cfa: $rsp 8 + .ra: .cfa -8 + ^
STACK CFI INIT 582d0 17 .cfa: $rsp 8 + .ra: .cfa -8 + ^
STACK CFI 582d1 $rbx: .cfa -16 + ^ .cfa: $rsp 16 +
STACK CFI 582e2 .cfa: $rsp 8 +
STACK CFI INIT 582f0 6 .cfa: $rsp 8 + .ra: .cfa -8 + ^
STACK CFI INIT 58300 e5 .cfa: $rsp 8 + .ra: .cfa -8 + ^
STACK CFI 58302 $r12: .cfa -16 + ^ .cfa: $rsp 16 +
STACK CFI 5830a $rbp: .cfa -24 + ^ .cfa: $rsp 24 +
STACK CFI 5830b $rbx: .cfa -32 + ^ .cfa: $rsp 32 +
STACK CFI 583d0 .cfa: $rsp 24 +
STACK CFI 583d9 .cfa: $rsp 16 +
STACK CFI 583db .cfa: $rsp 8 +
STACK CFI 583e0 .cfa: $rsp 32 +
STACK CFI 583e1 .cfa: $rsp 24 +
STACK CFI 583e2 .cfa: $rsp 16 +
STACK CFI 583e4 .cfa: $rsp 8 +
STACK CFI INIT 583f0 17 .cfa: $rsp 8 + .ra: .cfa -8 + ^
STACK CFI 583f1 $rbx: .cfa -16 + ^ .cfa: $rsp 16 +
STACK CFI 58402 .cfa: $rsp 8 +
STACK CFI INIT 58410 a5 .cfa: $rsp 8 + .ra: .cfa -8 + ^
STACK CFI 58419 $r12: .cfa -16 + ^ .cfa: $rsp 16 +
STACK CFI 5841a $rbp: .cfa -24 + ^ .cfa: $rsp 24 +
STACK CFI 5841b $rbx: .cfa -32 + ^ .cfa: $rsp 32 +
STACK CFI 584a0 .cfa: $rsp 24 +
STACK CFI 584a9 .cfa: $rsp 16 +
STACK CFI 584ab .cfa: $rsp 8 +
STACK CFI 584b0 .cfa: $rsp 32 +
STACK CFI 584b1 .cfa: $rsp 24 +
STACK CFI 584b2 .cfa: $rsp 16 +
STACK CFI 584b4 .cfa: $rsp 8 +
STACK CFI INIT 584c0 9 .cfa: $rsp 8 + .ra: .cfa -8 + ^
STACK CFI INIT 584d0 17 .cfa: $rsp 8 + .ra: .cfa -8 + ^
STACK CFI 584d1 $rbx: .cfa -16 + ^ .cfa: $rsp 16 +
STACK CFI 584e2 .cfa: $rsp 8 +
STACK CFI INIT 584f0 6 .cfa: $rsp 8 + .ra: .cfa -8 + ^
STACK CFI INIT 58500 95 .cfa: $rsp 8 + .ra: .cfa -8 + ^
STACK CFI 58502 $r12: .cfa -16 + ^ .cfa: $rsp 16 +
STACK CFI 5850a $rbp: .cfa -24 + ^ .cfa: $rsp 24 +
STACK CFI 5850b $rbx: .cfa -32 + ^ .cfa: $rsp 32 +
STACK CFI 58580 .cfa: $rsp 24 +
STACK CFI 58589 .cfa: $rsp 16 +
STACK CFI 5858b .cfa: $rsp 8 +
STACK CFI 58590 .cfa: $rsp 32 +
STACK CFI 58591 .cfa: $rsp 24 +
STACK CFI 58592 .cfa: $rsp 16 +
STACK CFI 58594 .cfa: $rsp 8 +
STACK CFI INIT 585a0 17 .cfa: $rsp 8 + .ra: .cfa -8 + ^
STACK CFI 585a1 $rbx: .cfa -16 + ^ .cfa: $rsp 16 +
STACK CFI 585b2 .cfa: $rsp 8 +
STACK CFI INIT 60da0 16f .cfa: $rsp 8 + .ra: .cfa -8 + ^
STACK CFI 60da2 $r15: .cfa -16 + ^ .cfa: $rsp 16 +
STACK CFI 60da4 $r14: .cfa -24 + ^ .cfa: $rsp 24 +
STACK CFI 60da9 $r13: .cfa -32 + ^ .cfa: $rsp 32 +
STACK CFI 60dab $r12: .cfa -40 + ^ .cfa: $rsp 40 +
STACK CFI 60db3 $rbp: .cfa -48 + ^ .cfa: $rsp 48 +
STACK CFI 60db4 $rbx: .cfa -56 + ^ .cfa: $rsp 56 +
STACK CFI 60db8 .cfa: $rsp 64 +
STACK CFI 60eef .cfa: $rsp 56 +
STACK CFI 60ef0 .cfa: $rsp 48 +
STACK CFI 60ef1 .cfa: $rsp 40 +
STACK CFI 60ef3 .cfa: $rsp 32 +
STACK CFI 60ef5 .cfa: $rsp 24 +
STACK CFI 60ef7 .cfa: $rsp 16 +
STACK CFI 60ef9 .cfa: $rsp 8 +
STACK CFI 60f00 .cfa: $rsp 64 +
STACK CFI 60f04 .cfa: $rsp 56 +
STACK CFI 60f05 .cfa: $rsp 48 +
STACK CFI 60f06 .cfa: $rsp 40 +
STACK CFI 60f08 .cfa: $rsp 32 +
STACK CFI 60f0a .cfa: $rsp 24 +
STACK CFI 60f0c .cfa: $rsp 16 +
STACK CFI 60f0e .cfa: $rsp 8 +
STACK CFI INIT 60f10 16b .cfa: $rsp 8 + .ra: .cfa -8 + ^
STACK CFI 60f12 $r15: .cfa -16 + ^ .cfa: $rsp 16 +
STACK CFI 60f14 $r14: .cfa -24 + ^ .cfa: $rsp 24 +
STACK CFI 60f19 $r13: .cfa -32 + ^ .cfa: $rsp 32 +
STACK CFI 60f1b $r12: .cfa -40 + ^ .cfa: $rsp 40 +
STACK CFI 60f23 $rbp: .cfa -48 + ^ .cfa: $rsp 48 +
STACK CFI 60f24 $rbx: .cfa -56 + ^ .cfa: $rsp 56 +
STACK CFI 60f28 .cfa: $rsp 64 +
STACK CFI 61064 .cfa: $rsp 56 +
STACK CFI 6106d .cfa: $rsp 48 +
STACK CFI 6106e .cfa: $rsp 40 +
STACK CFI 61070 .cfa: $rsp 32 +
STACK CFI 61072 .cfa: $rsp 24 +
STACK CFI 61074 .cfa: $rsp 16 +
STACK CFI 61076 .cfa: $rsp 8 +
STACK CFI INIT 61080 12e .cfa: $rsp 8 + .ra: .cfa -8 + ^
STACK CFI 61082 $r15: .cfa -16 + ^ .cfa: $rsp 16 +
STACK CFI 61084 $r14: .cfa -24 + ^ .cfa: $rsp 24 +
STACK CFI 61089 $r13: .cfa -32 + ^ .cfa: $rsp 32 +
STACK CFI 6108b $r12: .cfa -40 + ^ .cfa: $rsp 40 +
STACK CFI 6108f $rbp: .cfa -48 + ^ .cfa: $rsp 48 +
STACK CFI 61090 $rbx: .cfa -56 + ^ .cfa: $rsp 56 +
STACK CFI 61097 .cfa: $rsp 80 +
STACK CFI 6115c .cfa: $rsp 56 +
STACK CFI 6115d .cfa: $rsp 48 +
STACK CFI 6115e .cfa: $rsp 40 +
STACK CFI 61160 .cfa: $rsp 32 +
STACK CFI 61162 .cfa: $rsp 24 +
STACK CFI 61164 .cfa: $rsp 16 +
STACK CFI 61166 .cfa: $rsp 8 +
STACK CFI 61170 .cfa: $rsp 80 +
STACK CFI INIT 611b0 13e .cfa: $rsp 8 + .ra: .cfa -8 + ^
STACK CFI 611b2 $r15: .cfa -16 + ^ .cfa: $rsp 16 +
STACK CFI 611b4 $r14: .cfa -24 + ^ .cfa: $rsp 24 +
STACK CFI 611b6 $r13: .cfa -32 + ^ .cfa: $rsp 32 +
STACK CFI 611b8 $r12: .cfa -40 + ^ .cfa: $rsp 40 +
STACK CFI 611bc $rbp: .cfa -48 + ^ .cfa: $rsp 48 +
STACK CFI 611bd $rbx: .cfa -56 + ^ .cfa: $rsp 56 +
STACK CFI 611d1 .cfa: $rsp 80 +
STACK CFI 612a4 .cfa: $rsp 56 +
STACK CFI 612a5 .cfa: $rsp 48 +
STACK CFI 612a6 .cfa: $rsp 40 +
STACK CFI 612a8 .cfa: $rsp 32 +
STACK CFI 612aa .cfa: $rsp 24 +
STACK CFI 612ac .cfa: $rsp 16 +
STACK CFI 612ae .cfa: $rsp 8 +
STACK CFI 612b0 .cfa: $rsp 80 +
STACK CFI INIT 612f0 418 .cfa: $rsp 8 + .ra: .cfa -8 + ^
STACK CFI 612f2 $r15: .cfa -16 + ^ .cfa: $rsp 16 +
STACK CFI 612f4 $r14: .cfa -24 + ^ .cfa: $rsp 24 +
STACK CFI 61300 $r13: .cfa -32 + ^ .cfa: $rsp 32 +
STACK CFI 61302 $r12: .cfa -40 + ^ .cfa: $rsp 40 +
STACK CFI 61306 $rbp: .cfa -48 + ^ .cfa: $rsp 48 +
STACK CFI 61307 $rbx: .cfa -56 + ^ .cfa: $rsp 56 +
STACK CFI 61311 .cfa: $rsp 96 +
STACK CFI 6160e .cfa: $rsp 56 +
STACK CFI 6160f .cfa: $rsp 48 +
STACK CFI 61610 .cfa: $rsp 40 +
STACK CFI 61612 .cfa: $rsp 32 +
STACK CFI 61614 .cfa: $rsp 24 +
STACK CFI 61616 .cfa: $rsp 16 +
STACK CFI 61618 .cfa: $rsp 8 +
STACK CFI 61619 .cfa: $rsp 96 +
STACK CFI INIT 61710 4a .cfa: $rsp 8 + .ra: .cfa -8 + ^
STACK CFI 61717 $r12: .cfa -16 + ^ .cfa: $rsp 16 +
STACK CFI 6171b $rbp: .cfa -24 + ^ .cfa: $rsp 24 +
STACK CFI 6171c $rbx: .cfa -32 + ^ .cfa: $rsp 32 +
STACK CFI 6174f .cfa: $rsp 24 +
STACK CFI 61750 .cfa: $rsp 16 +
STACK CFI 61752 .cfa: $rsp 8 +
STACK CFI 61758 $r12: $r12 $rbp: $rbp $rbx: $rbx
STACK CFI INIT 585c0 f6 .cfa: $rsp 8 + .ra: .cfa -8 + ^
STACK CFI 585c1 $rbp: .cfa -16 + ^ .cfa: $rsp 16 +
STACK CFI 585c2 $rbx: .cfa -24 + ^ .cfa: $rsp 24 +
STACK CFI 585c9 .cfa: $rsp 48 +
STACK CFI 586ae .cfa: $rsp 24 +
STACK CFI 586af .cfa: $rsp 16 +
STACK CFI 586b0 .cfa: $rsp 8 +
STACK CFI 586b1 .cfa: $rsp 48 +
STACK CFI INIT 586c0 17 .cfa: $rsp 8 + .ra: .cfa -8 + ^
STACK CFI 586c1 $rbx: .cfa -16 + ^ .cfa: $rsp 16 +
STACK CFI 586d2 .cfa: $rsp 8 +
STACK CFI INIT 586e0 393 .cfa: $rsp 8 + .ra: .cfa -8 + ^
STACK CFI 586e2 $r15: .cfa -16 + ^ .cfa: $rsp 16 +
STACK CFI 586e4 $r14: .cfa -24 + ^ .cfa: $rsp 24 +
STACK CFI 586e9 $r13: .cfa -32 + ^ .cfa: $rsp 32 +
STACK CFI 586eb $r12: .cfa -40 + ^ .cfa: $rsp 40 +
STACK CFI 586ec $rbp: .cfa -48 + ^ .cfa: $rsp 48 +
STACK CFI 586ed $rbx: .cfa -56 + ^ .cfa: $rsp 56 +
STACK CFI 586f7 .cfa: $rsp 144 +
STACK CFI 587b1 .cfa: $rsp 56 +
STACK CFI 587b2 .cfa: $rsp 48 +
STACK CFI 587b3 .cfa: $rsp 40 +
STACK CFI 587b5 .cfa: $rsp 32 +
STACK CFI 587b7 .cfa: $rsp 24 +
STACK CFI 587b9 .cfa: $rsp 16 +
STACK CFI 587bb .cfa: $rsp 8 +
STACK CFI 587c0 .cfa: $rsp 144 +
STACK CFI INIT 61760 316 .cfa: $rsp 8 + .ra: .cfa -8 + ^
STACK CFI 61762 $r15: .cfa -16 + ^ .cfa: $rsp 16 +
STACK CFI 61764 $r14: .cfa -24 + ^ .cfa: $rsp 24 +
STACK CFI 61766 $r13: .cfa -32 + ^ .cfa: $rsp 32 +
STACK CFI 61768 $r12: .cfa -40 + ^ .cfa: $rsp 40 +
STACK CFI 61769 $rbp: .cfa -48 + ^ .cfa: $rsp 48 +
STACK CFI 6176a $rbx: .cfa -56 + ^ .cfa: $rsp 56 +
STACK CFI 61771 .cfa: $rsp 112 +
STACK CFI 618fa .cfa: $rsp 56 +
STACK CFI 61900 .cfa: $rsp 48 +
STACK CFI 61901 .cfa: $rsp 40 +
STACK CFI 61903 .cfa: $rsp 32 +
STACK CFI 61905 .cfa: $rsp 24 +
STACK CFI 61907 .cfa: $rsp 16 +
STACK CFI 61909 .cfa: $rsp 8 +
STACK CFI 61910 .cfa: $rsp 112 +
STACK CFI 619c8 .cfa: $rsp 56 +
STACK CFI 619cc .cfa: $rsp 48 +
STACK CFI 619cd .cfa: $rsp 40 +
STACK CFI 619cf .cfa: $rsp 32 +
STACK CFI 619d1 .cfa: $rsp 24 +
STACK CFI 619d3 .cfa: $rsp 16 +
STACK CFI 619d5 .cfa: $rsp 8 +
STACK CFI 619e0 .cfa: $rsp 112 +
STACK CFI INIT 58a80 71e .cfa: $rsp 8 + .ra: .cfa -8 + ^
STACK CFI 58a82 $r15: .cfa -16 + ^ .cfa: $rsp 16 +
STACK CFI 58a84 $r14: .cfa -24 + ^ .cfa: $rsp 24 +
STACK CFI 58a86 $r13: .cfa -32 + ^ .cfa: $rsp 32 +
STACK CFI 58a88 $r12: .cfa -40 + ^ .cfa: $rsp 40 +
STACK CFI 58a8c $rbp: .cfa -48 + ^ .cfa: $rsp 48 +
STACK CFI 58a8d $rbx: .cfa -56 + ^ .cfa: $rsp 56 +
STACK CFI 58a9d .cfa: $rsp 304 +
STACK CFI 58b54 .cfa: $rsp 56 +
STACK CFI 58b55 .cfa: $rsp 48 +
STACK CFI 58b56 .cfa: $rsp 40 +
STACK CFI 58b58 .cfa: $rsp 32 +
STACK CFI 58b5a .cfa: $rsp 24 +
STACK CFI 58b5c .cfa: $rsp 16 +
STACK CFI 58b5e .cfa: $rsp 8 +
STACK CFI 58b60 .cfa: $rsp 304 +
STACK CFI INIT 61a80 12e .cfa: $rsp 8 + .ra: .cfa -8 + ^
STACK CFI 61a82 $r15: .cfa -16 + ^ .cfa: $rsp 16 +
STACK CFI 61a84 $r14: .cfa -24 + ^ .cfa: $rsp 24 +
STACK CFI 61a89 $r13: .cfa -32 + ^ .cfa: $rsp 32 +
STACK CFI 61a8b $r12: .cfa -40 + ^ .cfa: $rsp 40 +
STACK CFI 61a8f $rbp: .cfa -48 + ^ .cfa: $rsp 48 +
STACK CFI 61a90 $rbx: .cfa -56 + ^ .cfa: $rsp 56 +
STACK CFI 61a97 .cfa: $rsp 80 +
STACK CFI 61b5d .cfa: $rsp 56 +
STACK CFI 61b5e .cfa: $rsp 48 +
STACK CFI 61b5f .cfa: $rsp 40 +
STACK CFI 61b61 .cfa: $rsp 32 +
STACK CFI 61b63 .cfa: $rsp 24 +
STACK CFI 61b65 .cfa: $rsp 16 +
STACK CFI 61b67 .cfa: $rsp 8 +
STACK CFI 61b70 .cfa: $rsp 80 +
STACK CFI INIT 591a0 647 .cfa: $rsp 8 + .ra: .cfa -8 + ^
STACK CFI 591a2 $r15: .cfa -16 + ^ .cfa: $rsp 16 +
STACK CFI 591a4 $r14: .cfa -24 + ^ .cfa: $rsp 24 +
STACK CFI 591a6 $r13: .cfa -32 + ^ .cfa: $rsp 32 +
STACK CFI 591a8 $r12: .cfa -40 + ^ .cfa: $rsp 40 +
STACK CFI 591ac $rbp: .cfa -48 + ^ .cfa: $rsp 48 +
STACK CFI 591ad $rbx: .cfa -56 + ^ .cfa: $rsp 56 +
STACK CFI 591b7 .cfa: $rsp 192 +
STACK CFI 59300 .cfa: $rsp 56 +
STACK CFI 59301 .cfa: $rsp 48 +
STACK CFI 59302 .cfa: $rsp 40 +
STACK CFI 59304 .cfa: $rsp 32 +
STACK CFI 59306 .cfa: $rsp 24 +
STACK CFI 59308 .cfa: $rsp 16 +
STACK CFI 5930a .cfa: $rsp 8 +
STACK CFI 59310 .cfa: $rsp 192 +
STACK CFI INIT 61bb0 33f .cfa: $rsp 8 + .ra: .cfa -8 + ^
STACK CFI 61bb2 $r13: .cfa -16 + ^ .cfa: $rsp 16 +
STACK CFI 61bb4 $r12: .cfa -24 + ^ .cfa: $rsp 24 +
STACK CFI 61bb8 $rbp: .cfa -32 + ^ .cfa: $rsp 32 +
STACK CFI 61bb9 $rbx: .cfa -40 + ^ .cfa: $rsp 40 +
STACK CFI 61bc0 .cfa: $rsp 80 +
STACK CFI 61cc8 .cfa: $rsp 40 +
STACK CFI 61cc9 .cfa: $rsp 32 +
STACK CFI 61cca .cfa: $rsp 24 +
STACK CFI 61ccc .cfa: $rsp 16 +
STACK CFI 61cce .cfa: $rsp 8 +
STACK CFI 61cd0 .cfa: $rsp 80 +
STACK CFI INIT 597f0 36 .cfa: $rsp 8 + .ra: .cfa -8 + ^
STACK CFI 597f4 .cfa: $rsp 32 +
STACK CFI 59820 .cfa: $rsp 8 +
STACK CFI 59821 .cfa: $rsp 32 +
STACK CFI INIT 61ef0 89 .cfa: $rsp 8 + .ra: .cfa -8 + ^
STACK CFI 61ef1 $rbp: .cfa -16 + ^ .cfa: $rsp 16 +
STACK CFI 61ef2 $rbx: .cfa -24 + ^ .cfa: $rsp 24 +
STACK CFI 61ef6 .cfa: $rsp 32 +
STACK CFI 61f4a .cfa: $rsp 24 +
STACK CFI 61f4b .cfa: $rsp 16 +
STACK CFI 61f4c .cfa: $rsp 8 +
STACK CFI 61f50 .cfa: $rsp 32 +
STACK CFI INIT 61f80 e0 .cfa: $rsp 8 + .ra: .cfa -8 + ^
STACK CFI 61f82 $r13: .cfa -16 + ^ .cfa: $rsp 16 +
STACK CFI 61f88 $r12: .cfa -24 + ^ .cfa: $rsp 24 +
STACK CFI 61f89 $rbp: .cfa -32 + ^ .cfa: $rsp 32 +
STACK CFI 61f8a $rbx: .cfa -40 + ^ .cfa: $rsp 40 +
STACK CFI 61f94 .cfa: $rsp 48 +
STACK CFI 61fd8 .cfa: $rsp 40 +
STACK CFI 61fd9 .cfa: $rsp 32 +
STACK CFI 61fda .cfa: $rsp 24 +
STACK CFI 61fdc .cfa: $rsp 16 +
STACK CFI 61fde .cfa: $rsp 8 +
STACK CFI 61fe0 .cfa: $rsp 48 +
STACK CFI 6202e .cfa: $rsp 40 +
STACK CFI 62035 .cfa: $rsp 32 +
STACK CFI 62036 .cfa: $rsp 24 +
STACK CFI 62038 .cfa: $rsp 16 +
STACK CFI 6203a .cfa: $rsp 8 +
STACK CFI 62040 .cfa: $rsp 48 +
STACK CFI 62044 .cfa: $rsp 40 +
STACK CFI 6204a .cfa: $rsp 32 +
STACK CFI 6204b .cfa: $rsp 24 +
STACK CFI 6204d .cfa: $rsp 16 +
STACK CFI 6204f .cfa: $rsp 8 +
STACK CFI 62050 .cfa: $rsp 48 +
STACK CFI 62054 .cfa: $rsp 40 +
STACK CFI 6205a .cfa: $rsp 32 +
STACK CFI 6205b .cfa: $rsp 24 +
STACK CFI 6205d .cfa: $rsp 16 +
STACK CFI 6205f .cfa: $rsp 8 +
STACK CFI INIT 59830 a5 .cfa: $rsp 8 + .ra: .cfa -8 + ^
STACK CFI 59832 $r13: .cfa -16 + ^ .cfa: $rsp 16 +
STACK CFI 59834 $r12: .cfa -24 + ^ .cfa: $rsp 24 +
STACK CFI 59838 $rbp: .cfa -32 + ^ .cfa: $rsp 32 +
STACK CFI 59839 $rbx: .cfa -40 + ^ .cfa: $rsp 40 +
STACK CFI 59848 .cfa: $rsp 64 +
STACK CFI 59894 .cfa: $rsp 40 +
STACK CFI 59898 .cfa: $rsp 32 +
STACK CFI 59899 .cfa: $rsp 24 +
STACK CFI 5989b .cfa: $rsp 16 +
STACK CFI 5989d .cfa: $rsp 8 +
STACK CFI 598a0 .cfa: $rsp 64 +
STACK CFI 598ce .cfa: $rsp 40 +
STACK CFI 598cf .cfa: $rsp 32 +
STACK CFI 598d0 .cfa: $rsp 24 +
STACK CFI 598d2 .cfa: $rsp 16 +
STACK CFI 598d4 .cfa: $rsp 8 +
STACK CFI INIT 598e0 9a .cfa: $rsp 8 + .ra: .cfa -8 + ^
STACK CFI 598e4 .cfa: $rsp 48 +
STACK CFI 59967 .cfa: $rsp 8 +
STACK CFI 59970 .cfa: $rsp 48 +
STACK CFI INIT 59980 934 .cfa: $rsp 8 + .ra: .cfa -8 + ^
STACK CFI 59982 $r15: .cfa -16 + ^ .cfa: $rsp 16 +
STACK CFI 59984 $r14: .cfa -24 + ^ .cfa: $rsp 24 +
STACK CFI 59989 $r13: .cfa -32 + ^ .cfa: $rsp 32 +
STACK CFI 5998b $r12: .cfa -40 + ^ .cfa: $rsp 40 +
STACK CFI 5998c $rbp: .cfa -48 + ^ .cfa: $rsp 48 +
STACK CFI 5998d $rbx: .cfa -56 + ^ .cfa: $rsp 56 +
STACK CFI 5999b .cfa: $rsp 256 +
STACK CFI 59b13 .cfa: $rsp 56 +
STACK CFI 59b14 .cfa: $rsp 48 +
STACK CFI 59b15 .cfa: $rsp 40 +
STACK CFI 59b17 .cfa: $rsp 32 +
STACK CFI 59b19 .cfa: $rsp 24 +
STACK CFI 59b1b .cfa: $rsp 16 +
STACK CFI 59b1d .cfa: $rsp 8 +
STACK CFI 59b20 .cfa: $rsp 256 +
STACK CFI INIT 62060 33f .cfa: $rsp 8 + .ra: .cfa -8 + ^
STACK CFI 62062 $r13: .cfa -16 + ^ .cfa: $rsp 16 +
STACK CFI 62064 $r12: .cfa -24 + ^ .cfa: $rsp 24 +
STACK CFI 62068 $rbp: .cfa -32 + ^ .cfa: $rsp 32 +
STACK CFI 62069 $rbx: .cfa -40 + ^ .cfa: $rsp 40 +
STACK CFI 62070 .cfa: $rsp 80 +
STACK CFI 62178 .cfa: $rsp 40 +
STACK CFI 62179 .cfa: $rsp 32 +
STACK CFI 6217a .cfa: $rsp 24 +
STACK CFI 6217c .cfa: $rsp 16 +
STACK CFI 6217e .cfa: $rsp 8 +
STACK CFI 62180 .cfa: $rsp 80 +
STACK CFI INIT 5a2c0 36 .cfa: $rsp 8 + .ra: .cfa -8 + ^
STACK CFI 5a2c4 .cfa: $rsp 32 +
STACK CFI 5a2f0 .cfa: $rsp 8 +
STACK CFI 5a2f1 .cfa: $rsp 32 +
STACK CFI INIT 623a0 11f .cfa: $rsp 8 + .ra: .cfa -8 + ^
STACK CFI 623a2 $r15: .cfa -16 + ^ .cfa: $rsp 16 +
STACK CFI 623a4 $r14: .cfa -24 + ^ .cfa: $rsp 24 +
STACK CFI 623aa $r13: .cfa -32 + ^ .cfa: $rsp 32 +
STACK CFI 623ac $r12: .cfa -40 + ^ .cfa: $rsp 40 +
STACK CFI 623b0 $rbp: .cfa -48 + ^ .cfa: $rsp 48 +
STACK CFI 623b1 $rbx: .cfa -56 + ^ .cfa: $rsp 56 +
STACK CFI 623b8 .cfa: $rsp 64 +
STACK CFI 62408 .cfa: $rsp 56 +
STACK CFI 6240e .cfa: $rsp 48 +
STACK CFI 6240f .cfa: $rsp 40 +
STACK CFI 62411 .cfa: $rsp 32 +
STACK CFI 62413 .cfa: $rsp 24 +
STACK CFI 62415 .cfa: $rsp 16 +
STACK CFI 62417 .cfa: $rsp 8 +
STACK CFI 62420 .cfa: $rsp 64 +
STACK CFI 6248b .cfa: $rsp 56 +
STACK CFI 62494 .cfa: $rsp 48 +
STACK CFI 62495 .cfa: $rsp 40 +
STACK CFI 62497 .cfa: $rsp 32 +
STACK CFI 62499 .cfa: $rsp 24 +
STACK CFI 6249b .cfa: $rsp 16 +
STACK CFI 6249d .cfa: $rsp 8 +
STACK CFI 624a0 .cfa: $rsp 64 +
STACK CFI INIT 624c0 4bb .cfa: $rsp 8 + .ra: .cfa -8 + ^
STACK CFI 624c2 $r15: .cfa -16 + ^ .cfa: $rsp 16 +
STACK CFI 624c4 $r14: .cfa -24 + ^ .cfa: $rsp 24 +
STACK CFI 624c6 $r13: .cfa -32 + ^ .cfa: $rsp 32 +
STACK CFI 624c8 $r12: .cfa -40 + ^ .cfa: $rsp 40 +
STACK CFI 624cc $rbp: .cfa -48 + ^ .cfa: $rsp 48 +
STACK CFI 624cd $rbx: .cfa -56 + ^ .cfa: $rsp 56 +
STACK CFI 624d4 .cfa: $rsp 304 +
STACK CFI 6276f .cfa: $rsp 56 +
STACK CFI 62770 .cfa: $rsp 48 +
STACK CFI 62771 .cfa: $rsp 40 +
STACK CFI 62773 .cfa: $rsp 32 +
STACK CFI 62775 .cfa: $rsp 24 +
STACK CFI 62777 .cfa: $rsp 16 +
STACK CFI 62779 .cfa: $rsp 8 +
STACK CFI 62780 .cfa: $rsp 304 +
STACK CFI INIT 5a300 397 .cfa: $rsp 8 + .ra: .cfa -8 + ^
STACK CFI 5a302 $r15: .cfa -16 + ^ .cfa: $rsp 16 +
STACK CFI 5a304 $r14: .cfa -24 + ^ .cfa: $rsp 24 +
STACK CFI 5a309 $r13: .cfa -32 + ^ .cfa: $rsp 32 +
STACK CFI 5a30b $r12: .cfa -40 + ^ .cfa: $rsp 40 +
STACK CFI 5a30f $rbp: .cfa -48 + ^ .cfa: $rsp 48 +
STACK CFI 5a310 $rbx: .cfa -56 + ^ .cfa: $rsp 56 +
STACK CFI 5a31a .cfa: $rsp 224 +
STACK CFI 5a3b1 .cfa: $rsp 56 +
STACK CFI 5a3b2 .cfa: $rsp 48 +
STACK CFI 5a3b3 .cfa: $rsp 40 +
STACK CFI 5a3b5 .cfa: $rsp 32 +
STACK CFI 5a3b7 .cfa: $rsp 24 +
STACK CFI 5a3b9 .cfa: $rsp 16 +
STACK CFI 5a3bb .cfa: $rsp 8 +
STACK CFI 5a3c0 .cfa: $rsp 224 +
STACK CFI INIT 5a6a0 110b .cfa: $rsp 8 + .ra: .cfa -8 + ^
STACK CFI 5a6a2 $r15: .cfa -16 + ^ .cfa: $rsp 16 +
STACK CFI 5a6a4 $r14: .cfa -24 + ^ .cfa: $rsp 24 +
STACK CFI 5a6a6 $r13: .cfa -32 + ^ .cfa: $rsp 32 +
STACK CFI 5a6a8 $r12: .cfa -40 + ^ .cfa: $rsp 40 +
STACK CFI 5a6ac $rbp: .cfa -48 + ^ .cfa: $rsp 48 +
STACK CFI 5a6ad $rbx: .cfa -56 + ^ .cfa: $rsp 56 +
STACK CFI 5a6b7 .cfa: $rsp 464 +
STACK CFI 5a833 .cfa: $rsp 56 +
STACK CFI 5a834 .cfa: $rsp 48 +
STACK CFI 5a835 .cfa: $rsp 40 +
STACK CFI 5a837 .cfa: $rsp 32 +
STACK CFI 5a839 .cfa: $rsp 24 +
STACK CFI 5a83b .cfa: $rsp 16 +
STACK CFI 5a83d .cfa: $rsp 8 +
STACK CFI 5a840 .cfa: $rsp 464 +
STACK CFI INIT 62980 33f .cfa: $rsp 8 + .ra: .cfa -8 + ^
STACK CFI 62982 $r13: .cfa -16 + ^ .cfa: $rsp 16 +
STACK CFI 62984 $r12: .cfa -24 + ^ .cfa: $rsp 24 +
STACK CFI 62988 $rbp: .cfa -32 + ^ .cfa: $rsp 32 +
STACK CFI 62989 $rbx: .cfa -40 + ^ .cfa: $rsp 40 +
STACK CFI 62990 .cfa: $rsp 80 +
STACK CFI 62a98 .cfa: $rsp 40 +
STACK CFI 62a99 .cfa: $rsp 32 +
STACK CFI 62a9a .cfa: $rsp 24 +
STACK CFI 62a9c .cfa: $rsp 16 +
STACK CFI 62a9e .cfa: $rsp 8 +
STACK CFI 62aa0 .cfa: $rsp 80 +
STACK CFI INIT 5b7b0 36 .cfa: $rsp 8 + .ra: .cfa -8 + ^
STACK CFI 5b7b4 .cfa: $rsp 32 +
STACK CFI 5b7e0 .cfa: $rsp 8 +
STACK CFI 5b7e1 .cfa: $rsp 32 +
STACK CFI INIT 5b7f0 b1e .cfa: $rsp 8 + .ra: .cfa -8 + ^
STACK CFI 5b7f2 $r15: .cfa -16 + ^ .cfa: $rsp 16 +
STACK CFI 5b7f4 $r14: .cfa -24 + ^ .cfa: $rsp 24 +
STACK CFI 5b7f6 $r13: .cfa -32 + ^ .cfa: $rsp 32 +
STACK CFI 5b7f8 $r12: .cfa -40 + ^ .cfa: $rsp 40 +
STACK CFI 5b7fc $rbp: .cfa -48 + ^ .cfa: $rsp 48 +
STACK CFI 5b7fd $rbx: .cfa -56 + ^ .cfa: $rsp 56 +
STACK CFI 5b807 .cfa: $rsp 272 +
STACK CFI 5b9b0 .cfa: $rsp 56 +
STACK CFI 5b9b1 .cfa: $rsp 48 +
STACK CFI 5b9b2 .cfa: $rsp 40 +
STACK CFI 5b9b4 .cfa: $rsp 32 +
STACK CFI 5b9b6 .cfa: $rsp 24 +
STACK CFI 5b9b8 .cfa: $rsp 16 +
STACK CFI 5b9ba .cfa: $rsp 8 +
STACK CFI 5b9c0 .cfa: $rsp 272 +
STACK CFI INIT 62cc0 33f .cfa: $rsp 8 + .ra: .cfa -8 + ^
STACK CFI 62cc2 $r13: .cfa -16 + ^ .cfa: $rsp 16 +
STACK CFI 62cc4 $r12: .cfa -24 + ^ .cfa: $rsp 24 +
STACK CFI 62cc8 $rbp: .cfa -32 + ^ .cfa: $rsp 32 +
STACK CFI 62cc9 $rbx: .cfa -40 + ^ .cfa: $rsp 40 +
STACK CFI 62cd0 .cfa: $rsp 80 +
STACK CFI 62dd8 .cfa: $rsp 40 +
STACK CFI 62dd9 .cfa: $rsp 32 +
STACK CFI 62dda .cfa: $rsp 24 +
STACK CFI 62ddc .cfa: $rsp 16 +
STACK CFI 62dde .cfa: $rsp 8 +
STACK CFI 62de0 .cfa: $rsp 80 +
STACK CFI INIT 5c310 36 .cfa: $rsp 8 + .ra: .cfa -8 + ^
STACK CFI 5c314 .cfa: $rsp 32 +
STACK CFI 5c340 .cfa: $rsp 8 +
STACK CFI 5c341 .cfa: $rsp 32 +
STACK CFI INIT 5c350 823 .cfa: $rsp 8 + .ra: .cfa -8 + ^
STACK CFI 5c352 $r15: .cfa -16 + ^ .cfa: $rsp 16 +
STACK CFI 5c354 $r14: .cfa -24 + ^ .cfa: $rsp 24 +
STACK CFI 5c356 $r13: .cfa -32 + ^ .cfa: $rsp 32 +
STACK CFI 5c358 $r12: .cfa -40 + ^ .cfa: $rsp 40 +
STACK CFI 5c35c $rbp: .cfa -48 + ^ .cfa: $rsp 48 +
STACK CFI 5c35d $rbx: .cfa -56 + ^ .cfa: $rsp 56 +
STACK CFI 5c367 .cfa: $rsp 208 +
STACK CFI 5c48c .cfa: $rsp 56 +
STACK CFI 5c48d .cfa: $rsp 48 +
STACK CFI 5c48e .cfa: $rsp 40 +
STACK CFI 5c490 .cfa: $rsp 32 +
STACK CFI 5c492 .cfa: $rsp 24 +
STACK CFI 5c494 .cfa: $rsp 16 +
STACK CFI 5c496 .cfa: $rsp 8 +
STACK CFI 5c4a0 .cfa: $rsp 208 +
STACK CFI INIT 63000 33f .cfa: $rsp 8 + .ra: .cfa -8 + ^
STACK CFI 63002 $r13: .cfa -16 + ^ .cfa: $rsp 16 +
STACK CFI 63004 $r12: .cfa -24 + ^ .cfa: $rsp 24 +
STACK CFI 63008 $rbp: .cfa -32 + ^ .cfa: $rsp 32 +
STACK CFI 63009 $rbx: .cfa -40 + ^ .cfa: $rsp 40 +
STACK CFI 63010 .cfa: $rsp 80 +
STACK CFI 63118 .cfa: $rsp 40 +
STACK CFI 63119 .cfa: $rsp 32 +
STACK CFI 6311a .cfa: $rsp 24 +
STACK CFI 6311c .cfa: $rsp 16 +
STACK CFI 6311e .cfa: $rsp 8 +
STACK CFI 63120 .cfa: $rsp 80 +
STACK CFI INIT 5cb80 36 .cfa: $rsp 8 + .ra: .cfa -8 + ^
STACK CFI 5cb84 .cfa: $rsp 32 +
STACK CFI 5cbb0 .cfa: $rsp 8 +
STACK CFI 5cbb1 .cfa: $rsp 32 +
STACK CFI INIT 5cbc0 832 .cfa: $rsp 8 + .ra: .cfa -8 + ^
STACK CFI 5cbc2 $r15: .cfa -16 + ^ .cfa: $rsp 16 +
STACK CFI 5cbc4 $r14: .cfa -24 + ^ .cfa: $rsp 24 +
STACK CFI 5cbc9 $r13: .cfa -32 + ^ .cfa: $rsp 32 +
STACK CFI 5cbcb $r12: .cfa -40 + ^ .cfa: $rsp 40 +
STACK CFI 5cbcc $rbp: .cfa -48 + ^ .cfa: $rsp 48 +
STACK CFI 5cbcd $rbx: .cfa -56 + ^ .cfa: $rsp 56 +
STACK CFI 5cbd7 .cfa: $rsp 304 +
STACK CFI 5cd28 .cfa: $rsp 56 +
STACK CFI 5cd29 .cfa: $rsp 48 +
STACK CFI 5cd2a .cfa: $rsp 40 +
STACK CFI 5cd2c .cfa: $rsp 32 +
STACK CFI 5cd2e .cfa: $rsp 24 +
STACK CFI 5cd30 .cfa: $rsp 16 +
STACK CFI 5cd32 .cfa: $rsp 8 +
STACK CFI 5cd38 .cfa: $rsp 304 +
STACK CFI INIT 63340 33f .cfa: $rsp 8 + .ra: .cfa -8 + ^
STACK CFI 63342 $r13: .cfa -16 + ^ .cfa: $rsp 16 +
STACK CFI 63344 $r12: .cfa -24 + ^ .cfa: $rsp 24 +
STACK CFI 63348 $rbp: .cfa -32 + ^ .cfa: $rsp 32 +
STACK CFI 63349 $rbx: .cfa -40 + ^ .cfa: $rsp 40 +
STACK CFI 63350 .cfa: $rsp 80 +
STACK CFI 63458 .cfa: $rsp 40 +
STACK CFI 63459 .cfa: $rsp 32 +
STACK CFI 6345a .cfa: $rsp 24 +
STACK CFI 6345c .cfa: $rsp 16 +
STACK CFI 6345e .cfa: $rsp 8 +
STACK CFI 63460 .cfa: $rsp 80 +
STACK CFI INIT 5d400 36 .cfa: $rsp 8 + .ra: .cfa -8 + ^
STACK CFI 5d404 .cfa: $rsp 32 +
STACK CFI 5d430 .cfa: $rsp 8 +
STACK CFI 5d431 .cfa: $rsp 32 +
STACK CFI INIT 63680 89 .cfa: $rsp 8 + .ra: .cfa -8 + ^
STACK CFI 63681 $rbp: .cfa -16 + ^ .cfa: $rsp 16 +
STACK CFI 63682 $rbx: .cfa -24 + ^ .cfa: $rsp 24 +
STACK CFI 63686 .cfa: $rsp 32 +
STACK CFI 636da .cfa: $rsp 24 +
STACK CFI 636db .cfa: $rsp 16 +
STACK CFI 636dc .cfa: $rsp 8 +
STACK CFI 636e0 .cfa: $rsp 32 +
STACK CFI INIT 63710 e0 .cfa: $rsp 8 + .ra: .cfa -8 + ^
STACK CFI 63712 $r13: .cfa -16 + ^ .cfa: $rsp 16 +
STACK CFI 63718 $r12: .cfa -24 + ^ .cfa: $rsp 24 +
STACK CFI 63719 $rbp: .cfa -32 + ^ .cfa: $rsp 32 +
STACK CFI 6371a $rbx: .cfa -40 + ^ .cfa: $rsp 40 +
STACK CFI 63724 .cfa: $rsp 48 +
STACK CFI 63768 .cfa: $rsp 40 +
STACK CFI 63769 .cfa: $rsp 32 +
STACK CFI 6376a .cfa: $rsp 24 +
STACK CFI 6376c .cfa: $rsp 16 +
STACK CFI 6376e .cfa: $rsp 8 +
STACK CFI 63770 .cfa: $rsp 48 +
STACK CFI 637be .cfa: $rsp 40 +
STACK CFI 637c5 .cfa: $rsp 32 +
STACK CFI 637c6 .cfa: $rsp 24 +
STACK CFI 637c8 .cfa: $rsp 16 +
STACK CFI 637ca .cfa: $rsp 8 +
STACK CFI 637d0 .cfa: $rsp 48 +
STACK CFI 637d4 .cfa: $rsp 40 +
STACK CFI 637da .cfa: $rsp 32 +
STACK CFI 637db .cfa: $rsp 24 +
STACK CFI 637dd .cfa: $rsp 16 +
STACK CFI 637df .cfa: $rsp 8 +
STACK CFI 637e0 .cfa: $rsp 48 +
STACK CFI 637e4 .cfa: $rsp 40 +
STACK CFI 637ea .cfa: $rsp 32 +
STACK CFI 637eb .cfa: $rsp 24 +
STACK CFI 637ed .cfa: $rsp 16 +
STACK CFI 637ef .cfa: $rsp 8 +
STACK CFI INIT 5d440 9c2 .cfa: $rsp 8 + .ra: .cfa -8 + ^
STACK CFI 5d442 $r15: .cfa -16 + ^ .cfa: $rsp 16 +
STACK CFI 5d444 $r14: .cfa -24 + ^ .cfa: $rsp 24 +
STACK CFI 5d446 $r13: .cfa -32 + ^ .cfa: $rsp 32 +
STACK CFI 5d448 $r12: .cfa -40 + ^ .cfa: $rsp 40 +
STACK CFI 5d449 $rbp: .cfa -48 + ^ .cfa: $rsp 48 +
STACK CFI 5d44a $rbx: .cfa -56 + ^ .cfa: $rsp 56 +
STACK CFI 5d454 .cfa: $rsp 224 +
STACK CFI 5d535 .cfa: $rsp 56 +
STACK CFI 5d536 .cfa: $rsp 48 +
STACK CFI 5d537 .cfa: $rsp 40 +
STACK CFI 5d539 .cfa: $rsp 32 +
STACK CFI 5d53b .cfa: $rsp 24 +
STACK CFI 5d53d .cfa: $rsp 16 +
STACK CFI 5d53f .cfa: $rsp 8 +
STACK CFI 5d540 .cfa: $rsp 224 +
STACK CFI INIT 637f0 1f6 .cfa: $rsp 8 + .ra: .cfa -8 + ^
STACK CFI 637f2 $r15: .cfa -16 + ^ .cfa: $rsp 16 +
STACK CFI 637f4 $r14: .cfa -24 + ^ .cfa: $rsp 24 +
STACK CFI 637f9 $r13: .cfa -32 + ^ .cfa: $rsp 32 +
STACK CFI 637fb $r12: .cfa -40 + ^ .cfa: $rsp 40 +
STACK CFI 63801 $rbp: .cfa -48 + ^ .cfa: $rsp 48 +
STACK CFI 63802 $rbx: .cfa -56 + ^ .cfa: $rsp 56 +
STACK CFI 6380c .cfa: $rsp 80 +
STACK CFI 63905 .cfa: $rsp 56 +
STACK CFI 63909 .cfa: $rsp 48 +
STACK CFI 6390a .cfa: $rsp 40 +
STACK CFI 6390c .cfa: $rsp 32 +
STACK CFI 6390e .cfa: $rsp 24 +
STACK CFI 63910 .cfa: $rsp 16 +
STACK CFI 63912 .cfa: $rsp 8 +
STACK CFI 63918 .cfa: $rsp 80 +
STACK CFI INIT 639f0 3ec .cfa: $rsp 8 + .ra: .cfa -8 + ^
STACK CFI 639f2 $r15: .cfa -16 + ^ .cfa: $rsp 16 +
STACK CFI 639f4 $r14: .cfa -24 + ^ .cfa: $rsp 24 +
STACK CFI 639f9 $r13: .cfa -32 + ^ .cfa: $rsp 32 +
STACK CFI 639fb $r12: .cfa -40 + ^ .cfa: $rsp 40 +
STACK CFI 63a06 $rbp: .cfa -48 + ^ .cfa: $rsp 48 +
STACK CFI 63a07 $rbx: .cfa -56 + ^ .cfa: $rsp 56 +
STACK CFI 63a14 .cfa: $rsp 80 +
STACK CFI 63d39 .cfa: $rsp 56 +
STACK CFI 63d3a .cfa: $rsp 48 +
STACK CFI 63d3b .cfa: $rsp 40 +
STACK CFI 63d3d .cfa: $rsp 32 +
STACK CFI 63d3f .cfa: $rsp 24 +
STACK CFI 63d41 .cfa: $rsp 16 +
STACK CFI 63d43 .cfa: $rsp 8 +
STACK CFI 63d48 .cfa: $rsp 80 +
STACK CFI INIT 5de10 ac6 .cfa: $rsp 8 + .ra: .cfa -8 + ^
STACK CFI 5de12 $r15: .cfa -16 + ^ .cfa: $rsp 16 +
STACK CFI 5de14 $r14: .cfa -24 + ^ .cfa: $rsp 24 +
STACK CFI 5de16 $r13: .cfa -32 + ^ .cfa: $rsp 32 +
STACK CFI 5de18 $r12: .cfa -40 + ^ .cfa: $rsp 40 +
STACK CFI 5de19 $rbp: .cfa -48 + ^ .cfa: $rsp 48 +
STACK CFI 5de1a $rbx: .cfa -56 + ^ .cfa: $rsp 56 +
STACK CFI 5de21 .cfa: $rsp 256 +
STACK CFI 5dee0 .cfa: $rsp 56 +
STACK CFI 5dee1 .cfa: $rsp 48 +
STACK CFI 5dee2 .cfa: $rsp 40 +
STACK CFI 5dee4 .cfa: $rsp 32 +
STACK CFI 5dee6 .cfa: $rsp 24 +
STACK CFI 5dee8 .cfa: $rsp 16 +
STACK CFI 5deea .cfa: $rsp 8 +
STACK CFI 5def0 .cfa: $rsp 256 +
STACK CFI INIT 63de0 33f .cfa: $rsp 8 + .ra: .cfa -8 + ^
STACK CFI 63de2 $r13: .cfa -16 + ^ .cfa: $rsp 16 +
STACK CFI 63de4 $r12: .cfa -24 + ^ .cfa: $rsp 24 +
STACK CFI 63de8 $rbp: .cfa -32 + ^ .cfa: $rsp 32 +
STACK CFI 63de9 $rbx: .cfa -40 + ^ .cfa: $rsp 40 +
STACK CFI 63df0 .cfa: $rsp 80 +
STACK CFI 63ef8 .cfa: $rsp 40 +
STACK CFI 63ef9 .cfa: $rsp 32 +
STACK CFI 63efa .cfa: $rsp 24 +
STACK CFI 63efc .cfa: $rsp 16 +
STACK CFI 63efe .cfa: $rsp 8 +
STACK CFI 63f00 .cfa: $rsp 80 +
STACK CFI INIT 5e8e0 36 .cfa: $rsp 8 + .ra: .cfa -8 + ^
STACK CFI 5e8e4 .cfa: $rsp 32 +
STACK CFI 5e910 .cfa: $rsp 8 +
STACK CFI 5e911 .cfa: $rsp 32 +
STACK CFI INIT 2a0a0 2e .cfa: $rsp 8 + .ra: .cfa -8 + ^
STACK CFI 2a0ab .cfa: $rsp 16 +
STACK CFI 2a0c9 .cfa: $rsp 8 +
STACK CFI INIT 64120 c8 .cfa: $rsp 8 + .ra: .cfa -8 + ^
STACK CFI 64122 $r12: .cfa -16 + ^ .cfa: $rsp 16 +
STACK CFI 64123 $rbp: .cfa -24 + ^ .cfa: $rsp 24 +
STACK CFI 64127 $rbx: .cfa -32 + ^ .cfa: $rsp 32 +
STACK CFI 6412e .cfa: $rsp 48 +
STACK CFI 64194 .cfa: $rsp 32 +
STACK CFI 64195 .cfa: $rsp 24 +
STACK CFI 64196 .cfa: $rsp 16 +
STACK CFI 64198 .cfa: $rsp 8 +
STACK CFI 641a0 .cfa: $rsp 48 +
STACK CFI INIT 641f0 647 .cfa: $rsp 8 + .ra: .cfa -8 + ^
STACK CFI 641f2 $r15: .cfa -16 + ^ .cfa: $rsp 16 +
STACK CFI 641f4 $r14: .cfa -24 + ^ .cfa: $rsp 24 +
STACK CFI 641fd $r13: .cfa -32 + ^ .cfa: $rsp 32 +
STACK CFI 641ff $r12: .cfa -40 + ^ .cfa: $rsp 40 +
STACK CFI 64205 $rbp: .cfa -48 + ^ .cfa: $rsp 48 +
STACK CFI 64206 $rbx: .cfa -56 + ^ .cfa: $rsp 56 +
STACK CFI 6421d .cfa: $rsp 736 +
STACK CFI 645b7 .cfa: $rsp 56 +
STACK CFI 645b8 .cfa: $rsp 48 +
STACK CFI 645b9 .cfa: $rsp 40 +
STACK CFI 645bb .cfa: $rsp 32 +
STACK CFI 645bd .cfa: $rsp 24 +
STACK CFI 645bf .cfa: $rsp 16 +
STACK CFI 645c1 .cfa: $rsp 8 +
STACK CFI 645c8 .cfa: $rsp 736 +
STACK CFI INIT 64840 60 .cfa: $rsp 8 + .ra: .cfa -8 + ^
STACK CFI 64842 $r13: .cfa -16 + ^ .cfa: $rsp 16 +
STACK CFI 64844 $r12: .cfa -24 + ^ .cfa: $rsp 24 +
STACK CFI 64848 $rbp: .cfa -32 + ^ .cfa: $rsp 32 +
STACK CFI 64849 $rbx: .cfa -40 + ^ .cfa: $rsp 40 +
STACK CFI 64858 .cfa: $rsp 48 +
STACK CFI 64881 .cfa: $rsp 40 +
STACK CFI 64882 .cfa: $rsp 32 +
STACK CFI 64883 .cfa: $rsp 24 +
STACK CFI 64885 .cfa: $rsp 16 +
STACK CFI 64887 .cfa: $rsp 8 +
STACK CFI 64888 .cfa: $rsp 48 +
STACK CFI INIT 648a0 5f .cfa: $rsp 8 + .ra: .cfa -8 + ^
STACK CFI 648a2 $r14: .cfa -16 + ^ .cfa: $rsp 16 +
STACK CFI 648a4 $r13: .cfa -24 + ^ .cfa: $rsp 24 +
STACK CFI 648a9 $r12: .cfa -32 + ^ .cfa: $rsp 32 +
STACK CFI 648aa $rbp: .cfa -40 + ^ .cfa: $rsp 40 +
STACK CFI 648ae $rbx: .cfa -48 + ^ .cfa: $rsp 48 +
STACK CFI 648df .cfa: $rsp 40 +
STACK CFI 648e0 .cfa: $rsp 32 +
STACK CFI 648e2 .cfa: $rsp 24 +
STACK CFI 648e4 .cfa: $rsp 16 +
STACK CFI 648e6 .cfa: $rsp 8 +
STACK CFI 648e7 .cfa: $rsp 48 +
STACK CFI INIT 64900 f .cfa: $rsp 8 + .ra: .cfa -8 + ^
STACK CFI INIT 64910 3c5 .cfa: $rsp 8 + .ra: .cfa -8 + ^
STACK CFI 64911 $rbp: .cfa -16 + ^ .cfa: $rsp 16 +
STACK CFI 64914 .cfa: $rbp 16 +
STACK CFI 6491d $r12: .cfa -48 + ^ $r13: .cfa -40 + ^ $r14: .cfa -32 + ^ $r15: .cfa -24 + ^ $rbx: .cfa -56 + ^
STACK CFI 64a42 .cfa: $rsp 8 +
STACK CFI 64a48 .cfa: $rbp 16 +
STACK CFI INIT 64ce0 4c4 .cfa: $rsp 8 + .ra: .cfa -8 + ^
STACK CFI 64ce1 $rbp: .cfa -16 + ^ .cfa: $rsp 16 +
STACK CFI 64ce4 .cfa: $rbp 16 +
STACK CFI 64ced $r12: .cfa -48 + ^ $r13: .cfa -40 + ^ $r14: .cfa -32 + ^ $r15: .cfa -24 + ^ $rbx: .cfa -56 + ^
STACK CFI 64d6c .cfa: $rsp 8 +
STACK CFI 64d70 .cfa: $rbp 16 +
STACK CFI INIT 651b0 36 .cfa: $rsp 8 + .ra: .cfa -8 + ^
STACK CFI 651b4 $rbx: .cfa -16 + ^ .cfa: $rsp 16 +
STACK CFI 651dd .cfa: $rsp 8 +
STACK CFI 651e0 .cfa: $rsp 16 +
STACK CFI 651e5 .cfa: $rsp 8 +
STACK CFI INIT 651f0 26b6 .cfa: $rsp 8 + .ra: .cfa -8 + ^
STACK CFI 651f1 $rbp: .cfa -16 + ^ .cfa: $rsp 16 +
STACK CFI 651f4 .cfa: $rbp 16 +
STACK CFI 651fc $r12: .cfa -48 + ^ $r13: .cfa -40 + ^ $r14: .cfa -32 + ^ $r15: .cfa -24 + ^
STACK CFI 65203 $rbx: .cfa -56 + ^
STACK CFI 65470 .cfa: $rsp 8 +
STACK CFI 65478 .cfa: $rbp 16 +
STACK CFI INIT 69d60 a1 .cfa: $rsp 8 + .ra: .cfa -8 + ^
STACK CFI 69d62 $r14: .cfa -16 + ^ .cfa: $rsp 16 +
STACK CFI 69d64 $r13: .cfa -24 + ^ .cfa: $rsp 24 +
STACK CFI 69d69 $r12: .cfa -32 + ^ .cfa: $rsp 32 +
STACK CFI 69d6a $rbp: .cfa -40 + ^ .cfa: $rsp 40 +
STACK CFI 69d6e $rbx: .cfa -48 + ^ .cfa: $rsp 48 +
STACK CFI 69dd5 .cfa: $rsp 40 +
STACK CFI 69dd6 .cfa: $rsp 32 +
STACK CFI 69dd8 .cfa: $rsp 24 +
STACK CFI 69dda .cfa: $rsp 16 +
STACK CFI 69ddc .cfa: $rsp 8 +
STACK CFI 69ddd .cfa: $rsp 48 +
STACK CFI INIT 678b0 651 .cfa: $rsp 8 + .ra: .cfa -8 + ^
STACK CFI 678b2 $r15: .cfa -16 + ^ .cfa: $rsp 16 +
STACK CFI 678b4 $r14: .cfa -24 + ^ .cfa: $rsp 24 +
STACK CFI 678b6 $r13: .cfa -32 + ^ .cfa: $rsp 32 +
STACK CFI 678b8 $r12: .cfa -40 + ^ .cfa: $rsp 40 +
STACK CFI 678bc $rbp: .cfa -48 + ^ .cfa: $rsp 48 +
STACK CFI 678bd $rbx: .cfa -56 + ^ .cfa: $rsp 56 +
STACK CFI 678c7 .cfa: $rsp 288 +
STACK CFI 67c14 .cfa: $rsp 56 +
STACK CFI 67c15 .cfa: $rsp 48 +
STACK CFI 67c16 .cfa: $rsp 40 +
STACK CFI 67c18 .cfa: $rsp 32 +
STACK CFI 67c1a .cfa: $rsp 24 +
STACK CFI 67c1c .cfa: $rsp 16 +
STACK CFI 67c1e .cfa: $rsp 8 +
STACK CFI 67c20 .cfa: $rsp 288 +
STACK CFI INIT 69e10 52 .cfa: $rsp 8 + .ra: .cfa -8 + ^
STACK CFI 69e17 $r12: .cfa -16 + ^ .cfa: $rsp 16 +
STACK CFI 69e1b $rbp: .cfa -24 + ^ .cfa: $rsp 24 +
STACK CFI 69e1c $rbx: .cfa -32 + ^ .cfa: $rsp 32 +
STACK CFI 69e52 .cfa: $rsp 24 +
STACK CFI 69e53 .cfa: $rsp 16 +
STACK CFI 69e55 .cfa: $rsp 8 +
STACK CFI 69e60 $r12: $r12 $rbp: $rbp $rbx: $rbx
STACK CFI INIT 69e70 1c .cfa: $rsp 8 + .ra: .cfa -8 + ^
STACK CFI INIT 69e90 2e .cfa: $rsp 8 + .ra: .cfa -8 + ^
STACK CFI 69e98 $rbx: .cfa -16 + ^ .cfa: $rsp 16 +
STACK CFI 69eb9 .cfa: $rsp 8 +
STACK CFI INIT 69ec0 2f .cfa: $rsp 8 + .ra: .cfa -8 + ^
STACK CFI 69ec1 $rbx: .cfa -16 + ^ .cfa: $rsp 16 +
STACK CFI 69eee .cfa: $rsp 8 +
STACK CFI INIT 67f10 66 .cfa: $rsp 8 + .ra: .cfa -8 + ^
STACK CFI 67f17 $rbx: .cfa -16 + ^ .cfa: $rsp 16 +
STACK CFI 67f53 $rbx: $rbx .cfa: $rsp 8 +
STACK CFI 67f60 $rbx: .cfa -16 + ^ .cfa: $rsp 16 +
STACK CFI 67f61 .cfa: $rsp 8 +
STACK CFI 67f68 $rbx: $rbx
STACK CFI 67f70 $rbx: .cfa -16 + ^ .cfa: $rsp 16 +
STACK CFI 67f74 $rbx: $rbx .cfa: $rsp 8 +
STACK CFI INIT 67f80 1be1 .cfa: $rsp 8 + .ra: .cfa -8 + ^
STACK CFI 67f82 $r15: .cfa -16 + ^ .cfa: $rsp 16 +
STACK CFI 67f84 $r14: .cfa -24 + ^ .cfa: $rsp 24 +
STACK CFI 67f89 $r13: .cfa -32 + ^ .cfa: $rsp 32 +
STACK CFI 67f8b $r12: .cfa -40 + ^ .cfa: $rsp 40 +
STACK CFI 67f8c $rbp: .cfa -48 + ^ .cfa: $rsp 48 +
STACK CFI 67f8d $rbx: .cfa -56 + ^ .cfa: $rsp 56 +
STACK CFI 67f97 .cfa: $rsp 416 +
STACK CFI 68d9a .cfa: $rsp 424 +
STACK CFI 68db5 .cfa: $rsp 432 +
STACK CFI 68dca .cfa: $rsp 424 +
STACK CFI 68dcb .cfa: $rsp 416 +
STACK CFI 6930d .cfa: $rsp 56 +
STACK CFI 6930e .cfa: $rsp 48 +
STACK CFI 6930f .cfa: $rsp 40 +
STACK CFI 69311 .cfa: $rsp 32 +
STACK CFI 69313 .cfa: $rsp 24 +
STACK CFI 69315 .cfa: $rsp 16 +
STACK CFI 69317 .cfa: $rsp 8 +
STACK CFI 69320 .cfa: $rsp 416 +
STACK CFI INIT 2a0d0 2e .cfa: $rsp 8 + .ra: .cfa -8 + ^
STACK CFI 2a0db .cfa: $rsp 16 +
STACK CFI 2a0f9 .cfa: $rsp 8 +
STACK CFI INIT 69b70 1e5 .cfa: $rsp 8 + .ra: .cfa -8 + ^
STACK CFI 69b72 $r14: .cfa -16 + ^ .cfa: $rsp 16 +
STACK CFI 69b74 $r13: .cfa -24 + ^ .cfa: $rsp 24 +
STACK CFI 69b7d $r12: .cfa -32 + ^ .cfa: $rsp 32 +
STACK CFI 69b7e $rbp: .cfa -40 + ^ .cfa: $rsp 40 +
STACK CFI 69b82 $rbx: .cfa -48 + ^ .cfa: $rsp 48 +
STACK CFI 69b97 .cfa: $rsp 208 +
STACK CFI 69cdf .cfa: $rsp 48 +
STACK CFI 69ce0 .cfa: $rsp 40 +
STACK CFI 69ce1 .cfa: $rsp 32 +
STACK CFI 69ce3 .cfa: $rsp 24 +
STACK CFI 69ce5 .cfa: $rsp 16 +
STACK CFI 69ce7 .cfa: $rsp 8 +
STACK CFI 69cf0 .cfa: $rsp 208 +
STACK CFI INIT 69ef0 c8 .cfa: $rsp 8 + .ra: .cfa -8 + ^
STACK CFI 69ef2 $r12: .cfa -16 + ^ .cfa: $rsp 16 +
STACK CFI 69ef3 $rbp: .cfa -24 + ^ .cfa: $rsp 24 +
STACK CFI 69ef7 $rbx: .cfa -32 + ^ .cfa: $rsp 32 +
STACK CFI 69efe .cfa: $rsp 48 +
STACK CFI 69f64 .cfa: $rsp 32 +
STACK CFI 69f65 .cfa: $rsp 24 +
STACK CFI 69f66 .cfa: $rsp 16 +
STACK CFI 69f68 .cfa: $rsp 8 +
STACK CFI 69f70 .cfa: $rsp 48 +
STACK CFI INIT 29e5e 30 .cfa: $rsp 8 + .ra: .cfa -8 + ^
STACK CFI INIT 69fc0 345 .cfa: $rsp 8 + .ra: .cfa -8 + ^
STACK CFI 69fc1 $rbp: .cfa -16 + ^ .cfa: $rsp 16 +
STACK CFI 69fc2 $rbx: .cfa -24 + ^ .cfa: $rsp 24 +
STACK CFI 69fd1 .cfa: $rsp 48 +
STACK CFI 6a183 .cfa: $rsp 24 +
STACK CFI 6a184 .cfa: $rsp 16 +
STACK CFI 6a185 .cfa: $rsp 8 +
STACK CFI 6a190 .cfa: $rsp 48 +
STACK CFI INIT 6a310 302 .cfa: $rsp 8 + .ra: .cfa -8 + ^
STACK CFI 6a312 $r15: .cfa -16 + ^ .cfa: $rsp 16 +
STACK CFI 6a314 $r14: .cfa -24 + ^ .cfa: $rsp 24 +
STACK CFI 6a31b $r13: .cfa -32 + ^ .cfa: $rsp 32 +
STACK CFI 6a31d $r12: .cfa -40 + ^ .cfa: $rsp 40 +
STACK CFI 6a321 $rbp: .cfa -48 + ^ .cfa: $rsp 48 +
STACK CFI 6a322 $rbx: .cfa -56 + ^ .cfa: $rsp 56 +
STACK CFI 6a329 .cfa: $rsp 80 +
STACK CFI 6a44b .cfa: $rsp 56 +
STACK CFI 6a44c .cfa: $rsp 48 +
STACK CFI 6a44d .cfa: $rsp 40 +
STACK CFI 6a44f .cfa: $rsp 32 +
STACK CFI 6a451 .cfa: $rsp 24 +
STACK CFI 6a453 .cfa: $rsp 16 +
STACK CFI 6a455 .cfa: $rsp 8 +
STACK CFI 6a460 .cfa: $rsp 80 +
STACK CFI INIT 6a620 74a .cfa: $rsp 8 + .ra: .cfa -8 + ^
STACK CFI 6a621 $rbp: .cfa -16 + ^ .cfa: $rsp 16 +
STACK CFI 6a622 $rbx: .cfa -24 + ^ .cfa: $rsp 24 +
STACK CFI 6a626 .cfa: $rsp 48 +
STACK CFI 6a7c3 .cfa: $rsp 24 +
STACK CFI 6a7c4 .cfa: $rsp 16 +
STACK CFI 6a7c5 .cfa: $rsp 8 +
STACK CFI 6a7d0 .cfa: $rsp 48 +
STACK CFI INIT 6ad70 917 .cfa: $rsp 8 + .ra: .cfa -8 + ^
STACK CFI 6ad72 $r15: .cfa -16 + ^ .cfa: $rsp 16 +
STACK CFI 6ad74 $r14: .cfa -24 + ^ .cfa: $rsp 24 +
STACK CFI 6ad76 $r13: .cfa -32 + ^ .cfa: $rsp 32 +
STACK CFI 6ad78 $r12: .cfa -40 + ^ .cfa: $rsp 40 +
STACK CFI 6ad79 $rbp: .cfa -48 + ^ .cfa: $rsp 48 +
STACK CFI 6ad7a $rbx: .cfa -56 + ^ .cfa: $rsp 56 +
STACK CFI 6ad81 .cfa: $rsp 272 +
STACK CFI 6b1b1 .cfa: $rsp 56 +
STACK CFI 6b1b2 .cfa: $rsp 48 +
STACK CFI 6b1b3 .cfa: $rsp 40 +
STACK CFI 6b1b5 .cfa: $rsp 32 +
STACK CFI 6b1b7 .cfa: $rsp 24 +
STACK CFI 6b1b9 .cfa: $rsp 16 +
STACK CFI 6b1bb .cfa: $rsp 8 +
STACK CFI 6b1c0 .cfa: $rsp 272 +
STACK CFI INIT 6e4a0 33 .cfa: $rsp 8 + .ra: .cfa -8 + ^
STACK CFI 6e4be .cfa: $rsp 16 +
STACK CFI 6e4d2 .cfa: $rsp 8 +
STACK CFI INIT 6e4e0 ad .cfa: $rsp 8 + .ra: .cfa -8 + ^
STACK CFI 6e4e1 $rbp: .cfa -16 + ^ .cfa: $rsp 16 +
STACK CFI 6e4e2 $rbx: .cfa -24 + ^ .cfa: $rsp 24 +
STACK CFI 6e4e6 .cfa: $rsp 48 +
STACK CFI 6e529 .cfa: $rsp 24 +
STACK CFI 6e52a .cfa: $rsp 16 +
STACK CFI 6e52b .cfa: $rsp 8 +
STACK CFI 6e530 .cfa: $rsp 48 +
STACK CFI INIT 6e590 ad .cfa: $rsp 8 + .ra: .cfa -8 + ^
STACK CFI 6e591 $rbp: .cfa -16 + ^ .cfa: $rsp 16 +
STACK CFI 6e592 $rbx: .cfa -24 + ^ .cfa: $rsp 24 +
STACK CFI 6e596 .cfa: $rsp 48 +
STACK CFI 6e5d9 .cfa: $rsp 24 +
STACK CFI 6e5da .cfa: $rsp 16 +
STACK CFI 6e5db .cfa: $rsp 8 +
STACK CFI 6e5e0 .cfa: $rsp 48 +
STACK CFI INIT 6b690 972 .cfa: $rsp 8 + .ra: .cfa -8 + ^
STACK CFI 6b692 $r15: .cfa -16 + ^ .cfa: $rsp 16 +
STACK CFI 6b694 $r14: .cfa -24 + ^ .cfa: $rsp 24 +
STACK CFI 6b696 $r13: .cfa -32 + ^ .cfa: $rsp 32 +
STACK CFI 6b698 $r12: .cfa -40 + ^ .cfa: $rsp 40 +
STACK CFI 6b69c $rbp: .cfa -48 + ^ .cfa: $rsp 48 +
STACK CFI 6b69d $rbx: .cfa -56 + ^ .cfa: $rsp 56 +
STACK CFI 6b6a4 .cfa: $rsp 176 +
STACK CFI 6b806 .cfa: $rsp 56 +
STACK CFI 6b807 .cfa: $rsp 48 +
STACK CFI 6b808 .cfa: $rsp 40 +
STACK CFI 6b80a .cfa: $rsp 32 +
STACK CFI 6b80c .cfa: $rsp 24 +
STACK CFI 6b80e .cfa: $rsp 16 +
STACK CFI 6b810 .cfa: $rsp 8 +
STACK CFI 6b818 .cfa: $rsp 176 +
STACK CFI INIT 6c010 1a5f .cfa: $rsp 8 + .ra: .cfa -8 + ^
STACK CFI 6c012 $r15: .cfa -16 + ^ .cfa: $rsp 16 +
STACK CFI 6c014 $r14: .cfa -24 + ^ .cfa: $rsp 24 +
STACK CFI 6c016 $r13: .cfa -32 + ^ .cfa: $rsp 32 +
STACK CFI 6c018 $r12: .cfa -40 + ^ .cfa: $rsp 40 +
STACK CFI 6c01c $rbp: .cfa -48 + ^ .cfa: $rsp 48 +
STACK CFI 6c01d $rbx: .cfa -56 + ^ .cfa: $rsp 56 +
STACK CFI 6c024 .cfa: $rsp 256 +
STACK CFI 6c115 .cfa: $rsp 56 +
STACK CFI 6c116 .cfa: $rsp 48 +
STACK CFI 6c117 .cfa: $rsp 40 +
STACK CFI 6c119 .cfa: $rsp 32 +
STACK CFI 6c11b .cfa: $rsp 24 +
STACK CFI 6c11d .cfa: $rsp 16 +
STACK CFI 6c11f .cfa: $rsp 8 +
STACK CFI 6c120 .cfa: $rsp 256 +
STACK CFI INIT 6da70 a27 .cfa: $rsp 8 + .ra: .cfa -8 + ^
STACK CFI 6da72 $r15: .cfa -16 + ^ .cfa: $rsp 16 +
STACK CFI 6da74 $r14: .cfa -24 + ^ .cfa: $rsp 24 +
STACK CFI 6da7d $r13: .cfa -32 + ^ .cfa: $rsp 32 +
STACK CFI 6da7f $r12: .cfa -40 + ^ .cfa: $rsp 40 +
STACK CFI 6da83 $rbp: .cfa -48 + ^ .cfa: $rsp 48 +
STACK CFI 6da84 $rbx: .cfa -56 + ^ .cfa: $rsp 56 +
STACK CFI 6da8c .cfa: $rsp 176 +
STACK CFI 6df96 .cfa: $rsp 56 +
STACK CFI 6df97 .cfa: $rsp 48 +
STACK CFI 6df98 .cfa: $rsp 40 +
STACK CFI 6df9a .cfa: $rsp 32 +
STACK CFI 6df9c .cfa: $rsp 24 +
STACK CFI 6df9e .cfa: $rsp 16 +
STACK CFI 6dfa0 .cfa: $rsp 8 +
STACK CFI 6dfa8 .cfa: $rsp 176 +
STACK CFI INIT 2a100 2e .cfa: $rsp 8 + .ra: .cfa -8 + ^
STACK CFI 2a10b .cfa: $rsp 16 +
STACK CFI 2a129 .cfa: $rsp 8 +
STACK CFI INIT 6e640 c8 .cfa: $rsp 8 + .ra: .cfa -8 + ^
STACK CFI 6e642 $r12: .cfa -16 + ^ .cfa: $rsp 16 +
STACK CFI 6e643 $rbp: .cfa -24 + ^ .cfa: $rsp 24 +
STACK CFI 6e647 $rbx: .cfa -32 + ^ .cfa: $rsp 32 +
STACK CFI 6e64e .cfa: $rsp 48 +
STACK CFI 6e6b4 .cfa: $rsp 32 +
STACK CFI 6e6b5 .cfa: $rsp 24 +
STACK CFI 6e6b6 .cfa: $rsp 16 +
STACK CFI 6e6b8 .cfa: $rsp 8 +
STACK CFI 6e6c0 .cfa: $rsp 48 +
STACK CFI INIT 6f670 1de .cfa: $rsp 8 + .ra: .cfa -8 + ^
STACK CFI 6f672 $r15: .cfa -16 + ^ .cfa: $rsp 16 +
STACK CFI 6f674 $r14: .cfa -24 + ^ .cfa: $rsp 24 +
STACK CFI 6f676 $r13: .cfa -32 + ^ .cfa: $rsp 32 +
STACK CFI 6f678 $r12: .cfa -40 + ^ .cfa: $rsp 40 +
STACK CFI 6f679 $rbp: .cfa -48 + ^ .cfa: $rsp 48 +
STACK CFI 6f67a $rbx: .cfa -56 + ^ .cfa: $rsp 56 +
STACK CFI 6f67e .cfa: $rsp 112 +
STACK CFI 6f7ae .cfa: $rsp 56 +
STACK CFI 6f7af .cfa: $rsp 48 +
STACK CFI 6f7b0 .cfa: $rsp 40 +
STACK CFI 6f7b2 .cfa: $rsp 32 +
STACK CFI 6f7b4 .cfa: $rsp 24 +
STACK CFI 6f7b6 .cfa: $rsp 16 +
STACK CFI 6f7b8 .cfa: $rsp 8 +
STACK CFI 6f7c0 .cfa: $rsp 112 +
STACK CFI INIT 6f850 73 .cfa: $rsp 8 + .ra: .cfa -8 + ^
STACK CFI 6f852 $r13: .cfa -16 + ^ .cfa: $rsp 16 +
STACK CFI 6f854 $r12: .cfa -24 + ^ .cfa: $rsp 24 +
STACK CFI 6f855 $rbp: .cfa -32 + ^ .cfa: $rsp 32 +
STACK CFI 6f856 $rbx: .cfa -40 + ^ .cfa: $rsp 40 +
STACK CFI 6f85f .cfa: $rsp 48 +
STACK CFI 6f8b9 .cfa: $rsp 40 +
STACK CFI 6f8bd .cfa: $rsp 32 +
STACK CFI 6f8be .cfa: $rsp 24 +
STACK CFI 6f8c0 .cfa: $rsp 16 +
STACK CFI 6f8c2 .cfa: $rsp 8 +
STACK CFI INIT 6f8d0 112 .cfa: $rsp 8 + .ra: .cfa -8 + ^
STACK CFI 6f8d2 $r15: .cfa -16 + ^ .cfa: $rsp 16 +
STACK CFI 6f8d4 $r14: .cfa -24 + ^ .cfa: $rsp 24 +
STACK CFI 6f8d6 $r13: .cfa -32 + ^ .cfa: $rsp 32 +
STACK CFI 6f8d8 $r12: .cfa -40 + ^ .cfa: $rsp 40 +
STACK CFI 6f8d9 $rbp: .cfa -48 + ^ .cfa: $rsp 48 +
STACK CFI 6f8da $rbx: .cfa -56 + ^ .cfa: $rsp 56 +
STACK CFI 6f8de .cfa: $rsp 80 +
STACK CFI 6f97a .cfa: $rsp 56 +
STACK CFI 6f97b .cfa: $rsp 48 +
STACK CFI 6f97c .cfa: $rsp 40 +
STACK CFI 6f97e .cfa: $rsp 32 +
STACK CFI 6f980 .cfa: $rsp 24 +
STACK CFI 6f982 .cfa: $rsp 16 +
STACK CFI 6f984 .cfa: $rsp 8 +
STACK CFI 6f985 .cfa: $rsp 80 +
STACK CFI INIT 6f9f0 204 .cfa: $rsp 8 + .ra: .cfa -8 + ^
STACK CFI 6f9f2 $r15: .cfa -16 + ^ .cfa: $rsp 16 +
STACK CFI 6f9f4 $r14: .cfa -24 + ^ .cfa: $rsp 24 +
STACK CFI 6f9f6 $r13: .cfa -32 + ^ .cfa: $rsp 32 +
STACK CFI 6f9f8 $r12: .cfa -40 + ^ .cfa: $rsp 40 +
STACK CFI 6f9f9 $rbp: .cfa -48 + ^ .cfa: $rsp 48 +
STACK CFI 6f9fa $rbx: .cfa -56 + ^ .cfa: $rsp 56 +
STACK CFI 6f9fe .cfa: $rsp 96 +
STACK CFI 6fb32 .cfa: $rsp 56 +
STACK CFI 6fb33 .cfa: $rsp 48 +
STACK CFI 6fb34 .cfa: $rsp 40 +
STACK CFI 6fb36 .cfa: $rsp 32 +
STACK CFI 6fb38 .cfa: $rsp 24 +
STACK CFI 6fb3a .cfa: $rsp 16 +
STACK CFI 6fb3c .cfa: $rsp 8 +
STACK CFI 6fb40 .cfa: $rsp 96 +
STACK CFI INIT 6fc00 17f .cfa: $rsp 8 + .ra: .cfa -8 + ^
STACK CFI 6fc02 $r15: .cfa -16 + ^ .cfa: $rsp 16 +
STACK CFI 6fc04 $r14: .cfa -24 + ^ .cfa: $rsp 24 +
STACK CFI 6fc06 $r13: .cfa -32 + ^ .cfa: $rsp 32 +
STACK CFI 6fc08 $r12: .cfa -40 + ^ .cfa: $rsp 40 +
STACK CFI 6fc09 $rbp: .cfa -48 + ^ .cfa: $rsp 48 +
STACK CFI 6fc0a $rbx: .cfa -56 + ^ .cfa: $rsp 56 +
STACK CFI 6fc0e .cfa: $rsp 160 +
STACK CFI 6fd14 .cfa: $rsp 56 +
STACK CFI 6fd15 .cfa: $rsp 48 +
STACK CFI 6fd16 .cfa: $rsp 40 +
STACK CFI 6fd18 .cfa: $rsp 32 +
STACK CFI 6fd1a .cfa: $rsp 24 +
STACK CFI 6fd1c .cfa: $rsp 16 +
STACK CFI 6fd1e .cfa: $rsp 8 +
STACK CFI 6fd1f .cfa: $rsp 160 +
STACK CFI INIT 6fd80 113 .cfa: $rsp 8 + .ra: .cfa -8 + ^
STACK CFI 6fd82 $r15: .cfa -16 + ^ .cfa: $rsp 16 +
STACK CFI 6fd84 $r14: .cfa -24 + ^ .cfa: $rsp 24 +
STACK CFI 6fd86 $r13: .cfa -32 + ^ .cfa: $rsp 32 +
STACK CFI 6fd88 $r12: .cfa -40 + ^ .cfa: $rsp 40 +
STACK CFI 6fd89 $rbp: .cfa -48 + ^ .cfa: $rsp 48 +
STACK CFI 6fd8a $rbx: .cfa -56 + ^ .cfa: $rsp 56 +
STACK CFI 6fd8e .cfa: $rsp 80 +
STACK CFI 6fe2b .cfa: $rsp 56 +
STACK CFI 6fe2c .cfa: $rsp 48 +
STACK CFI 6fe2d .cfa: $rsp 40 +
STACK CFI 6fe2f .cfa: $rsp 32 +
STACK CFI 6fe31 .cfa: $rsp 24 +
STACK CFI 6fe33 .cfa: $rsp 16 +
STACK CFI 6fe35 .cfa: $rsp 8 +
STACK CFI 6fe36 .cfa: $rsp 80 +
STACK CFI INIT 6fea0 1f0 .cfa: $rsp 8 + .ra: .cfa -8 + ^
STACK CFI 6fea2 $r15: .cfa -16 + ^ .cfa: $rsp 16 +
STACK CFI 6fea4 $r14: .cfa -24 + ^ .cfa: $rsp 24 +
STACK CFI 6fea6 $r13: .cfa -32 + ^ .cfa: $rsp 32 +
STACK CFI 6fea8 $r12: .cfa -40 + ^ .cfa: $rsp 40 +
STACK CFI 6fea9 $rbp: .cfa -48 + ^ .cfa: $rsp 48 +
STACK CFI 6feaa $rbx: .cfa -56 + ^ .cfa: $rsp 56 +
STACK CFI 6feae .cfa: $rsp 144 +
STACK CFI 70013 .cfa: $rsp 56 +
STACK CFI 70014 .cfa: $rsp 48 +
STACK CFI 70015 .cfa: $rsp 40 +
STACK CFI 70017 .cfa: $rsp 32 +
STACK CFI 70019 .cfa: $rsp 24 +
STACK CFI 7001b .cfa: $rsp 16 +
STACK CFI 7001d .cfa: $rsp 8 +
STACK CFI 70020 .cfa: $rsp 144 +
STACK CFI INIT 6e710 1f6 .cfa: $rsp 8 + .ra: .cfa -8 + ^
STACK CFI 6e712 $r15: .cfa -16 + ^ .cfa: $rsp 16 +
STACK CFI 6e714 $r14: .cfa -24 + ^ .cfa: $rsp 24 +
STACK CFI 6e716 $r13: .cfa -32 + ^ .cfa: $rsp 32 +
STACK CFI 6e718 $r12: .cfa -40 + ^ .cfa: $rsp 40 +
STACK CFI 6e71d $rbp: .cfa -48 + ^ .cfa: $rsp 48 +
STACK CFI 6e71e $rbx: .cfa -56 + ^ .cfa: $rsp 56 +
STACK CFI 6e728 .cfa: $rsp 128 +
STACK CFI 6e8f6 .cfa: $rsp 56 +
STACK CFI 6e8f7 .cfa: $rsp 48 +
STACK CFI 6e8f8 .cfa: $rsp 40 +
STACK CFI 6e8fa .cfa: $rsp 32 +
STACK CFI 6e8fc .cfa: $rsp 24 +
STACK CFI 6e8fe .cfa: $rsp 16 +
STACK CFI 6e900 .cfa: $rsp 8 +
STACK CFI 6e901 .cfa: $rsp 128 +
STACK CFI INIT 70090 2a4 .cfa: $rsp 8 + .ra: .cfa -8 + ^
STACK CFI 70092 $r15: .cfa -16 + ^ .cfa: $rsp 16 +
STACK CFI 70094 $r14: .cfa -24 + ^ .cfa: $rsp 24 +
STACK CFI 70096 $r13: .cfa -32 + ^ .cfa: $rsp 32 +
STACK CFI 70098 $r12: .cfa -40 + ^ .cfa: $rsp 40 +
STACK CFI 70099 $rbp: .cfa -48 + ^ .cfa: $rsp 48 +
STACK CFI 7009a $rbx: .cfa -56 + ^ .cfa: $rsp 56 +
STACK CFI 7009e .cfa: $rsp 128 +
STACK CFI 70203 .cfa: $rsp 56 +
STACK CFI 70204 .cfa: $rsp 48 +
STACK CFI 70205 .cfa: $rsp 40 +
STACK CFI 70207 .cfa: $rsp 32 +
STACK CFI 70209 .cfa: $rsp 24 +
STACK CFI 7020b .cfa: $rsp 16 +
STACK CFI 7020d .cfa: $rsp 8 +
STACK CFI 70210 .cfa: $rsp 128 +
STACK CFI INIT 70340 13d .cfa: $rsp 8 + .ra: .cfa -8 + ^
STACK CFI 70342 $r15: .cfa -16 + ^ .cfa: $rsp 16 +
STACK CFI 70344 $r14: .cfa -24 + ^ .cfa: $rsp 24 +
STACK CFI 70346 $r13: .cfa -32 + ^ .cfa: $rsp 32 +
STACK CFI 70348 $r12: .cfa -40 + ^ .cfa: $rsp 40 +
STACK CFI 70349 $rbp: .cfa -48 + ^ .cfa: $rsp 48 +
STACK CFI 7034a $rbx: .cfa -56 + ^ .cfa: $rsp 56 +
STACK CFI 7034e .cfa: $rsp 96 +
STACK CFI 70412 .cfa: $rsp 56 +
STACK CFI 70413 .cfa: $rsp 48 +
STACK CFI 70414 .cfa: $rsp 40 +
STACK CFI 70416 .cfa: $rsp 32 +
STACK CFI 70418 .cfa: $rsp 24 +
STACK CFI 7041a .cfa: $rsp 16 +
STACK CFI 7041c .cfa: $rsp 8 +
STACK CFI 7041d .cfa: $rsp 96 +
STACK CFI INIT 6e910 cd .cfa: $rsp 8 + .ra: .cfa -8 + ^
STACK CFI 6e912 $r14: .cfa -16 + ^ .cfa: $rsp 16 +
STACK CFI 6e914 $r13: .cfa -24 + ^ .cfa: $rsp 24 +
STACK CFI 6e91a $r12: .cfa -32 + ^ .cfa: $rsp 32 +
STACK CFI 6e91b $rbp: .cfa -40 + ^ .cfa: $rsp 40 +
STACK CFI 6e91f $rbx: .cfa -48 + ^ .cfa: $rsp 48 +
STACK CFI 6e9d1 .cfa: $rsp 40 +
STACK CFI 6e9d6 .cfa: $rsp 32 +
STACK CFI 6e9d8 .cfa: $rsp 24 +
STACK CFI 6e9da .cfa: $rsp 16 +
STACK CFI 6e9dc .cfa: $rsp 8 +
STACK CFI INIT 6e9e0 122 .cfa: $rsp 8 + .ra: .cfa -8 + ^
STACK CFI 6e9e2 $r15: .cfa -16 + ^ .cfa: $rsp 16 +
STACK CFI 6e9e4 $r14: .cfa -24 + ^ .cfa: $rsp 24 +
STACK CFI 6e9e9 $r13: .cfa -32 + ^ .cfa: $rsp 32 +
STACK CFI 6e9eb $r12: .cfa -40 + ^ .cfa: $rsp 40 +
STACK CFI 6e9ef $rbp: .cfa -48 + ^ .cfa: $rsp 48 +
STACK CFI 6e9f0 $rbx: .cfa -56 + ^ .cfa: $rsp 56 +
STACK CFI 6e9f7 .cfa: $rsp 96 +
STACK CFI 6ea57 .cfa: $rsp 56 +
STACK CFI 6ea58 .cfa: $rsp 48 +
STACK CFI 6ea59 .cfa: $rsp 40 +
STACK CFI 6ea5b .cfa: $rsp 32 +
STACK CFI 6ea5d .cfa: $rsp 24 +
STACK CFI 6ea5f .cfa: $rsp 16 +
STACK CFI 6ea61 .cfa: $rsp 8 +
STACK CFI 6ea68 .cfa: $rsp 96 +
STACK CFI INIT 6eb10 61c .cfa: $rsp 8 + .ra: .cfa -8 + ^
STACK CFI 6eb12 $r15: .cfa -16 + ^ .cfa: $rsp 16 +
STACK CFI 6eb14 $r14: .cfa -24 + ^ .cfa: $rsp 24 +
STACK CFI 6eb1d $r13: .cfa -32 + ^ .cfa: $rsp 32 +
STACK CFI 6eb1f $r12: .cfa -40 + ^ .cfa: $rsp 40 +
STACK CFI 6eb23 $rbp: .cfa -48 + ^ .cfa: $rsp 48 +
STACK CFI 6eb24 $rbx: .cfa -56 + ^ .cfa: $rsp 56 +
STACK CFI 6eb34 .cfa: $rsp 304 +
STACK CFI 6ef2a .cfa: $rsp 56 +
STACK CFI 6ef2b .cfa: $rsp 48 +
STACK CFI 6ef2c .cfa: $rsp 40 +
STACK CFI 6ef2e .cfa: $rsp 32 +
STACK CFI 6ef30 .cfa: $rsp 24 +
STACK CFI 6ef32 .cfa: $rsp 16 +
STACK CFI 6ef34 .cfa: $rsp 8 +
STACK CFI 6ef38 .cfa: $rsp 304 +
STACK CFI INIT 6f130 90 .cfa: $rsp 8 + .ra: .cfa -8 + ^
STACK CFI 6f132 $r13: .cfa -16 + ^ .cfa: $rsp 16 +
STACK CFI 6f134 $r12: .cfa -24 + ^ .cfa: $rsp 24 +
STACK CFI 6f135 $rbp: .cfa -32 + ^ .cfa: $rsp 32 +
STACK CFI 6f136 $rbx: .cfa -40 + ^ .cfa: $rsp 40 +
STACK CFI 6f13a .cfa: $rsp 64 +
STACK CFI 6f1b4 .cfa: $rsp 40 +
STACK CFI 6f1b5 .cfa: $rsp 32 +
STACK CFI 6f1b6 .cfa: $rsp 24 +
STACK CFI 6f1b8 .cfa: $rsp 16 +
STACK CFI 6f1ba .cfa: $rsp 8 +
STACK CFI 6f1bb .cfa: $rsp 64 +
STACK CFI INIT 6f1c0 120 .cfa: $rsp 8 + .ra: .cfa -8 + ^
STACK CFI 6f1c2 $r15: .cfa -16 + ^ .cfa: $rsp 16 +
STACK CFI 6f1c4 $r14: .cfa -24 + ^ .cfa: $rsp 24 +
STACK CFI 6f1c6 $r13: .cfa -32 + ^ .cfa: $rsp 32 +
STACK CFI 6f1c8 $r12: .cfa -40 + ^ .cfa: $rsp 40 +
STACK CFI 6f1c9 $rbp: .cfa -48 + ^ .cfa: $rsp 48 +
STACK CFI 6f1ca $rbx: .cfa -56 + ^ .cfa: $rsp 56 +
STACK CFI 6f1ce .cfa: $rsp 96 +
STACK CFI 6f2b6 .cfa: $rsp 56 +
STACK CFI 6f2b7 .cfa: $rsp 48 +
STACK CFI 6f2b8 .cfa: $rsp 40 +
STACK CFI 6f2ba .cfa: $rsp 32 +
STACK CFI 6f2bc .cfa: $rsp 24 +
STACK CFI 6f2be .cfa: $rsp 16 +
STACK CFI 6f2c0 .cfa: $rsp 8 +
STACK CFI 6f2c8 .cfa: $rsp 96 +
STACK CFI INIT 6f2e0 38b .cfa: $rsp 8 + .ra: .cfa -8 + ^
STACK CFI 6f2e2 $r15: .cfa -16 + ^ .cfa: $rsp 16 +
STACK CFI 6f2e4 $r14: .cfa -24 + ^ .cfa: $rsp 24 +
STACK CFI 6f2e6 $r13: .cfa -32 + ^ .cfa: $rsp 32 +
STACK CFI 6f2e8 $r12: .cfa -40 + ^ .cfa: $rsp 40 +
STACK CFI 6f2ec $rbp: .cfa -48 + ^ .cfa: $rsp 48 +
STACK CFI 6f2ed $rbx: .cfa -56 + ^ .cfa: $rsp 56 +
STACK CFI 6f2f1 .cfa: $rsp 144 +
STACK CFI 6f5e8 .cfa: $rsp 56 +
STACK CFI 6f5e9 .cfa: $rsp 48 +
STACK CFI 6f5ea .cfa: $rsp 40 +
STACK CFI 6f5ec .cfa: $rsp 32 +
STACK CFI 6f5ee .cfa: $rsp 24 +
STACK CFI 6f5f0 .cfa: $rsp 16 +
STACK CFI 6f5f2 .cfa: $rsp 8 +
STACK CFI 6f5f8 .cfa: $rsp 144 +
STACK CFI INIT 2a130 2e .cfa: $rsp 8 + .ra: .cfa -8 + ^
STACK CFI 2a13b .cfa: $rsp 16 +
STACK CFI 2a159 .cfa: $rsp 8 +
STACK CFI INIT 70480 1a4 .cfa: $rsp 8 + .ra: .cfa -8 + ^
STACK CFI 70482 $r12: .cfa -16 + ^ .cfa: $rsp 16 +
STACK CFI 70483 $rbp: .cfa -24 + ^ .cfa: $rsp 24 +
STACK CFI 70487 $rbx: .cfa -32 + ^ .cfa: $rsp 32 +
STACK CFI 7049d .cfa: $rsp 48 +
STACK CFI 7056e .cfa: $rsp 32 +
STACK CFI 7056f .cfa: $rsp 24 +
STACK CFI 70570 .cfa: $rsp 16 +
STACK CFI 70572 .cfa: $rsp 8 +
STACK CFI 70578 .cfa: $rsp 48 +
STACK CFI INIT 70630 18d .cfa: $rsp 8 + .ra: .cfa -8 + ^
STACK CFI 70632 $r12: .cfa -16 + ^ .cfa: $rsp 16 +
STACK CFI 70633 $rbp: .cfa -24 + ^ .cfa: $rsp 24 +
STACK CFI 70634 $rbx: .cfa -32 + ^ .cfa: $rsp 32 +
STACK CFI 707b9 .cfa: $rsp 24 +
STACK CFI 707ba .cfa: $rsp 16 +
STACK CFI 707bc .cfa: $rsp 8 +
STACK CFI INIT 707c0 1b5 .cfa: $rsp 8 + .ra: .cfa -8 + ^
STACK CFI 707c2 $r12: .cfa -16 + ^ .cfa: $rsp 16 +
STACK CFI 707c3 $rbp: .cfa -24 + ^ .cfa: $rsp 24 +
STACK CFI 707c7 $rbx: .cfa -32 + ^ .cfa: $rsp 32 +
STACK CFI 70947 .cfa: $rsp 24 +
STACK CFI 70948 .cfa: $rsp 16 +
STACK CFI 7094a .cfa: $rsp 8 +
STACK CFI 70950 .cfa: $rsp 32 +
STACK CFI 70971 .cfa: $rsp 24 +
STACK CFI 70972 .cfa: $rsp 16 +
STACK CFI 70974 .cfa: $rsp 8 +
STACK CFI INIT 2a160 2e .cfa: $rsp 8 + .ra: .cfa -8 + ^
STACK CFI 2a16b .cfa: $rsp 16 +
STACK CFI 2a189 .cfa: $rsp 8 +
STACK CFI INIT 70980 c8 .cfa: $rsp 8 + .ra: .cfa -8 + ^
STACK CFI 70982 $r12: .cfa -16 + ^ .cfa: $rsp 16 +
STACK CFI 70983 $rbp: .cfa -24 + ^ .cfa: $rsp 24 +
STACK CFI 70987 $rbx: .cfa -32 + ^ .cfa: $rsp 32 +
STACK CFI 7098e .cfa: $rsp 48 +
STACK CFI 709f4 .cfa: $rsp 32 +
STACK CFI 709f5 .cfa: $rsp 24 +
STACK CFI 709f6 .cfa: $rsp 16 +
STACK CFI 709f8 .cfa: $rsp 8 +
STACK CFI 70a00 .cfa: $rsp 48 +
STACK CFI INIT 712d0 32 .cfa: $rsp 8 + .ra: .cfa -8 + ^
STACK CFI 712d1 $rbx: .cfa -16 + ^ .cfa: $rsp 16 +
STACK CFI 712f4 .cfa: $rsp 8 +
STACK CFI 71300 .cfa: $rsp 16 +
STACK CFI 71301 .cfa: $rsp 8 +
STACK CFI INIT 71310 4d3 .cfa: $rsp 8 + .ra: .cfa -8 + ^
STACK CFI 71312 $r15: .cfa -16 + ^ .cfa: $rsp 16 +
STACK CFI 71314 $r14: .cfa -24 + ^ .cfa: $rsp 24 +
STACK CFI 71319 $r13: .cfa -32 + ^ .cfa: $rsp 32 +
STACK CFI 7131b $r12: .cfa -40 + ^ .cfa: $rsp 40 +
STACK CFI 71326 $rbp: .cfa -48 + ^ .cfa: $rsp 48 +
STACK CFI 71327 $rbx: .cfa -56 + ^ .cfa: $rsp 56 +
STACK CFI 71337 .cfa: $rsp 80 +
STACK CFI 71753 .cfa: $rsp 56 +
STACK CFI 71754 .cfa: $rsp 48 +
STACK CFI 71755 .cfa: $rsp 40 +
STACK CFI 71757 .cfa: $rsp 32 +
STACK CFI 71759 .cfa: $rsp 24 +
STACK CFI 7175b .cfa: $rsp 16 +
STACK CFI 7175d .cfa: $rsp 8 +
STACK CFI 71760 .cfa: $rsp 80 +
STACK CFI INIT 70a50 871 .cfa: $rsp 8 + .ra: .cfa -8 + ^
STACK CFI 70a52 $r15: .cfa -16 + ^ .cfa: $rsp 16 +
STACK CFI 70a54 $r14: .cfa -24 + ^ .cfa: $rsp 24 +
STACK CFI 70a5d $r13: .cfa -32 + ^ .cfa: $rsp 32 +
STACK CFI 70a5f $r12: .cfa -40 + ^ .cfa: $rsp 40 +
STACK CFI 70a63 $rbp: .cfa -48 + ^ .cfa: $rsp 48 +
STACK CFI 70a64 $rbx: .cfa -56 + ^ .cfa: $rsp 56 +
STACK CFI 70a6b .cfa: $rsp 352 +
STACK CFI 70e63 .cfa: $rsp 360 +
STACK CFI 70e64 .cfa: $rsp 368 +
STACK CFI 70e6c .cfa: $rsp 376 +
STACK CFI 70e71 .cfa: $rsp 384 +
STACK CFI 70e81 .cfa: $rsp 352 +
STACK CFI 710ea .cfa: $rsp 56 +
STACK CFI 710eb .cfa: $rsp 48 +
STACK CFI 710ec .cfa: $rsp 40 +
STACK CFI 710ee .cfa: $rsp 32 +
STACK CFI 710f0 .cfa: $rsp 24 +
STACK CFI 710f2 .cfa: $rsp 16 +
STACK CFI 710f4 .cfa: $rsp 8 +
STACK CFI 710f8 .cfa: $rsp 352 +
STACK CFI INIT 2a190 2e .cfa: $rsp 8 + .ra: .cfa -8 + ^
STACK CFI 2a19b .cfa: $rsp 16 +
STACK CFI 2a1b9 .cfa: $rsp 8 +
STACK CFI INIT 717f0 c8 .cfa: $rsp 8 + .ra: .cfa -8 + ^
STACK CFI 717f2 $r12: .cfa -16 + ^ .cfa: $rsp 16 +
STACK CFI 717f3 $rbp: .cfa -24 + ^ .cfa: $rsp 24 +
STACK CFI 717f7 $rbx: .cfa -32 + ^ .cfa: $rsp 32 +
STACK CFI 717fe .cfa: $rsp 48 +
STACK CFI 71864 .cfa: $rsp 32 +
STACK CFI 71865 .cfa: $rsp 24 +
STACK CFI 71866 .cfa: $rsp 16 +
STACK CFI 71868 .cfa: $rsp 8 +
STACK CFI 71870 .cfa: $rsp 48 +
STACK CFI INIT 718c0 2d8 .cfa: $rsp 8 + .ra: .cfa -8 + ^
STACK CFI 718c2 $r15: .cfa -16 + ^ .cfa: $rsp 16 +
STACK CFI 718c4 $r14: .cfa -24 + ^ .cfa: $rsp 24 +
STACK CFI 718c6 $r13: .cfa -32 + ^ .cfa: $rsp 32 +
STACK CFI 718c8 $r12: .cfa -40 + ^ .cfa: $rsp 40 +
STACK CFI 718c9 $rbp: .cfa -48 + ^ .cfa: $rsp 48 +
STACK CFI 718ca $rbx: .cfa -56 + ^ .cfa: $rsp 56 +
STACK CFI 718d7 .cfa: $rsp 608 +
STACK CFI 71927 .cfa: $rsp 56 +
STACK CFI 71928 .cfa: $rsp 48 +
STACK CFI 71929 .cfa: $rsp 40 +
STACK CFI 7192b .cfa: $rsp 32 +
STACK CFI 7192d .cfa: $rsp 24 +
STACK CFI 7192f .cfa: $rsp 16 +
STACK CFI 71931 .cfa: $rsp 8 +
STACK CFI 71938 .cfa: $rsp 608 +
STACK CFI INIT 71ba0 2e6 .cfa: $rsp 8 + .ra: .cfa -8 + ^
STACK CFI 71ba2 $r15: .cfa -16 + ^ .cfa: $rsp 16 +
STACK CFI 71ba4 $r14: .cfa -24 + ^ .cfa: $rsp 24 +
STACK CFI 71ba6 $r13: .cfa -32 + ^ .cfa: $rsp 32 +
STACK CFI 71ba8 $r12: .cfa -40 + ^ .cfa: $rsp 40 +
STACK CFI 71ba9 $rbp: .cfa -48 + ^ .cfa: $rsp 48 +
STACK CFI 71baa $rbx: .cfa -56 + ^ .cfa: $rsp 56 +
STACK CFI 71bae .cfa: $rsp 160 +
STACK CFI 71d1e .cfa: $rsp 56 +
STACK CFI 71d1f .cfa: $rsp 48 +
STACK CFI 71d20 .cfa: $rsp 40 +
STACK CFI 71d22 .cfa: $rsp 32 +
STACK CFI 71d24 .cfa: $rsp 24 +
STACK CFI 71d26 .cfa: $rsp 16 +
STACK CFI 71d28 .cfa: $rsp 8 +
STACK CFI 71d30 .cfa: $rsp 160 +
STACK CFI INIT 71e90 8ea .cfa: $rsp 8 + .ra: .cfa -8 + ^
STACK CFI 71e92 $r15: .cfa -16 + ^ .cfa: $rsp 16 +
STACK CFI 71e94 $r14: .cfa -24 + ^ .cfa: $rsp 24 +
STACK CFI 71e96 $r13: .cfa -32 + ^ .cfa: $rsp 32 +
STACK CFI 71e98 $r12: .cfa -40 + ^ .cfa: $rsp 40 +
STACK CFI 71e9c $rbp: .cfa -48 + ^ .cfa: $rsp 48 +
STACK CFI 71e9d $rbx: .cfa -56 + ^ .cfa: $rsp 56 +
STACK CFI 71eaa .cfa: $rsp 384 +
STACK CFI 72080 .cfa: $rsp 56 +
STACK CFI 72081 .cfa: $rsp 48 +
STACK CFI 72082 .cfa: $rsp 40 +
STACK CFI 72084 .cfa: $rsp 32 +
STACK CFI 72086 .cfa: $rsp 24 +
STACK CFI 72088 .cfa: $rsp 16 +
STACK CFI 7208a .cfa: $rsp 8 +
STACK CFI 72090 .cfa: $rsp 384 +
STACK CFI INIT 72780 116 .cfa: $rsp 8 + .ra: .cfa -8 + ^
STACK CFI 72782 $r14: .cfa -16 + ^ .cfa: $rsp 16 +
STACK CFI 72784 $r13: .cfa -24 + ^ .cfa: $rsp 24 +
STACK CFI 72789 $r12: .cfa -32 + ^ .cfa: $rsp 32 +
STACK CFI 7278a $rbp: .cfa -40 + ^ .cfa: $rsp 40 +
STACK CFI 7278e $rbx: .cfa -48 + ^ .cfa: $rsp 48 +
STACK CFI 72798 .cfa: $rsp 64 +
STACK CFI 72823 .cfa: $rsp 48 +
STACK CFI 72824 .cfa: $rsp 40 +
STACK CFI 72825 .cfa: $rsp 32 +
STACK CFI 72827 .cfa: $rsp 24 +
STACK CFI 72829 .cfa: $rsp 16 +
STACK CFI 7282b .cfa: $rsp 8 +
STACK CFI 72830 .cfa: $rsp 64 +
STACK CFI INIT 72a60 52 .cfa: $rsp 8 + .ra: .cfa -8 + ^
STACK CFI 72a67 $r12: .cfa -16 + ^ .cfa: $rsp 16 +
STACK CFI 72a6b $rbp: .cfa -24 + ^ .cfa: $rsp 24 +
STACK CFI 72a6c $rbx: .cfa -32 + ^ .cfa: $rsp 32 +
STACK CFI 72aa2 .cfa: $rsp 24 +
STACK CFI 72aa3 .cfa: $rsp 16 +
STACK CFI 72aa5 .cfa: $rsp 8 +
STACK CFI 72ab0 $r12: $r12 $rbp: $rbp $rbx: $rbx
STACK CFI INIT 72ac0 64 .cfa: $rsp 8 + .ra: .cfa -8 + ^
STACK CFI 72ac2 $r12: .cfa -16 + ^ .cfa: $rsp 16 +
STACK CFI 72aca $rbp: .cfa -24 + ^ .cfa: $rsp 24 +
STACK CFI 72acb $rbx: .cfa -32 + ^ .cfa: $rsp 32 +
STACK CFI 72b14 .cfa: $rsp 24 +
STACK CFI 72b1d .cfa: $rsp 16 +
STACK CFI 72b1f .cfa: $rsp 8 +
STACK CFI INIT 72b30 71 .cfa: $rsp 8 + .ra: .cfa -8 + ^
STACK CFI 72b32 $r12: .cfa -16 + ^ .cfa: $rsp 16 +
STACK CFI 72b3a $rbp: .cfa -24 + ^ .cfa: $rsp 24 +
STACK CFI 72b3b $rbx: .cfa -32 + ^ .cfa: $rsp 32 +
STACK CFI 72b91 .cfa: $rsp 24 +
STACK CFI 72b9a .cfa: $rsp 16 +
STACK CFI 72b9c .cfa: $rsp 8 +
STACK CFI INIT 72bb0 2b8 .cfa: $rsp 8 + .ra: .cfa -8 + ^
STACK CFI 72bb2 $r15: .cfa -16 + ^ .cfa: $rsp 16 +
STACK CFI 72bb4 $r14: .cfa -24 + ^ .cfa: $rsp 24 +
STACK CFI 72bb6 $r13: .cfa -32 + ^ .cfa: $rsp 32 +
STACK CFI 72bb8 $r12: .cfa -40 + ^ .cfa: $rsp 40 +
STACK CFI 72bb9 $rbp: .cfa -48 + ^ .cfa: $rsp 48 +
STACK CFI 72bba $rbx: .cfa -56 + ^ .cfa: $rsp 56 +
STACK CFI 72bc1 .cfa: $rsp 112 +
STACK CFI 72cfc .cfa: $rsp 56 +
STACK CFI 72d02 .cfa: $rsp 48 +
STACK CFI 72d03 .cfa: $rsp 40 +
STACK CFI 72d05 .cfa: $rsp 32 +
STACK CFI 72d07 .cfa: $rsp 24 +
STACK CFI 72d09 .cfa: $rsp 16 +
STACK CFI 72d0b .cfa: $rsp 8 +
STACK CFI 72d10 .cfa: $rsp 112 +
STACK CFI 72dc8 .cfa: $rsp 56 +
STACK CFI 72dcc .cfa: $rsp 48 +
STACK CFI 72dcd .cfa: $rsp 40 +
STACK CFI 72dcf .cfa: $rsp 32 +
STACK CFI 72dd1 .cfa: $rsp 24 +
STACK CFI 72dd3 .cfa: $rsp 16 +
STACK CFI 72dd5 .cfa: $rsp 8 +
STACK CFI 72de0 .cfa: $rsp 112 +
STACK CFI INIT 728a0 1ba .cfa: $rsp 8 + .ra: .cfa -8 + ^
STACK CFI 728a2 $r15: .cfa -16 + ^ .cfa: $rsp 16 +
STACK CFI 728a4 $r14: .cfa -24 + ^ .cfa: $rsp 24 +
STACK CFI 728a9 $r13: .cfa -32 + ^ .cfa: $rsp 32 +
STACK CFI 728ab $r12: .cfa -40 + ^ .cfa: $rsp 40 +
STACK CFI 728af $rbp: .cfa -48 + ^ .cfa: $rsp 48 +
STACK CFI 728b0 $rbx: .cfa -56 + ^ .cfa: $rsp 56 +
STACK CFI 728ba .cfa: $rsp 176 +
STACK CFI 72921 .cfa: $rsp 56 +
STACK CFI 72922 .cfa: $rsp 48 +
STACK CFI 72923 .cfa: $rsp 40 +
STACK CFI 72925 .cfa: $rsp 32 +
STACK CFI 72927 .cfa: $rsp 24 +
STACK CFI 72929 .cfa: $rsp 16 +
STACK CFI 7292b .cfa: $rsp 8 +
STACK CFI 72930 .cfa: $rsp 176 +
STACK CFI INIT 2a1c0 2e .cfa: $rsp 8 + .ra: .cfa -8 + ^
STACK CFI 2a1cb .cfa: $rsp 16 +
STACK CFI 2a1e9 .cfa: $rsp 8 +
STACK CFI INIT 72e70 6 .cfa: $rsp 8 + .ra: .cfa -8 + ^
STACK CFI INIT 72e80 e4 .cfa: $rsp 8 + .ra: .cfa -8 + ^
STACK CFI 72e81 $rbp: .cfa -16 + ^ .cfa: $rsp 16 +
STACK CFI 72e82 $rbx: .cfa -24 + ^ .cfa: $rsp 24 +
STACK CFI 72e86 .cfa: $rsp 128 +
STACK CFI 72f2b .cfa: $rsp 24 +
STACK CFI 72f2c .cfa: $rsp 16 +
STACK CFI 72f2d .cfa: $rsp 8 +
STACK CFI 72f2e .cfa: $rsp 128 +
STACK CFI INIT 72f70 b8 .cfa: $rsp 8 + .ra: .cfa -8 + ^
STACK CFI 72f71 $rbp: .cfa -16 + ^ .cfa: $rsp 16 +
STACK CFI 72f72 $rbx: .cfa -24 + ^ .cfa: $rsp 24 +
STACK CFI 72f7c .cfa: $rsp 32 +
STACK CFI 73025 .cfa: $rsp 24 +
STACK CFI 73026 .cfa: $rsp 16 +
STACK CFI 73027 .cfa: $rsp 8 +
STACK CFI INIT 73030 4e9 .cfa: $rsp 8 + .ra: .cfa -8 + ^
STACK CFI 73032 $r15: .cfa -16 + ^ .cfa: $rsp 16 +
STACK CFI 73034 $r14: .cfa -24 + ^ .cfa: $rsp 24 +
STACK CFI 73036 $r13: .cfa -32 + ^ .cfa: $rsp 32 +
STACK CFI 73038 $r12: .cfa -40 + ^ .cfa: $rsp 40 +
STACK CFI 73039 $rbp: .cfa -48 + ^ .cfa: $rsp 48 +
STACK CFI 7303a $rbx: .cfa -56 + ^ .cfa: $rsp 56 +
STACK CFI 73041 .cfa: $rsp 288 +
STACK CFI 730ca .cfa: $rsp 56 +
STACK CFI 730cb .cfa: $rsp 48 +
STACK CFI 730cc .cfa: $rsp 40 +
STACK CFI 730ce .cfa: $rsp 32 +
STACK CFI 730d0 .cfa: $rsp 24 +
STACK CFI 730d2 .cfa: $rsp 16 +
STACK CFI 730d4 .cfa: $rsp 8 +
STACK CFI 730d8 .cfa: $rsp 288 +
STACK CFI INIT 73520 1a .cfa: $rsp 8 + .ra: .cfa -8 + ^
STACK CFI 73527 .cfa: $rsp 16 +
STACK CFI 73536 .cfa: $rsp 8 +
STACK CFI INIT 73540 ff .cfa: $rsp 8 + .ra: .cfa -8 + ^
STACK CFI 73542 $r14: .cfa -16 + ^ .cfa: $rsp 16 +
STACK CFI 73544 $r13: .cfa -24 + ^ .cfa: $rsp 24 +
STACK CFI 73546 $r12: .cfa -32 + ^ .cfa: $rsp 32 +
STACK CFI 73547 $rbp: .cfa -40 + ^ .cfa: $rsp 40 +
STACK CFI 73548 $rbx: .cfa -48 + ^ .cfa: $rsp 48 +
STACK CFI 7354c .cfa: $rsp 112 +
STACK CFI 73605 .cfa: $rsp 48 +
STACK CFI 73606 .cfa: $rsp 40 +
STACK CFI 73607 .cfa: $rsp 32 +
STACK CFI 73609 .cfa: $rsp 24 +
STACK CFI 7360b .cfa: $rsp 16 +
STACK CFI 7360d .cfa: $rsp 8 +
STACK CFI 73610 .cfa: $rsp 112 +
STACK CFI INIT 74730 52 .cfa: $rsp 8 + .ra: .cfa -8 + ^
STACK CFI 74737 $r12: .cfa -16 + ^ .cfa: $rsp 16 +
STACK CFI 7473b $rbp: .cfa -24 + ^ .cfa: $rsp 24 +
STACK CFI 7473c $rbx: .cfa -32 + ^ .cfa: $rsp 32 +
STACK CFI 74772 .cfa: $rsp 24 +
STACK CFI 74773 .cfa: $rsp 16 +
STACK CFI 74775 .cfa: $rsp 8 +
STACK CFI 74780 $r12: $r12 $rbp: $rbp $rbx: $rbx
STACK CFI INIT 74790 52 .cfa: $rsp 8 + .ra: .cfa -8 + ^
STACK CFI 74797 $r12: .cfa -16 + ^ .cfa: $rsp 16 +
STACK CFI 7479b $rbp: .cfa -24 + ^ .cfa: $rsp 24 +
STACK CFI 7479c $rbx: .cfa -32 + ^ .cfa: $rsp 32 +
STACK CFI 747d2 .cfa: $rsp 24 +
STACK CFI 747d3 .cfa: $rsp 16 +
STACK CFI 747d5 .cfa: $rsp 8 +
STACK CFI 747e0 $r12: $r12 $rbp: $rbp $rbx: $rbx
STACK CFI INIT 747f0 52 .cfa: $rsp 8 + .ra: .cfa -8 + ^
STACK CFI 747f7 $r12: .cfa -16 + ^ .cfa: $rsp 16 +
STACK CFI 747fb $rbp: .cfa -24 + ^ .cfa: $rsp 24 +
STACK CFI 747fc $rbx: .cfa -32 + ^ .cfa: $rsp 32 +
STACK CFI 74832 .cfa: $rsp 24 +
STACK CFI 74833 .cfa: $rsp 16 +
STACK CFI 74835 .cfa: $rsp 8 +
STACK CFI 74840 $r12: $r12 $rbp: $rbp $rbx: $rbx
STACK CFI INIT 73640 145 .cfa: $rsp 8 + .ra: .cfa -8 + ^
STACK CFI 73642 $r12: .cfa -16 + ^ .cfa: $rsp 16 +
STACK CFI 7364a $rbp: .cfa -24 + ^ .cfa: $rsp 24 +
STACK CFI 7364b $rbx: .cfa -32 + ^ .cfa: $rsp 32 +
STACK CFI 73731 .cfa: $rsp 24 +
STACK CFI 73732 .cfa: $rsp 16 +
STACK CFI 73734 .cfa: $rsp 8 +
STACK CFI 73740 .cfa: $rsp 32 +
STACK CFI 73781 .cfa: $rsp 24 +
STACK CFI 73782 .cfa: $rsp 16 +
STACK CFI 73784 .cfa: $rsp 8 +
STACK CFI INIT 73790 17 .cfa: $rsp 8 + .ra: .cfa -8 + ^
STACK CFI 73791 $rbx: .cfa -16 + ^ .cfa: $rsp 16 +
STACK CFI 737a2 .cfa: $rsp 8 +
STACK CFI INIT 74850 7c .cfa: $rsp 8 + .ra: .cfa -8 + ^
STACK CFI 74852 $r14: .cfa -16 + ^ .cfa: $rsp 16 +
STACK CFI 74854 $r13: .cfa -24 + ^ .cfa: $rsp 24 +
STACK CFI 7485a $r12: .cfa -32 + ^ .cfa: $rsp 32 +
STACK CFI 7485b $rbp: .cfa -40 + ^ .cfa: $rsp 40 +
STACK CFI 7485c $rbx: .cfa -48 + ^ .cfa: $rsp 48 +
STACK CFI 748b1 .cfa: $rsp 40 +
STACK CFI 748b5 .cfa: $rsp 32 +
STACK CFI 748b7 .cfa: $rsp 24 +
STACK CFI 748b9 .cfa: $rsp 16 +
STACK CFI 748bb .cfa: $rsp 8 +
STACK CFI 748c0 .cfa: $rsp 48 +
STACK CFI 748c1 .cfa: $rsp 40 +
STACK CFI 748c5 .cfa: $rsp 32 +
STACK CFI 748c7 .cfa: $rsp 24 +
STACK CFI 748c9 .cfa: $rsp 16 +
STACK CFI 748cb .cfa: $rsp 8 +
STACK CFI INIT 737b0 a7 .cfa: $rsp 8 + .ra: .cfa -8 + ^
STACK CFI 737b2 $r12: .cfa -16 + ^ .cfa: $rsp 16 +
STACK CFI 737b3 $rbp: .cfa -24 + ^ .cfa: $rsp 24 +
STACK CFI 737b4 $rbx: .cfa -32 + ^ .cfa: $rsp 32 +
STACK CFI 737b8 .cfa: $rsp 96 +
STACK CFI 73824 .cfa: $rsp 32 +
STACK CFI 73825 .cfa: $rsp 24 +
STACK CFI 73826 .cfa: $rsp 16 +
STACK CFI 73828 .cfa: $rsp 8 +
STACK CFI 73830 .cfa: $rsp 96 +
STACK CFI INIT 73860 b1 .cfa: $rsp 8 + .ra: .cfa -8 + ^
STACK CFI 73862 $r13: .cfa -16 + ^ .cfa: $rsp 16 +
STACK CFI 73864 $r12: .cfa -24 + ^ .cfa: $rsp 24 +
STACK CFI 73865 $rbp: .cfa -32 + ^ .cfa: $rsp 32 +
STACK CFI 73866 $rbx: .cfa -40 + ^ .cfa: $rsp 40 +
STACK CFI 7386d .cfa: $rsp 96 +
STACK CFI 738e8 .cfa: $rsp 40 +
STACK CFI 738e9 .cfa: $rsp 32 +
STACK CFI 738ea .cfa: $rsp 24 +
STACK CFI 738ec .cfa: $rsp 16 +
STACK CFI 738ee .cfa: $rsp 8 +
STACK CFI 738ef .cfa: $rsp 96 +
STACK CFI INIT 73920 b6 .cfa: $rsp 8 + .ra: .cfa -8 + ^
STACK CFI 73922 $r13: .cfa -16 + ^ .cfa: $rsp 16 +
STACK CFI 73924 $r12: .cfa -24 + ^ .cfa: $rsp 24 +
STACK CFI 73925 $rbp: .cfa -32 + ^ .cfa: $rsp 32 +
STACK CFI 73926 $rbx: .cfa -40 + ^ .cfa: $rsp 40 +
STACK CFI 7392d .cfa: $rsp 96 +
STACK CFI 739a8 .cfa: $rsp 40 +
STACK CFI 739a9 .cfa: $rsp 32 +
STACK CFI 739aa .cfa: $rsp 24 +
STACK CFI 739ac .cfa: $rsp 16 +
STACK CFI 739ae .cfa: $rsp 8 +
STACK CFI 739b0 .cfa: $rsp 96 +
STACK CFI INIT 739e0 b6 .cfa: $rsp 8 + .ra: .cfa -8 + ^
STACK CFI 739e2 $r13: .cfa -16 + ^ .cfa: $rsp 16 +
STACK CFI 739e4 $r12: .cfa -24 + ^ .cfa: $rsp 24 +
STACK CFI 739e5 $rbp: .cfa -32 + ^ .cfa: $rsp 32 +
STACK CFI 739e6 $rbx: .cfa -40 + ^ .cfa: $rsp 40 +
STACK CFI 739ed .cfa: $rsp 96 +
STACK CFI 73a68 .cfa: $rsp 40 +
STACK CFI 73a69 .cfa: $rsp 32 +
STACK CFI 73a6a .cfa: $rsp 24 +
STACK CFI 73a6c .cfa: $rsp 16 +
STACK CFI 73a6e .cfa: $rsp 8 +
STACK CFI 73a70 .cfa: $rsp 96 +
STACK CFI INIT 748d0 1ee .cfa: $rsp 8 + .ra: .cfa -8 + ^
STACK CFI 748d2 $r15: .cfa -16 + ^ .cfa: $rsp 16 +
STACK CFI 748d4 $r14: .cfa -24 + ^ .cfa: $rsp 24 +
STACK CFI 748d6 $r13: .cfa -32 + ^ .cfa: $rsp 32 +
STACK CFI 748d8 $r12: .cfa -40 + ^ .cfa: $rsp 40 +
STACK CFI 748dc $rbp: .cfa -48 + ^ .cfa: $rsp 48 +
STACK CFI 748dd $rbx: .cfa -56 + ^ .cfa: $rsp 56 +
STACK CFI 748e9 .cfa: $rsp 80 +
STACK CFI 749de .cfa: $rsp 56 +
STACK CFI 749e4 .cfa: $rsp 48 +
STACK CFI 749e5 .cfa: $rsp 40 +
STACK CFI 749e7 .cfa: $rsp 32 +
STACK CFI 749e9 .cfa: $rsp 24 +
STACK CFI 749eb .cfa: $rsp 16 +
STACK CFI 749ed .cfa: $rsp 8 +
STACK CFI 749f0 .cfa: $rsp 80 +
STACK CFI 74a1c .cfa: $rsp 56 +
STACK CFI 74a20 .cfa: $rsp 48 +
STACK CFI 74a26 .cfa: $rsp 40 +
STACK CFI 74a28 .cfa: $rsp 32 +
STACK CFI 74a2a .cfa: $rsp 24 +
STACK CFI 74a2c .cfa: $rsp 16 +
STACK CFI 74a2e .cfa: $rsp 8 +
STACK CFI 74a30 .cfa: $rsp 80 +
STACK CFI INIT 73aa0 3b9 .cfa: $rsp 8 + .ra: .cfa -8 + ^
STACK CFI 73aa2 $r15: .cfa -16 + ^ .cfa: $rsp 16 +
STACK CFI 73aa4 $r14: .cfa -24 + ^ .cfa: $rsp 24 +
STACK CFI 73aa6 $r13: .cfa -32 + ^ .cfa: $rsp 32 +
STACK CFI 73aa8 $r12: .cfa -40 + ^ .cfa: $rsp 40 +
STACK CFI 73aa9 $rbp: .cfa -48 + ^ .cfa: $rsp 48 +
STACK CFI 73aaa $rbx: .cfa -56 + ^ .cfa: $rsp 56 +
STACK CFI 73aae .cfa: $rsp 176 +
STACK CFI 73bb9 .cfa: $rsp 56 +
STACK CFI 73bba .cfa: $rsp 48 +
STACK CFI 73bbb .cfa: $rsp 40 +
STACK CFI 73bbd .cfa: $rsp 32 +
STACK CFI 73bbf .cfa: $rsp 24 +
STACK CFI 73bc1 .cfa: $rsp 16 +
STACK CFI 73bc3 .cfa: $rsp 8 +
STACK CFI 73bc8 .cfa: $rsp 176 +
STACK CFI INIT 73e60 2bb .cfa: $rsp 8 + .ra: .cfa -8 + ^
STACK CFI 73e62 $r15: .cfa -16 + ^ .cfa: $rsp 16 +
STACK CFI 73e64 $r14: .cfa -24 + ^ .cfa: $rsp 24 +
STACK CFI 73e66 $r13: .cfa -32 + ^ .cfa: $rsp 32 +
STACK CFI 73e68 $r12: .cfa -40 + ^ .cfa: $rsp 40 +
STACK CFI 73e69 $rbp: .cfa -48 + ^ .cfa: $rsp 48 +
STACK CFI 73e6a $rbx: .cfa -56 + ^ .cfa: $rsp 56 +
STACK CFI 73e6e .cfa: $rsp 176 +
STACK CFI 73f78 .cfa: $rsp 56 +
STACK CFI 73f79 .cfa: $rsp 48 +
STACK CFI 73f7a .cfa: $rsp 40 +
STACK CFI 73f7c .cfa: $rsp 32 +
STACK CFI 73f7e .cfa: $rsp 24 +
STACK CFI 73f80 .cfa: $rsp 16 +
STACK CFI 73f82 .cfa: $rsp 8 +
STACK CFI 73f88 .cfa: $rsp 176 +
STACK CFI INIT 74ac0 1ee .cfa: $rsp 8 + .ra: .cfa -8 + ^
STACK CFI 74ac2 $r15: .cfa -16 + ^ .cfa: $rsp 16 +
STACK CFI 74ac4 $r14: .cfa -24 + ^ .cfa: $rsp 24 +
STACK CFI 74ac6 $r13: .cfa -32 + ^ .cfa: $rsp 32 +
STACK CFI 74ac8 $r12: .cfa -40 + ^ .cfa: $rsp 40 +
STACK CFI 74acc $rbp: .cfa -48 + ^ .cfa: $rsp 48 +
STACK CFI 74acd $rbx: .cfa -56 + ^ .cfa: $rsp 56 +
STACK CFI 74ad9 .cfa: $rsp 80 +
STACK CFI 74bce .cfa: $rsp 56 +
STACK CFI 74bd4 .cfa: $rsp 48 +
STACK CFI 74bd5 .cfa: $rsp 40 +
STACK CFI 74bd7 .cfa: $rsp 32 +
STACK CFI 74bd9 .cfa: $rsp 24 +
STACK CFI 74bdb .cfa: $rsp 16 +
STACK CFI 74bdd .cfa: $rsp 8 +
STACK CFI 74be0 .cfa: $rsp 80 +
STACK CFI 74c0c .cfa: $rsp 56 +
STACK CFI 74c10 .cfa: $rsp 48 +
STACK CFI 74c16 .cfa: $rsp 40 +
STACK CFI 74c18 .cfa: $rsp 32 +
STACK CFI 74c1a .cfa: $rsp 24 +
STACK CFI 74c1c .cfa: $rsp 16 +
STACK CFI 74c1e .cfa: $rsp 8 +
STACK CFI 74c20 .cfa: $rsp 80 +
STACK CFI INIT 74cb0 178 .cfa: $rsp 8 + .ra: .cfa -8 + ^
STACK CFI 74cb2 $r15: .cfa -16 + ^ .cfa: $rsp 16 +
STACK CFI 74cb4 $r14: .cfa -24 + ^ .cfa: $rsp 24 +
STACK CFI 74cb6 $r13: .cfa -32 + ^ .cfa: $rsp 32 +
STACK CFI 74cb8 $r12: .cfa -40 + ^ .cfa: $rsp 40 +
STACK CFI 74cbd $rbp: .cfa -48 + ^ .cfa: $rsp 48 +
STACK CFI 74cbe $rbx: .cfa -56 + ^ .cfa: $rsp 56 +
STACK CFI 74cc8 .cfa: $rsp 64 +
STACK CFI 74d41 .cfa: $rsp 56 +
STACK CFI 74d47 .cfa: $rsp 48 +
STACK CFI 74d48 .cfa: $rsp 40 +
STACK CFI 74d4a .cfa: $rsp 32 +
STACK CFI 74d4c .cfa: $rsp 24 +
STACK CFI 74d4e .cfa: $rsp 16 +
STACK CFI 74d50 .cfa: $rsp 8 +
STACK CFI 74d58 .cfa: $rsp 64 +
STACK CFI 74dd0 .cfa: $rsp 56 +
STACK CFI 74dd9 .cfa: $rsp 48 +
STACK CFI 74dda .cfa: $rsp 40 +
STACK CFI 74ddc .cfa: $rsp 32 +
STACK CFI 74dde .cfa: $rsp 24 +
STACK CFI 74de0 .cfa: $rsp 16 +
STACK CFI 74de2 .cfa: $rsp 8 +
STACK CFI 74de8 .cfa: $rsp 64 +
STACK CFI INIT 74120 41a .cfa: $rsp 8 + .ra: .cfa -8 + ^
STACK CFI 74122 $r15: .cfa -16 + ^ .cfa: $rsp 16 +
STACK CFI 74124 $r14: .cfa -24 + ^ .cfa: $rsp 24 +
STACK CFI 74126 $r13: .cfa -32 + ^ .cfa: $rsp 32 +
STACK CFI 74128 $r12: .cfa -40 + ^ .cfa: $rsp 40 +
STACK CFI 74129 $rbp: .cfa -48 + ^ .cfa: $rsp 48 +
STACK CFI 7412a $rbx: .cfa -56 + ^ .cfa: $rsp 56 +
STACK CFI 7412e .cfa: $rsp 176 +
STACK CFI 7423c .cfa: $rsp 56 +
STACK CFI 7423d .cfa: $rsp 48 +
STACK CFI 7423e .cfa: $rsp 40 +
STACK CFI 74240 .cfa: $rsp 32 +
STACK CFI 74242 .cfa: $rsp 24 +
STACK CFI 74244 .cfa: $rsp 16 +
STACK CFI 74246 .cfa: $rsp 8 +
STACK CFI 74250 .cfa: $rsp 176 +
STACK CFI INIT 74e30 f6 .cfa: $rsp 8 + .ra: .cfa -8 + ^
STACK CFI 74e32 $r15: .cfa -16 + ^ .cfa: $rsp 16 +
STACK CFI 74e34 $r14: .cfa -24 + ^ .cfa: $rsp 24 +
STACK CFI 74e39 $r13: .cfa -32 + ^ .cfa: $rsp 32 +
STACK CFI 74e3b $r12: .cfa -40 + ^ .cfa: $rsp 40 +
STACK CFI 74e40 $rbp: .cfa -48 + ^ .cfa: $rsp 48 +
STACK CFI 74e41 $rbx: .cfa -56 + ^ .cfa: $rsp 56 +
STACK CFI 74e48 .cfa: $rsp 64 +
STACK CFI 74e9c .cfa: $rsp 56 +
STACK CFI 74ea0 .cfa: $rsp 48 +
STACK CFI 74ea1 .cfa: $rsp 40 +
STACK CFI 74ea3 .cfa: $rsp 32 +
STACK CFI 74ea5 .cfa: $rsp 24 +
STACK CFI 74ea7 .cfa: $rsp 16 +
STACK CFI 74ea9 .cfa: $rsp 8 +
STACK CFI 74eb0 .cfa: $rsp 64 +
STACK CFI INIT 74f30 d5 .cfa: $rsp 8 + .ra: .cfa -8 + ^
STACK CFI 74f32 $r15: .cfa -16 + ^ .cfa: $rsp 16 +
STACK CFI 74f34 $r14: .cfa -24 + ^ .cfa: $rsp 24 +
STACK CFI 74f36 $r13: .cfa -32 + ^ .cfa: $rsp 32 +
STACK CFI 74f38 $r12: .cfa -40 + ^ .cfa: $rsp 40 +
STACK CFI 74f39 $rbp: .cfa -48 + ^ .cfa: $rsp 48 +
STACK CFI 74f3a $rbx: .cfa -56 + ^ .cfa: $rsp 56 +
STACK CFI 74f41 .cfa: $rsp 64 +
STACK CFI 74fb6 .cfa: $rsp 56 +
STACK CFI 74fba .cfa: $rsp 48 +
STACK CFI 74fbb .cfa: $rsp 40 +
STACK CFI 74fbd .cfa: $rsp 32 +
STACK CFI 74fbf .cfa: $rsp 24 +
STACK CFI 74fc1 .cfa: $rsp 16 +
STACK CFI 74fc3 .cfa: $rsp 8 +
STACK CFI 74fc8 .cfa: $rsp 64 +
STACK CFI INIT 74540 1e8 .cfa: $rsp 8 + .ra: .cfa -8 + ^
STACK CFI 74542 $r15: .cfa -16 + ^ .cfa: $rsp 16 +
STACK CFI 74544 $r14: .cfa -24 + ^ .cfa: $rsp 24 +
STACK CFI 74546 $r13: .cfa -32 + ^ .cfa: $rsp 32 +
STACK CFI 74548 $r12: .cfa -40 + ^ .cfa: $rsp 40 +
STACK CFI 74549 $rbp: .cfa -48 + ^ .cfa: $rsp 48 +
STACK CFI 7454a $rbx: .cfa -56 + ^ .cfa: $rsp 56 +
STACK CFI 7454e .cfa: $rsp 112 +
STACK CFI 74621 .cfa: $rsp 56 +
STACK CFI 74622 .cfa: $rsp 48 +
STACK CFI 74623 .cfa: $rsp 40 +
STACK CFI 74625 .cfa: $rsp 32 +
STACK CFI 74627 .cfa: $rsp 24 +
STACK CFI 74629 .cfa: $rsp 16 +
STACK CFI 7462b .cfa: $rsp 8 +
STACK CFI 74630 .cfa: $rsp 112 +
STACK CFI INIT 2a1f0 2e .cfa: $rsp 8 + .ra: .cfa -8 + ^
STACK CFI 2a1fb .cfa: $rsp 16 +
STACK CFI 2a219 .cfa: $rsp 8 +
STACK CFI INIT 75540 13 .cfa: $rsp 8 + .ra: .cfa -8 + ^
STACK CFI INIT 75010 13 .cfa: $rsp 8 + .ra: .cfa -8 + ^
STACK CFI INIT 75030 13 .cfa: $rsp 8 + .ra: .cfa -8 + ^
STACK CFI INIT 75050 3a .cfa: $rsp 8 + .ra: .cfa -8 + ^
STACK CFI INIT 75560 299 .cfa: $rsp 8 + .ra: .cfa -8 + ^
STACK CFI 75562 $r15: .cfa -16 + ^ .cfa: $rsp 16 +
STACK CFI 75564 $r14: .cfa -24 + ^ .cfa: $rsp 24 +
STACK CFI 75569 $r13: .cfa -32 + ^ .cfa: $rsp 32 +
STACK CFI 7556b $r12: .cfa -40 + ^ .cfa: $rsp 40 +
STACK CFI 75570 $rbp: .cfa -48 + ^ .cfa: $rsp 48 +
STACK CFI 75571 $rbx: .cfa -56 + ^ .cfa: $rsp 56 +
STACK CFI 75578 .cfa: $rsp 96 +
STACK CFI 756ca .cfa: $rsp 56 +
STACK CFI 756ce .cfa: $rsp 48 +
STACK CFI 756cf .cfa: $rsp 40 +
STACK CFI 756d1 .cfa: $rsp 32 +
STACK CFI 756d3 .cfa: $rsp 24 +
STACK CFI 756d5 .cfa: $rsp 16 +
STACK CFI 756d7 .cfa: $rsp 8 +
STACK CFI 756d8 .cfa: $rsp 96 +
STACK CFI 756de .cfa: $rsp 56 +
STACK CFI 756e4 .cfa: $rsp 48 +
STACK CFI 756e5 .cfa: $rsp 40 +
STACK CFI 756e7 .cfa: $rsp 32 +
STACK CFI 756e9 .cfa: $rsp 24 +
STACK CFI 756eb .cfa: $rsp 16 +
STACK CFI 756ed .cfa: $rsp 8 +
STACK CFI 756f0 .cfa: $rsp 96 +
STACK CFI INIT 75090 4ad .cfa: $rsp 8 + .ra: .cfa -8 + ^
STACK CFI 75092 $r15: .cfa -16 + ^ .cfa: $rsp 16 +
STACK CFI 75094 $r14: .cfa -24 + ^ .cfa: $rsp 24 +
STACK CFI 75096 $r13: .cfa -32 + ^ .cfa: $rsp 32 +
STACK CFI 75098 $r12: .cfa -40 + ^ .cfa: $rsp 40 +
STACK CFI 7509c $rbp: .cfa -48 + ^ .cfa: $rsp 48 +
STACK CFI 7509d $rbx: .cfa -56 + ^ .cfa: $rsp 56 +
STACK CFI 750aa .cfa: $rsp 224 +
STACK CFI 7523b .cfa: $rsp 56 +
STACK CFI 7523c .cfa: $rsp 48 +
STACK CFI 7523d .cfa: $rsp 40 +
STACK CFI 7523f .cfa: $rsp 32 +
STACK CFI 75241 .cfa: $rsp 24 +
STACK CFI 75243 .cfa: $rsp 16 +
STACK CFI 75245 .cfa: $rsp 8 +
STACK CFI 75250 .cfa: $rsp 224 +
STACK CFI INIT 2a220 2e .cfa: $rsp 8 + .ra: .cfa -8 + ^
STACK CFI 2a22b .cfa: $rsp 16 +
STACK CFI 2a249 .cfa: $rsp 8 +
STACK CFI INIT 75800 27 .cfa: $rsp 8 + .ra: .cfa -8 + ^
STACK CFI INIT 75830 4b4 .cfa: $rsp 8 + .ra: .cfa -8 + ^
STACK CFI 75831 $rbp: .cfa -16 + ^ .cfa: $rsp 16 +
STACK CFI 75834 .cfa: $rbp 16 +
STACK CFI 75841 $r12: .cfa -48 + ^ $r13: .cfa -40 + ^ $r14: .cfa -32 + ^ $r15: .cfa -24 + ^ $rbx: .cfa -56 + ^
STACK CFI 75998 .cfa: $rsp 8 +
STACK CFI 759a0 .cfa: $rbp 16 +
STACK CFI INIT 75cf0 28 .cfa: $rsp 8 + .ra: .cfa -8 + ^
STACK CFI INIT 75d20 17f .cfa: $rsp 8 + .ra: .cfa -8 + ^
STACK CFI 75d22 $r13: .cfa -16 + ^ .cfa: $rsp 16 +
STACK CFI 75d24 $r12: .cfa -24 + ^ .cfa: $rsp 24 +
STACK CFI 75d25 $rbp: .cfa -32 + ^ .cfa: $rsp 32 +
STACK CFI 75d26 $rbx: .cfa -40 + ^ .cfa: $rsp 40 +
STACK CFI 75d30 .cfa: $rsp 176 +
STACK CFI 75e57 .cfa: $rsp 40 +
STACK CFI 75e58 .cfa: $rsp 32 +
STACK CFI 75e59 .cfa: $rsp 24 +
STACK CFI 75e5b .cfa: $rsp 16 +
STACK CFI 75e5d .cfa: $rsp 8 +
STACK CFI 75e60 .cfa: $rsp 176 +
STACK CFI INIT 76440 12e .cfa: $rsp 8 + .ra: .cfa -8 + ^
STACK CFI 76442 $r15: .cfa -16 + ^ .cfa: $rsp 16 +
STACK CFI 76444 $r14: .cfa -24 + ^ .cfa: $rsp 24 +
STACK CFI 76449 $r13: .cfa -32 + ^ .cfa: $rsp 32 +
STACK CFI 7644b $r12: .cfa -40 + ^ .cfa: $rsp 40 +
STACK CFI 7644f $rbp: .cfa -48 + ^ .cfa: $rsp 48 +
STACK CFI 76450 $rbx: .cfa -56 + ^ .cfa: $rsp 56 +
STACK CFI 76457 .cfa: $rsp 80 +
STACK CFI 7651d .cfa: $rsp 56 +
STACK CFI 7651e .cfa: $rsp 48 +
STACK CFI 7651f .cfa: $rsp 40 +
STACK CFI 76521 .cfa: $rsp 32 +
STACK CFI 76523 .cfa: $rsp 24 +
STACK CFI 76525 .cfa: $rsp 16 +
STACK CFI 76527 .cfa: $rsp 8 +
STACK CFI 76530 .cfa: $rsp 80 +
STACK CFI INIT 75ea0 1cc .cfa: $rsp 8 + .ra: .cfa -8 + ^
STACK CFI 75ea2 $r14: .cfa -16 + ^ .cfa: $rsp 16 +
STACK CFI 75ea4 $r13: .cfa -24 + ^ .cfa: $rsp 24 +
STACK CFI 75ea6 $r12: .cfa -32 + ^ .cfa: $rsp 32 +
STACK CFI 75ea7 $rbp: .cfa -40 + ^ .cfa: $rsp 40 +
STACK CFI 75ea8 $rbx: .cfa -48 + ^ .cfa: $rsp 48 +
STACK CFI 75eac .cfa: $rsp 160 +
STACK CFI 75f06 .cfa: $rsp 48 +
STACK CFI 75f07 .cfa: $rsp 40 +
STACK CFI 75f08 .cfa: $rsp 32 +
STACK CFI 75f0a .cfa: $rsp 24 +
STACK CFI 75f0c .cfa: $rsp 16 +
STACK CFI 75f0e .cfa: $rsp 8 +
STACK CFI 75f10 .cfa: $rsp 160 +
STACK CFI INIT 76570 12e .cfa: $rsp 8 + .ra: .cfa -8 + ^
STACK CFI 76572 $r15: .cfa -16 + ^ .cfa: $rsp 16 +
STACK CFI 76574 $r14: .cfa -24 + ^ .cfa: $rsp 24 +
STACK CFI 76579 $r13: .cfa -32 + ^ .cfa: $rsp 32 +
STACK CFI 7657b $r12: .cfa -40 + ^ .cfa: $rsp 40 +
STACK CFI 7657f $rbp: .cfa -48 + ^ .cfa: $rsp 48 +
STACK CFI 76580 $rbx: .cfa -56 + ^ .cfa: $rsp 56 +
STACK CFI 76587 .cfa: $rsp 80 +
STACK CFI 7664d .cfa: $rsp 56 +
STACK CFI 7664e .cfa: $rsp 48 +
STACK CFI 7664f .cfa: $rsp 40 +
STACK CFI 76651 .cfa: $rsp 32 +
STACK CFI 76653 .cfa: $rsp 24 +
STACK CFI 76655 .cfa: $rsp 16 +
STACK CFI 76657 .cfa: $rsp 8 +
STACK CFI 76660 .cfa: $rsp 80 +
STACK CFI INIT 76070 3ce .cfa: $rsp 8 + .ra: .cfa -8 + ^
STACK CFI 76072 $r15: .cfa -16 + ^ .cfa: $rsp 16 +
STACK CFI 76074 $r14: .cfa -24 + ^ .cfa: $rsp 24 +
STACK CFI 76079 $r13: .cfa -32 + ^ .cfa: $rsp 32 +
STACK CFI 7607b $r12: .cfa -40 + ^ .cfa: $rsp 40 +
STACK CFI 7607f $rbp: .cfa -48 + ^ .cfa: $rsp 48 +
STACK CFI 76080 $rbx: .cfa -56 + ^ .cfa: $rsp 56 +
STACK CFI 7608a .cfa: $rsp 96 +
STACK CFI 76197 .cfa: $rsp 56 +
STACK CFI 76198 .cfa: $rsp 48 +
STACK CFI 76199 .cfa: $rsp 40 +
STACK CFI 7619b .cfa: $rsp 32 +
STACK CFI 7619d .cfa: $rsp 24 +
STACK CFI 7619f .cfa: $rsp 16 +
STACK CFI 761a1 .cfa: $rsp 8 +
STACK CFI 761a8 .cfa: $rsp 96 +
STACK CFI INIT 2a250 2e .cfa: $rsp 8 + .ra: .cfa -8 + ^
STACK CFI 2a25b .cfa: $rsp 16 +
STACK CFI 2a279 .cfa: $rsp 8 +
STACK CFI INIT 766a0 8 .cfa: $rsp 8 + .ra: .cfa -8 + ^
STACK CFI INIT 77020 2 .cfa: $rsp 8 + .ra: .cfa -8 + ^
STACK CFI INIT 77030 a .cfa: $rsp 8 + .ra: .cfa -8 + ^
STACK CFI INIT 77040 42 .cfa: $rsp 8 + .ra: .cfa -8 + ^
STACK CFI 77048 $rbx: .cfa -16 + ^ .cfa: $rsp 16 +
STACK CFI 77072 .cfa: $rsp 8 +
STACK CFI 77080 .cfa: $rsp 16 +
STACK CFI 77081 .cfa: $rsp 8 +
STACK CFI INIT 77090 44 .cfa: $rsp 8 + .ra: .cfa -8 + ^
STACK CFI 77098 $rbx: .cfa -16 + ^ .cfa: $rsp 16 +
STACK CFI 770cf .cfa: $rsp 8 +
STACK CFI INIT 766b0 155 .cfa: $rsp 8 + .ra: .cfa -8 + ^
STACK CFI 766b1 $rbp: .cfa -16 + ^ .cfa: $rsp 16 +
STACK CFI 766b2 $rbx: .cfa -24 + ^ .cfa: $rsp 24 +
STACK CFI 766b6 .cfa: $rsp 48 +
STACK CFI 767a0 .cfa: $rsp 24 +
STACK CFI 767a1 .cfa: $rsp 16 +
STACK CFI 767a2 .cfa: $rsp 8 +
STACK CFI 767a8 .cfa: $rsp 48 +
STACK CFI INIT 76810 46 .cfa: $rsp 8 + .ra: .cfa -8 + ^
STACK CFI 76811 $rbp: .cfa -16 + ^ .cfa: $rsp 16 +
STACK CFI 76812 $rbx: .cfa -24 + ^ .cfa: $rsp 24 +
STACK CFI 76822 .cfa: $rsp 32 +
STACK CFI 76853 .cfa: $rsp 24 +
STACK CFI 76854 .cfa: $rsp 16 +
STACK CFI 76855 .cfa: $rsp 8 +
STACK CFI INIT 76860 19a .cfa: $rsp 8 + .ra: .cfa -8 + ^
STACK CFI 76862 $r14: .cfa -16 + ^ .cfa: $rsp 16 +
STACK CFI 76864 $r13: .cfa -24 + ^ .cfa: $rsp 24 +
STACK CFI 76866 $r12: .cfa -32 + ^ .cfa: $rsp 32 +
STACK CFI 76867 $rbp: .cfa -40 + ^ .cfa: $rsp 40 +
STACK CFI 76868 $rbx: .cfa -48 + ^ .cfa: $rsp 48 +
STACK CFI 7686c .cfa: $rsp 80 +
STACK CFI 76906 .cfa: $rsp 48 +
STACK CFI 76907 .cfa: $rsp 40 +
STACK CFI 76908 .cfa: $rsp 32 +
STACK CFI 7690a .cfa: $rsp 24 +
STACK CFI 7690c .cfa: $rsp 16 +
STACK CFI 7690e .cfa: $rsp 8 +
STACK CFI 76910 .cfa: $rsp 80 +
STACK CFI INIT 76a00 22d .cfa: $rsp 8 + .ra: .cfa -8 + ^
STACK CFI 76a02 $r15: .cfa -16 + ^ .cfa: $rsp 16 +
STACK CFI 76a04 $r14: .cfa -24 + ^ .cfa: $rsp 24 +
STACK CFI 76a06 $r13: .cfa -32 + ^ .cfa: $rsp 32 +
STACK CFI 76a08 $r12: .cfa -40 + ^ .cfa: $rsp 40 +
STACK CFI 76a09 $rbp: .cfa -48 + ^ .cfa: $rsp 48 +
STACK CFI 76a0a $rbx: .cfa -56 + ^ .cfa: $rsp 56 +
STACK CFI 76a0e .cfa: $rsp 80 +
STACK CFI 76ac3 .cfa: $rsp 56 +
STACK CFI 76ac4 .cfa: $rsp 48 +
STACK CFI 76ac5 .cfa: $rsp 40 +
STACK CFI 76ac7 .cfa: $rsp 32 +
STACK CFI 76ac9 .cfa: $rsp 24 +
STACK CFI 76acb .cfa: $rsp 16 +
STACK CFI 76acd .cfa: $rsp 8 +
STACK CFI 76ad0 .cfa: $rsp 80 +
STACK CFI INIT 770e0 106 .cfa: $rsp 8 + .ra: .cfa -8 + ^
STACK CFI 770e2 $r15: .cfa -16 + ^ .cfa: $rsp 16 +
STACK CFI 770e4 $r14: .cfa -24 + ^ .cfa: $rsp 24 +
STACK CFI 770e6 $r13: .cfa -32 + ^ .cfa: $rsp 32 +
STACK CFI 770e8 $r12: .cfa -40 + ^ .cfa: $rsp 40 +
STACK CFI 770ed $rbp: .cfa -48 + ^ .cfa: $rsp 48 +
STACK CFI 770ee $rbx: .cfa -56 + ^ .cfa: $rsp 56 +
STACK CFI 770f2 .cfa: $rsp 64 +
STACK CFI 7719b .cfa: $rsp 56 +
STACK CFI 7719f .cfa: $rsp 48 +
STACK CFI 771a0 .cfa: $rsp 40 +
STACK CFI 771a2 .cfa: $rsp 32 +
STACK CFI 771a4 .cfa: $rsp 24 +
STACK CFI 771a6 .cfa: $rsp 16 +
STACK CFI 771a8 .cfa: $rsp 8 +
STACK CFI 771b0 .cfa: $rsp 64 +
STACK CFI 771b4 .cfa: $rsp 56 +
STACK CFI 771b8 .cfa: $rsp 48 +
STACK CFI 771b9 .cfa: $rsp 40 +
STACK CFI 771bb .cfa: $rsp 32 +
STACK CFI 771bd .cfa: $rsp 24 +
STACK CFI 771bf .cfa: $rsp 16 +
STACK CFI 771c1 .cfa: $rsp 8 +
STACK CFI 771c8 .cfa: $rsp 64 +
STACK CFI INIT 771f0 8da .cfa: $rsp 8 + .ra: .cfa -8 + ^
STACK CFI 771f2 $r15: .cfa -16 + ^ .cfa: $rsp 16 +
STACK CFI 771f4 $r14: .cfa -24 + ^ .cfa: $rsp 24 +
STACK CFI 771f6 $r13: .cfa -32 + ^ .cfa: $rsp 32 +
STACK CFI 771f8 $r12: .cfa -40 + ^ .cfa: $rsp 40 +
STACK CFI 771f9 $rbp: .cfa -48 + ^ .cfa: $rsp 48 +
STACK CFI 771fa $rbx: .cfa -56 + ^ .cfa: $rsp 56 +
STACK CFI 77204 .cfa: $rsp 384 +
STACK CFI 77776 .cfa: $rsp 56 +
STACK CFI 77777 .cfa: $rsp 48 +
STACK CFI 77778 .cfa: $rsp 40 +
STACK CFI 7777a .cfa: $rsp 32 +
STACK CFI 7777c .cfa: $rsp 24 +
STACK CFI 7777e .cfa: $rsp 16 +
STACK CFI 77780 .cfa: $rsp 8 +
STACK CFI 77788 .cfa: $rsp 384 +
STACK CFI INIT 76c30 12f .cfa: $rsp 8 + .ra: .cfa -8 + ^
STACK CFI 76c31 $rbp: .cfa -16 + ^ .cfa: $rsp 16 +
STACK CFI 76c34 .cfa: $rbp 16 +
STACK CFI 76c3b $r12: .cfa -40 + ^ $r13: .cfa -32 + ^ $r14: .cfa -24 + ^ $rbx: .cfa -48 + ^
STACK CFI 76d2d .cfa: $rsp 8 +
STACK CFI 76d30 .cfa: $rbp 16 +
STACK CFI 76d4a .cfa: $rsp 8 +
STACK CFI 76d4b .cfa: $rbp 16 +
STACK CFI INIT 76d60 2be .cfa: $rsp 8 + .ra: .cfa -8 + ^
STACK CFI 76d62 $r15: .cfa -16 + ^ .cfa: $rsp 16 +
STACK CFI 76d64 $r14: .cfa -24 + ^ .cfa: $rsp 24 +
STACK CFI 76d66 $r13: .cfa -32 + ^ .cfa: $rsp 32 +
STACK CFI 76d68 $r12: .cfa -40 + ^ .cfa: $rsp 40 +
STACK CFI 76d69 $rbp: .cfa -48 + ^ .cfa: $rsp 48 +
STACK CFI 76d6a $rbx: .cfa -56 + ^ .cfa: $rsp 56 +
STACK CFI 76d6e .cfa: $rsp 80 +
STACK CFI 76e62 .cfa: $rsp 56 +
STACK CFI 76e63 .cfa: $rsp 48 +
STACK CFI 76e64 .cfa: $rsp 40 +
STACK CFI 76e66 .cfa: $rsp 32 +
STACK CFI 76e68 .cfa: $rsp 24 +
STACK CFI 76e6a .cfa: $rsp 16 +
STACK CFI 76e6c .cfa: $rsp 8 +
STACK CFI 76e70 .cfa: $rsp 80 +
STACK CFI INIT 2a280 2e .cfa: $rsp 8 + .ra: .cfa -8 + ^
STACK CFI 2a28b .cfa: $rsp 16 +
STACK CFI 2a2a9 .cfa: $rsp 8 +
STACK CFI INIT 78be0 2 .cfa: $rsp 8 + .ra: .cfa -8 + ^
STACK CFI INIT 78bf0 a .cfa: $rsp 8 + .ra: .cfa -8 + ^
STACK CFI INIT 78c00 42 .cfa: $rsp 8 + .ra: .cfa -8 + ^
STACK CFI 78c08 $rbx: .cfa -16 + ^ .cfa: $rsp 16 +
STACK CFI 78c32 .cfa: $rsp 8 +
STACK CFI 78c40 .cfa: $rsp 16 +
STACK CFI 78c41 .cfa: $rsp 8 +
STACK CFI INIT 78c50 44 .cfa: $rsp 8 + .ra: .cfa -8 + ^
STACK CFI 78c58 $rbx: .cfa -16 + ^ .cfa: $rsp 16 +
STACK CFI 78c8f .cfa: $rsp 8 +
STACK CFI INIT 77ad0 13d .cfa: $rsp 8 + .ra: .cfa -8 + ^
STACK CFI 77ad1 $rbp: .cfa -16 + ^ .cfa: $rsp 16 +
STACK CFI 77ad2 $rbx: .cfa -24 + ^ .cfa: $rsp 24 +
STACK CFI 77ad6 .cfa: $rsp 48 +
STACK CFI 77ba5 .cfa: $rsp 24 +
STACK CFI 77ba6 .cfa: $rsp 16 +
STACK CFI 77ba7 .cfa: $rsp 8 +
STACK CFI 77bb0 .cfa: $rsp 48 +
STACK CFI INIT 77c10 3d .cfa: $rsp 8 + .ra: .cfa -8 + ^
STACK CFI 77c12 $r12: .cfa -16 + ^ .cfa: $rsp 16 +
STACK CFI 77c16 $rbp: .cfa -24 + ^ .cfa: $rsp 24 +
STACK CFI 77c1a $rbx: .cfa -32 + ^ .cfa: $rsp 32 +
STACK CFI 77c49 .cfa: $rsp 24 +
STACK CFI 77c4a .cfa: $rsp 16 +
STACK CFI 77c4c .cfa: $rsp 8 +
STACK CFI INIT 77c50 186 .cfa: $rsp 8 + .ra: .cfa -8 + ^
STACK CFI 77c52 $r14: .cfa -16 + ^ .cfa: $rsp 16 +
STACK CFI 77c54 $r13: .cfa -24 + ^ .cfa: $rsp 24 +
STACK CFI 77c56 $r12: .cfa -32 + ^ .cfa: $rsp 32 +
STACK CFI 77c57 $rbp: .cfa -40 + ^ .cfa: $rsp 40 +
STACK CFI 77c58 $rbx: .cfa -48 + ^ .cfa: $rsp 48 +
STACK CFI 77c5c .cfa: $rsp 64 +
STACK CFI 77d11 .cfa: $rsp 48 +
STACK CFI 77d12 .cfa: $rsp 40 +
STACK CFI 77d13 .cfa: $rsp 32 +
STACK CFI 77d15 .cfa: $rsp 24 +
STACK CFI 77d17 .cfa: $rsp 16 +
STACK CFI 77d19 .cfa: $rsp 8 +
STACK CFI 77d20 .cfa: $rsp 64 +
STACK CFI INIT 77de0 29d .cfa: $rsp 8 + .ra: .cfa -8 + ^
STACK CFI 77de2 $r13: .cfa -16 + ^ .cfa: $rsp 16 +
STACK CFI 77de4 $r12: .cfa -24 + ^ .cfa: $rsp 24 +
STACK CFI 77de5 $rbp: .cfa -32 + ^ .cfa: $rsp 32 +
STACK CFI 77de6 $rbx: .cfa -40 + ^ .cfa: $rsp 40 +
STACK CFI 77dea .cfa: $rsp 80 +
STACK CFI 77f24 .cfa: $rsp 40 +
STACK CFI 77f25 .cfa: $rsp 32 +
STACK CFI 77f26 .cfa: $rsp 24 +
STACK CFI 77f28 .cfa: $rsp 16 +
STACK CFI 77f2a .cfa: $rsp 8 +
STACK CFI 77f30 .cfa: $rsp 80 +
STACK CFI INIT 78ca0 106 .cfa: $rsp 8 + .ra: .cfa -8 + ^
STACK CFI 78ca2 $r15: .cfa -16 + ^ .cfa: $rsp 16 +
STACK CFI 78ca4 $r14: .cfa -24 + ^ .cfa: $rsp 24 +
STACK CFI 78ca6 $r13: .cfa -32 + ^ .cfa: $rsp 32 +
STACK CFI 78ca8 $r12: .cfa -40 + ^ .cfa: $rsp 40 +
STACK CFI 78cad $rbp: .cfa -48 + ^ .cfa: $rsp 48 +
STACK CFI 78cae $rbx: .cfa -56 + ^ .cfa: $rsp 56 +
STACK CFI 78cb2 .cfa: $rsp 64 +
STACK CFI 78d5b .cfa: $rsp 56 +
STACK CFI 78d5f .cfa: $rsp 48 +
STACK CFI 78d60 .cfa: $rsp 40 +
STACK CFI 78d62 .cfa: $rsp 32 +
STACK CFI 78d64 .cfa: $rsp 24 +
STACK CFI 78d66 .cfa: $rsp 16 +
STACK CFI 78d68 .cfa: $rsp 8 +
STACK CFI 78d70 .cfa: $rsp 64 +
STACK CFI 78d74 .cfa: $rsp 56 +
STACK CFI 78d78 .cfa: $rsp 48 +
STACK CFI 78d79 .cfa: $rsp 40 +
STACK CFI 78d7b .cfa: $rsp 32 +
STACK CFI 78d7d .cfa: $rsp 24 +
STACK CFI 78d7f .cfa: $rsp 16 +
STACK CFI 78d81 .cfa: $rsp 8 +
STACK CFI 78d88 .cfa: $rsp 64 +
STACK CFI INIT 78080 8a1 .cfa: $rsp 8 + .ra: .cfa -8 + ^
STACK CFI 78082 $r15: .cfa -16 + ^ .cfa: $rsp 16 +
STACK CFI 78084 $r14: .cfa -24 + ^ .cfa: $rsp 24 +
STACK CFI 78086 $r13: .cfa -32 + ^ .cfa: $rsp 32 +
STACK CFI 78088 $r12: .cfa -40 + ^ .cfa: $rsp 40 +
STACK CFI 78089 $rbp: .cfa -48 + ^ .cfa: $rsp 48 +
STACK CFI 7808a $rbx: .cfa -56 + ^ .cfa: $rsp 56 +
STACK CFI 7809a .cfa: $rsp 288 +
STACK CFI 78635 .cfa: $rsp 56 +
STACK CFI 78636 .cfa: $rsp 48 +
STACK CFI 78637 .cfa: $rsp 40 +
STACK CFI 78639 .cfa: $rsp 32 +
STACK CFI 7863b .cfa: $rsp 24 +
STACK CFI 7863d .cfa: $rsp 16 +
STACK CFI 7863f .cfa: $rsp 8 +
STACK CFI 78640 .cfa: $rsp 288 +
STACK CFI INIT 78930 2aa .cfa: $rsp 8 + .ra: .cfa -8 + ^
STACK CFI 78932 $r15: .cfa -16 + ^ .cfa: $rsp 16 +
STACK CFI 78934 $r14: .cfa -24 + ^ .cfa: $rsp 24 +
STACK CFI 78936 $r13: .cfa -32 + ^ .cfa: $rsp 32 +
STACK CFI 78938 $r12: .cfa -40 + ^ .cfa: $rsp 40 +
STACK CFI 78939 $rbp: .cfa -48 + ^ .cfa: $rsp 48 +
STACK CFI 7893a $rbx: .cfa -56 + ^ .cfa: $rsp 56 +
STACK CFI 7893e .cfa: $rsp 96 +
STACK CFI 78a6b .cfa: $rsp 56 +
STACK CFI 78a6c .cfa: $rsp 48 +
STACK CFI 78a6d .cfa: $rsp 40 +
STACK CFI 78a6f .cfa: $rsp 32 +
STACK CFI 78a71 .cfa: $rsp 24 +
STACK CFI 78a73 .cfa: $rsp 16 +
STACK CFI 78a75 .cfa: $rsp 8 +
STACK CFI 78a80 .cfa: $rsp 96 +
STACK CFI INIT 2a2b0 2e .cfa: $rsp 8 + .ra: .cfa -8 + ^
STACK CFI 2a2bb .cfa: $rsp 16 +
STACK CFI 2a2d9 .cfa: $rsp 8 +
STACK CFI INIT 79e50 2 .cfa: $rsp 8 + .ra: .cfa -8 + ^
STACK CFI INIT 79e60 a .cfa: $rsp 8 + .ra: .cfa -8 + ^
STACK CFI INIT 79e70 42 .cfa: $rsp 8 + .ra: .cfa -8 + ^
STACK CFI 79e78 $rbx: .cfa -16 + ^ .cfa: $rsp 16 +
STACK CFI 79ea2 .cfa: $rsp 8 +
STACK CFI 79eb0 .cfa: $rsp 16 +
STACK CFI 79eb1 .cfa: $rsp 8 +
STACK CFI INIT 79ec0 44 .cfa: $rsp 8 + .ra: .cfa -8 + ^
STACK CFI 79ec8 $rbx: .cfa -16 + ^ .cfa: $rsp 16 +
STACK CFI 79eff .cfa: $rsp 8 +
STACK CFI INIT 78db0 13d .cfa: $rsp 8 + .ra: .cfa -8 + ^
STACK CFI 78db1 $rbp: .cfa -16 + ^ .cfa: $rsp 16 +
STACK CFI 78db2 $rbx: .cfa -24 + ^ .cfa: $rsp 24 +
STACK CFI 78db6 .cfa: $rsp 48 +
STACK CFI 78e88 .cfa: $rsp 24 +
STACK CFI 78e89 .cfa: $rsp 16 +
STACK CFI 78e8a .cfa: $rsp 8 +
STACK CFI 78e90 .cfa: $rsp 48 +
STACK CFI INIT 78ef0 3b .cfa: $rsp 8 + .ra: .cfa -8 + ^
STACK CFI 78ef1 $rbp: .cfa -16 + ^ .cfa: $rsp 16 +
STACK CFI 78ef2 $rbx: .cfa -24 + ^ .cfa: $rsp 24 +
STACK CFI 78f02 .cfa: $rsp 32 +
STACK CFI 78f28 .cfa: $rsp 24 +
STACK CFI 78f29 .cfa: $rsp 16 +
STACK CFI 78f2a .cfa: $rsp 8 +
STACK CFI INIT 78f30 190 .cfa: $rsp 8 + .ra: .cfa -8 + ^
STACK CFI 78f32 $r14: .cfa -16 + ^ .cfa: $rsp 16 +
STACK CFI 78f34 $r13: .cfa -24 + ^ .cfa: $rsp 24 +
STACK CFI 78f36 $r12: .cfa -32 + ^ .cfa: $rsp 32 +
STACK CFI 78f37 $rbp: .cfa -40 + ^ .cfa: $rsp 40 +
STACK CFI 78f38 $rbx: .cfa -48 + ^ .cfa: $rsp 48 +
STACK CFI 78f3c .cfa: $rsp 64 +
STACK CFI 78ff2 .cfa: $rsp 48 +
STACK CFI 78ff3 .cfa: $rsp 40 +
STACK CFI 78ff4 .cfa: $rsp 32 +
STACK CFI 78ff6 .cfa: $rsp 24 +
STACK CFI 78ff8 .cfa: $rsp 16 +
STACK CFI 78ffa .cfa: $rsp 8 +
STACK CFI 79000 .cfa: $rsp 64 +
STACK CFI INIT 790c0 26d .cfa: $rsp 8 + .ra: .cfa -8 + ^
STACK CFI 790c2 $r12: .cfa -16 + ^ .cfa: $rsp 16 +
STACK CFI 790c3 $rbp: .cfa -24 + ^ .cfa: $rsp 24 +
STACK CFI 790c4 $rbx: .cfa -32 + ^ .cfa: $rsp 32 +
STACK CFI 790c8 .cfa: $rsp 64 +
STACK CFI 791ef .cfa: $rsp 32 +
STACK CFI 791f0 .cfa: $rsp 24 +
STACK CFI 791f1 .cfa: $rsp 16 +
STACK CFI 791f3 .cfa: $rsp 8 +
STACK CFI 791f8 .cfa: $rsp 64 +
STACK CFI INIT 79330 8a9 .cfa: $rsp 8 + .ra: .cfa -8 + ^
STACK CFI 79332 $r15: .cfa -16 + ^ .cfa: $rsp 16 +
STACK CFI 79334 $r14: .cfa -24 + ^ .cfa: $rsp 24 +
STACK CFI 79336 $r13: .cfa -32 + ^ .cfa: $rsp 32 +
STACK CFI 79338 $r12: .cfa -40 + ^ .cfa: $rsp 40 +
STACK CFI 79339 $rbp: .cfa -48 + ^ .cfa: $rsp 48 +
STACK CFI 7933a $rbx: .cfa -56 + ^ .cfa: $rsp 56 +
STACK CFI 7934a .cfa: $rsp 288 +
STACK CFI 79917 .cfa: $rsp 56 +
STACK CFI 79918 .cfa: $rsp 48 +
STACK CFI 79919 .cfa: $rsp 40 +
STACK CFI 7991b .cfa: $rsp 32 +
STACK CFI 7991d .cfa: $rsp 24 +
STACK CFI 7991f .cfa: $rsp 16 +
STACK CFI 79921 .cfa: $rsp 8 +
STACK CFI 79928 .cfa: $rsp 288 +
STACK CFI INIT 79be0 26e .cfa: $rsp 8 + .ra: .cfa -8 + ^
STACK CFI 79be2 $r15: .cfa -16 + ^ .cfa: $rsp 16 +
STACK CFI 79be4 $r14: .cfa -24 + ^ .cfa: $rsp 24 +
STACK CFI 79be6 $r13: .cfa -32 + ^ .cfa: $rsp 32 +
STACK CFI 79be8 $r12: .cfa -40 + ^ .cfa: $rsp 40 +
STACK CFI 79be9 $rbp: .cfa -48 + ^ .cfa: $rsp 48 +
STACK CFI 79bea $rbx: .cfa -56 + ^ .cfa: $rsp 56 +
STACK CFI 79bee .cfa: $rsp 80 +
STACK CFI 79d4a .cfa: $rsp 56 +
STACK CFI 79d4b .cfa: $rsp 48 +
STACK CFI 79d4c .cfa: $rsp 40 +
STACK CFI 79d4e .cfa: $rsp 32 +
STACK CFI 79d50 .cfa: $rsp 24 +
STACK CFI 79d52 .cfa: $rsp 16 +
STACK CFI 79d54 .cfa: $rsp 8 +
STACK CFI 79d58 .cfa: $rsp 80 +
STACK CFI INIT 2a2e0 2e .cfa: $rsp 8 + .ra: .cfa -8 + ^
STACK CFI 2a2eb .cfa: $rsp 16 +
STACK CFI 2a309 .cfa: $rsp 8 +
STACK CFI INIT 7a130 2 .cfa: $rsp 8 + .ra: .cfa -8 + ^
STACK CFI INIT 79f10 93 .cfa: $rsp 8 + .ra: .cfa -8 + ^
STACK CFI 79f1c $rbx: .cfa -16 + ^ .cfa: $rsp 16 +
STACK CFI 79f99 .cfa: $rsp 8 +
STACK CFI 79fa0 $rbx: $rbx
STACK CFI INIT 7a140 a .cfa: $rsp 8 + .ra: .cfa -8 + ^
STACK CFI INIT 79fb0 135 .cfa: $rsp 8 + .ra: .cfa -8 + ^
STACK CFI 79fb1 $rbp: .cfa -16 + ^ .cfa: $rsp 16 +
STACK CFI 79fb2 $rbx: .cfa -24 + ^ .cfa: $rsp 24 +
STACK CFI 79fb6 .cfa: $rsp 48 +
STACK CFI 7a078 .cfa: $rsp 24 +
STACK CFI 7a079 .cfa: $rsp 16 +
STACK CFI 7a07a .cfa: $rsp 8 +
STACK CFI 7a080 .cfa: $rsp 48 +
STACK CFI INIT 7a0f0 31 .cfa: $rsp 8 + .ra: .cfa -8 + ^
STACK CFI 7a0f2 $r12: .cfa -16 + ^ .cfa: $rsp 16 +
STACK CFI 7a0f3 $rbp: .cfa -24 + ^ .cfa: $rsp 24 +
STACK CFI 7a0f7 $rbx: .cfa -32 + ^ .cfa: $rsp 32 +
STACK CFI 7a11d .cfa: $rsp 24 +
STACK CFI 7a11e .cfa: $rsp 16 +
STACK CFI 7a120 .cfa: $rsp 8 +
STACK CFI INIT 2a310 2e .cfa: $rsp 8 + .ra: .cfa -8 + ^
STACK CFI 2a31b .cfa: $rsp 16 +
STACK CFI 2a339 .cfa: $rsp 8 +
STACK CFI INIT 7dab0 2 .cfa: $rsp 8 + .ra: .cfa -8 + ^
STACK CFI INIT 7dac0 a .cfa: $rsp 8 + .ra: .cfa -8 + ^
STACK CFI INIT 7dad0 42 .cfa: $rsp 8 + .ra: .cfa -8 + ^
STACK CFI 7dad8 $rbx: .cfa -16 + ^ .cfa: $rsp 16 +
STACK CFI 7db02 .cfa: $rsp 8 +
STACK CFI 7db10 .cfa: $rsp 16 +
STACK CFI 7db11 .cfa: $rsp 8 +
STACK CFI INIT 7db20 44 .cfa: $rsp 8 + .ra: .cfa -8 + ^
STACK CFI 7db28 $rbx: .cfa -16 + ^ .cfa: $rsp 16 +
STACK CFI 7db5f .cfa: $rsp 8 +
STACK CFI INIT 7a150 13d .cfa: $rsp 8 + .ra: .cfa -8 + ^
STACK CFI 7a151 $rbp: .cfa -16 + ^ .cfa: $rsp 16 +
STACK CFI 7a152 $rbx: .cfa -24 + ^ .cfa: $rsp 24 +
STACK CFI 7a156 .cfa: $rsp 48 +
STACK CFI 7a227 .cfa: $rsp 24 +
STACK CFI 7a228 .cfa: $rsp 16 +
STACK CFI 7a229 .cfa: $rsp 8 +
STACK CFI 7a230 .cfa: $rsp 48 +
STACK CFI INIT 7a290 2ae .cfa: $rsp 8 + .ra: .cfa -8 + ^
STACK CFI 7a292 $r14: .cfa -16 + ^ .cfa: $rsp 16 +
STACK CFI 7a294 $r13: .cfa -24 + ^ .cfa: $rsp 24 +
STACK CFI 7a296 $r12: .cfa -32 + ^ .cfa: $rsp 32 +
STACK CFI 7a297 $rbp: .cfa -40 + ^ .cfa: $rsp 40 +
STACK CFI 7a29b $rbx: .cfa -48 + ^ .cfa: $rsp 48 +
STACK CFI 7a2ab .cfa: $rsp 144 +
STACK CFI 7a323 .cfa: $rsp 48 +
STACK CFI 7a324 .cfa: $rsp 40 +
STACK CFI 7a325 .cfa: $rsp 32 +
STACK CFI 7a327 .cfa: $rsp 24 +
STACK CFI 7a329 .cfa: $rsp 16 +
STACK CFI 7a32b .cfa: $rsp 8 +
STACK CFI 7a330 .cfa: $rsp 144 +
STACK CFI INIT 7a540 53a .cfa: $rsp 8 + .ra: .cfa -8 + ^
STACK CFI 7a542 $r15: .cfa -16 + ^ .cfa: $rsp 16 +
STACK CFI 7a544 $r14: .cfa -24 + ^ .cfa: $rsp 24 +
STACK CFI 7a546 $r13: .cfa -32 + ^ .cfa: $rsp 32 +
STACK CFI 7a548 $r12: .cfa -40 + ^ .cfa: $rsp 40 +
STACK CFI 7a549 $rbp: .cfa -48 + ^ .cfa: $rsp 48 +
STACK CFI 7a54a $rbx: .cfa -56 + ^ .cfa: $rsp 56 +
STACK CFI 7a551 .cfa: $rsp 112 +
STACK CFI 7a7bd .cfa: $rsp 56 +
STACK CFI 7a7be .cfa: $rsp 48 +
STACK CFI 7a7bf .cfa: $rsp 40 +
STACK CFI 7a7c1 .cfa: $rsp 32 +
STACK CFI 7a7c3 .cfa: $rsp 24 +
STACK CFI 7a7c5 .cfa: $rsp 16 +
STACK CFI 7a7c7 .cfa: $rsp 8 +
STACK CFI 7a7d0 .cfa: $rsp 112 +
STACK CFI INIT 7db70 25d .cfa: $rsp 8 + .ra: .cfa -8 + ^
STACK CFI 7db72 $r15: .cfa -16 + ^ .cfa: $rsp 16 +
STACK CFI 7db74 $r14: .cfa -24 + ^ .cfa: $rsp 24 +
STACK CFI 7db7a $r13: .cfa -32 + ^ .cfa: $rsp 32 +
STACK CFI 7db7c $r12: .cfa -40 + ^ .cfa: $rsp 40 +
STACK CFI 7db80 $rbp: .cfa -48 + ^ .cfa: $rsp 48 +
STACK CFI 7db81 $rbx: .cfa -56 + ^ .cfa: $rsp 56 +
STACK CFI 7db88 .cfa: $rsp 80 +
STACK CFI 7dce6 .cfa: $rsp 56 +
STACK CFI 7dceb .cfa: $rsp 48 +
STACK CFI 7dcec .cfa: $rsp 40 +
STACK CFI 7dcee .cfa: $rsp 32 +
STACK CFI 7dcf0 .cfa: $rsp 24 +
STACK CFI 7dcf2 .cfa: $rsp 16 +
STACK CFI 7dcf4 .cfa: $rsp 8 +
STACK CFI 7dcf8 .cfa: $rsp 80 +
STACK CFI INIT 7ddd0 25d .cfa: $rsp 8 + .ra: .cfa -8 + ^
STACK CFI 7ddd2 $r15: .cfa -16 + ^ .cfa: $rsp 16 +
STACK CFI 7ddd4 $r14: .cfa -24 + ^ .cfa: $rsp 24 +
STACK CFI 7ddda $r13: .cfa -32 + ^ .cfa: $rsp 32 +
STACK CFI 7dddc $r12: .cfa -40 + ^ .cfa: $rsp 40 +
STACK CFI 7dde0 $rbp: .cfa -48 + ^ .cfa: $rsp 48 +
STACK CFI 7dde1 $rbx: .cfa -56 + ^ .cfa: $rsp 56 +
STACK CFI 7dde8 .cfa: $rsp 80 +
STACK CFI 7df46 .cfa: $rsp 56 +
STACK CFI 7df4b .cfa: $rsp 48 +
STACK CFI 7df4c .cfa: $rsp 40 +
STACK CFI 7df4e .cfa: $rsp 32 +
STACK CFI 7df50 .cfa: $rsp 24 +
STACK CFI 7df52 .cfa: $rsp 16 +
STACK CFI 7df54 .cfa: $rsp 8 +
STACK CFI 7df58 .cfa: $rsp 80 +
STACK CFI INIT 7aa80 2ddf .cfa: $rsp 8 + .ra: .cfa -8 + ^
STACK CFI 7aa82 $r15: .cfa -16 + ^ .cfa: $rsp 16 +
STACK CFI 7aa84 $r14: .cfa -24 + ^ .cfa: $rsp 24 +
STACK CFI 7aa86 $r13: .cfa -32 + ^ .cfa: $rsp 32 +
STACK CFI 7aa88 $r12: .cfa -40 + ^ .cfa: $rsp 40 +
STACK CFI 7aa89 $rbp: .cfa -48 + ^ .cfa: $rsp 48 +
STACK CFI 7aa8a $rbx: .cfa -56 + ^ .cfa: $rsp 56 +
STACK CFI 7aa91 .cfa: $rsp 336 +
STACK CFI 7bb54 .cfa: $rsp 56 +
STACK CFI 7bb55 .cfa: $rsp 48 +
STACK CFI 7bb56 .cfa: $rsp 40 +
STACK CFI 7bb58 .cfa: $rsp 32 +
STACK CFI 7bb5a .cfa: $rsp 24 +
STACK CFI 7bb5c .cfa: $rsp 16 +
STACK CFI 7bb5e .cfa: $rsp 8 +
STACK CFI 7bb60 .cfa: $rsp 336 +
STACK CFI INIT 7d860 24b .cfa: $rsp 8 + .ra: .cfa -8 + ^
STACK CFI 7d862 $r15: .cfa -16 + ^ .cfa: $rsp 16 +
STACK CFI 7d864 $r14: .cfa -24 + ^ .cfa: $rsp 24 +
STACK CFI 7d866 $r13: .cfa -32 + ^ .cfa: $rsp 32 +
STACK CFI 7d868 $r12: .cfa -40 + ^ .cfa: $rsp 40 +
STACK CFI 7d869 $rbp: .cfa -48 + ^ .cfa: $rsp 48 +
STACK CFI 7d86a $rbx: .cfa -56 + ^ .cfa: $rsp 56 +
STACK CFI 7d86e .cfa: $rsp 80 +
STACK CFI 7d993 .cfa: $rsp 56 +
STACK CFI 7d994 .cfa: $rsp 48 +
STACK CFI 7d995 .cfa: $rsp 40 +
STACK CFI 7d997 .cfa: $rsp 32 +
STACK CFI 7d999 .cfa: $rsp 24 +
STACK CFI 7d99b .cfa: $rsp 16 +
STACK CFI 7d99d .cfa: $rsp 8 +
STACK CFI 7d9a0 .cfa: $rsp 80 +
STACK CFI INIT 2a340 2e .cfa: $rsp 8 + .ra: .cfa -8 + ^
STACK CFI 2a34b .cfa: $rsp 16 +
STACK CFI 2a369 .cfa: $rsp 8 +
STACK CFI INIT 7e5d0 2 .cfa: $rsp 8 + .ra: .cfa -8 + ^
STACK CFI INIT 7e5e0 a .cfa: $rsp 8 + .ra: .cfa -8 + ^
STACK CFI INIT 7e5f0 42 .cfa: $rsp 8 + .ra: .cfa -8 + ^
STACK CFI 7e5f8 $rbx: .cfa -16 + ^ .cfa: $rsp 16 +
STACK CFI 7e622 .cfa: $rsp 8 +
STACK CFI 7e630 .cfa: $rsp 16 +
STACK CFI 7e631 .cfa: $rsp 8 +
STACK CFI INIT 7e640 44 .cfa: $rsp 8 + .ra: .cfa -8 + ^
STACK CFI 7e648 $rbx: .cfa -16 + ^ .cfa: $rsp 16 +
STACK CFI 7e67f .cfa: $rsp 8 +
STACK CFI INIT 7e030 254 .cfa: $rsp 8 + .ra: .cfa -8 + ^
STACK CFI 7e032 $r13: .cfa -16 + ^ .cfa: $rsp 16 +
STACK CFI 7e034 $r12: .cfa -24 + ^ .cfa: $rsp 24 +
STACK CFI 7e038 $rbp: .cfa -32 + ^ .cfa: $rsp 32 +
STACK CFI 7e039 $rbx: .cfa -40 + ^ .cfa: $rsp 40 +
STACK CFI 7e03d .cfa: $rsp 80 +
STACK CFI 7e1f1 .cfa: $rsp 40 +
STACK CFI 7e1f2 .cfa: $rsp 32 +
STACK CFI 7e1f3 .cfa: $rsp 24 +
STACK CFI 7e1f5 .cfa: $rsp 16 +
STACK CFI 7e1f7 .cfa: $rsp 8 +
STACK CFI 7e200 .cfa: $rsp 80 +
STACK CFI INIT 7e290 17d .cfa: $rsp 8 + .ra: .cfa -8 + ^
STACK CFI 7e291 $rbp: .cfa -16 + ^ .cfa: $rsp 16 +
STACK CFI 7e292 $rbx: .cfa -24 + ^ .cfa: $rsp 24 +
STACK CFI 7e296 .cfa: $rsp 48 +
STACK CFI 7e3a5 .cfa: $rsp 24 +
STACK CFI 7e3a6 .cfa: $rsp 16 +
STACK CFI 7e3a7 .cfa: $rsp 8 +
STACK CFI 7e3b0 .cfa: $rsp 48 +
STACK CFI INIT 7e410 1c0 .cfa: $rsp 8 + .ra: .cfa -8 + ^
STACK CFI 7e412 $r14: .cfa -16 + ^ .cfa: $rsp 16 +
STACK CFI 7e414 $r13: .cfa -24 + ^ .cfa: $rsp 24 +
STACK CFI 7e416 $r12: .cfa -32 + ^ .cfa: $rsp 32 +
STACK CFI 7e417 $rbp: .cfa -40 + ^ .cfa: $rsp 40 +
STACK CFI 7e41b $rbx: .cfa -48 + ^ .cfa: $rsp 48 +
STACK CFI 7e42b .cfa: $rsp 144 +
STACK CFI 7e497 .cfa: $rsp 48 +
STACK CFI 7e498 .cfa: $rsp 40 +
STACK CFI 7e499 .cfa: $rsp 32 +
STACK CFI 7e49b .cfa: $rsp 24 +
STACK CFI 7e49d .cfa: $rsp 16 +
STACK CFI 7e49f .cfa: $rsp 8 +
STACK CFI 7e4a0 .cfa: $rsp 144 +
STACK CFI INIT 2a370 2e .cfa: $rsp 8 + .ra: .cfa -8 + ^
STACK CFI 2a37b .cfa: $rsp 16 +
STACK CFI 2a399 .cfa: $rsp 8 +
STACK CFI INIT 7ea40 2 .cfa: $rsp 8 + .ra: .cfa -8 + ^
STACK CFI INIT 7ea50 a .cfa: $rsp 8 + .ra: .cfa -8 + ^
STACK CFI INIT 7ea60 42 .cfa: $rsp 8 + .ra: .cfa -8 + ^
STACK CFI 7ea68 $rbx: .cfa -16 + ^ .cfa: $rsp 16 +
STACK CFI 7ea92 .cfa: $rsp 8 +
STACK CFI 7eaa0 .cfa: $rsp 16 +
STACK CFI 7eaa1 .cfa: $rsp 8 +
STACK CFI INIT 7eab0 44 .cfa: $rsp 8 + .ra: .cfa -8 + ^
STACK CFI 7eab8 $rbx: .cfa -16 + ^ .cfa: $rsp 16 +
STACK CFI 7eaef .cfa: $rsp 8 +
STACK CFI INIT 7e690 13d .cfa: $rsp 8 + .ra: .cfa -8 + ^
STACK CFI 7e691 $rbp: .cfa -16 + ^ .cfa: $rsp 16 +
STACK CFI 7e692 $rbx: .cfa -24 + ^ .cfa: $rsp 24 +
STACK CFI 7e696 .cfa: $rsp 48 +
STACK CFI 7e767 .cfa: $rsp 24 +
STACK CFI 7e768 .cfa: $rsp 16 +
STACK CFI 7e769 .cfa: $rsp 8 +
STACK CFI 7e770 .cfa: $rsp 48 +
STACK CFI INIT 7e7d0 22f .cfa: $rsp 8 + .ra: .cfa -8 + ^
STACK CFI 7e7d2 $r13: .cfa -16 + ^ .cfa: $rsp 16 +
STACK CFI 7e7d4 $r12: .cfa -24 + ^ .cfa: $rsp 24 +
STACK CFI 7e7d8 $rbp: .cfa -32 + ^ .cfa: $rsp 32 +
STACK CFI 7e7d9 $rbx: .cfa -40 + ^ .cfa: $rsp 40 +
STACK CFI 7e7dd .cfa: $rsp 80 +
STACK CFI 7e95f .cfa: $rsp 40 +
STACK CFI 7e960 .cfa: $rsp 32 +
STACK CFI 7e961 .cfa: $rsp 24 +
STACK CFI 7e963 .cfa: $rsp 16 +
STACK CFI 7e965 .cfa: $rsp 8 +
STACK CFI 7e970 .cfa: $rsp 80 +
STACK CFI INIT 7ea00 33 .cfa: $rsp 8 + .ra: .cfa -8 + ^
STACK CFI 7ea01 $rbp: .cfa -16 + ^ .cfa: $rsp 16 +
STACK CFI 7ea02 $rbx: .cfa -24 + ^ .cfa: $rsp 24 +
STACK CFI 7ea12 .cfa: $rsp 32 +
STACK CFI 7ea30 .cfa: $rsp 24 +
STACK CFI 7ea31 .cfa: $rsp 16 +
STACK CFI 7ea32 .cfa: $rsp 8 +
STACK CFI INIT 2a3a0 2e .cfa: $rsp 8 + .ra: .cfa -8 + ^
STACK CFI 2a3ab .cfa: $rsp 16 +
STACK CFI 2a3c9 .cfa: $rsp 8 +
STACK CFI INIT 7ee90 2 .cfa: $rsp 8 + .ra: .cfa -8 + ^
STACK CFI INIT 7eea0 a .cfa: $rsp 8 + .ra: .cfa -8 + ^
STACK CFI INIT 7eeb0 42 .cfa: $rsp 8 + .ra: .cfa -8 + ^
STACK CFI 7eeb8 $rbx: .cfa -16 + ^ .cfa: $rsp 16 +
STACK CFI 7eee2 .cfa: $rsp 8 +
STACK CFI 7eef0 .cfa: $rsp 16 +
STACK CFI 7eef1 .cfa: $rsp 8 +
STACK CFI INIT 7ef00 44 .cfa: $rsp 8 + .ra: .cfa -8 + ^
STACK CFI 7ef08 $rbx: .cfa -16 + ^ .cfa: $rsp 16 +
STACK CFI 7ef3f .cfa: $rsp 8 +
STACK CFI INIT 7eb00 13d .cfa: $rsp 8 + .ra: .cfa -8 + ^
STACK CFI 7eb01 $rbp: .cfa -16 + ^ .cfa: $rsp 16 +
STACK CFI 7eb02 $rbx: .cfa -24 + ^ .cfa: $rsp 24 +
STACK CFI 7eb06 .cfa: $rsp 48 +
STACK CFI 7ebd7 .cfa: $rsp 24 +
STACK CFI 7ebd8 .cfa: $rsp 16 +
STACK CFI 7ebd9 .cfa: $rsp 8 +
STACK CFI 7ebe0 .cfa: $rsp 48 +
STACK CFI INIT 7ec40 208 .cfa: $rsp 8 + .ra: .cfa -8 + ^
STACK CFI 7ec42 $r13: .cfa -16 + ^ .cfa: $rsp 16 +
STACK CFI 7ec44 $r12: .cfa -24 + ^ .cfa: $rsp 24 +
STACK CFI 7ec48 $rbp: .cfa -32 + ^ .cfa: $rsp 32 +
STACK CFI 7ec49 $rbx: .cfa -40 + ^ .cfa: $rsp 40 +
STACK CFI 7ec4d .cfa: $rsp 80 +
STACK CFI 7edd9 .cfa: $rsp 40 +
STACK CFI 7edda .cfa: $rsp 32 +
STACK CFI 7eddb .cfa: $rsp 24 +
STACK CFI 7eddd .cfa: $rsp 16 +
STACK CFI 7eddf .cfa: $rsp 8 +
STACK CFI 7ede0 .cfa: $rsp 80 +
STACK CFI INIT 7ee50 33 .cfa: $rsp 8 + .ra: .cfa -8 + ^
STACK CFI 7ee51 $rbp: .cfa -16 + ^ .cfa: $rsp 16 +
STACK CFI 7ee52 $rbx: .cfa -24 + ^ .cfa: $rsp 24 +
STACK CFI 7ee62 .cfa: $rsp 32 +
STACK CFI 7ee80 .cfa: $rsp 24 +
STACK CFI 7ee81 .cfa: $rsp 16 +
STACK CFI 7ee82 .cfa: $rsp 8 +
STACK CFI INIT 2a3d0 2e .cfa: $rsp 8 + .ra: .cfa -8 + ^
STACK CFI 2a3db .cfa: $rsp 16 +
STACK CFI 2a3f9 .cfa: $rsp 8 +
STACK CFI INIT 7ef50 7 .cfa: $rsp 8 + .ra: .cfa -8 + ^
STACK CFI INIT 82a70 2 .cfa: $rsp 8 + .ra: .cfa -8 + ^
STACK CFI INIT 82a80 a .cfa: $rsp 8 + .ra: .cfa -8 + ^
STACK CFI INIT 7ef60 c8 .cfa: $rsp 8 + .ra: .cfa -8 + ^
STACK CFI 7ef62 $r12: .cfa -16 + ^ .cfa: $rsp 16 +
STACK CFI 7ef63 $rbp: .cfa -24 + ^ .cfa: $rsp 24 +
STACK CFI 7ef67 $rbx: .cfa -32 + ^ .cfa: $rsp 32 +
STACK CFI 7ef6e .cfa: $rsp 48 +
STACK CFI 7efd4 .cfa: $rsp 32 +
STACK CFI 7efd5 .cfa: $rsp 24 +
STACK CFI 7efd6 .cfa: $rsp 16 +
STACK CFI 7efd8 .cfa: $rsp 8 +
STACK CFI 7efe0 .cfa: $rsp 48 +
STACK CFI INIT 7f030 1ad .cfa: $rsp 8 + .ra: .cfa -8 + ^
STACK CFI 7f031 $rbp: .cfa -16 + ^ .cfa: $rsp 16 +
STACK CFI 7f032 $rbx: .cfa -24 + ^ .cfa: $rsp 24 +
STACK CFI 7f036 .cfa: $rsp 48 +
STACK CFI 7f177 .cfa: $rsp 24 +
STACK CFI 7f178 .cfa: $rsp 16 +
STACK CFI 7f179 .cfa: $rsp 8 +
STACK CFI 7f180 .cfa: $rsp 48 +
STACK CFI INIT 7f1e0 1d8 .cfa: $rsp 8 + .ra: .cfa -8 + ^
STACK CFI 7f1e2 $r14: .cfa -16 + ^ .cfa: $rsp 16 +
STACK CFI 7f1e4 $r13: .cfa -24 + ^ .cfa: $rsp 24 +
STACK CFI 7f1e6 $r12: .cfa -32 + ^ .cfa: $rsp 32 +
STACK CFI 7f1e7 $rbp: .cfa -40 + ^ .cfa: $rsp 40 +
STACK CFI 7f1eb $rbx: .cfa -48 + ^ .cfa: $rsp 48 +
STACK CFI 7f1fb .cfa: $rsp 144 +
STACK CFI 7f27a .cfa: $rsp 48 +
STACK CFI 7f27b .cfa: $rsp 40 +
STACK CFI 7f27c .cfa: $rsp 32 +
STACK CFI 7f27e .cfa: $rsp 24 +
STACK CFI 7f280 .cfa: $rsp 16 +
STACK CFI 7f282 .cfa: $rsp 8 +
STACK CFI 7f288 .cfa: $rsp 144 +
STACK CFI INIT 7f3c0 2b5 .cfa: $rsp 8 + .ra: .cfa -8 + ^
STACK CFI 7f3c2 $r15: .cfa -16 + ^ .cfa: $rsp 16 +
STACK CFI 7f3c4 $r14: .cfa -24 + ^ .cfa: $rsp 24 +
STACK CFI 7f3c9 $r13: .cfa -32 + ^ .cfa: $rsp 32 +
STACK CFI 7f3cb $r12: .cfa -40 + ^ .cfa: $rsp 40 +
STACK CFI 7f3cf $rbp: .cfa -48 + ^ .cfa: $rsp 48 +
STACK CFI 7f3d0 $rbx: .cfa -56 + ^ .cfa: $rsp 56 +
STACK CFI 7f3d7 .cfa: $rsp 96 +
STACK CFI 7f4b9 .cfa: $rsp 56 +
STACK CFI 7f4ba .cfa: $rsp 48 +
STACK CFI 7f4bb .cfa: $rsp 40 +
STACK CFI 7f4bd .cfa: $rsp 32 +
STACK CFI 7f4bf .cfa: $rsp 24 +
STACK CFI 7f4c1 .cfa: $rsp 16 +
STACK CFI 7f4c3 .cfa: $rsp 8 +
STACK CFI 7f4c8 .cfa: $rsp 96 +
STACK CFI INIT 7f680 e7 .cfa: $rsp 8 + .ra: .cfa -8 + ^
STACK CFI 7f681 $rbp: .cfa -16 + ^ .cfa: $rsp 16 +
STACK CFI 7f682 $rbx: .cfa -24 + ^ .cfa: $rsp 24 +
STACK CFI 7f689 .cfa: $rsp 32 +
STACK CFI 7f753 .cfa: $rsp 24 +
STACK CFI 7f754 .cfa: $rsp 16 +
STACK CFI 7f755 .cfa: $rsp 8 +
STACK CFI 7f760 .cfa: $rsp 32 +
STACK CFI 7f764 .cfa: $rsp 24 +
STACK CFI 7f765 .cfa: $rsp 16 +
STACK CFI 7f766 .cfa: $rsp 8 +
STACK CFI INIT 7f770 17 .cfa: $rsp 8 + .ra: .cfa -8 + ^
STACK CFI 7f771 $rbx: .cfa -16 + ^ .cfa: $rsp 16 +
STACK CFI 7f782 .cfa: $rsp 8 +
STACK CFI INIT 82a90 52 .cfa: $rsp 8 + .ra: .cfa -8 + ^
STACK CFI 82a97 $r12: .cfa -16 + ^ .cfa: $rsp 16 +
STACK CFI 82a9b $rbp: .cfa -24 + ^ .cfa: $rsp 24 +
STACK CFI 82a9c $rbx: .cfa -32 + ^ .cfa: $rsp 32 +
STACK CFI 82ad2 .cfa: $rsp 24 +
STACK CFI 82ad3 .cfa: $rsp 16 +
STACK CFI 82ad5 .cfa: $rsp 8 +
STACK CFI 82ae0 $r12: $r12 $rbp: $rbp $rbx: $rbx
STACK CFI INIT 82af0 106 .cfa: $rsp 8 + .ra: .cfa -8 + ^
STACK CFI 82af2 $r15: .cfa -16 + ^ .cfa: $rsp 16 +
STACK CFI 82af4 $r14: .cfa -24 + ^ .cfa: $rsp 24 +
STACK CFI 82af6 $r13: .cfa -32 + ^ .cfa: $rsp 32 +
STACK CFI 82af8 $r12: .cfa -40 + ^ .cfa: $rsp 40 +
STACK CFI 82afd $rbp: .cfa -48 + ^ .cfa: $rsp 48 +
STACK CFI 82afe $rbx: .cfa -56 + ^ .cfa: $rsp 56 +
STACK CFI 82b02 .cfa: $rsp 64 +
STACK CFI 82bab .cfa: $rsp 56 +
STACK CFI 82baf .cfa: $rsp 48 +
STACK CFI 82bb0 .cfa: $rsp 40 +
STACK CFI 82bb2 .cfa: $rsp 32 +
STACK CFI 82bb4 .cfa: $rsp 24 +
STACK CFI 82bb6 .cfa: $rsp 16 +
STACK CFI 82bb8 .cfa: $rsp 8 +
STACK CFI 82bc0 .cfa: $rsp 64 +
STACK CFI 82bc4 .cfa: $rsp 56 +
STACK CFI 82bc8 .cfa: $rsp 48 +
STACK CFI 82bc9 .cfa: $rsp 40 +
STACK CFI 82bcb .cfa: $rsp 32 +
STACK CFI 82bcd .cfa: $rsp 24 +
STACK CFI 82bcf .cfa: $rsp 16 +
STACK CFI 82bd1 .cfa: $rsp 8 +
STACK CFI 82bd8 .cfa: $rsp 64 +
STACK CFI INIT 7f790 ce .cfa: $rsp 8 + .ra: .cfa -8 + ^
STACK CFI 7f792 $r13: .cfa -16 + ^ .cfa: $rsp 16 +
STACK CFI 7f794 $r12: .cfa -24 + ^ .cfa: $rsp 24 +
STACK CFI 7f798 $rbp: .cfa -32 + ^ .cfa: $rsp 32 +
STACK CFI 7f799 $rbx: .cfa -40 + ^ .cfa: $rsp 40 +
STACK CFI 7f7a8 .cfa: $rsp 48 +
STACK CFI 7f811 .cfa: $rsp 40 +
STACK CFI 7f818 .cfa: $rsp 32 +
STACK CFI 7f819 .cfa: $rsp 24 +
STACK CFI 7f81b .cfa: $rsp 16 +
STACK CFI 7f81d .cfa: $rsp 8 +
STACK CFI 7f828 .cfa: $rsp 48 +
STACK CFI 7f842 .cfa: $rsp 40 +
STACK CFI 7f846 .cfa: $rsp 32 +
STACK CFI 7f847 .cfa: $rsp 24 +
STACK CFI 7f849 .cfa: $rsp 16 +
STACK CFI 7f84b .cfa: $rsp 8 +
STACK CFI 7f850 .cfa: $rsp 48 +
STACK CFI INIT 82c00 590 .cfa: $rsp 8 + .ra: .cfa -8 + ^
STACK CFI 82c02 $r15: .cfa -16 + ^ .cfa: $rsp 16 +
STACK CFI 82c04 $r14: .cfa -24 + ^ .cfa: $rsp 24 +
STACK CFI 82c06 $r13: .cfa -32 + ^ .cfa: $rsp 32 +
STACK CFI 82c08 $r12: .cfa -40 + ^ .cfa: $rsp 40 +
STACK CFI 82c09 $rbp: .cfa -48 + ^ .cfa: $rsp 48 +
STACK CFI 82c0a $rbx: .cfa -56 + ^ .cfa: $rsp 56 +
STACK CFI 82c14 .cfa: $rsp 368 +
STACK CFI 830e1 .cfa: $rsp 56 +
STACK CFI 830e2 .cfa: $rsp 48 +
STACK CFI 830e3 .cfa: $rsp 40 +
STACK CFI 830e5 .cfa: $rsp 32 +
STACK CFI 830e7 .cfa: $rsp 24 +
STACK CFI 830e9 .cfa: $rsp 16 +
STACK CFI 830eb .cfa: $rsp 8 +
STACK CFI 830f0 .cfa: $rsp 368 +
STACK CFI INIT 7f860 16f .cfa: $rsp 8 + .ra: .cfa -8 + ^
STACK CFI 7f861 $rbp: .cfa -16 + ^ .cfa: $rsp 16 +
STACK CFI 7f864 .cfa: $rbp 16 +
STACK CFI 7f86b $r12: .cfa -40 + ^ $r13: .cfa -32 + ^ $r14: .cfa -24 + ^ $rbx: .cfa -48 + ^
STACK CFI 7f999 .cfa: $rsp 8 +
STACK CFI 7f9a0 .cfa: $rbp 16 +
STACK CFI 7f9ba .cfa: $rsp 8 +
STACK CFI 7f9bb .cfa: $rbp 16 +
STACK CFI INIT 7f9d0 2ed1 .cfa: $rsp 8 + .ra: .cfa -8 + ^
STACK CFI 7f9d2 $r15: .cfa -16 + ^ .cfa: $rsp 16 +
STACK CFI 7f9d4 $r14: .cfa -24 + ^ .cfa: $rsp 24 +
STACK CFI 7f9d6 $r13: .cfa -32 + ^ .cfa: $rsp 32 +
STACK CFI 7f9d8 $r12: .cfa -40 + ^ .cfa: $rsp 40 +
STACK CFI 7f9d9 $rbp: .cfa -48 + ^ .cfa: $rsp 48 +
STACK CFI 7f9da $rbx: .cfa -56 + ^ .cfa: $rsp 56 +
STACK CFI 7f9e1 .cfa: $rsp 656 +
STACK CFI 809ab .cfa: $rsp 56 +
STACK CFI 809ac .cfa: $rsp 48 +
STACK CFI 809ad .cfa: $rsp 40 +
STACK CFI 809af .cfa: $rsp 32 +
STACK CFI 809b1 .cfa: $rsp 24 +
STACK CFI 809b3 .cfa: $rsp 16 +
STACK CFI 809b5 .cfa: $rsp 8 +
STACK CFI 809c0 .cfa: $rsp 656 +
STACK CFI INIT 828b0 1b4 .cfa: $rsp 8 + .ra: .cfa -8 + ^
STACK CFI 828b2 $r14: .cfa -16 + ^ .cfa: $rsp 16 +
STACK CFI 828b4 $r13: .cfa -24 + ^ .cfa: $rsp 24 +
STACK CFI 828b6 $r12: .cfa -32 + ^ .cfa: $rsp 32 +
STACK CFI 828b7 $rbp: .cfa -40 + ^ .cfa: $rsp 40 +
STACK CFI 828b8 $rbx: .cfa -48 + ^ .cfa: $rsp 48 +
STACK CFI 828bc .cfa: $rsp 64 +
STACK CFI 82980 .cfa: $rsp 48 +
STACK CFI 82981 .cfa: $rsp 40 +
STACK CFI 82982 .cfa: $rsp 32 +
STACK CFI 82984 .cfa: $rsp 24 +
STACK CFI 82986 .cfa: $rsp 16 +
STACK CFI 82988 .cfa: $rsp 8 +
STACK CFI 82990 .cfa: $rsp 64 +
STACK CFI INIT 2a400 2e .cfa: $rsp 8 + .ra: .cfa -8 + ^
STACK CFI 2a40b .cfa: $rsp 16 +
STACK CFI 2a429 .cfa: $rsp 8 +
STACK CFI INIT 83190 e293 .cfa: $rsp 8 + .ra: .cfa -8 + ^
STACK CFI 83192 $r12: .cfa -16 + ^ .cfa: $rsp 16 +
STACK CFI 83193 $rbp: .cfa -24 + ^ .cfa: $rsp 24 +
STACK CFI 83198 $rbx: .cfa -32 + ^ .cfa: $rsp 32 +
STACK CFI 8319f .cfa: $rsp 64 +
STACK CFI 8392b .cfa: $rsp 32 +
STACK CFI 8392c .cfa: $rsp 24 +
STACK CFI 8392d .cfa: $rsp 16 +
STACK CFI 8392f .cfa: $rsp 8 +
STACK CFI 83930 .cfa: $rsp 64 +
STACK CFI INIT 91430 176 .cfa: $rsp 8 + .ra: .cfa -8 + ^
STACK CFI 91432 $r15: .cfa -16 + ^ .cfa: $rsp 16 +
STACK CFI 91434 $r14: .cfa -24 + ^ .cfa: $rsp 24 +
STACK CFI 91439 $r13: .cfa -32 + ^ .cfa: $rsp 32 +
STACK CFI 9143b $r12: .cfa -40 + ^ .cfa: $rsp 40 +
STACK CFI 9143c $rbp: .cfa -48 + ^ .cfa: $rsp 48 +
STACK CFI 9143d $rbx: .cfa -56 + ^ .cfa: $rsp 56 +
STACK CFI 91444 .cfa: $rsp 80 +
STACK CFI 9148b .cfa: $rsp 56 +
STACK CFI 9148c .cfa: $rsp 48 +
STACK CFI 9148d .cfa: $rsp 40 +
STACK CFI 9148f .cfa: $rsp 32 +
STACK CFI 91491 .cfa: $rsp 24 +
STACK CFI 91493 .cfa: $rsp 16 +
STACK CFI 91495 .cfa: $rsp 8 +
STACK CFI 914a0 .cfa: $rsp 80 +
STACK CFI INIT 915b0 1c6 .cfa: $rsp 8 + .ra: .cfa -8 + ^
STACK CFI 915b2 $r15: .cfa -16 + ^ .cfa: $rsp 16 +
STACK CFI 915b4 $r14: .cfa -24 + ^ .cfa: $rsp 24 +
STACK CFI 915b9 $r13: .cfa -32 + ^ .cfa: $rsp 32 +
STACK CFI 915bb $r12: .cfa -40 + ^ .cfa: $rsp 40 +
STACK CFI 915bf $rbp: .cfa -48 + ^ .cfa: $rsp 48 +
STACK CFI 915c0 $rbx: .cfa -56 + ^ .cfa: $rsp 56 +
STACK CFI 915c4 .cfa: $rsp 96 +
STACK CFI 91697 .cfa: $rsp 56 +
STACK CFI 91698 .cfa: $rsp 48 +
STACK CFI 91699 .cfa: $rsp 40 +
STACK CFI 9169b .cfa: $rsp 32 +
STACK CFI 9169d .cfa: $rsp 24 +
STACK CFI 9169f .cfa: $rsp 16 +
STACK CFI 916a1 .cfa: $rsp 8 +
STACK CFI 916a8 .cfa: $rsp 96 +
