MODULE Linux x86_64 0F9E47053B5866C56AD095097A2118DD0 microdump_stackwalk
INFO CODE_ID 05479E0F583BC5666AD095097A2118DD89131454
PUBLIC 6118 0 _init
PUBLIC 6820 0 google_breakpad::linked_ptr<google_breakpad::CodeModule const>::depart() [clone .part.12]
PUBLIC 6830 0 google_breakpad::linked_ptr<google_breakpad::WindowsFrameInfo>::depart() [clone .part.106]
PUBLIC 685c 0 google_breakpad::linked_ptr<google_breakpad::SourceLineResolverBase::PublicSymbol>::depart() [clone .part.107]
PUBLIC 6886 0 google_breakpad::linked_ptr<google_breakpad::BasicSourceLineResolver::Function>::depart() [clone .part.197]
PUBLIC 68be 0 google_breakpad::linked_ptr<google_breakpad::CodeModule const>::depart() [clone .part.17]
PUBLIC 68d0 0 _GLOBAL__sub_I_microdump_stackwalk.cc
PUBLIC 6900 0 main
PUBLIC 6b80 0 _GLOBAL__sub_I_basic_code_modules.cc
PUBLIC 6bb0 0 _GLOBAL__sub_I_basic_source_line_resolver.cc
PUBLIC 6be0 0 _GLOBAL__sub_I_cfi_frame_info.cc
PUBLIC 6c10 0 _GLOBAL__sub_I_dump_context.cc
PUBLIC 6c40 0 _GLOBAL__sub_I_logging.cc
PUBLIC 6c70 0 _GLOBAL__sub_I_microdump.cc
PUBLIC 6ca0 0 _GLOBAL__sub_I_microdump_processor.cc
PUBLIC 6cd0 0 _GLOBAL__sub_I_process_state.cc
PUBLIC 6d00 0 _GLOBAL__sub_I_simple_symbol_supplier.cc
PUBLIC 6d30 0 _GLOBAL__sub_I_source_line_resolver_base.cc
PUBLIC 6d60 0 _GLOBAL__sub_I_stack_frame_symbolizer.cc
PUBLIC 6d90 0 _GLOBAL__sub_I_stackwalk_common.cc
PUBLIC 6dc0 0 _GLOBAL__sub_I_stackwalker.cc
PUBLIC 6df0 0 _GLOBAL__sub_I_stackwalker_address_list.cc
PUBLIC 6e20 0 _GLOBAL__sub_I_stackwalker_amd64.cc
PUBLIC 6e50 0 _GLOBAL__sub_I_stackwalker_arm.cc
PUBLIC 6e80 0 _GLOBAL__sub_I_stackwalker_arm64.cc
PUBLIC 6eb0 0 _GLOBAL__sub_I_stackwalker_mips.cc
PUBLIC 6ee0 0 _GLOBAL__sub_I_stackwalker_ppc.cc
PUBLIC 6f10 0 _GLOBAL__sub_I_stackwalker_ppc64.cc
PUBLIC 6f40 0 _GLOBAL__sub_I_stackwalker_sparc.cc
PUBLIC 6f70 0 _GLOBAL__sub_I_stackwalker_x86.cc
PUBLIC 6fa0 0 _start
PUBLIC 6fd0 0 deregister_tm_clones
PUBLIC 7010 0 register_tm_clones
PUBLIC 7060 0 __do_global_dtors_aux
PUBLIC 70a0 0 frame_dummy
PUBLIC 70b0 0 void std::__cxx11::basic_string<char, std::char_traits<char>, std::allocator<char> >::_M_construct<char const*>(char const*, char const*, std::forward_iterator_tag) [clone .isra.60]
PUBLIC 7180 0 std::__cxx11::basic_string<char, std::char_traits<char>, std::allocator<char> >::basic_string(char const*, std::allocator<char> const&) [clone .isra.62]
PUBLIC 71c0 0 Usage(int, char const**, bool) [clone .constprop.127]
PUBLIC 72b0 0 (anonymous namespace)::PrintMicrodumpProcess((anonymous namespace)::Options const&)
PUBLIC 7b10 0 google_breakpad::MicrodumpMemoryRegion::~MicrodumpMemoryRegion()
PUBLIC 7b40 0 google_breakpad::BasicSourceLineResolver::~BasicSourceLineResolver()
PUBLIC 7b60 0 google_breakpad::BasicSourceLineResolver::~BasicSourceLineResolver()
PUBLIC 7b90 0 google_breakpad::Microdump::~Microdump()
PUBLIC 7d00 0 google_breakpad::Microdump::~Microdump()
PUBLIC 7e70 0 google_breakpad::MicrodumpMemoryRegion::~MicrodumpMemoryRegion()
PUBLIC 7ea0 0 std::vector<std::__cxx11::basic_string<char, std::char_traits<char>, std::allocator<char> >, std::allocator<std::__cxx11::basic_string<char, std::char_traits<char>, std::allocator<char> > > >::~vector()
PUBLIC 7f00 0 std::_Rb_tree<std::__cxx11::basic_string<char, std::char_traits<char>, std::allocator<char> >, std::__cxx11::basic_string<char, std::char_traits<char>, std::allocator<char> >, std::_Identity<std::__cxx11::basic_string<char, std::char_traits<char>, std::allocator<char> > >, std::less<std::__cxx11::basic_string<char, std::char_traits<char>, std::allocator<char> > >, std::allocator<std::__cxx11::basic_string<char, std::char_traits<char>, std::allocator<char> > > >::_M_erase(std::_Rb_tree_node<std::__cxx11::basic_string<char, std::char_traits<char>, std::allocator<char> > >*)
PUBLIC 7f60 0 std::_Rb_tree<std::__cxx11::basic_string<char, std::char_traits<char>, std::allocator<char> >, std::pair<std::__cxx11::basic_string<char, std::char_traits<char>, std::allocator<char> > const, char*>, std::_Select1st<std::pair<std::__cxx11::basic_string<char, std::char_traits<char>, std::allocator<char> > const, char*> >, std::less<std::__cxx11::basic_string<char, std::char_traits<char>, std::allocator<char> > >, std::allocator<std::pair<std::__cxx11::basic_string<char, std::char_traits<char>, std::allocator<char> > const, char*> > >::_M_erase(std::_Rb_tree_node<std::pair<std::__cxx11::basic_string<char, std::char_traits<char>, std::allocator<char> > const, char*> >*)
PUBLIC 7fc0 0 google_breakpad::SimpleSymbolSupplier::SimpleSymbolSupplier(std::vector<std::__cxx11::basic_string<char, std::char_traits<char>, std::allocator<char> >, std::allocator<std::__cxx11::basic_string<char, std::char_traits<char>, std::allocator<char> > > > const&)
PUBLIC 8110 0 std::vector<char, std::allocator<char> >::_M_default_append(unsigned long)
PUBLIC 8230 0 void std::vector<std::__cxx11::basic_string<char, std::char_traits<char>, std::allocator<char> >, std::allocator<std::__cxx11::basic_string<char, std::char_traits<char>, std::allocator<char> > > >::_M_realloc_insert<std::__cxx11::basic_string<char, std::char_traits<char>, std::allocator<char> > >(__gnu_cxx::__normal_iterator<std::__cxx11::basic_string<char, std::char_traits<char>, std::allocator<char> >*, std::vector<std::__cxx11::basic_string<char, std::char_traits<char>, std::allocator<char> >, std::allocator<std::__cxx11::basic_string<char, std::char_traits<char>, std::allocator<char> > > > >, std::__cxx11::basic_string<char, std::char_traits<char>, std::allocator<char> >&&)
PUBLIC 84b0 0 void std::__cxx11::basic_string<char, std::char_traits<char>, std::allocator<char> >::_M_construct<char const*>(char const*, char const*, std::forward_iterator_tag) [clone .isra.14]
PUBLIC 8580 0 google_breakpad::BaseName(std::__cxx11::basic_string<char, std::char_traits<char>, std::allocator<char> > const&)
PUBLIC 85e0 0 google_breakpad::DirName(std::__cxx11::basic_string<char, std::char_traits<char>, std::allocator<char> > const&)
PUBLIC 8640 0 google_breakpad::BasicCodeModules::module_count() const [clone .localalias.75]
PUBLIC 8650 0 google_breakpad::BasicCodeModules::GetMainModule() const
PUBLIC 8660 0 google_breakpad::BasicCodeModules::GetModuleAtIndex(unsigned int) const
PUBLIC 8670 0 google_breakpad::BasicCodeModules::IsModuleShrinkEnabled() const [clone .localalias.77]
PUBLIC 8680 0 google_breakpad::BasicCodeModules::GetShrunkRangeModules() const
PUBLIC 8780 0 google_breakpad::BasicCodeModules::GetModuleAtSequence(unsigned int) const
PUBLIC 8a70 0 google_breakpad::BasicCodeModules::BasicCodeModules()
PUBLIC 8ad0 0 google_breakpad::BasicCodeModules::GetModuleForAddress(unsigned long) const
PUBLIC 8c70 0 google_breakpad::BasicCodeModules::~BasicCodeModules()
PUBLIC 8d00 0 google_breakpad::BasicCodeModules::~BasicCodeModules()
PUBLIC 8d20 0 google_breakpad::BasicCodeModules::BasicCodeModules(google_breakpad::CodeModules const*)
PUBLIC 9600 0 google_breakpad::BasicCodeModules::Copy() const
PUBLIC 9650 0 google_breakpad::RangeMap<unsigned long, google_breakpad::linked_ptr<google_breakpad::CodeModule const> >::RetrieveRange(unsigned long const&, google_breakpad::linked_ptr<google_breakpad::CodeModule const>*, unsigned long*, unsigned long*, unsigned long*) const
PUBLIC 9900 0 std::_Rb_tree<unsigned long, std::pair<unsigned long const, google_breakpad::RangeMap<unsigned long, google_breakpad::linked_ptr<google_breakpad::CodeModule const> >::Range>, std::_Select1st<std::pair<unsigned long const, google_breakpad::RangeMap<unsigned long, google_breakpad::linked_ptr<google_breakpad::CodeModule const> >::Range> >, std::less<unsigned long>, std::allocator<std::pair<unsigned long const, google_breakpad::RangeMap<unsigned long, google_breakpad::linked_ptr<google_breakpad::CodeModule const> >::Range> > >::_M_erase(std::_Rb_tree_node<std::pair<unsigned long const, google_breakpad::RangeMap<unsigned long, google_breakpad::linked_ptr<google_breakpad::CodeModule const> >::Range> >*)
PUBLIC 9980 0 void std::vector<google_breakpad::linked_ptr<google_breakpad::CodeModule const>, std::allocator<google_breakpad::linked_ptr<google_breakpad::CodeModule const> > >::_M_realloc_insert<google_breakpad::linked_ptr<google_breakpad::CodeModule const> >(__gnu_cxx::__normal_iterator<google_breakpad::linked_ptr<google_breakpad::CodeModule const>*, std::vector<google_breakpad::linked_ptr<google_breakpad::CodeModule const>, std::allocator<google_breakpad::linked_ptr<google_breakpad::CodeModule const> > > >, google_breakpad::linked_ptr<google_breakpad::CodeModule const>&&)
PUBLIC 9c30 0 std::pair<std::_Rb_tree_iterator<std::pair<unsigned long const, google_breakpad::RangeMap<unsigned long, google_breakpad::linked_ptr<google_breakpad::CodeModule const> >::Range> >, bool> std::_Rb_tree<unsigned long, std::pair<unsigned long const, google_breakpad::RangeMap<unsigned long, google_breakpad::linked_ptr<google_breakpad::CodeModule const> >::Range>, std::_Select1st<std::pair<unsigned long const, google_breakpad::RangeMap<unsigned long, google_breakpad::linked_ptr<google_breakpad::CodeModule const> >::Range> >, std::less<unsigned long>, std::allocator<std::pair<unsigned long const, google_breakpad::RangeMap<unsigned long, google_breakpad::linked_ptr<google_breakpad::CodeModule const> >::Range> > >::_M_insert_unique<std::pair<unsigned long const, google_breakpad::RangeMap<unsigned long, google_breakpad::linked_ptr<google_breakpad::CodeModule const> >::Range> >(std::pair<unsigned long const, google_breakpad::RangeMap<unsigned long, google_breakpad::linked_ptr<google_breakpad::CodeModule const> >::Range>&&)
PUBLIC 9db0 0 google_breakpad::RangeMap<unsigned long, google_breakpad::linked_ptr<google_breakpad::CodeModule const> >::StoreRangeInternal(unsigned long const&, unsigned long const&, unsigned long const&, google_breakpad::linked_ptr<google_breakpad::CodeModule const> const&)
PUBLIC a730 0 void std::__cxx11::basic_string<char, std::char_traits<char>, std::allocator<char> >::_M_construct<char const*>(char const*, char const*, std::forward_iterator_tag) [clone .isra.110]
PUBLIC a800 0 google_breakpad::BasicSourceLineResolver::BasicSourceLineResolver()
PUBLIC a840 0 google_breakpad::BasicSourceLineResolver::Module::LogParseError(std::__cxx11::basic_string<char, std::char_traits<char>, std::allocator<char> > const&, int, int*)
PUBLIC a960 0 google_breakpad::SymbolParseHelper::IsValidAfterNumber(char*)
PUBLIC a990 0 google_breakpad::SymbolParseHelper::ParseFile(char*, long*, char**)
PUBLIC aa80 0 google_breakpad::SymbolParseHelper::ParseLine(char*, unsigned long*, unsigned long*, long*, long*)
PUBLIC ac50 0 google_breakpad::BasicSourceLineResolver::Module::ParseLine(char*)
PUBLIC ace0 0 google_breakpad::(anonymous namespace)::TokenizeWithOptionalField(char*, char const*, char const*, int, std::vector<char*, std::allocator<char*> >*) [clone .constprop.292]
PUBLIC ae40 0 google_breakpad::SymbolParseHelper::ParsePublicSymbol(char*, bool*, unsigned long*, long*, char**)
PUBLIC afd0 0 google_breakpad::SymbolParseHelper::ParseFunction(char*, bool*, unsigned long*, unsigned long*, long*, char**)
PUBLIC b190 0 google_breakpad::BasicSourceLineResolver::Module::ParseFunction(char*)
PUBLIC b300 0 google_breakpad::BasicSourceLineResolver::Module::LookupAddress(google_breakpad::StackFrame*) const
PUBLIC b710 0 google_breakpad::BasicSourceLineResolver::Module::FindWindowsFrameInfo(google_breakpad::StackFrame const*) const
PUBLIC bb40 0 google_breakpad::BasicSourceLineResolver::Module::FindCFIFrameInfo(google_breakpad::StackFrame const*) const
PUBLIC bd60 0 google_breakpad::BasicSourceLineResolver::Module::ParseFile(char*)
PUBLIC bed0 0 google_breakpad::BasicSourceLineResolver::Module::ParsePublicSymbol(char*)
PUBLIC c0f0 0 google_breakpad::BasicSourceLineResolver::Module::ParseCFIFrameInfo(char*)
PUBLIC c3d0 0 google_breakpad::BasicSourceLineResolver::Module::ParseStackInfo(char*)
PUBLIC c960 0 google_breakpad::BasicSourceLineResolver::Module::LoadMapFromMemory(char*, unsigned long)
PUBLIC d070 0 google_breakpad::BasicSourceLineResolver::Module::IsCorrupt() const
PUBLIC d080 0 google_breakpad::BasicModuleFactory::~BasicModuleFactory()
PUBLIC d090 0 google_breakpad::BasicModuleFactory::~BasicModuleFactory()
PUBLIC d0a0 0 std::_Rb_tree_iterator<std::pair<unsigned long const, google_breakpad::ContainedRangeMap<unsigned long, google_breakpad::linked_ptr<google_breakpad::WindowsFrameInfo> >*> > std::_Rb_tree<unsigned long, std::pair<unsigned long const, google_breakpad::ContainedRangeMap<unsigned long, google_breakpad::linked_ptr<google_breakpad::WindowsFrameInfo> >*>, std::_Select1st<std::pair<unsigned long const, google_breakpad::ContainedRangeMap<unsigned long, google_breakpad::linked_ptr<google_breakpad::WindowsFrameInfo> >*> >, std::less<unsigned long>, std::allocator<std::pair<unsigned long const, google_breakpad::ContainedRangeMap<unsigned long, google_breakpad::linked_ptr<google_breakpad::WindowsFrameInfo> >*> > >::_M_insert_<std::pair<unsigned long const, google_breakpad::ContainedRangeMap<unsigned long, google_breakpad::linked_ptr<google_breakpad::WindowsFrameInfo> >*>&, std::_Rb_tree<unsigned long, std::pair<unsigned long const, google_breakpad::ContainedRangeMap<unsigned long, google_breakpad::linked_ptr<google_breakpad::WindowsFrameInfo> >*>, std::_Select1st<std::pair<unsigned long const, google_breakpad::ContainedRangeMap<unsigned long, google_breakpad::linked_ptr<google_breakpad::WindowsFrameInfo> >*> >, std::less<unsigned long>, std::allocator<std::pair<unsigned long const, google_breakpad::ContainedRangeMap<unsigned long, google_breakpad::linked_ptr<google_breakpad::WindowsFrameInfo> >*> > >::_Alloc_node>(std::_Rb_tree_node_base*, std::_Rb_tree_node_base*, std::pair<unsigned long const, google_breakpad::ContainedRangeMap<unsigned long, google_breakpad::linked_ptr<google_breakpad::WindowsFrameInfo> >*>&, std::_Rb_tree<unsigned long, std::pair<unsigned long const, google_breakpad::ContainedRangeMap<unsigned long, google_breakpad::linked_ptr<google_breakpad::WindowsFrameInfo> >*>, std::_Select1st<std::pair<unsigned long const, google_breakpad::ContainedRangeMap<unsigned long, google_breakpad::linked_ptr<google_breakpad::WindowsFrameInfo> >*> >, std::less<unsigned long>, std::allocator<std::pair<unsigned long const, google_breakpad::ContainedRangeMap<unsigned long, google_breakpad::linked_ptr<google_breakpad::WindowsFrameInfo> >*> > >::_Alloc_node&) [clone .isra.263]
PUBLIC d120 0 google_breakpad::BasicModuleFactory::CreateModule(std::__cxx11::basic_string<char, std::char_traits<char>, std::allocator<char> > const&) const
PUBLIC d2c0 0 google_breakpad::RangeMap<unsigned long, google_breakpad::linked_ptr<google_breakpad::SourceLineResolverBase::Line> >::RetrieveRange(unsigned long const&, google_breakpad::linked_ptr<google_breakpad::SourceLineResolverBase::Line>*, unsigned long*, unsigned long*, unsigned long*) const
PUBLIC d550 0 google_breakpad::AddressMap<unsigned long, google_breakpad::linked_ptr<google_breakpad::SourceLineResolverBase::PublicSymbol> >::Retrieve(unsigned long const&, google_breakpad::linked_ptr<google_breakpad::SourceLineResolverBase::PublicSymbol>*, unsigned long*) const
PUBLIC d710 0 google_breakpad::ContainedRangeMap<unsigned long, google_breakpad::linked_ptr<google_breakpad::WindowsFrameInfo> >::RetrieveRange(unsigned long const&, google_breakpad::linked_ptr<google_breakpad::WindowsFrameInfo>*) const
PUBLIC d8e0 0 google_breakpad::RangeMap<unsigned long, std::__cxx11::basic_string<char, std::char_traits<char>, std::allocator<char> > >::RetrieveRange(unsigned long const&, std::__cxx11::basic_string<char, std::char_traits<char>, std::allocator<char> >*, unsigned long*, unsigned long*, unsigned long*) const
PUBLIC db50 0 std::_Rb_tree<unsigned long, std::pair<unsigned long const, google_breakpad::RangeMap<unsigned long, google_breakpad::linked_ptr<google_breakpad::SourceLineResolverBase::Line> >::Range>, std::_Select1st<std::pair<unsigned long const, google_breakpad::RangeMap<unsigned long, google_breakpad::linked_ptr<google_breakpad::SourceLineResolverBase::Line> >::Range> >, std::less<unsigned long>, std::allocator<std::pair<unsigned long const, google_breakpad::RangeMap<unsigned long, google_breakpad::linked_ptr<google_breakpad::SourceLineResolverBase::Line> >::Range> > >::_M_erase(std::_Rb_tree_node<std::pair<unsigned long const, google_breakpad::RangeMap<unsigned long, google_breakpad::linked_ptr<google_breakpad::SourceLineResolverBase::Line> >::Range> >*)
PUBLIC dbd0 0 std::_Rb_tree<int, std::pair<int const, std::__cxx11::basic_string<char, std::char_traits<char>, std::allocator<char> > >, std::_Select1st<std::pair<int const, std::__cxx11::basic_string<char, std::char_traits<char>, std::allocator<char> > > >, std::less<int>, std::allocator<std::pair<int const, std::__cxx11::basic_string<char, std::char_traits<char>, std::allocator<char> > > > >::_M_erase(std::_Rb_tree_node<std::pair<int const, std::__cxx11::basic_string<char, std::char_traits<char>, std::allocator<char> > > >*)
PUBLIC dc30 0 std::_Rb_tree<unsigned long, std::pair<unsigned long const, google_breakpad::RangeMap<unsigned long, google_breakpad::linked_ptr<google_breakpad::BasicSourceLineResolver::Function> >::Range>, std::_Select1st<std::pair<unsigned long const, google_breakpad::RangeMap<unsigned long, google_breakpad::linked_ptr<google_breakpad::BasicSourceLineResolver::Function> >::Range> >, std::less<unsigned long>, std::allocator<std::pair<unsigned long const, google_breakpad::RangeMap<unsigned long, google_breakpad::linked_ptr<google_breakpad::BasicSourceLineResolver::Function> >::Range> > >::_M_erase(std::_Rb_tree_node<std::pair<unsigned long const, google_breakpad::RangeMap<unsigned long, google_breakpad::linked_ptr<google_breakpad::BasicSourceLineResolver::Function> >::Range> >*)
PUBLIC dcf0 0 std::_Rb_tree<unsigned long, std::pair<unsigned long const, google_breakpad::linked_ptr<google_breakpad::SourceLineResolverBase::PublicSymbol> >, std::_Select1st<std::pair<unsigned long const, google_breakpad::linked_ptr<google_breakpad::SourceLineResolverBase::PublicSymbol> > >, std::less<unsigned long>, std::allocator<std::pair<unsigned long const, google_breakpad::linked_ptr<google_breakpad::SourceLineResolverBase::PublicSymbol> > > >::_M_erase(std::_Rb_tree_node<std::pair<unsigned long const, google_breakpad::linked_ptr<google_breakpad::SourceLineResolverBase::PublicSymbol> > >*)
PUBLIC dda0 0 std::_Rb_tree<unsigned long, std::pair<unsigned long const, google_breakpad::RangeMap<unsigned long, std::__cxx11::basic_string<char, std::char_traits<char>, std::allocator<char> > >::Range>, std::_Select1st<std::pair<unsigned long const, google_breakpad::RangeMap<unsigned long, std::__cxx11::basic_string<char, std::char_traits<char>, std::allocator<char> > >::Range> >, std::less<unsigned long>, std::allocator<std::pair<unsigned long const, google_breakpad::RangeMap<unsigned long, std::__cxx11::basic_string<char, std::char_traits<char>, std::allocator<char> > >::Range> > >::_M_erase(std::_Rb_tree_node<std::pair<unsigned long const, google_breakpad::RangeMap<unsigned long, std::__cxx11::basic_string<char, std::char_traits<char>, std::allocator<char> > >::Range> >*)
PUBLIC de00 0 std::_Rb_tree<unsigned long, std::pair<unsigned long const, std::__cxx11::basic_string<char, std::char_traits<char>, std::allocator<char> > >, std::_Select1st<std::pair<unsigned long const, std::__cxx11::basic_string<char, std::char_traits<char>, std::allocator<char> > > >, std::less<unsigned long>, std::allocator<std::pair<unsigned long const, std::__cxx11::basic_string<char, std::char_traits<char>, std::allocator<char> > > > >::_M_erase(std::_Rb_tree_node<std::pair<unsigned long const, std::__cxx11::basic_string<char, std::char_traits<char>, std::allocator<char> > > >*)
PUBLIC de60 0 void std::vector<char*, std::allocator<char*> >::_M_realloc_insert<char* const&>(__gnu_cxx::__normal_iterator<char**, std::vector<char*, std::allocator<char*> > >, char* const&)
PUBLIC df90 0 google_breakpad::linked_ptr<google_breakpad::SourceLineResolverBase::Line>::depart()
PUBLIC dfd0 0 google_breakpad::RangeMap<unsigned long, google_breakpad::linked_ptr<google_breakpad::BasicSourceLineResolver::Function> >::RetrieveRange(unsigned long const&, google_breakpad::linked_ptr<google_breakpad::BasicSourceLineResolver::Function>*, unsigned long*, unsigned long*, unsigned long*) const
PUBLIC e2e0 0 google_breakpad::RangeMap<unsigned long, google_breakpad::linked_ptr<google_breakpad::BasicSourceLineResolver::Function> >::RetrieveNearestRange(unsigned long const&, google_breakpad::linked_ptr<google_breakpad::BasicSourceLineResolver::Function>*, unsigned long*, unsigned long*, unsigned long*) const
PUBLIC e5f0 0 std::_Rb_tree<std::__cxx11::basic_string<char, std::char_traits<char>, std::allocator<char> >, std::pair<std::__cxx11::basic_string<char, std::char_traits<char>, std::allocator<char> > const, std::__cxx11::basic_string<char, std::char_traits<char>, std::allocator<char> > >, std::_Select1st<std::pair<std::__cxx11::basic_string<char, std::char_traits<char>, std::allocator<char> > const, std::__cxx11::basic_string<char, std::char_traits<char>, std::allocator<char> > > >, std::less<std::__cxx11::basic_string<char, std::char_traits<char>, std::allocator<char> > >, std::allocator<std::pair<std::__cxx11::basic_string<char, std::char_traits<char>, std::allocator<char> > const, std::__cxx11::basic_string<char, std::char_traits<char>, std::allocator<char> > > > >::_M_erase(std::_Rb_tree_node<std::pair<std::__cxx11::basic_string<char, std::char_traits<char>, std::allocator<char> > const, std::__cxx11::basic_string<char, std::char_traits<char>, std::allocator<char> > > >*)
PUBLIC e660 0 std::pair<std::_Rb_tree_iterator<std::pair<int const, std::__cxx11::basic_string<char, std::char_traits<char>, std::allocator<char> > > >, bool> std::_Rb_tree<int, std::pair<int const, std::__cxx11::basic_string<char, std::char_traits<char>, std::allocator<char> > >, std::_Select1st<std::pair<int const, std::__cxx11::basic_string<char, std::char_traits<char>, std::allocator<char> > > >, std::less<int>, std::allocator<std::pair<int const, std::__cxx11::basic_string<char, std::char_traits<char>, std::allocator<char> > > > >::_M_emplace_unique<std::pair<long, std::__cxx11::basic_string<char, std::char_traits<char>, std::allocator<char> > > >(std::pair<long, std::__cxx11::basic_string<char, std::char_traits<char>, std::allocator<char> > >&&)
PUBLIC e7b0 0 std::pair<std::_Rb_tree_iterator<std::pair<unsigned long const, google_breakpad::linked_ptr<google_breakpad::SourceLineResolverBase::PublicSymbol> > >, bool> std::_Rb_tree<unsigned long, std::pair<unsigned long const, google_breakpad::linked_ptr<google_breakpad::SourceLineResolverBase::PublicSymbol> >, std::_Select1st<std::pair<unsigned long const, google_breakpad::linked_ptr<google_breakpad::SourceLineResolverBase::PublicSymbol> > >, std::less<unsigned long>, std::allocator<std::pair<unsigned long const, google_breakpad::linked_ptr<google_breakpad::SourceLineResolverBase::PublicSymbol> > > >::_M_insert_unique<std::pair<unsigned long const, google_breakpad::linked_ptr<google_breakpad::SourceLineResolverBase::PublicSymbol> > >(std::pair<unsigned long const, google_breakpad::linked_ptr<google_breakpad::SourceLineResolverBase::PublicSymbol> >&&)
PUBLIC e920 0 google_breakpad::AddressMap<unsigned long, google_breakpad::linked_ptr<google_breakpad::SourceLineResolverBase::PublicSymbol> >::Store(unsigned long const&, google_breakpad::linked_ptr<google_breakpad::SourceLineResolverBase::PublicSymbol> const&)
PUBLIC eb70 0 std::_Rb_tree<unsigned long, std::pair<unsigned long const, google_breakpad::ContainedRangeMap<unsigned long, google_breakpad::linked_ptr<google_breakpad::WindowsFrameInfo> >*>, std::_Select1st<std::pair<unsigned long const, google_breakpad::ContainedRangeMap<unsigned long, google_breakpad::linked_ptr<google_breakpad::WindowsFrameInfo> >*> >, std::less<unsigned long>, std::allocator<std::pair<unsigned long const, google_breakpad::ContainedRangeMap<unsigned long, google_breakpad::linked_ptr<google_breakpad::WindowsFrameInfo> >*> > >::_M_erase(std::_Rb_tree_node<std::pair<unsigned long const, google_breakpad::ContainedRangeMap<unsigned long, google_breakpad::linked_ptr<google_breakpad::WindowsFrameInfo> >*> >*)
PUBLIC ebb0 0 google_breakpad::ContainedRangeMap<unsigned long, google_breakpad::linked_ptr<google_breakpad::WindowsFrameInfo> >::~ContainedRangeMap()
PUBLIC ecb0 0 google_breakpad::BasicSourceLineResolver::Module::~Module()
PUBLIC ed60 0 google_breakpad::BasicSourceLineResolver::Module::~Module()
PUBLIC ee20 0 std::pair<std::_Rb_tree_iterator<std::pair<unsigned long const, google_breakpad::RangeMap<unsigned long, google_breakpad::linked_ptr<google_breakpad::BasicSourceLineResolver::Function> >::Range> >, bool> std::_Rb_tree<unsigned long, std::pair<unsigned long const, google_breakpad::RangeMap<unsigned long, google_breakpad::linked_ptr<google_breakpad::BasicSourceLineResolver::Function> >::Range>, std::_Select1st<std::pair<unsigned long const, google_breakpad::RangeMap<unsigned long, google_breakpad::linked_ptr<google_breakpad::BasicSourceLineResolver::Function> >::Range> >, std::less<unsigned long>, std::allocator<std::pair<unsigned long const, google_breakpad::RangeMap<unsigned long, google_breakpad::linked_ptr<google_breakpad::BasicSourceLineResolver::Function> >::Range> > >::_M_insert_unique<std::pair<unsigned long const, google_breakpad::RangeMap<unsigned long, google_breakpad::linked_ptr<google_breakpad::BasicSourceLineResolver::Function> >::Range> >(std::pair<unsigned long const, google_breakpad::RangeMap<unsigned long, google_breakpad::linked_ptr<google_breakpad::BasicSourceLineResolver::Function> >::Range>&&)
PUBLIC efa0 0 google_breakpad::RangeMap<unsigned long, google_breakpad::linked_ptr<google_breakpad::BasicSourceLineResolver::Function> >::StoreRangeInternal(unsigned long const&, unsigned long const&, unsigned long const&, google_breakpad::linked_ptr<google_breakpad::BasicSourceLineResolver::Function> const&)
PUBLIC f960 0 std::pair<std::_Rb_tree_iterator<std::pair<unsigned long const, google_breakpad::RangeMap<unsigned long, google_breakpad::linked_ptr<google_breakpad::SourceLineResolverBase::Line> >::Range> >, bool> std::_Rb_tree<unsigned long, std::pair<unsigned long const, google_breakpad::RangeMap<unsigned long, google_breakpad::linked_ptr<google_breakpad::SourceLineResolverBase::Line> >::Range>, std::_Select1st<std::pair<unsigned long const, google_breakpad::RangeMap<unsigned long, google_breakpad::linked_ptr<google_breakpad::SourceLineResolverBase::Line> >::Range> >, std::less<unsigned long>, std::allocator<std::pair<unsigned long const, google_breakpad::RangeMap<unsigned long, google_breakpad::linked_ptr<google_breakpad::SourceLineResolverBase::Line> >::Range> > >::_M_insert_unique<std::pair<unsigned long const, google_breakpad::RangeMap<unsigned long, google_breakpad::linked_ptr<google_breakpad::SourceLineResolverBase::Line> >::Range> >(std::pair<unsigned long const, google_breakpad::RangeMap<unsigned long, google_breakpad::linked_ptr<google_breakpad::SourceLineResolverBase::Line> >::Range>&&)
PUBLIC fae0 0 google_breakpad::RangeMap<unsigned long, google_breakpad::linked_ptr<google_breakpad::SourceLineResolverBase::Line> >::StoreRangeInternal(unsigned long const&, unsigned long const&, unsigned long const&, google_breakpad::linked_ptr<google_breakpad::SourceLineResolverBase::Line> const&)
PUBLIC 10390 0 std::_Rb_tree<unsigned long, std::pair<unsigned long const, google_breakpad::ContainedRangeMap<unsigned long, google_breakpad::linked_ptr<google_breakpad::WindowsFrameInfo> >*>, std::_Select1st<std::pair<unsigned long const, google_breakpad::ContainedRangeMap<unsigned long, google_breakpad::linked_ptr<google_breakpad::WindowsFrameInfo> >*> >, std::less<unsigned long>, std::allocator<std::pair<unsigned long const, google_breakpad::ContainedRangeMap<unsigned long, google_breakpad::linked_ptr<google_breakpad::WindowsFrameInfo> >*> > >::_M_get_insert_unique_pos(unsigned long const&)
PUBLIC 10420 0 std::pair<std::_Rb_tree_iterator<std::pair<unsigned long const, google_breakpad::RangeMap<unsigned long, std::__cxx11::basic_string<char, std::char_traits<char>, std::allocator<char> > >::Range> >, bool> std::_Rb_tree<unsigned long, std::pair<unsigned long const, google_breakpad::RangeMap<unsigned long, std::__cxx11::basic_string<char, std::char_traits<char>, std::allocator<char> > >::Range>, std::_Select1st<std::pair<unsigned long const, google_breakpad::RangeMap<unsigned long, std::__cxx11::basic_string<char, std::char_traits<char>, std::allocator<char> > >::Range> >, std::less<unsigned long>, std::allocator<std::pair<unsigned long const, google_breakpad::RangeMap<unsigned long, std::__cxx11::basic_string<char, std::char_traits<char>, std::allocator<char> > >::Range> > >::_M_insert_unique<std::pair<unsigned long const, google_breakpad::RangeMap<unsigned long, std::__cxx11::basic_string<char, std::char_traits<char>, std::allocator<char> > >::Range> >(std::pair<unsigned long const, google_breakpad::RangeMap<unsigned long, std::__cxx11::basic_string<char, std::char_traits<char>, std::allocator<char> > >::Range>&&)
PUBLIC 10590 0 google_breakpad::RangeMap<unsigned long, std::__cxx11::basic_string<char, std::char_traits<char>, std::allocator<char> > >::StoreRangeInternal(unsigned long const&, unsigned long const&, unsigned long const&, std::__cxx11::basic_string<char, std::char_traits<char>, std::allocator<char> > const&)
PUBLIC 10cc0 0 std::_Rb_tree<unsigned long, std::pair<unsigned long const, std::__cxx11::basic_string<char, std::char_traits<char>, std::allocator<char> > >, std::_Select1st<std::pair<unsigned long const, std::__cxx11::basic_string<char, std::char_traits<char>, std::allocator<char> > > >, std::less<unsigned long>, std::allocator<std::pair<unsigned long const, std::__cxx11::basic_string<char, std::char_traits<char>, std::allocator<char> > > > >::_M_get_insert_unique_pos(unsigned long const&)
PUBLIC 10d50 0 std::_Rb_tree<unsigned long, std::pair<unsigned long const, std::__cxx11::basic_string<char, std::char_traits<char>, std::allocator<char> > >, std::_Select1st<std::pair<unsigned long const, std::__cxx11::basic_string<char, std::char_traits<char>, std::allocator<char> > > >, std::less<unsigned long>, std::allocator<std::pair<unsigned long const, std::__cxx11::basic_string<char, std::char_traits<char>, std::allocator<char> > > > >::_M_get_insert_hint_unique_pos(std::_Rb_tree_const_iterator<std::pair<unsigned long const, std::__cxx11::basic_string<char, std::char_traits<char>, std::allocator<char> > > >, unsigned long const&)
PUBLIC 10e40 0 std::_Rb_tree<unsigned long, std::pair<unsigned long const, google_breakpad::ContainedRangeMap<unsigned long, google_breakpad::linked_ptr<google_breakpad::WindowsFrameInfo> >*>, std::_Select1st<std::pair<unsigned long const, google_breakpad::ContainedRangeMap<unsigned long, google_breakpad::linked_ptr<google_breakpad::WindowsFrameInfo> >*> >, std::less<unsigned long>, std::allocator<std::pair<unsigned long const, google_breakpad::ContainedRangeMap<unsigned long, google_breakpad::linked_ptr<google_breakpad::WindowsFrameInfo> >*> > >::_M_get_insert_hint_unique_pos(std::_Rb_tree_const_iterator<std::pair<unsigned long const, google_breakpad::ContainedRangeMap<unsigned long, google_breakpad::linked_ptr<google_breakpad::WindowsFrameInfo> >*> >, unsigned long const&)
PUBLIC 10f30 0 google_breakpad::ContainedRangeMap<unsigned long, google_breakpad::linked_ptr<google_breakpad::WindowsFrameInfo> >::StoreRange(unsigned long const&, unsigned long const&, google_breakpad::linked_ptr<google_breakpad::WindowsFrameInfo> const&)
PUBLIC 112f0 0 google_breakpad::CallStack::Clear()
PUBLIC 11380 0 google_breakpad::CallStack::~CallStack()
PUBLIC 113b0 0 google_breakpad::StackFrame::ReturnAddress() const
PUBLIC 113c0 0 google_breakpad::StackFrame::~StackFrame()
PUBLIC 11410 0 google_breakpad::StackFrame::~StackFrame()
PUBLIC 11460 0 google_breakpad::ConvertOldARM64Context(MDRawContextARM64_Old const&, MDRawContextARM64*)
PUBLIC 11580 0 google_breakpad::CFIFrameInfoParseHandler::CFARule(std::__cxx11::basic_string<char, std::char_traits<char>, std::allocator<char> > const&)
PUBLIC 11590 0 google_breakpad::CFIFrameInfoParseHandler::RARule(std::__cxx11::basic_string<char, std::char_traits<char>, std::allocator<char> > const&)
PUBLIC 115a0 0 void std::__cxx11::basic_string<char, std::char_traits<char>, std::allocator<char> >::_M_construct<char const*>(char const*, char const*, std::forward_iterator_tag) [clone .isra.54]
PUBLIC 11670 0 google_breakpad::CFIRuleParser::Report()
PUBLIC 11700 0 google_breakpad::CFIRuleParser::Parse(std::__cxx11::basic_string<char, std::char_traits<char>, std::allocator<char> > const&)
PUBLIC 11950 0 google_breakpad::CFIFrameInfo::Serialize[abi:cxx11]() const
PUBLIC 11f50 0 google_breakpad::CFIFrameInfoParseHandler::RegisterRule(std::__cxx11::basic_string<char, std::char_traits<char>, std::allocator<char> > const&, std::__cxx11::basic_string<char, std::char_traits<char>, std::allocator<char> > const&)
PUBLIC 121e0 0 google_breakpad::CFIFrameInfoParseHandler::~CFIFrameInfoParseHandler()
PUBLIC 121f0 0 google_breakpad::CFIFrameInfoParseHandler::~CFIFrameInfoParseHandler()
PUBLIC 12200 0 std::vector<std::__cxx11::basic_string<char, std::char_traits<char>, std::allocator<char> >, std::allocator<std::__cxx11::basic_string<char, std::char_traits<char>, std::allocator<char> > > >::clear()
PUBLIC 12250 0 std::__cxx11::basic_stringbuf<char, std::char_traits<char>, std::allocator<char> >::~basic_stringbuf()
PUBLIC 12290 0 std::__cxx11::basic_stringbuf<char, std::char_traits<char>, std::allocator<char> >::~basic_stringbuf()
PUBLIC 122e0 0 std::_Rb_tree<std::__cxx11::basic_string<char, std::char_traits<char>, std::allocator<char> >, std::pair<std::__cxx11::basic_string<char, std::char_traits<char>, std::allocator<char> > const, unsigned int>, std::_Select1st<std::pair<std::__cxx11::basic_string<char, std::char_traits<char>, std::allocator<char> > const, unsigned int> >, std::less<std::__cxx11::basic_string<char, std::char_traits<char>, std::allocator<char> > >, std::allocator<std::pair<std::__cxx11::basic_string<char, std::char_traits<char>, std::allocator<char> > const, unsigned int> > >::_M_erase(std::_Rb_tree_node<std::pair<std::__cxx11::basic_string<char, std::char_traits<char>, std::allocator<char> > const, unsigned int> >*)
PUBLIC 12340 0 std::_Rb_tree<std::__cxx11::basic_string<char, std::char_traits<char>, std::allocator<char> >, std::pair<std::__cxx11::basic_string<char, std::char_traits<char>, std::allocator<char> > const, unsigned long>, std::_Select1st<std::pair<std::__cxx11::basic_string<char, std::char_traits<char>, std::allocator<char> > const, unsigned long> >, std::less<std::__cxx11::basic_string<char, std::char_traits<char>, std::allocator<char> > >, std::allocator<std::pair<std::__cxx11::basic_string<char, std::char_traits<char>, std::allocator<char> > const, unsigned long> > >::_M_erase(std::_Rb_tree_node<std::pair<std::__cxx11::basic_string<char, std::char_traits<char>, std::allocator<char> > const, unsigned long> >*)
PUBLIC 123a0 0 std::_Rb_tree<std::__cxx11::basic_string<char, std::char_traits<char>, std::allocator<char> >, std::pair<std::__cxx11::basic_string<char, std::char_traits<char>, std::allocator<char> > const, std::__cxx11::basic_string<char, std::char_traits<char>, std::allocator<char> > >, std::_Select1st<std::pair<std::__cxx11::basic_string<char, std::char_traits<char>, std::allocator<char> > const, std::__cxx11::basic_string<char, std::char_traits<char>, std::allocator<char> > > >, std::less<std::__cxx11::basic_string<char, std::char_traits<char>, std::allocator<char> > >, std::allocator<std::pair<std::__cxx11::basic_string<char, std::char_traits<char>, std::allocator<char> > const, std::__cxx11::basic_string<char, std::char_traits<char>, std::allocator<char> > > > >::_M_get_insert_unique_pos(std::__cxx11::basic_string<char, std::char_traits<char>, std::allocator<char> > const&)
PUBLIC 12530 0 std::_Rb_tree<std::__cxx11::basic_string<char, std::char_traits<char>, std::allocator<char> >, std::pair<std::__cxx11::basic_string<char, std::char_traits<char>, std::allocator<char> > const, std::__cxx11::basic_string<char, std::char_traits<char>, std::allocator<char> > >, std::_Select1st<std::pair<std::__cxx11::basic_string<char, std::char_traits<char>, std::allocator<char> > const, std::__cxx11::basic_string<char, std::char_traits<char>, std::allocator<char> > > >, std::less<std::__cxx11::basic_string<char, std::char_traits<char>, std::allocator<char> > >, std::allocator<std::pair<std::__cxx11::basic_string<char, std::char_traits<char>, std::allocator<char> > const, std::__cxx11::basic_string<char, std::char_traits<char>, std::allocator<char> > > > >::_M_get_insert_hint_unique_pos(std::_Rb_tree_const_iterator<std::pair<std::__cxx11::basic_string<char, std::char_traits<char>, std::allocator<char> > const, std::__cxx11::basic_string<char, std::char_traits<char>, std::allocator<char> > > >, std::__cxx11::basic_string<char, std::char_traits<char>, std::allocator<char> > const&)
PUBLIC 127f0 0 std::_Rb_tree_node<std::pair<std::__cxx11::basic_string<char, std::char_traits<char>, std::allocator<char> > const, unsigned int> >* std::_Rb_tree<std::__cxx11::basic_string<char, std::char_traits<char>, std::allocator<char> >, std::pair<std::__cxx11::basic_string<char, std::char_traits<char>, std::allocator<char> > const, unsigned int>, std::_Select1st<std::pair<std::__cxx11::basic_string<char, std::char_traits<char>, std::allocator<char> > const, unsigned int> >, std::less<std::__cxx11::basic_string<char, std::char_traits<char>, std::allocator<char> > >, std::allocator<std::pair<std::__cxx11::basic_string<char, std::char_traits<char>, std::allocator<char> > const, unsigned int> > >::_M_copy<std::_Rb_tree<std::__cxx11::basic_string<char, std::char_traits<char>, std::allocator<char> >, std::pair<std::__cxx11::basic_string<char, std::char_traits<char>, std::allocator<char> > const, unsigned int>, std::_Select1st<std::pair<std::__cxx11::basic_string<char, std::char_traits<char>, std::allocator<char> > const, unsigned int> >, std::less<std::__cxx11::basic_string<char, std::char_traits<char>, std::allocator<char> > >, std::allocator<std::pair<std::__cxx11::basic_string<char, std::char_traits<char>, std::allocator<char> > const, unsigned int> > >::_Reuse_or_alloc_node>(std::_Rb_tree_node<std::pair<std::__cxx11::basic_string<char, std::char_traits<char>, std::allocator<char> > const, unsigned int> > const*, std::_Rb_tree_node_base*, std::_Rb_tree<std::__cxx11::basic_string<char, std::char_traits<char>, std::allocator<char> >, std::pair<std::__cxx11::basic_string<char, std::char_traits<char>, std::allocator<char> > const, unsigned int>, std::_Select1st<std::pair<std::__cxx11::basic_string<char, std::char_traits<char>, std::allocator<char> > const, unsigned int> >, std::less<std::__cxx11::basic_string<char, std::char_traits<char>, std::allocator<char> > >, std::allocator<std::pair<std::__cxx11::basic_string<char, std::char_traits<char>, std::allocator<char> > const, unsigned int> > >::_Reuse_or_alloc_node&)
PUBLIC 12b90 0 std::_Rb_tree<std::__cxx11::basic_string<char, std::char_traits<char>, std::allocator<char> >, std::pair<std::__cxx11::basic_string<char, std::char_traits<char>, std::allocator<char> > const, unsigned int>, std::_Select1st<std::pair<std::__cxx11::basic_string<char, std::char_traits<char>, std::allocator<char> > const, unsigned int> >, std::less<std::__cxx11::basic_string<char, std::char_traits<char>, std::allocator<char> > >, std::allocator<std::pair<std::__cxx11::basic_string<char, std::char_traits<char>, std::allocator<char> > const, unsigned int> > >::operator=(std::_Rb_tree<std::__cxx11::basic_string<char, std::char_traits<char>, std::allocator<char> >, std::pair<std::__cxx11::basic_string<char, std::char_traits<char>, std::allocator<char> > const, unsigned int>, std::_Select1st<std::pair<std::__cxx11::basic_string<char, std::char_traits<char>, std::allocator<char> > const, unsigned int> >, std::less<std::__cxx11::basic_string<char, std::char_traits<char>, std::allocator<char> > >, std::allocator<std::pair<std::__cxx11::basic_string<char, std::char_traits<char>, std::allocator<char> > const, unsigned int> > > const&)
PUBLIC 12cd0 0 google_breakpad::PostfixEvaluator<unsigned int>::PopValueOrIdentifier(unsigned int*, std::__cxx11::basic_string<char, std::char_traits<char>, std::allocator<char> >*)
PUBLIC 130f0 0 google_breakpad::PostfixEvaluator<unsigned int>::PopValue(unsigned int*)
PUBLIC 13340 0 std::_Rb_tree<std::__cxx11::basic_string<char, std::char_traits<char>, std::allocator<char> >, std::pair<std::__cxx11::basic_string<char, std::char_traits<char>, std::allocator<char> > const, unsigned int>, std::_Select1st<std::pair<std::__cxx11::basic_string<char, std::char_traits<char>, std::allocator<char> > const, unsigned int> >, std::less<std::__cxx11::basic_string<char, std::char_traits<char>, std::allocator<char> > >, std::allocator<std::pair<std::__cxx11::basic_string<char, std::char_traits<char>, std::allocator<char> > const, unsigned int> > >::_M_insert_node(std::_Rb_tree_node_base*, std::_Rb_tree_node_base*, std::_Rb_tree_node<std::pair<std::__cxx11::basic_string<char, std::char_traits<char>, std::allocator<char> > const, unsigned int> >*)
PUBLIC 13400 0 std::_Rb_tree_node<std::pair<std::__cxx11::basic_string<char, std::char_traits<char>, std::allocator<char> > const, unsigned long> >* std::_Rb_tree<std::__cxx11::basic_string<char, std::char_traits<char>, std::allocator<char> >, std::pair<std::__cxx11::basic_string<char, std::char_traits<char>, std::allocator<char> > const, unsigned long>, std::_Select1st<std::pair<std::__cxx11::basic_string<char, std::char_traits<char>, std::allocator<char> > const, unsigned long> >, std::less<std::__cxx11::basic_string<char, std::char_traits<char>, std::allocator<char> > >, std::allocator<std::pair<std::__cxx11::basic_string<char, std::char_traits<char>, std::allocator<char> > const, unsigned long> > >::_M_copy<std::_Rb_tree<std::__cxx11::basic_string<char, std::char_traits<char>, std::allocator<char> >, std::pair<std::__cxx11::basic_string<char, std::char_traits<char>, std::allocator<char> > const, unsigned long>, std::_Select1st<std::pair<std::__cxx11::basic_string<char, std::char_traits<char>, std::allocator<char> > const, unsigned long> >, std::less<std::__cxx11::basic_string<char, std::char_traits<char>, std::allocator<char> > >, std::allocator<std::pair<std::__cxx11::basic_string<char, std::char_traits<char>, std::allocator<char> > const, unsigned long> > >::_Reuse_or_alloc_node>(std::_Rb_tree_node<std::pair<std::__cxx11::basic_string<char, std::char_traits<char>, std::allocator<char> > const, unsigned long> > const*, std::_Rb_tree_node_base*, std::_Rb_tree<std::__cxx11::basic_string<char, std::char_traits<char>, std::allocator<char> >, std::pair<std::__cxx11::basic_string<char, std::char_traits<char>, std::allocator<char> > const, unsigned long>, std::_Select1st<std::pair<std::__cxx11::basic_string<char, std::char_traits<char>, std::allocator<char> > const, unsigned long> >, std::less<std::__cxx11::basic_string<char, std::char_traits<char>, std::allocator<char> > >, std::allocator<std::pair<std::__cxx11::basic_string<char, std::char_traits<char>, std::allocator<char> > const, unsigned long> > >::_Reuse_or_alloc_node&)
PUBLIC 137b0 0 std::_Rb_tree<std::__cxx11::basic_string<char, std::char_traits<char>, std::allocator<char> >, std::pair<std::__cxx11::basic_string<char, std::char_traits<char>, std::allocator<char> > const, unsigned long>, std::_Select1st<std::pair<std::__cxx11::basic_string<char, std::char_traits<char>, std::allocator<char> > const, unsigned long> >, std::less<std::__cxx11::basic_string<char, std::char_traits<char>, std::allocator<char> > >, std::allocator<std::pair<std::__cxx11::basic_string<char, std::char_traits<char>, std::allocator<char> > const, unsigned long> > >::operator=(std::_Rb_tree<std::__cxx11::basic_string<char, std::char_traits<char>, std::allocator<char> >, std::pair<std::__cxx11::basic_string<char, std::char_traits<char>, std::allocator<char> > const, unsigned long>, std::_Select1st<std::pair<std::__cxx11::basic_string<char, std::char_traits<char>, std::allocator<char> > const, unsigned long> >, std::less<std::__cxx11::basic_string<char, std::char_traits<char>, std::allocator<char> > >, std::allocator<std::pair<std::__cxx11::basic_string<char, std::char_traits<char>, std::allocator<char> > const, unsigned long> > > const&)
PUBLIC 138f0 0 google_breakpad::PostfixEvaluator<unsigned long>::PopValueOrIdentifier(unsigned long*, std::__cxx11::basic_string<char, std::char_traits<char>, std::allocator<char> >*)
PUBLIC 13d20 0 google_breakpad::PostfixEvaluator<unsigned long>::PopValue(unsigned long*)
PUBLIC 13f70 0 std::_Rb_tree<std::__cxx11::basic_string<char, std::char_traits<char>, std::allocator<char> >, std::pair<std::__cxx11::basic_string<char, std::char_traits<char>, std::allocator<char> > const, unsigned long>, std::_Select1st<std::pair<std::__cxx11::basic_string<char, std::char_traits<char>, std::allocator<char> > const, unsigned long> >, std::less<std::__cxx11::basic_string<char, std::char_traits<char>, std::allocator<char> > >, std::allocator<std::pair<std::__cxx11::basic_string<char, std::char_traits<char>, std::allocator<char> > const, unsigned long> > >::_M_insert_node(std::_Rb_tree_node_base*, std::_Rb_tree_node_base*, std::_Rb_tree_node<std::pair<std::__cxx11::basic_string<char, std::char_traits<char>, std::allocator<char> > const, unsigned long> >*)
PUBLIC 14030 0 std::_Rb_tree<std::__cxx11::basic_string<char, std::char_traits<char>, std::allocator<char> >, std::pair<std::__cxx11::basic_string<char, std::char_traits<char>, std::allocator<char> > const, unsigned int>, std::_Select1st<std::pair<std::__cxx11::basic_string<char, std::char_traits<char>, std::allocator<char> > const, unsigned int> >, std::less<std::__cxx11::basic_string<char, std::char_traits<char>, std::allocator<char> > >, std::allocator<std::pair<std::__cxx11::basic_string<char, std::char_traits<char>, std::allocator<char> > const, unsigned int> > >::_M_get_insert_unique_pos(std::__cxx11::basic_string<char, std::char_traits<char>, std::allocator<char> > const&)
PUBLIC 141c0 0 std::_Rb_tree<std::__cxx11::basic_string<char, std::char_traits<char>, std::allocator<char> >, std::pair<std::__cxx11::basic_string<char, std::char_traits<char>, std::allocator<char> > const, unsigned int>, std::_Select1st<std::pair<std::__cxx11::basic_string<char, std::char_traits<char>, std::allocator<char> > const, unsigned int> >, std::less<std::__cxx11::basic_string<char, std::char_traits<char>, std::allocator<char> > >, std::allocator<std::pair<std::__cxx11::basic_string<char, std::char_traits<char>, std::allocator<char> > const, unsigned int> > >::_M_get_insert_hint_unique_pos(std::_Rb_tree_const_iterator<std::pair<std::__cxx11::basic_string<char, std::char_traits<char>, std::allocator<char> > const, unsigned int> >, std::__cxx11::basic_string<char, std::char_traits<char>, std::allocator<char> > const&)
PUBLIC 14480 0 std::map<std::__cxx11::basic_string<char, std::char_traits<char>, std::allocator<char> >, unsigned int, std::less<std::__cxx11::basic_string<char, std::char_traits<char>, std::allocator<char> > >, std::allocator<std::pair<std::__cxx11::basic_string<char, std::char_traits<char>, std::allocator<char> > const, unsigned int> > >::operator[](std::__cxx11::basic_string<char, std::char_traits<char>, std::allocator<char> > const&)
PUBLIC 14640 0 std::_Rb_tree<std::__cxx11::basic_string<char, std::char_traits<char>, std::allocator<char> >, std::pair<std::__cxx11::basic_string<char, std::char_traits<char>, std::allocator<char> > const, unsigned long>, std::_Select1st<std::pair<std::__cxx11::basic_string<char, std::char_traits<char>, std::allocator<char> > const, unsigned long> >, std::less<std::__cxx11::basic_string<char, std::char_traits<char>, std::allocator<char> > >, std::allocator<std::pair<std::__cxx11::basic_string<char, std::char_traits<char>, std::allocator<char> > const, unsigned long> > >::_M_get_insert_unique_pos(std::__cxx11::basic_string<char, std::char_traits<char>, std::allocator<char> > const&)
PUBLIC 147d0 0 std::_Rb_tree<std::__cxx11::basic_string<char, std::char_traits<char>, std::allocator<char> >, std::pair<std::__cxx11::basic_string<char, std::char_traits<char>, std::allocator<char> > const, unsigned long>, std::_Select1st<std::pair<std::__cxx11::basic_string<char, std::char_traits<char>, std::allocator<char> > const, unsigned long> >, std::less<std::__cxx11::basic_string<char, std::char_traits<char>, std::allocator<char> > >, std::allocator<std::pair<std::__cxx11::basic_string<char, std::char_traits<char>, std::allocator<char> > const, unsigned long> > >::_M_get_insert_hint_unique_pos(std::_Rb_tree_const_iterator<std::pair<std::__cxx11::basic_string<char, std::char_traits<char>, std::allocator<char> > const, unsigned long> >, std::__cxx11::basic_string<char, std::char_traits<char>, std::allocator<char> > const&)
PUBLIC 14a90 0 std::map<std::__cxx11::basic_string<char, std::char_traits<char>, std::allocator<char> >, unsigned long, std::less<std::__cxx11::basic_string<char, std::char_traits<char>, std::allocator<char> > >, std::allocator<std::pair<std::__cxx11::basic_string<char, std::char_traits<char>, std::allocator<char> > const, unsigned long> > >::operator[](std::__cxx11::basic_string<char, std::char_traits<char>, std::allocator<char> > const&)
PUBLIC 14c50 0 void std::vector<std::__cxx11::basic_string<char, std::char_traits<char>, std::allocator<char> >, std::allocator<std::__cxx11::basic_string<char, std::char_traits<char>, std::allocator<char> > > >::_M_realloc_insert<std::__cxx11::basic_string<char, std::char_traits<char>, std::allocator<char> > const&>(__gnu_cxx::__normal_iterator<std::__cxx11::basic_string<char, std::char_traits<char>, std::allocator<char> >*, std::vector<std::__cxx11::basic_string<char, std::char_traits<char>, std::allocator<char> >, std::allocator<std::__cxx11::basic_string<char, std::char_traits<char>, std::allocator<char> > > > >, std::__cxx11::basic_string<char, std::char_traits<char>, std::allocator<char> > const&)
PUBLIC 14ee0 0 std::vector<std::__cxx11::basic_string<char, std::char_traits<char>, std::allocator<char> >, std::allocator<std::__cxx11::basic_string<char, std::char_traits<char>, std::allocator<char> > > >::push_back(std::__cxx11::basic_string<char, std::char_traits<char>, std::allocator<char> > const&)
PUBLIC 14f30 0 void std::vector<std::__cxx11::basic_string<char, std::char_traits<char>, std::allocator<char> >, std::allocator<std::__cxx11::basic_string<char, std::char_traits<char>, std::allocator<char> > > >::emplace_back<std::__cxx11::basic_string<char, std::char_traits<char>, std::allocator<char> > >(std::__cxx11::basic_string<char, std::char_traits<char>, std::allocator<char> >&&)
PUBLIC 14fb0 0 google_breakpad::PostfixEvaluator<unsigned int>::PushValue(unsigned int const&)
PUBLIC 154e0 0 google_breakpad::PostfixEvaluator<unsigned long>::PushValue(unsigned long const&)
PUBLIC 15a10 0 std::_Rb_tree<std::__cxx11::basic_string<char, std::char_traits<char>, std::allocator<char> >, std::pair<std::__cxx11::basic_string<char, std::char_traits<char>, std::allocator<char> > const, bool>, std::_Select1st<std::pair<std::__cxx11::basic_string<char, std::char_traits<char>, std::allocator<char> > const, bool> >, std::less<std::__cxx11::basic_string<char, std::char_traits<char>, std::allocator<char> > >, std::allocator<std::pair<std::__cxx11::basic_string<char, std::char_traits<char>, std::allocator<char> > const, bool> > >::_M_get_insert_unique_pos(std::__cxx11::basic_string<char, std::char_traits<char>, std::allocator<char> > const&)
PUBLIC 15ba0 0 std::_Rb_tree<std::__cxx11::basic_string<char, std::char_traits<char>, std::allocator<char> >, std::pair<std::__cxx11::basic_string<char, std::char_traits<char>, std::allocator<char> > const, bool>, std::_Select1st<std::pair<std::__cxx11::basic_string<char, std::char_traits<char>, std::allocator<char> > const, bool> >, std::less<std::__cxx11::basic_string<char, std::char_traits<char>, std::allocator<char> > >, std::allocator<std::pair<std::__cxx11::basic_string<char, std::char_traits<char>, std::allocator<char> > const, bool> > >::_M_get_insert_hint_unique_pos(std::_Rb_tree_const_iterator<std::pair<std::__cxx11::basic_string<char, std::char_traits<char>, std::allocator<char> > const, bool> >, std::__cxx11::basic_string<char, std::char_traits<char>, std::allocator<char> > const&)
PUBLIC 15e60 0 std::map<std::__cxx11::basic_string<char, std::char_traits<char>, std::allocator<char> >, bool, std::less<std::__cxx11::basic_string<char, std::char_traits<char>, std::allocator<char> > >, std::allocator<std::pair<std::__cxx11::basic_string<char, std::char_traits<char>, std::allocator<char> > const, bool> > >::operator[](std::__cxx11::basic_string<char, std::char_traits<char>, std::allocator<char> > const&)
PUBLIC 160a0 0 google_breakpad::PostfixEvaluator<unsigned int>::EvaluateToken(std::__cxx11::basic_string<char, std::char_traits<char>, std::allocator<char> > const&, std::__cxx11::basic_string<char, std::char_traits<char>, std::allocator<char> > const&, std::map<std::__cxx11::basic_string<char, std::char_traits<char>, std::allocator<char> >, bool, std::less<std::__cxx11::basic_string<char, std::char_traits<char>, std::allocator<char> > >, std::allocator<std::pair<std::__cxx11::basic_string<char, std::char_traits<char>, std::allocator<char> > const, bool> > >*)
PUBLIC 167b0 0 google_breakpad::PostfixEvaluator<unsigned int>::EvaluateInternal(std::__cxx11::basic_string<char, std::char_traits<char>, std::allocator<char> > const&, std::map<std::__cxx11::basic_string<char, std::char_traits<char>, std::allocator<char> >, bool, std::less<std::__cxx11::basic_string<char, std::char_traits<char>, std::allocator<char> > >, std::allocator<std::pair<std::__cxx11::basic_string<char, std::char_traits<char>, std::allocator<char> > const, bool> > >*)
PUBLIC 16c70 0 google_breakpad::PostfixEvaluator<unsigned int>::EvaluateForValue(std::__cxx11::basic_string<char, std::char_traits<char>, std::allocator<char> > const&, unsigned int*)
PUBLIC 16dd0 0 bool google_breakpad::CFIFrameInfo::FindCallerRegs<unsigned int>(google_breakpad::CFIFrameInfo::RegisterValueMap<unsigned int> const&, google_breakpad::MemoryRegion const&, google_breakpad::CFIFrameInfo::RegisterValueMap<unsigned int>*) const
PUBLIC 17aa0 0 google_breakpad::PostfixEvaluator<unsigned long>::EvaluateToken(std::__cxx11::basic_string<char, std::char_traits<char>, std::allocator<char> > const&, std::__cxx11::basic_string<char, std::char_traits<char>, std::allocator<char> > const&, std::map<std::__cxx11::basic_string<char, std::char_traits<char>, std::allocator<char> >, bool, std::less<std::__cxx11::basic_string<char, std::char_traits<char>, std::allocator<char> > >, std::allocator<std::pair<std::__cxx11::basic_string<char, std::char_traits<char>, std::allocator<char> > const, bool> > >*)
PUBLIC 181c0 0 google_breakpad::PostfixEvaluator<unsigned long>::EvaluateInternal(std::__cxx11::basic_string<char, std::char_traits<char>, std::allocator<char> > const&, std::map<std::__cxx11::basic_string<char, std::char_traits<char>, std::allocator<char> >, bool, std::less<std::__cxx11::basic_string<char, std::char_traits<char>, std::allocator<char> > >, std::allocator<std::pair<std::__cxx11::basic_string<char, std::char_traits<char>, std::allocator<char> > const, bool> > >*)
PUBLIC 18680 0 google_breakpad::PostfixEvaluator<unsigned long>::EvaluateForValue(std::__cxx11::basic_string<char, std::char_traits<char>, std::allocator<char> > const&, unsigned long*)
PUBLIC 187e0 0 bool google_breakpad::CFIFrameInfo::FindCallerRegs<unsigned long>(google_breakpad::CFIFrameInfo::RegisterValueMap<unsigned long> const&, google_breakpad::MemoryRegion const&, google_breakpad::CFIFrameInfo::RegisterValueMap<unsigned long>*) const
PUBLIC 194c0 0 google_breakpad::DisassemblerX86::DisassemblerX86(unsigned char const*, unsigned int, unsigned int)
PUBLIC 19500 0 google_breakpad::DisassemblerX86::~DisassemblerX86()
PUBLIC 19530 0 google_breakpad::DisassemblerX86::NextInstruction()
PUBLIC 199e0 0 google_breakpad::DisassemblerX86::setBadRead()
PUBLIC 19a50 0 google_breakpad::DisassemblerX86::setBadWrite()
PUBLIC 19ac0 0 google_breakpad::DumpContext::DumpContext()
PUBLIC 19af0 0 google_breakpad::DumpContext::GetContextCPU() const
PUBLIC 19b00 0 google_breakpad::DumpContext::GetContextFlags() const
PUBLIC 19b10 0 google_breakpad::DumpContext::GetContextX86() const
PUBLIC 19bb0 0 google_breakpad::DumpContext::GetContextPPC() const
PUBLIC 19c50 0 google_breakpad::DumpContext::GetContextPPC64() const
PUBLIC 19cf0 0 google_breakpad::DumpContext::GetContextAMD64() const
PUBLIC 19d90 0 google_breakpad::DumpContext::GetContextSPARC() const
PUBLIC 19e30 0 google_breakpad::DumpContext::GetContextARM() const
PUBLIC 19ed0 0 google_breakpad::DumpContext::GetContextARM64() const
PUBLIC 19f70 0 google_breakpad::DumpContext::GetContextMIPS() const
PUBLIC 1a020 0 google_breakpad::DumpContext::GetInstructionPointer(unsigned long*) const
PUBLIC 1a2b0 0 google_breakpad::DumpContext::GetStackPointer(unsigned long*) const
PUBLIC 1a540 0 google_breakpad::DumpContext::SetContextFlags(unsigned int)
PUBLIC 1a550 0 google_breakpad::DumpContext::SetContextX86(MDRawContextX86*)
PUBLIC 1a560 0 google_breakpad::DumpContext::SetContextPPC(MDRawContextPPC*)
PUBLIC 1a570 0 google_breakpad::DumpContext::SetContextPPC64(MDRawContextPPC64*)
PUBLIC 1a580 0 google_breakpad::DumpContext::SetContextAMD64(MDRawContextAMD64*)
PUBLIC 1a590 0 google_breakpad::DumpContext::SetContextSPARC(MDRawContextSPARC*)
PUBLIC 1a5a0 0 google_breakpad::DumpContext::SetContextARM(MDRawContextARM*)
PUBLIC 1a5b0 0 google_breakpad::DumpContext::SetContextARM64(MDRawContextARM64*)
PUBLIC 1a5c0 0 google_breakpad::DumpContext::SetContextMIPS(MDRawContextMIPS*)
PUBLIC 1a5d0 0 google_breakpad::DumpContext::FreeContext()
PUBLIC 1a6f0 0 google_breakpad::DumpContext::~DumpContext()
PUBLIC 1a710 0 google_breakpad::DumpContext::~DumpContext()
PUBLIC 1a730 0 google_breakpad::DumpContext::Print()
PUBLIC 1b8a0 0 google_breakpad::DumpObject::DumpObject()
PUBLIC 1b8b0 0 google_breakpad::LogStream::LogStream(std::ostream&, google_breakpad::LogStream::Severity, char const*, int)
PUBLIC 1bb90 0 google_breakpad::LogStream::~LogStream()
PUBLIC 1bc00 0 google_breakpad::HexString[abi:cxx11](unsigned int)
PUBLIC 1bce0 0 google_breakpad::HexString[abi:cxx11](unsigned long)
PUBLIC 1bdf0 0 google_breakpad::HexString[abi:cxx11](int)
PUBLIC 1bf00 0 google_breakpad::ErrnoString(std::__cxx11::basic_string<char, std::char_traits<char>, std::allocator<char> >*)
PUBLIC 1bf40 0 std::ctype<char>::do_widen(char) const
PUBLIC 1bf50 0 google_breakpad::MicrodumpMemoryRegion::GetBase() const
PUBLIC 1bf60 0 google_breakpad::MicrodumpMemoryRegion::GetSize() const
PUBLIC 1bf70 0 google_breakpad::MicrodumpMemoryRegion::GetMemoryAtAddress(unsigned long, unsigned char*) const
PUBLIC 1bfa0 0 google_breakpad::MicrodumpMemoryRegion::GetMemoryAtAddress(unsigned long, unsigned short*) const
PUBLIC 1bfe0 0 google_breakpad::MicrodumpMemoryRegion::GetMemoryAtAddress(unsigned long, unsigned int*) const
PUBLIC 1c030 0 google_breakpad::MicrodumpMemoryRegion::GetMemoryAtAddress(unsigned long, unsigned long*) const
PUBLIC 1c080 0 google_breakpad::MicrodumpMemoryRegion::Print() const
PUBLIC 1c090 0 google_breakpad::MicrodumpContext::SetContextARM(MDRawContextARM*)
PUBLIC 1c0c0 0 google_breakpad::MicrodumpContext::SetContextARM64(MDRawContextARM64*)
PUBLIC 1c0f0 0 google_breakpad::MicrodumpContext::SetContextX86(MDRawContextX86*)
PUBLIC 1c120 0 google_breakpad::MicrodumpContext::SetContextMIPS(MDRawContextMIPS*)
PUBLIC 1c150 0 google_breakpad::MicrodumpContext::SetContextMIPS64(MDRawContextMIPS*)
PUBLIC 1c180 0 void std::__cxx11::basic_string<char, std::char_traits<char>, std::allocator<char> >::_M_construct<char const*>(char const*, char const*, std::forward_iterator_tag) [clone .isra.47]
PUBLIC 1c250 0 (anonymous namespace)::GetLine(std::__cxx11::basic_istringstream<char, std::char_traits<char>, std::allocator<char> >*, std::__cxx11::basic_string<char, std::char_traits<char>, std::allocator<char> >*)
PUBLIC 1c300 0 google_breakpad::MicrodumpModules::SetEnableModuleShrink(bool)
PUBLIC 1c310 0 google_breakpad::MicrodumpMemoryRegion::MicrodumpMemoryRegion()
PUBLIC 1c340 0 google_breakpad::MicrodumpMemoryRegion::Init(unsigned long, std::vector<unsigned char, std::allocator<unsigned char> > const&)
PUBLIC 1c4a0 0 unsigned long (anonymous namespace)::HexStrToL<unsigned long>(std::__cxx11::basic_string<char, std::char_traits<char>, std::allocator<char> > const&)
PUBLIC 1c7a0 0 unsigned char (anonymous namespace)::HexStrToL<unsigned char>(std::__cxx11::basic_string<char, std::char_traits<char>, std::allocator<char> > const&)
PUBLIC 1caa0 0 (anonymous namespace)::ParseHexBuf(std::__cxx11::basic_string<char, std::char_traits<char>, std::allocator<char> > const&)
PUBLIC 1cd10 0 google_breakpad::MicrodumpModules::Add(google_breakpad::CodeModule const*)
PUBLIC 1d000 0 google_breakpad::Microdump::Microdump(std::__cxx11::basic_string<char, std::char_traits<char>, std::allocator<char> > const&)
PUBLIC 1f9d0 0 google_breakpad::BasicCodeModule::base_address() const
PUBLIC 1f9e0 0 google_breakpad::BasicCodeModule::size() const
PUBLIC 1f9f0 0 google_breakpad::BasicCodeModule::shrink_down_delta() const
PUBLIC 1fa00 0 google_breakpad::BasicCodeModule::SetShrinkDownDelta(unsigned long)
PUBLIC 1fa10 0 google_breakpad::BasicCodeModule::is_unloaded() const
PUBLIC 1fa20 0 google_breakpad::BasicCodeModule::~BasicCodeModule()
PUBLIC 1fab0 0 google_breakpad::MicrodumpModules::~MicrodumpModules()
PUBLIC 1fad0 0 google_breakpad::MicrodumpModules::~MicrodumpModules()
PUBLIC 1fb00 0 google_breakpad::MicrodumpContext::~MicrodumpContext()
PUBLIC 1fb20 0 google_breakpad::MicrodumpContext::~MicrodumpContext()
PUBLIC 1fb50 0 google_breakpad::BasicCodeModule::code_file[abi:cxx11]() const
PUBLIC 1fb80 0 google_breakpad::BasicCodeModule::version[abi:cxx11]() const
PUBLIC 1fbb0 0 google_breakpad::BasicCodeModule::debug_identifier[abi:cxx11]() const
PUBLIC 1fbe0 0 google_breakpad::BasicCodeModule::debug_file[abi:cxx11]() const
PUBLIC 1fc10 0 google_breakpad::BasicCodeModule::code_identifier[abi:cxx11]() const
PUBLIC 1fc40 0 google_breakpad::BasicCodeModule::Copy() const
PUBLIC 1ff50 0 google_breakpad::BasicCodeModule::~BasicCodeModule()
PUBLIC 1ffe0 0 google_breakpad::scoped_ptr<google_breakpad::SystemInfo>::~scoped_ptr()
PUBLIC 200b0 0 void std::vector<unsigned char, std::allocator<unsigned char> >::_M_range_insert<__gnu_cxx::__normal_iterator<unsigned char*, std::vector<unsigned char, std::allocator<unsigned char> > > >(__gnu_cxx::__normal_iterator<unsigned char*, std::vector<unsigned char, std::allocator<unsigned char> > >, __gnu_cxx::__normal_iterator<unsigned char*, std::vector<unsigned char, std::allocator<unsigned char> > >, __gnu_cxx::__normal_iterator<unsigned char*, std::vector<unsigned char, std::allocator<unsigned char> > >, std::forward_iterator_tag)
PUBLIC 20330 0 google_breakpad::MicrodumpProcessor::~MicrodumpProcessor()
PUBLIC 20340 0 google_breakpad::MicrodumpProcessor::~MicrodumpProcessor()
PUBLIC 20360 0 google_breakpad::MicrodumpProcessor::MicrodumpProcessor(google_breakpad::StackFrameSymbolizer*)
PUBLIC 20380 0 google_breakpad::MicrodumpProcessor::Process(google_breakpad::Microdump*, google_breakpad::ProcessState*)
PUBLIC 208a0 0 void std::vector<google_breakpad::CallStack*, std::allocator<google_breakpad::CallStack*> >::_M_realloc_insert<google_breakpad::CallStack*>(__gnu_cxx::__normal_iterator<google_breakpad::CallStack**, std::vector<google_breakpad::CallStack*, std::allocator<google_breakpad::CallStack*> > >, google_breakpad::CallStack*&&)
PUBLIC 209d0 0 void std::vector<google_breakpad::MemoryRegion*, std::allocator<google_breakpad::MemoryRegion*> >::_M_realloc_insert<google_breakpad::MemoryRegion*>(__gnu_cxx::__normal_iterator<google_breakpad::MemoryRegion**, std::vector<google_breakpad::MemoryRegion*, std::allocator<google_breakpad::MemoryRegion*> > >, google_breakpad::MemoryRegion*&&)
PUBLIC 20b00 0 google_breakpad::PathnameStripper::File(std::__cxx11::basic_string<char, std::char_traits<char>, std::allocator<char> > const&)
PUBLIC 20cb0 0 google_breakpad::ProcessState::Clear()
PUBLIC 20e40 0 google_breakpad::ProcessState::~ProcessState()
PUBLIC 21000 0 void std::__cxx11::basic_string<char, std::char_traits<char>, std::allocator<char> >::_M_construct<char const*>(char const*, char const*, std::forward_iterator_tag) [clone .isra.36]
PUBLIC 210d0 0 google_breakpad::SimpleSymbolSupplier::GetSymbolFile(google_breakpad::CodeModule const*, google_breakpad::SystemInfo const*, std::__cxx11::basic_string<char, std::char_traits<char>, std::allocator<char> >*, std::__cxx11::basic_string<char, std::char_traits<char>, std::allocator<char> >*)
PUBLIC 213b0 0 google_breakpad::SimpleSymbolSupplier::FreeSymbolData(google_breakpad::CodeModule const*)
PUBLIC 216a0 0 google_breakpad::SimpleSymbolSupplier::GetSymbolFileAtPathFromRoot(google_breakpad::CodeModule const*, google_breakpad::SystemInfo const*, std::__cxx11::basic_string<char, std::char_traits<char>, std::allocator<char> > const&, std::__cxx11::basic_string<char, std::char_traits<char>, std::allocator<char> >*)
PUBLIC 21f90 0 google_breakpad::SimpleSymbolSupplier::GetSymbolFile(google_breakpad::CodeModule const*, google_breakpad::SystemInfo const*, std::__cxx11::basic_string<char, std::char_traits<char>, std::allocator<char> >*)
PUBLIC 220b0 0 google_breakpad::SimpleSymbolSupplier::GetCStringSymbolData(google_breakpad::CodeModule const*, google_breakpad::SystemInfo const*, std::__cxx11::basic_string<char, std::char_traits<char>, std::allocator<char> >*, char**, unsigned long*)
PUBLIC 22270 0 google_breakpad::SimpleSymbolSupplier::~SimpleSymbolSupplier()
PUBLIC 222e0 0 google_breakpad::SimpleSymbolSupplier::~SimpleSymbolSupplier()
PUBLIC 22360 0 std::pair<std::_Rb_tree_iterator<std::pair<std::__cxx11::basic_string<char, std::char_traits<char>, std::allocator<char> > const, char*> >, bool> std::_Rb_tree<std::__cxx11::basic_string<char, std::char_traits<char>, std::allocator<char> >, std::pair<std::__cxx11::basic_string<char, std::char_traits<char>, std::allocator<char> > const, char*>, std::_Select1st<std::pair<std::__cxx11::basic_string<char, std::char_traits<char>, std::allocator<char> > const, char*> >, std::less<std::__cxx11::basic_string<char, std::char_traits<char>, std::allocator<char> > >, std::allocator<std::pair<std::__cxx11::basic_string<char, std::char_traits<char>, std::allocator<char> > const, char*> > >::_M_emplace_unique<std::pair<std::__cxx11::basic_string<char, std::char_traits<char>, std::allocator<char> >, char*> >(std::pair<std::__cxx11::basic_string<char, std::char_traits<char>, std::allocator<char> >, char*>&&)
PUBLIC 22620 0 google_breakpad::SourceLineResolverBase::ShouldDeleteMemoryBufferAfterLoadModule()
PUBLIC 22630 0 google_breakpad::SourceLineResolverBase::Module::ParseCFIRuleSet(std::__cxx11::basic_string<char, std::char_traits<char>, std::allocator<char> > const&, google_breakpad::CFIFrameInfo*) const
PUBLIC 22720 0 google_breakpad::SourceLineResolverBase::SourceLineResolverBase(google_breakpad::ModuleFactory*)
PUBLIC 227e0 0 google_breakpad::SourceLineResolverBase::ReadSymbolFile(std::__cxx11::basic_string<char, std::char_traits<char>, std::allocator<char> > const&, char**, unsigned long*)
PUBLIC 22cd0 0 google_breakpad::SourceLineResolverBase::CompareString::operator()(std::__cxx11::basic_string<char, std::char_traits<char>, std::allocator<char> > const&, std::__cxx11::basic_string<char, std::char_traits<char>, std::allocator<char> > const&) const
PUBLIC 22cf0 0 google_breakpad::SourceLineResolverBase::IsModuleCorrupt(google_breakpad::CodeModule const*)
PUBLIC 22df0 0 google_breakpad::SourceLineResolverBase::~SourceLineResolverBase()
PUBLIC 22f40 0 google_breakpad::SourceLineResolverBase::~SourceLineResolverBase()
PUBLIC 22f60 0 google_breakpad::SourceLineResolverBase::HasModule(google_breakpad::CodeModule const*)
PUBLIC 23010 0 google_breakpad::SourceLineResolverBase::FillSourceLineInfo(google_breakpad::StackFrame*)
PUBLIC 230d0 0 google_breakpad::SourceLineResolverBase::FindWindowsFrameInfo(google_breakpad::StackFrame const*)
PUBLIC 23190 0 google_breakpad::SourceLineResolverBase::FindCFIFrameInfo(google_breakpad::StackFrame const*)
PUBLIC 23250 0 google_breakpad::SourceLineResolverBase::LoadModule(google_breakpad::CodeModule const*, std::__cxx11::basic_string<char, std::char_traits<char>, std::allocator<char> > const&)
PUBLIC 23610 0 google_breakpad::SourceLineResolverBase::LoadModuleUsingMapBuffer(google_breakpad::CodeModule const*, std::__cxx11::basic_string<char, std::char_traits<char>, std::allocator<char> > const&)
PUBLIC 238d0 0 google_breakpad::SourceLineResolverBase::LoadModuleUsingMemoryBuffer(google_breakpad::CodeModule const*, char*, unsigned long)
PUBLIC 23cf0 0 google_breakpad::SourceLineResolverBase::UnloadModule(google_breakpad::CodeModule const*)
PUBLIC 23ee0 0 std::_Rb_tree<std::__cxx11::basic_string<char, std::char_traits<char>, std::allocator<char> >, std::pair<std::__cxx11::basic_string<char, std::char_traits<char>, std::allocator<char> > const, google_breakpad::SourceLineResolverBase::Module*>, std::_Select1st<std::pair<std::__cxx11::basic_string<char, std::char_traits<char>, std::allocator<char> > const, google_breakpad::SourceLineResolverBase::Module*> >, google_breakpad::SourceLineResolverBase::CompareString, std::allocator<std::pair<std::__cxx11::basic_string<char, std::char_traits<char>, std::allocator<char> > const, google_breakpad::SourceLineResolverBase::Module*> > >::_M_erase(std::_Rb_tree_node<std::pair<std::__cxx11::basic_string<char, std::char_traits<char>, std::allocator<char> > const, google_breakpad::SourceLineResolverBase::Module*> >*)
PUBLIC 23f40 0 std::_Rb_tree<std::__cxx11::basic_string<char, std::char_traits<char>, std::allocator<char> >, std::__cxx11::basic_string<char, std::char_traits<char>, std::allocator<char> >, std::_Identity<std::__cxx11::basic_string<char, std::char_traits<char>, std::allocator<char> > >, google_breakpad::SourceLineResolverBase::CompareString, std::allocator<std::__cxx11::basic_string<char, std::char_traits<char>, std::allocator<char> > > >::_M_erase(std::_Rb_tree_node<std::__cxx11::basic_string<char, std::char_traits<char>, std::allocator<char> > >*)
PUBLIC 23fa0 0 std::_Rb_tree<std::__cxx11::basic_string<char, std::char_traits<char>, std::allocator<char> >, std::pair<std::__cxx11::basic_string<char, std::char_traits<char>, std::allocator<char> > const, char*>, std::_Select1st<std::pair<std::__cxx11::basic_string<char, std::char_traits<char>, std::allocator<char> > const, char*> >, google_breakpad::SourceLineResolverBase::CompareString, std::allocator<std::pair<std::__cxx11::basic_string<char, std::char_traits<char>, std::allocator<char> > const, char*> > >::_M_erase(std::_Rb_tree_node<std::pair<std::__cxx11::basic_string<char, std::char_traits<char>, std::allocator<char> > const, char*> >*)
PUBLIC 24000 0 std::_Rb_tree<std::__cxx11::basic_string<char, std::char_traits<char>, std::allocator<char> >, std::pair<std::__cxx11::basic_string<char, std::char_traits<char>, std::allocator<char> > const, google_breakpad::SourceLineResolverBase::Module*>, std::_Select1st<std::pair<std::__cxx11::basic_string<char, std::char_traits<char>, std::allocator<char> > const, google_breakpad::SourceLineResolverBase::Module*> >, google_breakpad::SourceLineResolverBase::CompareString, std::allocator<std::pair<std::__cxx11::basic_string<char, std::char_traits<char>, std::allocator<char> > const, google_breakpad::SourceLineResolverBase::Module*> > >::find(std::__cxx11::basic_string<char, std::char_traits<char>, std::allocator<char> > const&)
PUBLIC 24080 0 std::pair<std::_Rb_tree_iterator<std::pair<std::__cxx11::basic_string<char, std::char_traits<char>, std::allocator<char> > const, char*> >, bool> std::_Rb_tree<std::__cxx11::basic_string<char, std::char_traits<char>, std::allocator<char> >, std::pair<std::__cxx11::basic_string<char, std::char_traits<char>, std::allocator<char> > const, char*>, std::_Select1st<std::pair<std::__cxx11::basic_string<char, std::char_traits<char>, std::allocator<char> > const, char*> >, google_breakpad::SourceLineResolverBase::CompareString, std::allocator<std::pair<std::__cxx11::basic_string<char, std::char_traits<char>, std::allocator<char> > const, char*> > >::_M_emplace_unique<std::pair<std::__cxx11::basic_string<char, std::char_traits<char>, std::allocator<char> >, char*> >(std::pair<std::__cxx11::basic_string<char, std::char_traits<char>, std::allocator<char> >, char*>&&)
PUBLIC 24270 0 std::pair<std::_Rb_tree_iterator<std::pair<std::__cxx11::basic_string<char, std::char_traits<char>, std::allocator<char> > const, google_breakpad::SourceLineResolverBase::Module*> >, bool> std::_Rb_tree<std::__cxx11::basic_string<char, std::char_traits<char>, std::allocator<char> >, std::pair<std::__cxx11::basic_string<char, std::char_traits<char>, std::allocator<char> > const, google_breakpad::SourceLineResolverBase::Module*>, std::_Select1st<std::pair<std::__cxx11::basic_string<char, std::char_traits<char>, std::allocator<char> > const, google_breakpad::SourceLineResolverBase::Module*> >, google_breakpad::SourceLineResolverBase::CompareString, std::allocator<std::pair<std::__cxx11::basic_string<char, std::char_traits<char>, std::allocator<char> > const, google_breakpad::SourceLineResolverBase::Module*> > >::_M_emplace_unique<std::pair<std::__cxx11::basic_string<char, std::char_traits<char>, std::allocator<char> >, google_breakpad::SourceLineResolverBase::Module*> >(std::pair<std::__cxx11::basic_string<char, std::char_traits<char>, std::allocator<char> >, google_breakpad::SourceLineResolverBase::Module*>&&)
PUBLIC 24460 0 std::pair<std::_Rb_tree_iterator<std::__cxx11::basic_string<char, std::char_traits<char>, std::allocator<char> > >, bool> std::_Rb_tree<std::__cxx11::basic_string<char, std::char_traits<char>, std::allocator<char> >, std::__cxx11::basic_string<char, std::char_traits<char>, std::allocator<char> >, std::_Identity<std::__cxx11::basic_string<char, std::char_traits<char>, std::allocator<char> > >, google_breakpad::SourceLineResolverBase::CompareString, std::allocator<std::__cxx11::basic_string<char, std::char_traits<char>, std::allocator<char> > > >::_M_insert_unique<std::__cxx11::basic_string<char, std::char_traits<char>, std::allocator<char> > >(std::__cxx11::basic_string<char, std::char_traits<char>, std::allocator<char> >&&)
PUBLIC 245e0 0 std::_Rb_tree<std::__cxx11::basic_string<char, std::char_traits<char>, std::allocator<char> >, std::__cxx11::basic_string<char, std::char_traits<char>, std::allocator<char> >, std::_Identity<std::__cxx11::basic_string<char, std::char_traits<char>, std::allocator<char> > >, google_breakpad::SourceLineResolverBase::CompareString, std::allocator<std::__cxx11::basic_string<char, std::char_traits<char>, std::allocator<char> > > >::equal_range(std::__cxx11::basic_string<char, std::char_traits<char>, std::allocator<char> > const&)
PUBLIC 246e0 0 std::_Rb_tree<std::__cxx11::basic_string<char, std::char_traits<char>, std::allocator<char> >, std::__cxx11::basic_string<char, std::char_traits<char>, std::allocator<char> >, std::_Identity<std::__cxx11::basic_string<char, std::char_traits<char>, std::allocator<char> > >, google_breakpad::SourceLineResolverBase::CompareString, std::allocator<std::__cxx11::basic_string<char, std::char_traits<char>, std::allocator<char> > > >::erase(std::__cxx11::basic_string<char, std::char_traits<char>, std::allocator<char> > const&)
PUBLIC 247c0 0 google_breakpad::StackFrameSymbolizer::FindWindowsFrameInfo(google_breakpad::StackFrame const*)
PUBLIC 247e0 0 google_breakpad::StackFrameSymbolizer::FindCFIFrameInfo(google_breakpad::StackFrame const*)
PUBLIC 24800 0 google_breakpad::StackFrameSymbolizer::StackFrameSymbolizer(google_breakpad::SymbolSupplier*, google_breakpad::SourceLineResolverInterface*)
PUBLIC 24840 0 google_breakpad::StackFrameSymbolizer::FillSourceLineInfo(google_breakpad::CodeModules const*, google_breakpad::CodeModules const*, google_breakpad::SystemInfo const*, google_breakpad::StackFrame*)
PUBLIC 24cf0 0 google_breakpad::StackFrameSymbolizer::HasImplementation()
PUBLIC 24d10 0 google_breakpad::StackFrameSymbolizer::Reset()
PUBLIC 24d40 0 google_breakpad::StackFrameSymbolizer::~StackFrameSymbolizer()
PUBLIC 24d60 0 google_breakpad::StackFrameSymbolizer::~StackFrameSymbolizer()
PUBLIC 24d90 0 std::pair<std::_Rb_tree_iterator<std::__cxx11::basic_string<char, std::char_traits<char>, std::allocator<char> > >, bool> std::_Rb_tree<std::__cxx11::basic_string<char, std::char_traits<char>, std::allocator<char> >, std::__cxx11::basic_string<char, std::char_traits<char>, std::allocator<char> >, std::_Identity<std::__cxx11::basic_string<char, std::char_traits<char>, std::allocator<char> > >, std::less<std::__cxx11::basic_string<char, std::char_traits<char>, std::allocator<char> > >, std::allocator<std::__cxx11::basic_string<char, std::char_traits<char>, std::allocator<char> > > >::_M_insert_unique<std::__cxx11::basic_string<char, std::char_traits<char>, std::allocator<char> > >(std::__cxx11::basic_string<char, std::char_traits<char>, std::allocator<char> >&&)
PUBLIC 25030 0 google_breakpad::(anonymous namespace)::PrintRegister(char const*, unsigned int, int)
PUBLIC 25150 0 google_breakpad::(anonymous namespace)::PrintRegister64(char const*, unsigned long, int)
PUBLIC 25270 0 void std::__cxx11::basic_string<char, std::char_traits<char>, std::allocator<char> >::_M_construct<char const*>(char const*, char const*, std::forward_iterator_tag) [clone .isra.35]
PUBLIC 25340 0 google_breakpad::(anonymous namespace)::StripSeparator(std::__cxx11::basic_string<char, std::char_traits<char>, std::allocator<char> > const&)
PUBLIC 25460 0 google_breakpad::(anonymous namespace)::PrintStackMachineReadable(int, google_breakpad::CallStack const*)
PUBLIC 25820 0 google_breakpad::(anonymous namespace)::ContainsModule(std::vector<google_breakpad::CodeModule const*, std::allocator<google_breakpad::CodeModule const*> > const*, google_breakpad::CodeModule const*)
PUBLIC 25ac0 0 google_breakpad::(anonymous namespace)::PrintStack(google_breakpad::CallStack const*, std::__cxx11::basic_string<char, std::char_traits<char>, std::allocator<char> > const&, bool, google_breakpad::MemoryRegion const*, google_breakpad::CodeModules const*, google_breakpad::SourceLineResolverInterface*)
PUBLIC 27740 0 google_breakpad::PrintProcessState(google_breakpad::ProcessState const&, bool, google_breakpad::SourceLineResolverInterface*)
PUBLIC 289e0 0 google_breakpad::PrintProcessStateMachineReadable(google_breakpad::ProcessState const&)
PUBLIC 29380 0 google_breakpad::Stackwalker::Stackwalker(google_breakpad::SystemInfo const*, google_breakpad::MemoryRegion*, google_breakpad::CodeModules const*, google_breakpad::StackFrameSymbolizer*)
PUBLIC 293b0 0 google_breakpad::Stackwalker::StackwalkerForCPU(google_breakpad::SystemInfo const*, google_breakpad::DumpContext*, google_breakpad::MemoryRegion*, google_breakpad::CodeModules const*, google_breakpad::CodeModules const*, google_breakpad::StackFrameSymbolizer*)
PUBLIC 29870 0 google_breakpad::Stackwalker::TerminateWalk(unsigned long, unsigned long, unsigned long, bool) const
PUBLIC 298a0 0 google_breakpad::Stackwalker::InstructionAddressSeemsValid(unsigned long) const
PUBLIC 29a20 0 google_breakpad::InsertSpecialAttentionModule(google_breakpad::StackFrameSymbolizer::SymbolizerResult, google_breakpad::CodeModule const*, std::vector<google_breakpad::CodeModule const*, std::allocator<google_breakpad::CodeModule const*> >*)
PUBLIC 29bf0 0 google_breakpad::Stackwalker::Walk(google_breakpad::CallStack*, std::vector<google_breakpad::CodeModule const*, std::allocator<google_breakpad::CodeModule const*> >*, std::vector<google_breakpad::CodeModule const*, std::allocator<google_breakpad::CodeModule const*> >*)
PUBLIC 29fc0 0 void std::vector<google_breakpad::CodeModule const*, std::allocator<google_breakpad::CodeModule const*> >::_M_realloc_insert<google_breakpad::CodeModule const* const&>(__gnu_cxx::__normal_iterator<google_breakpad::CodeModule const**, std::vector<google_breakpad::CodeModule const*, std::allocator<google_breakpad::CodeModule const*> > >, google_breakpad::CodeModule const* const&)
PUBLIC 2a0f0 0 void std::vector<google_breakpad::StackFrame*, std::allocator<google_breakpad::StackFrame*> >::_M_realloc_insert<google_breakpad::StackFrame*>(__gnu_cxx::__normal_iterator<google_breakpad::StackFrame**, std::vector<google_breakpad::StackFrame*, std::allocator<google_breakpad::StackFrame*> > >, google_breakpad::StackFrame*&&)
PUBLIC 2a220 0 google_breakpad::StackwalkerAddressList::GetContextFrame()
PUBLIC 2a2c0 0 google_breakpad::StackwalkerAddressList::GetCallerFrame(google_breakpad::CallStack const*, bool)
PUBLIC 2a400 0 google_breakpad::StackwalkerAddressList::StackwalkerAddressList(unsigned long const*, unsigned long, google_breakpad::CodeModules const*, google_breakpad::StackFrameSymbolizer*)
PUBLIC 2a440 0 google_breakpad::StackwalkerAddressList::~StackwalkerAddressList()
PUBLIC 2a450 0 google_breakpad::StackwalkerAddressList::~StackwalkerAddressList()
PUBLIC 2a460 0 google_breakpad::StackFrameAMD64::ReturnAddress() const
PUBLIC 2a470 0 google_breakpad::StackwalkerAMD64::GetContextFrame()
PUBLIC 2a5d0 0 google_breakpad::StackwalkerAMD64::StackwalkerAMD64(google_breakpad::SystemInfo const*, MDRawContextAMD64 const*, google_breakpad::MemoryRegion*, google_breakpad::CodeModules const*, google_breakpad::StackFrameSymbolizer*)
PUBLIC 2a620 0 google_breakpad::StackwalkerAMD64::GetCallerByFramePointerRecovery(std::vector<google_breakpad::StackFrame*, std::allocator<google_breakpad::StackFrame*> > const&)
PUBLIC 2a7c0 0 google_breakpad::StackwalkerAMD64::GetCallerByStackScan(std::vector<google_breakpad::StackFrame*, std::allocator<google_breakpad::StackFrame*> > const&)
PUBLIC 2a9f0 0 google_breakpad::StackwalkerAMD64::GetCallerByCFIFrameInfo(std::vector<google_breakpad::StackFrame*, std::allocator<google_breakpad::StackFrame*> > const&, google_breakpad::CFIFrameInfo*)
PUBLIC 2ab20 0 google_breakpad::StackwalkerAMD64::GetCallerFrame(google_breakpad::CallStack const*, bool)
PUBLIC 2ade0 0 google_breakpad::StackwalkerAMD64::~StackwalkerAMD64()
PUBLIC 2adf0 0 google_breakpad::StackwalkerAMD64::~StackwalkerAMD64()
PUBLIC 2ae00 0 google_breakpad::StackFrameAMD64::~StackFrameAMD64()
PUBLIC 2ae50 0 google_breakpad::StackFrameAMD64::~StackFrameAMD64()
PUBLIC 2aea0 0 std::_Rb_tree<std::__cxx11::basic_string<char, std::char_traits<char>, std::allocator<char> >, std::pair<std::__cxx11::basic_string<char, std::char_traits<char>, std::allocator<char> > const, unsigned long>, std::_Select1st<std::pair<std::__cxx11::basic_string<char, std::char_traits<char>, std::allocator<char> > const, unsigned long> >, std::less<std::__cxx11::basic_string<char, std::char_traits<char>, std::allocator<char> > >, std::allocator<std::pair<std::__cxx11::basic_string<char, std::char_traits<char>, std::allocator<char> > const, unsigned long> > >::find(std::__cxx11::basic_string<char, std::char_traits<char>, std::allocator<char> > const&)
PUBLIC 2afb0 0 google_breakpad::SimpleCFIWalker<unsigned long, MDRawContextAMD64>::FindCallerRegisters(google_breakpad::MemoryRegion const&, google_breakpad::CFIFrameInfo const&, MDRawContextAMD64 const&, int, MDRawContextAMD64*, int*) const
PUBLIC 2b890 0 google_breakpad::StackwalkerARM::GetContextFrame()
PUBLIC 2b9d0 0 google_breakpad::StackwalkerARM::StackwalkerARM(google_breakpad::SystemInfo const*, MDRawContextARM const*, int, google_breakpad::MemoryRegion*, google_breakpad::CodeModules const*, google_breakpad::StackFrameSymbolizer*)
PUBLIC 2ba10 0 google_breakpad::StackwalkerARM::GetCallerByStackScan(std::vector<google_breakpad::StackFrame*, std::allocator<google_breakpad::StackFrame*> > const&)
PUBLIC 2bba0 0 google_breakpad::StackwalkerARM::GetCallerByFramePointer(std::vector<google_breakpad::StackFrame*, std::allocator<google_breakpad::StackFrame*> > const&)
PUBLIC 2be40 0 google_breakpad::StackwalkerARM::GetCallerByCFIFrameInfo(std::vector<google_breakpad::StackFrame*, std::allocator<google_breakpad::StackFrame*> > const&, google_breakpad::CFIFrameInfo*)
PUBLIC 2c6f0 0 google_breakpad::StackwalkerARM::GetCallerFrame(google_breakpad::CallStack const*, bool)
PUBLIC 2c9a0 0 google_breakpad::StackwalkerARM::~StackwalkerARM()
PUBLIC 2c9b0 0 google_breakpad::StackwalkerARM::~StackwalkerARM()
PUBLIC 2c9c0 0 google_breakpad::StackFrameARM::~StackFrameARM()
PUBLIC 2ca10 0 google_breakpad::StackFrameARM::~StackFrameARM()
PUBLIC 2ca60 0 std::_Rb_tree<std::__cxx11::basic_string<char, std::char_traits<char>, std::allocator<char> >, std::pair<std::__cxx11::basic_string<char, std::char_traits<char>, std::allocator<char> > const, unsigned int>, std::_Select1st<std::pair<std::__cxx11::basic_string<char, std::char_traits<char>, std::allocator<char> > const, unsigned int> >, std::less<std::__cxx11::basic_string<char, std::char_traits<char>, std::allocator<char> > >, std::allocator<std::pair<std::__cxx11::basic_string<char, std::char_traits<char>, std::allocator<char> > const, unsigned int> > >::find(std::__cxx11::basic_string<char, std::char_traits<char>, std::allocator<char> > const&)
PUBLIC 2cb70 0 google_breakpad::StackwalkerARM64::GetContextFrame()
PUBLIC 2ccb0 0 google_breakpad::StackwalkerARM64::StackwalkerARM64(google_breakpad::SystemInfo const*, MDRawContextARM64 const*, google_breakpad::MemoryRegion*, google_breakpad::CodeModules const*, google_breakpad::StackFrameSymbolizer*)
PUBLIC 2ccf0 0 google_breakpad::StackwalkerARM64::GetCallerByStackScan(std::vector<google_breakpad::StackFrame*, std::allocator<google_breakpad::StackFrame*> > const&)
PUBLIC 2ce80 0 google_breakpad::StackwalkerARM64::GetCallerByFramePointer(std::vector<google_breakpad::StackFrame*, std::allocator<google_breakpad::StackFrame*> > const&)
PUBLIC 2d0f0 0 google_breakpad::StackwalkerARM64::GetCallerByCFIFrameInfo(std::vector<google_breakpad::StackFrame*, std::allocator<google_breakpad::StackFrame*> > const&, google_breakpad::CFIFrameInfo*)
PUBLIC 2d9a0 0 google_breakpad::StackwalkerARM64::GetCallerFrame(google_breakpad::CallStack const*, bool)
PUBLIC 2dc10 0 google_breakpad::StackwalkerARM64::~StackwalkerARM64()
PUBLIC 2dc20 0 google_breakpad::StackwalkerARM64::~StackwalkerARM64()
PUBLIC 2dc30 0 google_breakpad::StackFrameARM64::~StackFrameARM64()
PUBLIC 2dc80 0 google_breakpad::StackFrameARM64::~StackFrameARM64()
PUBLIC 2dcd0 0 google_breakpad::StackwalkerMIPS::GetContextFrame()
PUBLIC 2de10 0 google_breakpad::StackwalkerMIPS::StackwalkerMIPS(google_breakpad::SystemInfo const*, MDRawContextMIPS const*, google_breakpad::MemoryRegion*, google_breakpad::CodeModules const*, google_breakpad::StackFrameSymbolizer*)
PUBLIC 2e0c0 0 google_breakpad::StackwalkerMIPS::GetCallerByStackScan(std::vector<google_breakpad::StackFrame*, std::allocator<google_breakpad::StackFrame*> > const&)
PUBLIC 2e600 0 google_breakpad::StackwalkerMIPS::GetCallerByCFIFrameInfo(std::vector<google_breakpad::StackFrame*, std::allocator<google_breakpad::StackFrame*> > const&, google_breakpad::CFIFrameInfo*)
PUBLIC 313e0 0 google_breakpad::StackwalkerMIPS::GetCallerFrame(google_breakpad::CallStack const*, bool)
PUBLIC 31630 0 google_breakpad::StackwalkerMIPS::~StackwalkerMIPS()
PUBLIC 31640 0 google_breakpad::StackwalkerMIPS::~StackwalkerMIPS()
PUBLIC 31650 0 google_breakpad::StackFrameMIPS::~StackFrameMIPS()
PUBLIC 316a0 0 google_breakpad::StackFrameMIPS::~StackFrameMIPS()
PUBLIC 316f0 0 std::map<std::__cxx11::basic_string<char, std::char_traits<char>, std::allocator<char> >, unsigned int, std::less<std::__cxx11::basic_string<char, std::char_traits<char>, std::allocator<char> > >, std::allocator<std::pair<std::__cxx11::basic_string<char, std::char_traits<char>, std::allocator<char> > const, unsigned int> > >::operator[](std::__cxx11::basic_string<char, std::char_traits<char>, std::allocator<char> >&&)
PUBLIC 31950 0 std::map<std::__cxx11::basic_string<char, std::char_traits<char>, std::allocator<char> >, unsigned long, std::less<std::__cxx11::basic_string<char, std::char_traits<char>, std::allocator<char> > >, std::allocator<std::pair<std::__cxx11::basic_string<char, std::char_traits<char>, std::allocator<char> > const, unsigned long> > >::operator[](std::__cxx11::basic_string<char, std::char_traits<char>, std::allocator<char> >&&)
PUBLIC 31bb0 0 google_breakpad::StackwalkerPPC::GetCallerFrame(google_breakpad::CallStack const*, bool)
PUBLIC 31e10 0 google_breakpad::StackwalkerPPC::GetContextFrame()
PUBLIC 31f90 0 google_breakpad::StackwalkerPPC::StackwalkerPPC(google_breakpad::SystemInfo const*, MDRawContextPPC const*, google_breakpad::MemoryRegion*, google_breakpad::CodeModules const*, google_breakpad::StackFrameSymbolizer*)
PUBLIC 32150 0 google_breakpad::StackwalkerPPC::~StackwalkerPPC()
PUBLIC 32160 0 google_breakpad::StackwalkerPPC::~StackwalkerPPC()
PUBLIC 32170 0 google_breakpad::StackFramePPC::~StackFramePPC()
PUBLIC 321c0 0 google_breakpad::StackFramePPC::~StackFramePPC()
PUBLIC 32210 0 google_breakpad::StackwalkerPPC64::GetContextFrame()
PUBLIC 32350 0 google_breakpad::StackwalkerPPC64::GetCallerFrame(google_breakpad::CallStack const*, bool)
PUBLIC 32580 0 google_breakpad::StackwalkerPPC64::StackwalkerPPC64(google_breakpad::SystemInfo const*, MDRawContextPPC64 const*, google_breakpad::MemoryRegion*, google_breakpad::CodeModules const*, google_breakpad::StackFrameSymbolizer*)
PUBLIC 325c0 0 google_breakpad::StackwalkerPPC64::~StackwalkerPPC64()
PUBLIC 325d0 0 google_breakpad::StackwalkerPPC64::~StackwalkerPPC64()
PUBLIC 325e0 0 google_breakpad::StackFramePPC64::~StackFramePPC64()
PUBLIC 32630 0 google_breakpad::StackFramePPC64::~StackFramePPC64()
PUBLIC 32680 0 google_breakpad::StackwalkerSPARC::GetContextFrame()
PUBLIC 327c0 0 google_breakpad::StackwalkerSPARC::GetCallerFrame(google_breakpad::CallStack const*, bool)
PUBLIC 329d0 0 google_breakpad::StackwalkerSPARC::StackwalkerSPARC(google_breakpad::SystemInfo const*, MDRawContextSPARC const*, google_breakpad::MemoryRegion*, google_breakpad::CodeModules const*, google_breakpad::StackFrameSymbolizer*)
PUBLIC 32a10 0 google_breakpad::StackwalkerSPARC::~StackwalkerSPARC()
PUBLIC 32a20 0 google_breakpad::StackwalkerSPARC::~StackwalkerSPARC()
PUBLIC 32a30 0 google_breakpad::StackFrameSPARC::~StackFrameSPARC()
PUBLIC 32a80 0 google_breakpad::StackFrameSPARC::~StackFrameSPARC()
PUBLIC 32ad0 0 google_breakpad::StackFrameX86::ReturnAddress() const
PUBLIC 32ae0 0 void std::__cxx11::basic_string<char, std::char_traits<char>, std::allocator<char> >::_M_construct<char const*>(char const*, char const*, std::forward_iterator_tag) [clone .isra.48]
PUBLIC 32bb0 0 google_breakpad::StackwalkerX86::GetContextFrame()
PUBLIC 32d60 0 google_breakpad::StackwalkerX86::StackwalkerX86(google_breakpad::SystemInfo const*, MDRawContextX86 const*, google_breakpad::MemoryRegion*, google_breakpad::CodeModules const*, google_breakpad::StackFrameSymbolizer*)
PUBLIC 32f40 0 google_breakpad::StackwalkerX86::GetCallerByEBPAtBase(std::vector<google_breakpad::StackFrame*, std::allocator<google_breakpad::StackFrame*> > const&, bool)
PUBLIC 33200 0 google_breakpad::StackFrameX86::~StackFrameX86()
PUBLIC 332f0 0 google_breakpad::StackFrameX86::~StackFrameX86()
PUBLIC 33310 0 std::_Rb_tree_iterator<std::pair<std::__cxx11::basic_string<char, std::char_traits<char>, std::allocator<char> > const, unsigned int> > std::_Rb_tree<std::__cxx11::basic_string<char, std::char_traits<char>, std::allocator<char> >, std::pair<std::__cxx11::basic_string<char, std::char_traits<char>, std::allocator<char> > const, unsigned int>, std::_Select1st<std::pair<std::__cxx11::basic_string<char, std::char_traits<char>, std::allocator<char> > const, unsigned int> >, std::less<std::__cxx11::basic_string<char, std::char_traits<char>, std::allocator<char> > >, std::allocator<std::pair<std::__cxx11::basic_string<char, std::char_traits<char>, std::allocator<char> > const, unsigned int> > >::_M_emplace_hint_unique<std::piecewise_construct_t const&, std::tuple<std::__cxx11::basic_string<char, std::char_traits<char>, std::allocator<char> >&&>, std::tuple<> >(std::_Rb_tree_const_iterator<std::pair<std::__cxx11::basic_string<char, std::char_traits<char>, std::allocator<char> > const, unsigned int> >, std::piecewise_construct_t const&, std::tuple<std::__cxx11::basic_string<char, std::char_traits<char>, std::allocator<char> >&&>&&, std::tuple<>&&) [clone .isra.104]
PUBLIC 333e0 0 google_breakpad::StackwalkerX86::GetCallerByCFIFrameInfo(std::vector<google_breakpad::StackFrame*, std::allocator<google_breakpad::StackFrame*> > const&, google_breakpad::CFIFrameInfo*)
PUBLIC 33550 0 google_breakpad::StackwalkerX86::GetCallerByWindowsFrameInfo(std::vector<google_breakpad::StackFrame*, std::allocator<google_breakpad::StackFrame*> > const&, google_breakpad::WindowsFrameInfo*, bool)
PUBLIC 36430 0 google_breakpad::StackwalkerX86::GetCallerFrame(google_breakpad::CallStack const*, bool)
PUBLIC 365f0 0 google_breakpad::StackwalkerX86::~StackwalkerX86()
PUBLIC 36600 0 google_breakpad::StackwalkerX86::~StackwalkerX86()
PUBLIC 36610 0 std::_Rb_tree<std::__cxx11::basic_string<char, std::char_traits<char>, std::allocator<char> >, std::pair<std::__cxx11::basic_string<char, std::char_traits<char>, std::allocator<char> > const, bool>, std::_Select1st<std::pair<std::__cxx11::basic_string<char, std::char_traits<char>, std::allocator<char> > const, bool> >, std::less<std::__cxx11::basic_string<char, std::char_traits<char>, std::allocator<char> > >, std::allocator<std::pair<std::__cxx11::basic_string<char, std::char_traits<char>, std::allocator<char> > const, bool> > >::_M_erase(std::_Rb_tree_node<std::pair<std::__cxx11::basic_string<char, std::char_traits<char>, std::allocator<char> > const, bool> >*)
PUBLIC 36670 0 std::_Rb_tree<std::__cxx11::basic_string<char, std::char_traits<char>, std::allocator<char> >, std::pair<std::__cxx11::basic_string<char, std::char_traits<char>, std::allocator<char> > const, bool>, std::_Select1st<std::pair<std::__cxx11::basic_string<char, std::char_traits<char>, std::allocator<char> > const, bool> >, std::less<std::__cxx11::basic_string<char, std::char_traits<char>, std::allocator<char> > >, std::allocator<std::pair<std::__cxx11::basic_string<char, std::char_traits<char>, std::allocator<char> > const, bool> > >::find(std::__cxx11::basic_string<char, std::char_traits<char>, std::allocator<char> > const&)
PUBLIC 36780 0 google_breakpad::SimpleCFIWalker<unsigned int, MDRawContextX86>::FindCallerRegisters(google_breakpad::MemoryRegion const&, google_breakpad::CFIFrameInfo const&, MDRawContextX86 const&, int, MDRawContextX86*, int*) const
PUBLIC 36d10 0 google_breakpad::StringToVector(std::__cxx11::basic_string<char, std::char_traits<char>, std::allocator<char> > const&, std::vector<char, std::allocator<char> >&)
PUBLIC 36e90 0 google_breakpad::Tokenize(char*, char const*, int, std::vector<char*, std::allocator<char*> >*)
PUBLIC 37060 0 __libc_csu_init
PUBLIC 370d0 0 __libc_csu_fini
PUBLIC 370d4 0 _fini
STACK CFI INIT 6fa0 2b .cfa: $rsp 8 + .ra: .cfa -8 + ^
STACK CFI INIT 6130 6e0 .cfa: $rsp 16 + .ra: .cfa -8 + ^
STACK CFI 6136 .cfa: $rsp 24 +
STACK CFI INIT 6810 8 .cfa: $rsp 8 + .ra: .cfa -8 + ^
STACK CFI INIT 7b10 2e .cfa: $rsp 8 + .ra: .cfa -8 + ^
STACK CFI 7b18 $rbx: .cfa -16 + ^ .cfa: $rsp 16 +
STACK CFI 7b39 .cfa: $rsp 8 +
STACK CFI INIT 7b40 13 .cfa: $rsp 8 + .ra: .cfa -8 + ^
STACK CFI INIT 7b60 25 .cfa: $rsp 8 + .ra: .cfa -8 + ^
STACK CFI 7b68 $rbx: .cfa -16 + ^ .cfa: $rsp 16 +
STACK CFI 7b80 .cfa: $rsp 8 +
STACK CFI INIT 70b0 c8 .cfa: $rsp 8 + .ra: .cfa -8 + ^
STACK CFI 70b2 $r12: .cfa -16 + ^ .cfa: $rsp 16 +
STACK CFI 70b3 $rbp: .cfa -24 + ^ .cfa: $rsp 24 +
STACK CFI 70b7 $rbx: .cfa -32 + ^ .cfa: $rsp 32 +
STACK CFI 70be .cfa: $rsp 48 +
STACK CFI 7124 .cfa: $rsp 32 +
STACK CFI 7125 .cfa: $rsp 24 +
STACK CFI 7126 .cfa: $rsp 16 +
STACK CFI 7128 .cfa: $rsp 8 +
STACK CFI 7130 .cfa: $rsp 48 +
STACK CFI INIT 7180 3e .cfa: $rsp 8 + .ra: .cfa -8 + ^
STACK CFI 7181 $rbx: .cfa -16 + ^ .cfa: $rsp 16 +
STACK CFI 7193 .cfa: $rsp 32 +
STACK CFI 71b5 .cfa: $rsp 16 +
STACK CFI 71b9 .cfa: $rsp 8 +
STACK CFI INIT 71c0 e4 .cfa: $rsp 8 + .ra: .cfa -8 + ^
STACK CFI 71c2 $r12: .cfa -16 + ^ .cfa: $rsp 16 +
STACK CFI 71c3 $rbp: .cfa -24 + ^ .cfa: $rsp 24 +
STACK CFI 71c7 $rbx: .cfa -32 + ^ .cfa: $rsp 32 +
STACK CFI 71cb .cfa: $rsp 112 +
STACK CFI 7259 .cfa: $rsp 32 +
STACK CFI 725a .cfa: $rsp 24 +
STACK CFI 725b .cfa: $rsp 16 +
STACK CFI 725d .cfa: $rsp 8 +
STACK CFI 725e .cfa: $rsp 112 +
STACK CFI INIT 7b90 167 .cfa: $rsp 8 + .ra: .cfa -8 + ^
STACK CFI 7b91 $rbp: .cfa -16 + ^ .cfa: $rsp 16 +
STACK CFI 7b92 $rbx: .cfa -24 + ^ .cfa: $rsp 24 +
STACK CFI 7b99 .cfa: $rsp 32 +
STACK CFI 7cdf .cfa: $rsp 24 +
STACK CFI 7ce0 .cfa: $rsp 16 +
STACK CFI 7ce1 .cfa: $rsp 8 +
STACK CFI 7ce8 .cfa: $rsp 32 +
STACK CFI 7cec .cfa: $rsp 24 +
STACK CFI 7ced .cfa: $rsp 16 +
STACK CFI 7cee .cfa: $rsp 8 +
STACK CFI 7cf0 .cfa: $rsp 32 +
STACK CFI INIT 7d00 167 .cfa: $rsp 8 + .ra: .cfa -8 + ^
STACK CFI 7d01 $rbp: .cfa -16 + ^ .cfa: $rsp 16 +
STACK CFI 7d02 $rbx: .cfa -24 + ^ .cfa: $rsp 24 +
STACK CFI 7d09 .cfa: $rsp 32 +
STACK CFI 7e4e .cfa: $rsp 24 +
STACK CFI 7e57 .cfa: $rsp 16 +
STACK CFI 7e58 .cfa: $rsp 8 +
STACK CFI 7e60 .cfa: $rsp 32 +
STACK CFI INIT 7e70 22 .cfa: $rsp 8 + .ra: .cfa -8 + ^
STACK CFI INIT 7ea0 55 .cfa: $rsp 8 + .ra: .cfa -8 + ^
STACK CFI 7ea2 $r12: .cfa -16 + ^ .cfa: $rsp 16 +
STACK CFI 7ea3 $rbp: .cfa -24 + ^ .cfa: $rsp 24 +
STACK CFI 7ea4 $rbx: .cfa -32 + ^ .cfa: $rsp 32 +
STACK CFI 7edf .cfa: $rsp 24 +
STACK CFI 7ee0 .cfa: $rsp 16 +
STACK CFI 7ee2 .cfa: $rsp 8 +
STACK CFI 7ef0 .cfa: $rsp 32 +
STACK CFI 7ef1 .cfa: $rsp 24 +
STACK CFI 7ef2 .cfa: $rsp 16 +
STACK CFI 7ef4 .cfa: $rsp 8 +
STACK CFI INIT 7f00 52 .cfa: $rsp 8 + .ra: .cfa -8 + ^
STACK CFI 7f07 $r12: .cfa -16 + ^ .cfa: $rsp 16 +
STACK CFI 7f0b $rbp: .cfa -24 + ^ .cfa: $rsp 24 +
STACK CFI 7f0c $rbx: .cfa -32 + ^ .cfa: $rsp 32 +
STACK CFI 7f42 .cfa: $rsp 24 +
STACK CFI 7f43 .cfa: $rsp 16 +
STACK CFI 7f45 .cfa: $rsp 8 +
STACK CFI 7f50 $r12: $r12 $rbp: $rbp $rbx: $rbx
STACK CFI INIT 7f60 52 .cfa: $rsp 8 + .ra: .cfa -8 + ^
STACK CFI 7f67 $r12: .cfa -16 + ^ .cfa: $rsp 16 +
STACK CFI 7f6b $rbp: .cfa -24 + ^ .cfa: $rsp 24 +
STACK CFI 7f6c $rbx: .cfa -32 + ^ .cfa: $rsp 32 +
STACK CFI 7fa2 .cfa: $rsp 24 +
STACK CFI 7fa3 .cfa: $rsp 16 +
STACK CFI 7fa5 .cfa: $rsp 8 +
STACK CFI 7fb0 $r12: $r12 $rbp: $rbp $rbx: $rbx
STACK CFI INIT 7fc0 14c .cfa: $rsp 8 + .ra: .cfa -8 + ^
STACK CFI 7fc9 $r14: .cfa -16 + ^ .cfa: $rsp 16 +
STACK CFI 7fcb $r13: .cfa -24 + ^ .cfa: $rsp 24 +
STACK CFI 7fcd $r12: .cfa -32 + ^ .cfa: $rsp 32 +
STACK CFI 7fd1 $rbp: .cfa -40 + ^ .cfa: $rsp 40 +
STACK CFI 7fd2 $rbx: .cfa -48 + ^ .cfa: $rsp 48 +
STACK CFI 80a2 .cfa: $rsp 40 +
STACK CFI 80a3 .cfa: $rsp 32 +
STACK CFI 80a5 .cfa: $rsp 24 +
STACK CFI 80a7 .cfa: $rsp 16 +
STACK CFI 80a9 .cfa: $rsp 8 +
STACK CFI 80aa .cfa: $rsp 48 +
STACK CFI INIT 8110 11f .cfa: $rsp 8 + .ra: .cfa -8 + ^
STACK CFI 811b $r15: .cfa -16 + ^ .cfa: $rsp 16 +
STACK CFI 811d $r14: .cfa -24 + ^ .cfa: $rsp 24 +
STACK CFI 811f $r13: .cfa -32 + ^ .cfa: $rsp 32 +
STACK CFI 8121 $r12: .cfa -40 + ^ .cfa: $rsp 40 +
STACK CFI 8125 $rbp: .cfa -48 + ^ .cfa: $rsp 48 +
STACK CFI 8126 $rbx: .cfa -56 + ^ .cfa: $rsp 56 +
STACK CFI 812d .cfa: $rsp 64 +
STACK CFI 81b1 .cfa: $rsp 56 +
STACK CFI 81b2 .cfa: $rsp 48 +
STACK CFI 81b3 .cfa: $rsp 40 +
STACK CFI 81b5 .cfa: $rsp 32 +
STACK CFI 81b7 .cfa: $rsp 24 +
STACK CFI 81b9 .cfa: $rsp 16 +
STACK CFI 81bb .cfa: $rsp 8 +
STACK CFI 81c0 .cfa: $rsp 64 +
STACK CFI 81d9 .cfa: $rsp 56 +
STACK CFI 81da .cfa: $rsp 48 +
STACK CFI 81db .cfa: $rsp 40 +
STACK CFI 81dd .cfa: $rsp 32 +
STACK CFI 81df .cfa: $rsp 24 +
STACK CFI 81e1 .cfa: $rsp 16 +
STACK CFI 81e3 .cfa: $rsp 8 +
STACK CFI 81e8 $r12: $r12 $r13: $r13 $r14: $r14 $r15: $r15 $rbp: $rbp $rbx: $rbx
STACK CFI 81f0 $r12: .cfa -40 + ^ $r13: .cfa -32 + ^ $r14: .cfa -24 + ^ $r15: .cfa -16 + ^ $rbp: .cfa -48 + ^ $rbx: .cfa -56 + ^ .cfa: $rsp 64 +
STACK CFI INIT 8230 277 .cfa: $rsp 8 + .ra: .cfa -8 + ^
STACK CFI 8232 $r15: .cfa -16 + ^ .cfa: $rsp 16 +
STACK CFI 8234 $r14: .cfa -24 + ^ .cfa: $rsp 24 +
STACK CFI 8239 $r13: .cfa -32 + ^ .cfa: $rsp 32 +
STACK CFI 823b $r12: .cfa -40 + ^ .cfa: $rsp 40 +
STACK CFI 823f $rbp: .cfa -48 + ^ .cfa: $rsp 48 +
STACK CFI 8240 $rbx: .cfa -56 + ^ .cfa: $rsp 56 +
STACK CFI 8247 .cfa: $rsp 80 +
STACK CFI 843b .cfa: $rsp 56 +
STACK CFI 843c .cfa: $rsp 48 +
STACK CFI 843d .cfa: $rsp 40 +
STACK CFI 843f .cfa: $rsp 32 +
STACK CFI 8441 .cfa: $rsp 24 +
STACK CFI 8443 .cfa: $rsp 16 +
STACK CFI 8445 .cfa: $rsp 8 +
STACK CFI 8450 .cfa: $rsp 80 +
STACK CFI INIT 68d0 2e .cfa: $rsp 8 + .ra: .cfa -8 + ^
STACK CFI 68db .cfa: $rsp 16 +
STACK CFI 68f9 .cfa: $rsp 8 +
STACK CFI INIT 72b0 854 .cfa: $rsp 8 + .ra: .cfa -8 + ^
STACK CFI 72b2 $r15: .cfa -16 + ^ .cfa: $rsp 16 +
STACK CFI 72b4 $r14: .cfa -24 + ^ .cfa: $rsp 24 +
STACK CFI 72ba $r13: .cfa -32 + ^ .cfa: $rsp 32 +
STACK CFI 72bc $r12: .cfa -40 + ^ .cfa: $rsp 40 +
STACK CFI 72c2 $rbp: .cfa -48 + ^ .cfa: $rsp 48 +
STACK CFI 72c3 $rbx: .cfa -56 + ^ .cfa: $rsp 56 +
STACK CFI 72cd .cfa: $rsp 1440 +
STACK CFI 7738 .cfa: $rsp 56 +
STACK CFI 7739 .cfa: $rsp 48 +
STACK CFI 773a .cfa: $rsp 40 +
STACK CFI 773c .cfa: $rsp 32 +
STACK CFI 773e .cfa: $rsp 24 +
STACK CFI 7740 .cfa: $rsp 16 +
STACK CFI 7742 .cfa: $rsp 8 +
STACK CFI 7743 .cfa: $rsp 1440 +
STACK CFI INIT 6900 271 .cfa: $rsp 8 + .ra: .cfa -8 + ^
STACK CFI 6902 $r15: .cfa -16 + ^ .cfa: $rsp 16 +
STACK CFI 6904 $r14: .cfa -24 + ^ .cfa: $rsp 24 +
STACK CFI 6906 $r13: .cfa -32 + ^ .cfa: $rsp 32 +
STACK CFI 6908 $r12: .cfa -40 + ^ .cfa: $rsp 40 +
STACK CFI 6910 $rbp: .cfa -48 + ^ .cfa: $rsp 48 +
STACK CFI 6911 $rbx: .cfa -56 + ^ .cfa: $rsp 56 +
STACK CFI 691d .cfa: $rsp 192 +
STACK CFI 6aed .cfa: $rsp 56 +
STACK CFI 6aee .cfa: $rsp 48 +
STACK CFI 6aef .cfa: $rsp 40 +
STACK CFI 6af1 .cfa: $rsp 32 +
STACK CFI 6af3 .cfa: $rsp 24 +
STACK CFI 6af5 .cfa: $rsp 16 +
STACK CFI 6af7 .cfa: $rsp 8 +
STACK CFI 6af8 .cfa: $rsp 192 +
STACK CFI INIT 84b0 c8 .cfa: $rsp 8 + .ra: .cfa -8 + ^
STACK CFI 84b2 $r12: .cfa -16 + ^ .cfa: $rsp 16 +
STACK CFI 84b3 $rbp: .cfa -24 + ^ .cfa: $rsp 24 +
STACK CFI 84b7 $rbx: .cfa -32 + ^ .cfa: $rsp 32 +
STACK CFI 84be .cfa: $rsp 48 +
STACK CFI 8524 .cfa: $rsp 32 +
STACK CFI 8525 .cfa: $rsp 24 +
STACK CFI 8526 .cfa: $rsp 16 +
STACK CFI 8528 .cfa: $rsp 8 +
STACK CFI 8530 .cfa: $rsp 48 +
STACK CFI INIT 8580 58 .cfa: $rsp 8 + .ra: .cfa -8 + ^
STACK CFI 8582 $r12: .cfa -16 + ^ .cfa: $rsp 16 +
STACK CFI 8583 $rbp: .cfa -24 + ^ .cfa: $rsp 24 +
STACK CFI 8584 $rbx: .cfa -32 + ^ .cfa: $rsp 32 +
STACK CFI 85d4 .cfa: $rsp 24 +
STACK CFI 85d5 .cfa: $rsp 16 +
STACK CFI 85d7 .cfa: $rsp 8 +
STACK CFI INIT 85e0 58 .cfa: $rsp 8 + .ra: .cfa -8 + ^
STACK CFI 85e2 $r12: .cfa -16 + ^ .cfa: $rsp 16 +
STACK CFI 85e3 $rbp: .cfa -24 + ^ .cfa: $rsp 24 +
STACK CFI 85e4 $rbx: .cfa -32 + ^ .cfa: $rsp 32 +
STACK CFI 8634 .cfa: $rsp 24 +
STACK CFI 8635 .cfa: $rsp 16 +
STACK CFI 8637 .cfa: $rsp 8 +
STACK CFI INIT 8640 5 .cfa: $rsp 8 + .ra: .cfa -8 + ^
STACK CFI INIT 8650 a .cfa: $rsp 8 + .ra: .cfa -8 + ^
STACK CFI INIT 8660 6 .cfa: $rsp 8 + .ra: .cfa -8 + ^
STACK CFI INIT 8670 5 .cfa: $rsp 8 + .ra: .cfa -8 + ^
STACK CFI INIT 6820 f .cfa: $rsp 8 + .ra: .cfa -8 + ^
STACK CFI INIT 8680 fb .cfa: $rsp 8 + .ra: .cfa -8 + ^
STACK CFI 8682 $r12: .cfa -16 + ^ .cfa: $rsp 16 +
STACK CFI 8683 $rbp: .cfa -24 + ^ .cfa: $rsp 24 +
STACK CFI 8687 $rbx: .cfa -32 + ^ .cfa: $rsp 32 +
STACK CFI 8762 .cfa: $rsp 24 +
STACK CFI 8763 .cfa: $rsp 16 +
STACK CFI 8765 .cfa: $rsp 8 +
STACK CFI 8770 .cfa: $rsp 32 +
STACK CFI INIT 8780 2ed .cfa: $rsp 8 + .ra: .cfa -8 + ^
STACK CFI 8782 $r15: .cfa -16 + ^ .cfa: $rsp 16 +
STACK CFI 8784 $r14: .cfa -24 + ^ .cfa: $rsp 24 +
STACK CFI 8786 $r13: .cfa -32 + ^ .cfa: $rsp 32 +
STACK CFI 8788 $r12: .cfa -40 + ^ .cfa: $rsp 40 +
STACK CFI 878c $rbp: .cfa -48 + ^ .cfa: $rsp 48 +
STACK CFI 878d $rbx: .cfa -56 + ^ .cfa: $rsp 56 +
STACK CFI 8794 .cfa: $rsp 128 +
STACK CFI 88e6 .cfa: $rsp 56 +
STACK CFI 88e7 .cfa: $rsp 48 +
STACK CFI 88e8 .cfa: $rsp 40 +
STACK CFI 88ea .cfa: $rsp 32 +
STACK CFI 88ec .cfa: $rsp 24 +
STACK CFI 88ee .cfa: $rsp 16 +
STACK CFI 88f0 .cfa: $rsp 8 +
STACK CFI 88f8 .cfa: $rsp 128 +
STACK CFI INIT 8a70 56 .cfa: $rsp 8 + .ra: .cfa -8 + ^
STACK CFI INIT 9650 2a3 .cfa: $rsp 8 + .ra: .cfa -8 + ^
STACK CFI 9652 $r15: .cfa -16 + ^ .cfa: $rsp 16 +
STACK CFI 9654 $r14: .cfa -24 + ^ .cfa: $rsp 24 +
STACK CFI 9659 $r13: .cfa -32 + ^ .cfa: $rsp 32 +
STACK CFI 965b $r12: .cfa -40 + ^ .cfa: $rsp 40 +
STACK CFI 965f $rbp: .cfa -48 + ^ .cfa: $rsp 48 +
STACK CFI 9660 $rbx: .cfa -56 + ^ .cfa: $rsp 56 +
STACK CFI 966d .cfa: $rsp 112 +
STACK CFI 9800 .cfa: $rsp 56 +
STACK CFI 9801 .cfa: $rsp 48 +
STACK CFI 9802 .cfa: $rsp 40 +
STACK CFI 9804 .cfa: $rsp 32 +
STACK CFI 9806 .cfa: $rsp 24 +
STACK CFI 9808 .cfa: $rsp 16 +
STACK CFI 980a .cfa: $rsp 8 +
STACK CFI 9810 .cfa: $rsp 112 +
STACK CFI INIT 8ad0 19a .cfa: $rsp 8 + .ra: .cfa -8 + ^
STACK CFI 8ad2 $r13: .cfa -16 + ^ .cfa: $rsp 16 +
STACK CFI 8ad4 $r12: .cfa -24 + ^ .cfa: $rsp 24 +
STACK CFI 8ad9 $rbp: .cfa -32 + ^ .cfa: $rsp 32 +
STACK CFI 8ada $rbx: .cfa -40 + ^ .cfa: $rsp 40 +
STACK CFI 8ae6 .cfa: $rsp 144 +
STACK CFI 8b69 .cfa: $rsp 40 +
STACK CFI 8b6a .cfa: $rsp 32 +
STACK CFI 8b6b .cfa: $rsp 24 +
STACK CFI 8b6d .cfa: $rsp 16 +
STACK CFI 8b6f .cfa: $rsp 8 +
STACK CFI 8b70 .cfa: $rsp 144 +
STACK CFI INIT 9900 7a .cfa: $rsp 8 + .ra: .cfa -8 + ^
STACK CFI 9907 $r12: .cfa -16 + ^ .cfa: $rsp 16 +
STACK CFI 990b $rbp: .cfa -24 + ^ .cfa: $rsp 24 +
STACK CFI 990c $rbx: .cfa -32 + ^ .cfa: $rsp 32 +
STACK CFI 9957 .cfa: $rsp 24 +
STACK CFI 9958 .cfa: $rsp 16 +
STACK CFI 995a .cfa: $rsp 8 +
STACK CFI 9960 .cfa: $rsp 32 +
STACK CFI 9978 $r12: $r12 $rbp: $rbp $rbx: $rbx .cfa: $rsp 8 +
STACK CFI INIT 8c70 90 .cfa: $rsp 8 + .ra: .cfa -8 + ^
STACK CFI 8c72 $r12: .cfa -16 + ^ .cfa: $rsp 16 +
STACK CFI 8c7a $rbp: .cfa -24 + ^ .cfa: $rsp 24 +
STACK CFI 8c7b $rbx: .cfa -32 + ^ .cfa: $rsp 32 +
STACK CFI 8cd9 .cfa: $rsp 24 +
STACK CFI 8ce2 .cfa: $rsp 16 +
STACK CFI 8ce4 .cfa: $rsp 8 +
STACK CFI 8cf0 .cfa: $rsp 32 +
STACK CFI INIT 8d00 17 .cfa: $rsp 8 + .ra: .cfa -8 + ^
STACK CFI 8d01 $rbx: .cfa -16 + ^ .cfa: $rsp 16 +
STACK CFI 8d12 .cfa: $rsp 8 +
STACK CFI INIT 9980 2a9 .cfa: $rsp 8 + .ra: .cfa -8 + ^
STACK CFI 9982 $r15: .cfa -16 + ^ .cfa: $rsp 16 +
STACK CFI 9984 $r14: .cfa -24 + ^ .cfa: $rsp 24 +
STACK CFI 9989 $r13: .cfa -32 + ^ .cfa: $rsp 32 +
STACK CFI 998b $r12: .cfa -40 + ^ .cfa: $rsp 40 +
STACK CFI 998f $rbp: .cfa -48 + ^ .cfa: $rsp 48 +
STACK CFI 9990 $rbx: .cfa -56 + ^ .cfa: $rsp 56 +
STACK CFI 9997 .cfa: $rsp 96 +
STACK CFI 9b96 .cfa: $rsp 56 +
STACK CFI 9b97 .cfa: $rsp 48 +
STACK CFI 9b98 .cfa: $rsp 40 +
STACK CFI 9b9a .cfa: $rsp 32 +
STACK CFI 9b9c .cfa: $rsp 24 +
STACK CFI 9b9e .cfa: $rsp 16 +
STACK CFI 9ba0 .cfa: $rsp 8 +
STACK CFI 9ba8 .cfa: $rsp 96 +
STACK CFI INIT 9c30 17a .cfa: $rsp 8 + .ra: .cfa -8 + ^
STACK CFI 9c32 $r15: .cfa -16 + ^ .cfa: $rsp 16 +
STACK CFI 9c34 $r14: .cfa -24 + ^ .cfa: $rsp 24 +
STACK CFI 9c3a $r13: .cfa -32 + ^ .cfa: $rsp 32 +
STACK CFI 9c3c $r12: .cfa -40 + ^ .cfa: $rsp 40 +
STACK CFI 9c40 $rbp: .cfa -48 + ^ .cfa: $rsp 48 +
STACK CFI 9c41 $rbx: .cfa -56 + ^ .cfa: $rsp 56 +
STACK CFI 9c48 .cfa: $rsp 64 +
STACK CFI 9c98 .cfa: $rsp 56 +
STACK CFI 9c9e .cfa: $rsp 48 +
STACK CFI 9c9f .cfa: $rsp 40 +
STACK CFI 9ca1 .cfa: $rsp 32 +
STACK CFI 9ca3 .cfa: $rsp 24 +
STACK CFI 9ca5 .cfa: $rsp 16 +
STACK CFI 9ca7 .cfa: $rsp 8 +
STACK CFI 9cb0 .cfa: $rsp 64 +
STACK CFI 9d5d .cfa: $rsp 56 +
STACK CFI 9d66 .cfa: $rsp 48 +
STACK CFI 9d67 .cfa: $rsp 40 +
STACK CFI 9d69 .cfa: $rsp 32 +
STACK CFI 9d6b .cfa: $rsp 24 +
STACK CFI 9d6d .cfa: $rsp 16 +
STACK CFI 9d6f .cfa: $rsp 8 +
STACK CFI 9d70 .cfa: $rsp 64 +
STACK CFI INIT 9db0 972 .cfa: $rsp 8 + .ra: .cfa -8 + ^
STACK CFI 9db2 $r15: .cfa -16 + ^ .cfa: $rsp 16 +
STACK CFI 9db4 $r14: .cfa -24 + ^ .cfa: $rsp 24 +
STACK CFI 9db6 $r13: .cfa -32 + ^ .cfa: $rsp 32 +
STACK CFI 9db8 $r12: .cfa -40 + ^ .cfa: $rsp 40 +
STACK CFI 9dbc $rbp: .cfa -48 + ^ .cfa: $rsp 48 +
STACK CFI 9dbd $rbx: .cfa -56 + ^ .cfa: $rsp 56 +
STACK CFI 9dc4 .cfa: $rsp 368 +
STACK CFI a075 .cfa: $rsp 56 +
STACK CFI a076 .cfa: $rsp 48 +
STACK CFI a077 .cfa: $rsp 40 +
STACK CFI a079 .cfa: $rsp 32 +
STACK CFI a07b .cfa: $rsp 24 +
STACK CFI a07d .cfa: $rsp 16 +
STACK CFI a07f .cfa: $rsp 8 +
STACK CFI a080 .cfa: $rsp 368 +
STACK CFI INIT 8d20 8da .cfa: $rsp 8 + .ra: .cfa -8 + ^
STACK CFI 8d22 $r15: .cfa -16 + ^ .cfa: $rsp 16 +
STACK CFI 8d24 $r14: .cfa -24 + ^ .cfa: $rsp 24 +
STACK CFI 8d2a $r13: .cfa -32 + ^ .cfa: $rsp 32 +
STACK CFI 8d2c $r12: .cfa -40 + ^ .cfa: $rsp 40 +
STACK CFI 8d2d $rbp: .cfa -48 + ^ .cfa: $rsp 48 +
STACK CFI 8d2e $rbx: .cfa -56 + ^ .cfa: $rsp 56 +
STACK CFI 8d38 .cfa: $rsp 288 +
STACK CFI 9009 .cfa: $rsp 56 +
STACK CFI 900a .cfa: $rsp 48 +
STACK CFI 900b .cfa: $rsp 40 +
STACK CFI 900d .cfa: $rsp 32 +
STACK CFI 900f .cfa: $rsp 24 +
STACK CFI 9011 .cfa: $rsp 16 +
STACK CFI 9013 .cfa: $rsp 8 +
STACK CFI 9018 .cfa: $rsp 288 +
STACK CFI INIT 9600 43 .cfa: $rsp 8 + .ra: .cfa -8 + ^
STACK CFI 9601 $rbp: .cfa -16 + ^ .cfa: $rsp 16 +
STACK CFI 9602 $rbx: .cfa -24 + ^ .cfa: $rsp 24 +
STACK CFI 960e .cfa: $rsp 32 +
STACK CFI 9625 .cfa: $rsp 24 +
STACK CFI 9629 .cfa: $rsp 16 +
STACK CFI 962a .cfa: $rsp 8 +
STACK CFI 962b .cfa: $rsp 32 +
STACK CFI INIT 6b80 2e .cfa: $rsp 8 + .ra: .cfa -8 + ^
STACK CFI 6b8b .cfa: $rsp 16 +
STACK CFI 6ba9 .cfa: $rsp 8 +
STACK CFI INIT d070 8 .cfa: $rsp 8 + .ra: .cfa -8 + ^
STACK CFI INIT d080 2 .cfa: $rsp 8 + .ra: .cfa -8 + ^
STACK CFI INIT d090 a .cfa: $rsp 8 + .ra: .cfa -8 + ^
STACK CFI INIT 6830 2b .cfa: $rsp 8 + .ra: .cfa -8 + ^
STACK CFI 6831 $rbx: .cfa -16 + ^ .cfa: $rsp 16 +
STACK CFI 6854 .cfa: $rsp 8 +
STACK CFI 6859 .cfa: $rsp 16 +
STACK CFI 685a .cfa: $rsp 8 +
STACK CFI INIT 685c 2a .cfa: $rsp 8 + .ra: .cfa -8 + ^
STACK CFI 685d $rbx: .cfa -16 + ^ .cfa: $rsp 16 +
STACK CFI 687f .cfa: $rsp 8 +
STACK CFI 6884 .cfa: $rsp 16 +
STACK CFI 6885 .cfa: $rsp 8 +
STACK CFI INIT d0a0 7d .cfa: $rsp 8 + .ra: .cfa -8 + ^
STACK CFI d0a2 $r15: .cfa -16 + ^ .cfa: $rsp 16 +
STACK CFI d0a4 $r14: .cfa -24 + ^ .cfa: $rsp 24 +
STACK CFI d0a9 $r13: .cfa -32 + ^ .cfa: $rsp 32 +
STACK CFI d0ab $r12: .cfa -40 + ^ .cfa: $rsp 40 +
STACK CFI d0b0 $rbp: .cfa -48 + ^ .cfa: $rsp 48 +
STACK CFI d0b1 $rbx: .cfa -56 + ^ .cfa: $rsp 56 +
STACK CFI d0c1 .cfa: $rsp 64 +
STACK CFI d0f6 .cfa: $rsp 56 +
STACK CFI d0fa .cfa: $rsp 48 +
STACK CFI d0fb .cfa: $rsp 40 +
STACK CFI d0fd .cfa: $rsp 32 +
STACK CFI d0ff .cfa: $rsp 24 +
STACK CFI d101 .cfa: $rsp 16 +
STACK CFI d103 .cfa: $rsp 8 +
STACK CFI d108 .cfa: $rsp 64 +
STACK CFI INIT a730 c8 .cfa: $rsp 8 + .ra: .cfa -8 + ^
STACK CFI a732 $r12: .cfa -16 + ^ .cfa: $rsp 16 +
STACK CFI a733 $rbp: .cfa -24 + ^ .cfa: $rsp 24 +
STACK CFI a737 $rbx: .cfa -32 + ^ .cfa: $rsp 32 +
STACK CFI a73e .cfa: $rsp 48 +
STACK CFI a7a4 .cfa: $rsp 32 +
STACK CFI a7a5 .cfa: $rsp 24 +
STACK CFI a7a6 .cfa: $rsp 16 +
STACK CFI a7a8 .cfa: $rsp 8 +
STACK CFI a7b0 .cfa: $rsp 48 +
STACK CFI INIT d120 195 .cfa: $rsp 8 + .ra: .cfa -8 + ^
STACK CFI d121 $rbp: .cfa -16 + ^ .cfa: $rsp 16 +
STACK CFI d122 $rbx: .cfa -24 + ^ .cfa: $rsp 24 +
STACK CFI d12e .cfa: $rsp 32 +
STACK CFI d29a .cfa: $rsp 24 +
STACK CFI d29b .cfa: $rsp 16 +
STACK CFI d29c .cfa: $rsp 8 +
STACK CFI d29d .cfa: $rsp 32 +
STACK CFI INIT a800 37 .cfa: $rsp 8 + .ra: .cfa -8 + ^
STACK CFI a801 $rbx: .cfa -16 + ^ .cfa: $rsp 16 +
STACK CFI a836 .cfa: $rsp 8 +
STACK CFI INIT a840 11d .cfa: $rsp 8 + .ra: .cfa -8 + ^
STACK CFI a842 $r13: .cfa -16 + ^ .cfa: $rsp 16 +
STACK CFI a844 $r12: .cfa -24 + ^ .cfa: $rsp 24 +
STACK CFI a845 $rbp: .cfa -32 + ^ .cfa: $rsp 32 +
STACK CFI a846 $rbx: .cfa -40 + ^ .cfa: $rsp 40 +
STACK CFI a84a .cfa: $rsp 64 +
STACK CFI a8ff .cfa: $rsp 40 +
STACK CFI a900 .cfa: $rsp 32 +
STACK CFI a901 .cfa: $rsp 24 +
STACK CFI a903 .cfa: $rsp 16 +
STACK CFI a905 .cfa: $rsp 8 +
STACK CFI a910 .cfa: $rsp 64 +
STACK CFI INIT a960 2b .cfa: $rsp 8 + .ra: .cfa -8 + ^
STACK CFI a969 .cfa: $rsp 16 +
STACK CFI a982 .cfa: $rsp 8 +
STACK CFI INIT a990 ee .cfa: $rsp 8 + .ra: .cfa -8 + ^
STACK CFI a991 $rbp: .cfa -16 + ^ .cfa: $rsp 16 +
STACK CFI a992 $rbx: .cfa -24 + ^ .cfa: $rsp 24 +
STACK CFI a9a7 .cfa: $rsp 80 +
STACK CFI aa0c .cfa: $rsp 24 +
STACK CFI aa0d .cfa: $rsp 16 +
STACK CFI aa0e .cfa: $rsp 8 +
STACK CFI aa10 .cfa: $rsp 80 +
STACK CFI INIT aa80 1c8 .cfa: $rsp 8 + .ra: .cfa -8 + ^
STACK CFI aa82 $r14: .cfa -16 + ^ .cfa: $rsp 16 +
STACK CFI aa84 $r13: .cfa -24 + ^ .cfa: $rsp 24 +
STACK CFI aa89 $r12: .cfa -32 + ^ .cfa: $rsp 32 +
STACK CFI aa8a $rbp: .cfa -40 + ^ .cfa: $rsp 40 +
STACK CFI aa8e $rbx: .cfa -48 + ^ .cfa: $rsp 48 +
STACK CFI aaa4 .cfa: $rsp 112 +
STACK CFI ab0d .cfa: $rsp 48 +
STACK CFI ab0e .cfa: $rsp 40 +
STACK CFI ab0f .cfa: $rsp 32 +
STACK CFI ab11 .cfa: $rsp 24 +
STACK CFI ab13 .cfa: $rsp 16 +
STACK CFI ab15 .cfa: $rsp 8 +
STACK CFI ab20 .cfa: $rsp 112 +
STACK CFI INIT ac50 81 .cfa: $rsp 8 + .ra: .cfa -8 + ^
STACK CFI ac54 .cfa: $rsp 64 +
STACK CFI acc3 .cfa: $rsp 8 +
STACK CFI acc8 .cfa: $rsp 64 +
STACK CFI INIT d2c0 28c .cfa: $rsp 8 + .ra: .cfa -8 + ^
STACK CFI d2c2 $r15: .cfa -16 + ^ .cfa: $rsp 16 +
STACK CFI d2c4 $r14: .cfa -24 + ^ .cfa: $rsp 24 +
STACK CFI d2c9 $r13: .cfa -32 + ^ .cfa: $rsp 32 +
STACK CFI d2cb $r12: .cfa -40 + ^ .cfa: $rsp 40 +
STACK CFI d2cf $rbp: .cfa -48 + ^ .cfa: $rsp 48 +
STACK CFI d2d0 $rbx: .cfa -56 + ^ .cfa: $rsp 56 +
STACK CFI d2dd .cfa: $rsp 112 +
STACK CFI d460 .cfa: $rsp 56 +
STACK CFI d461 .cfa: $rsp 48 +
STACK CFI d462 .cfa: $rsp 40 +
STACK CFI d464 .cfa: $rsp 32 +
STACK CFI d466 .cfa: $rsp 24 +
STACK CFI d468 .cfa: $rsp 16 +
STACK CFI d46a .cfa: $rsp 8 +
STACK CFI d470 .cfa: $rsp 112 +
STACK CFI INIT d550 1bf .cfa: $rsp 8 + .ra: .cfa -8 + ^
STACK CFI d552 $r14: .cfa -16 + ^ .cfa: $rsp 16 +
STACK CFI d554 $r13: .cfa -24 + ^ .cfa: $rsp 24 +
STACK CFI d559 $r12: .cfa -32 + ^ .cfa: $rsp 32 +
STACK CFI d55a $rbp: .cfa -40 + ^ .cfa: $rsp 40 +
STACK CFI d55e $rbx: .cfa -48 + ^ .cfa: $rsp 48 +
STACK CFI d568 .cfa: $rsp 64 +
STACK CFI d65c .cfa: $rsp 48 +
STACK CFI d65d .cfa: $rsp 40 +
STACK CFI d65e .cfa: $rsp 32 +
STACK CFI d660 .cfa: $rsp 24 +
STACK CFI d662 .cfa: $rsp 16 +
STACK CFI d664 .cfa: $rsp 8 +
STACK CFI d668 .cfa: $rsp 64 +
STACK CFI INIT d710 1ce .cfa: $rsp 8 + .ra: .cfa -8 + ^
STACK CFI d712 $r13: .cfa -16 + ^ .cfa: $rsp 16 +
STACK CFI d714 $r12: .cfa -24 + ^ .cfa: $rsp 24 +
STACK CFI d718 $rbp: .cfa -32 + ^ .cfa: $rsp 32 +
STACK CFI d719 $rbx: .cfa -40 + ^ .cfa: $rsp 40 +
STACK CFI d723 .cfa: $rsp 64 +
STACK CFI d7a7 .cfa: $rsp 40 +
STACK CFI d7a8 .cfa: $rsp 32 +
STACK CFI d7a9 .cfa: $rsp 24 +
STACK CFI d7ab .cfa: $rsp 16 +
STACK CFI d7ad .cfa: $rsp 8 +
STACK CFI d7b0 .cfa: $rsp 64 +
STACK CFI INIT d8e0 26f .cfa: $rsp 8 + .ra: .cfa -8 + ^
STACK CFI d8e2 $r15: .cfa -16 + ^ .cfa: $rsp 16 +
STACK CFI d8e4 $r14: .cfa -24 + ^ .cfa: $rsp 24 +
STACK CFI d8e9 $r13: .cfa -32 + ^ .cfa: $rsp 32 +
STACK CFI d8eb $r12: .cfa -40 + ^ .cfa: $rsp 40 +
STACK CFI d8ef $rbp: .cfa -48 + ^ .cfa: $rsp 48 +
STACK CFI d8f0 $rbx: .cfa -56 + ^ .cfa: $rsp 56 +
STACK CFI d900 .cfa: $rsp 144 +
STACK CFI d978 .cfa: $rsp 56 +
STACK CFI d979 .cfa: $rsp 48 +
STACK CFI d97a .cfa: $rsp 40 +
STACK CFI d97c .cfa: $rsp 32 +
STACK CFI d97e .cfa: $rsp 24 +
STACK CFI d980 .cfa: $rsp 16 +
STACK CFI d982 .cfa: $rsp 8 +
STACK CFI d988 .cfa: $rsp 144 +
STACK CFI INIT db50 72 .cfa: $rsp 8 + .ra: .cfa -8 + ^
STACK CFI db57 $r12: .cfa -16 + ^ .cfa: $rsp 16 +
STACK CFI db5b $rbp: .cfa -24 + ^ .cfa: $rsp 24 +
STACK CFI db5c $rbx: .cfa -32 + ^ .cfa: $rsp 32 +
STACK CFI dba7 .cfa: $rsp 24 +
STACK CFI dba8 .cfa: $rsp 16 +
STACK CFI dbaa .cfa: $rsp 8 +
STACK CFI dbb0 .cfa: $rsp 32 +
STACK CFI dbc0 $r12: $r12 $rbp: $rbp $rbx: $rbx .cfa: $rsp 8 +
STACK CFI INIT 6886 37 .cfa: $rsp 8 + .ra: .cfa -8 + ^
STACK CFI 6887 $rbx: .cfa -16 + ^ .cfa: $rsp 16 +
STACK CFI 68b6 .cfa: $rsp 8 +
STACK CFI 68bb .cfa: $rsp 16 +
STACK CFI 68bc .cfa: $rsp 8 +
STACK CFI INIT dbd0 52 .cfa: $rsp 8 + .ra: .cfa -8 + ^
STACK CFI dbd7 $r12: .cfa -16 + ^ .cfa: $rsp 16 +
STACK CFI dbdb $rbp: .cfa -24 + ^ .cfa: $rsp 24 +
STACK CFI dbdc $rbx: .cfa -32 + ^ .cfa: $rsp 32 +
STACK CFI dc12 .cfa: $rsp 24 +
STACK CFI dc13 .cfa: $rsp 16 +
STACK CFI dc15 .cfa: $rsp 8 +
STACK CFI dc20 $r12: $r12 $rbp: $rbp $rbx: $rbx
STACK CFI INIT dc30 b2 .cfa: $rsp 8 + .ra: .cfa -8 + ^
STACK CFI dc3b $r13: .cfa -16 + ^ .cfa: $rsp 16 +
STACK CFI dc3d $r12: .cfa -24 + ^ .cfa: $rsp 24 +
STACK CFI dc41 $rbp: .cfa -32 + ^ .cfa: $rsp 32 +
STACK CFI dc42 $rbx: .cfa -40 + ^ .cfa: $rsp 40 +
STACK CFI dc49 .cfa: $rsp 48 +
STACK CFI dc92 .cfa: $rsp 40 +
STACK CFI dc93 .cfa: $rsp 32 +
STACK CFI dc94 .cfa: $rsp 24 +
STACK CFI dc96 .cfa: $rsp 16 +
STACK CFI dc98 .cfa: $rsp 8 +
STACK CFI dca0 .cfa: $rsp 48 +
STACK CFI dce0 $r12: $r12 $r13: $r13 $rbp: $rbp $rbx: $rbx .cfa: $rsp 8 +
STACK CFI INIT dcf0 a2 .cfa: $rsp 8 + .ra: .cfa -8 + ^
STACK CFI dcfb $r13: .cfa -16 + ^ .cfa: $rsp 16 +
STACK CFI dcfd $r12: .cfa -24 + ^ .cfa: $rsp 24 +
STACK CFI dd01 $rbp: .cfa -32 + ^ .cfa: $rsp 32 +
STACK CFI dd02 $rbx: .cfa -40 + ^ .cfa: $rsp 40 +
STACK CFI dd09 .cfa: $rsp 48 +
STACK CFI dd52 .cfa: $rsp 40 +
STACK CFI dd53 .cfa: $rsp 32 +
STACK CFI dd54 .cfa: $rsp 24 +
STACK CFI dd56 .cfa: $rsp 16 +
STACK CFI dd58 .cfa: $rsp 8 +
STACK CFI dd60 .cfa: $rsp 48 +
STACK CFI dd90 $r12: $r12 $r13: $r13 $rbp: $rbp $rbx: $rbx .cfa: $rsp 8 +
STACK CFI INIT dda0 52 .cfa: $rsp 8 + .ra: .cfa -8 + ^
STACK CFI dda7 $r12: .cfa -16 + ^ .cfa: $rsp 16 +
STACK CFI ddab $rbp: .cfa -24 + ^ .cfa: $rsp 24 +
STACK CFI ddac $rbx: .cfa -32 + ^ .cfa: $rsp 32 +
STACK CFI dde2 .cfa: $rsp 24 +
STACK CFI dde3 .cfa: $rsp 16 +
STACK CFI dde5 .cfa: $rsp 8 +
STACK CFI ddf0 $r12: $r12 $rbp: $rbp $rbx: $rbx
STACK CFI INIT de00 52 .cfa: $rsp 8 + .ra: .cfa -8 + ^
STACK CFI de07 $r12: .cfa -16 + ^ .cfa: $rsp 16 +
STACK CFI de0b $rbp: .cfa -24 + ^ .cfa: $rsp 24 +
STACK CFI de0c $rbx: .cfa -32 + ^ .cfa: $rsp 32 +
STACK CFI de42 .cfa: $rsp 24 +
STACK CFI de43 .cfa: $rsp 16 +
STACK CFI de45 .cfa: $rsp 8 +
STACK CFI de50 $r12: $r12 $rbp: $rbp $rbx: $rbx
STACK CFI INIT de60 12e .cfa: $rsp 8 + .ra: .cfa -8 + ^
STACK CFI de62 $r15: .cfa -16 + ^ .cfa: $rsp 16 +
STACK CFI de64 $r14: .cfa -24 + ^ .cfa: $rsp 24 +
STACK CFI de69 $r13: .cfa -32 + ^ .cfa: $rsp 32 +
STACK CFI de6b $r12: .cfa -40 + ^ .cfa: $rsp 40 +
STACK CFI de6f $rbp: .cfa -48 + ^ .cfa: $rsp 48 +
STACK CFI de70 $rbx: .cfa -56 + ^ .cfa: $rsp 56 +
STACK CFI de77 .cfa: $rsp 80 +
STACK CFI df3d .cfa: $rsp 56 +
STACK CFI df3e .cfa: $rsp 48 +
STACK CFI df3f .cfa: $rsp 40 +
STACK CFI df41 .cfa: $rsp 32 +
STACK CFI df43 .cfa: $rsp 24 +
STACK CFI df45 .cfa: $rsp 16 +
STACK CFI df47 .cfa: $rsp 8 +
STACK CFI df50 .cfa: $rsp 80 +
STACK CFI INIT ace0 152 .cfa: $rsp 8 + .ra: .cfa -8 + ^
STACK CFI ace2 $r12: .cfa -16 + ^ .cfa: $rsp 16 +
STACK CFI ace3 $rbp: .cfa -24 + ^ .cfa: $rsp 24 +
STACK CFI ace7 $rbx: .cfa -32 + ^ .cfa: $rsp 32 +
STACK CFI acf1 .cfa: $rsp 64 +
STACK CFI ad44 .cfa: $rsp 32 +
STACK CFI ad45 .cfa: $rsp 24 +
STACK CFI ad46 .cfa: $rsp 16 +
STACK CFI ad48 .cfa: $rsp 8 +
STACK CFI ad50 .cfa: $rsp 64 +
STACK CFI INIT ae40 186 .cfa: $rsp 8 + .ra: .cfa -8 + ^
STACK CFI ae42 $r14: .cfa -16 + ^ .cfa: $rsp 16 +
STACK CFI ae44 $r13: .cfa -24 + ^ .cfa: $rsp 24 +
STACK CFI ae49 $r12: .cfa -32 + ^ .cfa: $rsp 32 +
STACK CFI ae4a $rbp: .cfa -40 + ^ .cfa: $rsp 40 +
STACK CFI ae4e $rbx: .cfa -48 + ^ .cfa: $rsp 48 +
STACK CFI ae68 .cfa: $rsp 112 +
STACK CFI af23 .cfa: $rsp 48 +
STACK CFI af24 .cfa: $rsp 40 +
STACK CFI af25 .cfa: $rsp 32 +
STACK CFI af27 .cfa: $rsp 24 +
STACK CFI af29 .cfa: $rsp 16 +
STACK CFI af2b .cfa: $rsp 8 +
STACK CFI af30 .cfa: $rsp 112 +
STACK CFI INIT afd0 1bd .cfa: $rsp 8 + .ra: .cfa -8 + ^
STACK CFI afd2 $r15: .cfa -16 + ^ .cfa: $rsp 16 +
STACK CFI afd4 $r14: .cfa -24 + ^ .cfa: $rsp 24 +
STACK CFI afda $r13: .cfa -32 + ^ .cfa: $rsp 32 +
STACK CFI afdc $r12: .cfa -40 + ^ .cfa: $rsp 40 +
STACK CFI afe0 $rbp: .cfa -48 + ^ .cfa: $rsp 48 +
STACK CFI afe1 $rbx: .cfa -56 + ^ .cfa: $rsp 56 +
STACK CFI aff7 .cfa: $rsp 128 +
STACK CFI b0b8 .cfa: $rsp 56 +
STACK CFI b0b9 .cfa: $rsp 48 +
STACK CFI b0ba .cfa: $rsp 40 +
STACK CFI b0bc .cfa: $rsp 32 +
STACK CFI b0be .cfa: $rsp 24 +
STACK CFI b0c0 .cfa: $rsp 16 +
STACK CFI b0c2 .cfa: $rsp 8 +
STACK CFI b0c8 .cfa: $rsp 128 +
STACK CFI INIT b190 169 .cfa: $rsp 8 + .ra: .cfa -8 + ^
STACK CFI b192 $r15: .cfa -16 + ^ .cfa: $rsp 16 +
STACK CFI b194 $r14: .cfa -24 + ^ .cfa: $rsp 24 +
STACK CFI b199 $r13: .cfa -32 + ^ .cfa: $rsp 32 +
STACK CFI b19b $r12: .cfa -40 + ^ .cfa: $rsp 40 +
STACK CFI b19c $rbp: .cfa -48 + ^ .cfa: $rsp 48 +
STACK CFI b19d $rbx: .cfa -56 + ^ .cfa: $rsp 56 +
STACK CFI b1a1 .cfa: $rsp 160 +
STACK CFI b2ac .cfa: $rsp 56 +
STACK CFI b2ad .cfa: $rsp 48 +
STACK CFI b2ae .cfa: $rsp 40 +
STACK CFI b2b0 .cfa: $rsp 32 +
STACK CFI b2b2 .cfa: $rsp 24 +
STACK CFI b2b4 .cfa: $rsp 16 +
STACK CFI b2b6 .cfa: $rsp 8 +
STACK CFI b2c0 .cfa: $rsp 160 +
STACK CFI INIT df90 3d .cfa: $rsp 8 + .ra: .cfa -8 + ^
STACK CFI INIT dfd0 310 .cfa: $rsp 8 + .ra: .cfa -8 + ^
STACK CFI dfd2 $r15: .cfa -16 + ^ .cfa: $rsp 16 +
STACK CFI dfd4 $r14: .cfa -24 + ^ .cfa: $rsp 24 +
STACK CFI dfd9 $r13: .cfa -32 + ^ .cfa: $rsp 32 +
STACK CFI dfdb $r12: .cfa -40 + ^ .cfa: $rsp 40 +
STACK CFI dfdf $rbp: .cfa -48 + ^ .cfa: $rsp 48 +
STACK CFI dfe0 $rbx: .cfa -56 + ^ .cfa: $rsp 56 +
STACK CFI dfed .cfa: $rsp 112 +
STACK CFI e17f .cfa: $rsp 56 +
STACK CFI e180 .cfa: $rsp 48 +
STACK CFI e181 .cfa: $rsp 40 +
STACK CFI e183 .cfa: $rsp 32 +
STACK CFI e185 .cfa: $rsp 24 +
STACK CFI e187 .cfa: $rsp 16 +
STACK CFI e189 .cfa: $rsp 8 +
STACK CFI e190 .cfa: $rsp 112 +
STACK CFI INIT e2e0 309 .cfa: $rsp 8 + .ra: .cfa -8 + ^
STACK CFI e2e2 $r15: .cfa -16 + ^ .cfa: $rsp 16 +
STACK CFI e2e4 $r14: .cfa -24 + ^ .cfa: $rsp 24 +
STACK CFI e2e9 $r13: .cfa -32 + ^ .cfa: $rsp 32 +
STACK CFI e2eb $r12: .cfa -40 + ^ .cfa: $rsp 40 +
STACK CFI e2ef $rbp: .cfa -48 + ^ .cfa: $rsp 48 +
STACK CFI e2f0 $rbx: .cfa -56 + ^ .cfa: $rsp 56 +
STACK CFI e300 .cfa: $rsp 112 +
STACK CFI e4a1 .cfa: $rsp 56 +
STACK CFI e4a2 .cfa: $rsp 48 +
STACK CFI e4a3 .cfa: $rsp 40 +
STACK CFI e4a5 .cfa: $rsp 32 +
STACK CFI e4a7 .cfa: $rsp 24 +
STACK CFI e4a9 .cfa: $rsp 16 +
STACK CFI e4ab .cfa: $rsp 8 +
STACK CFI e4b0 .cfa: $rsp 112 +
STACK CFI INIT b300 403 .cfa: $rsp 8 + .ra: .cfa -8 + ^
STACK CFI b302 $r15: .cfa -16 + ^ .cfa: $rsp 16 +
STACK CFI b304 $r14: .cfa -24 + ^ .cfa: $rsp 24 +
STACK CFI b306 $r13: .cfa -32 + ^ .cfa: $rsp 32 +
STACK CFI b308 $r12: .cfa -40 + ^ .cfa: $rsp 40 +
STACK CFI b30c $rbp: .cfa -48 + ^ .cfa: $rsp 48 +
STACK CFI b30d $rbx: .cfa -56 + ^ .cfa: $rsp 56 +
STACK CFI b319 .cfa: $rsp 176 +
STACK CFI b436 .cfa: $rsp 56 +
STACK CFI b437 .cfa: $rsp 48 +
STACK CFI b438 .cfa: $rsp 40 +
STACK CFI b43a .cfa: $rsp 32 +
STACK CFI b43c .cfa: $rsp 24 +
STACK CFI b43e .cfa: $rsp 16 +
STACK CFI b440 .cfa: $rsp 8 +
STACK CFI b448 .cfa: $rsp 176 +
STACK CFI INIT b710 430 .cfa: $rsp 8 + .ra: .cfa -8 + ^
STACK CFI b712 $r15: .cfa -16 + ^ .cfa: $rsp 16 +
STACK CFI b714 $r14: .cfa -24 + ^ .cfa: $rsp 24 +
STACK CFI b716 $r13: .cfa -32 + ^ .cfa: $rsp 32 +
STACK CFI b718 $r12: .cfa -40 + ^ .cfa: $rsp 40 +
STACK CFI b71c $rbp: .cfa -48 + ^ .cfa: $rsp 48 +
STACK CFI b71d $rbx: .cfa -56 + ^ .cfa: $rsp 56 +
STACK CFI b721 .cfa: $rsp 176 +
STACK CFI b897 .cfa: $rsp 56 +
STACK CFI b898 .cfa: $rsp 48 +
STACK CFI b899 .cfa: $rsp 40 +
STACK CFI b89b .cfa: $rsp 32 +
STACK CFI b89d .cfa: $rsp 24 +
STACK CFI b89f .cfa: $rsp 16 +
STACK CFI b8a1 .cfa: $rsp 8 +
STACK CFI b8a8 .cfa: $rsp 176 +
STACK CFI INIT e5f0 62 .cfa: $rsp 8 + .ra: .cfa -8 + ^
STACK CFI e5f7 $r12: .cfa -16 + ^ .cfa: $rsp 16 +
STACK CFI e5fb $rbp: .cfa -24 + ^ .cfa: $rsp 24 +
STACK CFI e5fc $rbx: .cfa -32 + ^ .cfa: $rsp 32 +
STACK CFI e644 .cfa: $rsp 24 +
STACK CFI e645 .cfa: $rsp 16 +
STACK CFI e647 .cfa: $rsp 8 +
STACK CFI e650 $r12: $r12 $rbp: $rbp $rbx: $rbx
STACK CFI INIT bb40 214 .cfa: $rsp 8 + .ra: .cfa -8 + ^
STACK CFI bb42 $r15: .cfa -16 + ^ .cfa: $rsp 16 +
STACK CFI bb44 $r14: .cfa -24 + ^ .cfa: $rsp 24 +
STACK CFI bb46 $r13: .cfa -32 + ^ .cfa: $rsp 32 +
STACK CFI bb48 $r12: .cfa -40 + ^ .cfa: $rsp 40 +
STACK CFI bb4c $rbp: .cfa -48 + ^ .cfa: $rsp 48 +
STACK CFI bb4d $rbx: .cfa -56 + ^ .cfa: $rsp 56 +
STACK CFI bb51 .cfa: $rsp 160 +
STACK CFI bcb4 .cfa: $rsp 56 +
STACK CFI bcb5 .cfa: $rsp 48 +
STACK CFI bcb6 .cfa: $rsp 40 +
STACK CFI bcb8 .cfa: $rsp 32 +
STACK CFI bcba .cfa: $rsp 24 +
STACK CFI bcbc .cfa: $rsp 16 +
STACK CFI bcbe .cfa: $rsp 8 +
STACK CFI bcc0 .cfa: $rsp 160 +
STACK CFI INIT e660 14e .cfa: $rsp 8 + .ra: .cfa -8 + ^
STACK CFI e662 $r14: .cfa -16 + ^ .cfa: $rsp 16 +
STACK CFI e664 $r13: .cfa -24 + ^ .cfa: $rsp 24 +
STACK CFI e666 $r12: .cfa -32 + ^ .cfa: $rsp 32 +
STACK CFI e667 $rbp: .cfa -40 + ^ .cfa: $rsp 40 +
STACK CFI e66b $rbx: .cfa -48 + ^ .cfa: $rsp 48 +
STACK CFI e722 .cfa: $rsp 40 +
STACK CFI e723 .cfa: $rsp 32 +
STACK CFI e725 .cfa: $rsp 24 +
STACK CFI e727 .cfa: $rsp 16 +
STACK CFI e729 .cfa: $rsp 8 +
STACK CFI e730 .cfa: $rsp 48 +
STACK CFI e753 .cfa: $rsp 40 +
STACK CFI e762 .cfa: $rsp 32 +
STACK CFI e764 .cfa: $rsp 24 +
STACK CFI e766 .cfa: $rsp 16 +
STACK CFI e768 .cfa: $rsp 8 +
STACK CFI e770 .cfa: $rsp 48 +
STACK CFI INIT bd60 163 .cfa: $rsp 8 + .ra: .cfa -8 + ^
STACK CFI bd62 $r13: .cfa -16 + ^ .cfa: $rsp 16 +
STACK CFI bd64 $r12: .cfa -24 + ^ .cfa: $rsp 24 +
STACK CFI bd68 $rbp: .cfa -32 + ^ .cfa: $rsp 32 +
STACK CFI bd69 $rbx: .cfa -40 + ^ .cfa: $rsp 40 +
STACK CFI bd70 .cfa: $rsp 144 +
STACK CFI bdad .cfa: $rsp 40 +
STACK CFI bdae .cfa: $rsp 32 +
STACK CFI bdaf .cfa: $rsp 24 +
STACK CFI bdb1 .cfa: $rsp 16 +
STACK CFI bdb3 .cfa: $rsp 8 +
STACK CFI bdb8 .cfa: $rsp 144 +
STACK CFI INIT e7b0 16a .cfa: $rsp 8 + .ra: .cfa -8 + ^
STACK CFI e7b2 $r15: .cfa -16 + ^ .cfa: $rsp 16 +
STACK CFI e7b4 $r14: .cfa -24 + ^ .cfa: $rsp 24 +
STACK CFI e7ba $r13: .cfa -32 + ^ .cfa: $rsp 32 +
STACK CFI e7bc $r12: .cfa -40 + ^ .cfa: $rsp 40 +
STACK CFI e7c0 $rbp: .cfa -48 + ^ .cfa: $rsp 48 +
STACK CFI e7c1 $rbx: .cfa -56 + ^ .cfa: $rsp 56 +
STACK CFI e7c8 .cfa: $rsp 64 +
STACK CFI e816 .cfa: $rsp 56 +
STACK CFI e81c .cfa: $rsp 48 +
STACK CFI e81d .cfa: $rsp 40 +
STACK CFI e81f .cfa: $rsp 32 +
STACK CFI e821 .cfa: $rsp 24 +
STACK CFI e823 .cfa: $rsp 16 +
STACK CFI e825 .cfa: $rsp 8 +
STACK CFI e830 .cfa: $rsp 64 +
STACK CFI e8cd .cfa: $rsp 56 +
STACK CFI e8d6 .cfa: $rsp 48 +
STACK CFI e8d7 .cfa: $rsp 40 +
STACK CFI e8d9 .cfa: $rsp 32 +
STACK CFI e8db .cfa: $rsp 24 +
STACK CFI e8dd .cfa: $rsp 16 +
STACK CFI e8df .cfa: $rsp 8 +
STACK CFI e8e0 .cfa: $rsp 64 +
STACK CFI INIT e920 244 .cfa: $rsp 8 + .ra: .cfa -8 + ^
STACK CFI e922 $r13: .cfa -16 + ^ .cfa: $rsp 16 +
STACK CFI e924 $r12: .cfa -24 + ^ .cfa: $rsp 24 +
STACK CFI e925 $rbp: .cfa -32 + ^ .cfa: $rsp 32 +
STACK CFI e926 $rbx: .cfa -40 + ^ .cfa: $rsp 40 +
STACK CFI e92a .cfa: $rsp 128 +
STACK CFI ea33 .cfa: $rsp 40 +
STACK CFI ea34 .cfa: $rsp 32 +
STACK CFI ea35 .cfa: $rsp 24 +
STACK CFI ea37 .cfa: $rsp 16 +
STACK CFI ea39 .cfa: $rsp 8 +
STACK CFI ea40 .cfa: $rsp 128 +
STACK CFI INIT bed0 214 .cfa: $rsp 8 + .ra: .cfa -8 + ^
STACK CFI bed2 $r15: .cfa -16 + ^ .cfa: $rsp 16 +
STACK CFI bed4 $r14: .cfa -24 + ^ .cfa: $rsp 24 +
STACK CFI bed6 $r13: .cfa -32 + ^ .cfa: $rsp 32 +
STACK CFI bed8 $r12: .cfa -40 + ^ .cfa: $rsp 40 +
STACK CFI bed9 $rbp: .cfa -48 + ^ .cfa: $rsp 48 +
STACK CFI beda $rbx: .cfa -56 + ^ .cfa: $rsp 56 +
STACK CFI bee4 .cfa: $rsp 176 +
STACK CFI bf34 .cfa: $rsp 56 +
STACK CFI bf35 .cfa: $rsp 48 +
STACK CFI bf36 .cfa: $rsp 40 +
STACK CFI bf38 .cfa: $rsp 32 +
STACK CFI bf3a .cfa: $rsp 24 +
STACK CFI bf3c .cfa: $rsp 16 +
STACK CFI bf3e .cfa: $rsp 8 +
STACK CFI bf40 .cfa: $rsp 176 +
STACK CFI INIT eb70 3a .cfa: $rsp 8 + .ra: .cfa -8 + ^
STACK CFI eb77 $r12: .cfa -16 + ^ .cfa: $rsp 16 +
STACK CFI eb7b $rbp: .cfa -24 + ^ .cfa: $rsp 24 +
STACK CFI eb7c $rbx: .cfa -32 + ^ .cfa: $rsp 32 +
STACK CFI eba0 .cfa: $rsp 24 +
STACK CFI eba1 .cfa: $rsp 16 +
STACK CFI eba3 .cfa: $rsp 8 +
STACK CFI eba8 $r12: $r12 $rbp: $rbp $rbx: $rbx
STACK CFI INIT ebb0 f3 .cfa: $rsp 8 + .ra: .cfa -8 + ^
STACK CFI ebb2 $r13: .cfa -16 + ^ .cfa: $rsp 16 +
STACK CFI ebb4 $r12: .cfa -24 + ^ .cfa: $rsp 24 +
STACK CFI ebb8 $rbp: .cfa -32 + ^ .cfa: $rsp 32 +
STACK CFI ebb9 $rbx: .cfa -40 + ^ .cfa: $rsp 40 +
STACK CFI ebbd .cfa: $rsp 48 +
STACK CFI ec42 .cfa: $rsp 40 +
STACK CFI ec43 .cfa: $rsp 32 +
STACK CFI ec44 .cfa: $rsp 24 +
STACK CFI ec46 .cfa: $rsp 16 +
STACK CFI ec48 .cfa: $rsp 8 +
STACK CFI ec50 .cfa: $rsp 48 +
STACK CFI ec90 .cfa: $rsp 40 +
STACK CFI ec99 .cfa: $rsp 32 +
STACK CFI ec9a .cfa: $rsp 24 +
STACK CFI ec9c .cfa: $rsp 16 +
STACK CFI ec9e .cfa: $rsp 8 +
STACK CFI INIT ecb0 ad .cfa: $rsp 8 + .ra: .cfa -8 + ^
STACK CFI ecb9 $r12: .cfa -16 + ^ .cfa: $rsp 16 +
STACK CFI ecba $rbp: .cfa -24 + ^ .cfa: $rsp 24 +
STACK CFI ecbb $rbx: .cfa -32 + ^ .cfa: $rsp 32 +
STACK CFI ed4c .cfa: $rsp 24 +
STACK CFI ed4d .cfa: $rsp 16 +
STACK CFI ed4f .cfa: $rsp 8 +
STACK CFI ed58 .cfa: $rsp 32 +
STACK CFI ed59 .cfa: $rsp 24 +
STACK CFI ed5a .cfa: $rsp 16 +
STACK CFI ed5c .cfa: $rsp 8 +
STACK CFI INIT ed60 b1 .cfa: $rsp 8 + .ra: .cfa -8 + ^
STACK CFI ed69 $r12: .cfa -16 + ^ .cfa: $rsp 16 +
STACK CFI ed6a $rbp: .cfa -24 + ^ .cfa: $rsp 24 +
STACK CFI ed6b $rbx: .cfa -32 + ^ .cfa: $rsp 32 +
STACK CFI ee01 .cfa: $rsp 24 +
STACK CFI ee0a .cfa: $rsp 16 +
STACK CFI ee0c .cfa: $rsp 8 +
STACK CFI INIT ee20 17a .cfa: $rsp 8 + .ra: .cfa -8 + ^
STACK CFI ee22 $r15: .cfa -16 + ^ .cfa: $rsp 16 +
STACK CFI ee24 $r14: .cfa -24 + ^ .cfa: $rsp 24 +
STACK CFI ee2a $r13: .cfa -32 + ^ .cfa: $rsp 32 +
STACK CFI ee2c $r12: .cfa -40 + ^ .cfa: $rsp 40 +
STACK CFI ee30 $rbp: .cfa -48 + ^ .cfa: $rsp 48 +
STACK CFI ee31 $rbx: .cfa -56 + ^ .cfa: $rsp 56 +
STACK CFI ee38 .cfa: $rsp 64 +
STACK CFI ee88 .cfa: $rsp 56 +
STACK CFI ee8e .cfa: $rsp 48 +
STACK CFI ee8f .cfa: $rsp 40 +
STACK CFI ee91 .cfa: $rsp 32 +
STACK CFI ee93 .cfa: $rsp 24 +
STACK CFI ee95 .cfa: $rsp 16 +
STACK CFI ee97 .cfa: $rsp 8 +
STACK CFI eea0 .cfa: $rsp 64 +
STACK CFI ef4d .cfa: $rsp 56 +
STACK CFI ef56 .cfa: $rsp 48 +
STACK CFI ef57 .cfa: $rsp 40 +
STACK CFI ef59 .cfa: $rsp 32 +
STACK CFI ef5b .cfa: $rsp 24 +
STACK CFI ef5d .cfa: $rsp 16 +
STACK CFI ef5f .cfa: $rsp 8 +
STACK CFI ef60 .cfa: $rsp 64 +
STACK CFI INIT efa0 9bf .cfa: $rsp 8 + .ra: .cfa -8 + ^
STACK CFI efa2 $r15: .cfa -16 + ^ .cfa: $rsp 16 +
STACK CFI efa4 $r14: .cfa -24 + ^ .cfa: $rsp 24 +
STACK CFI efa6 $r13: .cfa -32 + ^ .cfa: $rsp 32 +
STACK CFI efa8 $r12: .cfa -40 + ^ .cfa: $rsp 40 +
STACK CFI efac $rbp: .cfa -48 + ^ .cfa: $rsp 48 +
STACK CFI efad $rbx: .cfa -56 + ^ .cfa: $rsp 56 +
STACK CFI efb4 .cfa: $rsp 368 +
STACK CFI f265 .cfa: $rsp 56 +
STACK CFI f266 .cfa: $rsp 48 +
STACK CFI f267 .cfa: $rsp 40 +
STACK CFI f269 .cfa: $rsp 32 +
STACK CFI f26b .cfa: $rsp 24 +
STACK CFI f26d .cfa: $rsp 16 +
STACK CFI f26f .cfa: $rsp 8 +
STACK CFI f270 .cfa: $rsp 368 +
STACK CFI INIT f960 17a .cfa: $rsp 8 + .ra: .cfa -8 + ^
STACK CFI f962 $r15: .cfa -16 + ^ .cfa: $rsp 16 +
STACK CFI f964 $r14: .cfa -24 + ^ .cfa: $rsp 24 +
STACK CFI f96a $r13: .cfa -32 + ^ .cfa: $rsp 32 +
STACK CFI f96c $r12: .cfa -40 + ^ .cfa: $rsp 40 +
STACK CFI f970 $rbp: .cfa -48 + ^ .cfa: $rsp 48 +
STACK CFI f971 $rbx: .cfa -56 + ^ .cfa: $rsp 56 +
STACK CFI f978 .cfa: $rsp 64 +
STACK CFI f9c8 .cfa: $rsp 56 +
STACK CFI f9ce .cfa: $rsp 48 +
STACK CFI f9cf .cfa: $rsp 40 +
STACK CFI f9d1 .cfa: $rsp 32 +
STACK CFI f9d3 .cfa: $rsp 24 +
STACK CFI f9d5 .cfa: $rsp 16 +
STACK CFI f9d7 .cfa: $rsp 8 +
STACK CFI f9e0 .cfa: $rsp 64 +
STACK CFI fa8d .cfa: $rsp 56 +
STACK CFI fa96 .cfa: $rsp 48 +
STACK CFI fa97 .cfa: $rsp 40 +
STACK CFI fa99 .cfa: $rsp 32 +
STACK CFI fa9b .cfa: $rsp 24 +
STACK CFI fa9d .cfa: $rsp 16 +
STACK CFI fa9f .cfa: $rsp 8 +
STACK CFI faa0 .cfa: $rsp 64 +
STACK CFI INIT fae0 8ae .cfa: $rsp 8 + .ra: .cfa -8 + ^
STACK CFI fae2 $r15: .cfa -16 + ^ .cfa: $rsp 16 +
STACK CFI fae4 $r14: .cfa -24 + ^ .cfa: $rsp 24 +
STACK CFI fae6 $r13: .cfa -32 + ^ .cfa: $rsp 32 +
STACK CFI fae8 $r12: .cfa -40 + ^ .cfa: $rsp 40 +
STACK CFI faec $rbp: .cfa -48 + ^ .cfa: $rsp 48 +
STACK CFI faed $rbx: .cfa -56 + ^ .cfa: $rsp 56 +
STACK CFI faf4 .cfa: $rsp 368 +
STACK CFI fda5 .cfa: $rsp 56 +
STACK CFI fda6 .cfa: $rsp 48 +
STACK CFI fda7 .cfa: $rsp 40 +
STACK CFI fda9 .cfa: $rsp 32 +
STACK CFI fdab .cfa: $rsp 24 +
STACK CFI fdad .cfa: $rsp 16 +
STACK CFI fdaf .cfa: $rsp 8 +
STACK CFI fdb0 .cfa: $rsp 368 +
STACK CFI INIT 10390 8a .cfa: $rsp 8 + .ra: .cfa -8 + ^
STACK CFI 10391 $rbp: .cfa -16 + ^ .cfa: $rsp 16 +
STACK CFI 10392 $rbx: .cfa -24 + ^ .cfa: $rsp 24 +
STACK CFI 10396 .cfa: $rsp 32 +
STACK CFI 103eb .cfa: $rsp 24 +
STACK CFI 103ec .cfa: $rsp 16 +
STACK CFI 103ed .cfa: $rsp 8 +
STACK CFI 103f0 .cfa: $rsp 32 +
STACK CFI INIT 10420 163 .cfa: $rsp 8 + .ra: .cfa -8 + ^
STACK CFI 10422 $r15: .cfa -16 + ^ .cfa: $rsp 16 +
STACK CFI 10424 $r14: .cfa -24 + ^ .cfa: $rsp 24 +
STACK CFI 10429 $r13: .cfa -32 + ^ .cfa: $rsp 32 +
STACK CFI 1042b $r12: .cfa -40 + ^ .cfa: $rsp 40 +
STACK CFI 10430 $rbp: .cfa -48 + ^ .cfa: $rsp 48 +
STACK CFI 10431 $rbx: .cfa -56 + ^ .cfa: $rsp 56 +
STACK CFI 10438 .cfa: $rsp 64 +
STACK CFI 10486 .cfa: $rsp 56 +
STACK CFI 1048c .cfa: $rsp 48 +
STACK CFI 1048d .cfa: $rsp 40 +
STACK CFI 1048f .cfa: $rsp 32 +
STACK CFI 10491 .cfa: $rsp 24 +
STACK CFI 10493 .cfa: $rsp 16 +
STACK CFI 10495 .cfa: $rsp 8 +
STACK CFI 104a0 .cfa: $rsp 64 +
STACK CFI 1052d .cfa: $rsp 56 +
STACK CFI 10536 .cfa: $rsp 48 +
STACK CFI 10537 .cfa: $rsp 40 +
STACK CFI 10539 .cfa: $rsp 32 +
STACK CFI 1053b .cfa: $rsp 24 +
STACK CFI 1053d .cfa: $rsp 16 +
STACK CFI 1053f .cfa: $rsp 8 +
STACK CFI 10540 .cfa: $rsp 64 +
STACK CFI INIT 10590 725 .cfa: $rsp 8 + .ra: .cfa -8 + ^
STACK CFI 10592 $r15: .cfa -16 + ^ .cfa: $rsp 16 +
STACK CFI 10594 $r14: .cfa -24 + ^ .cfa: $rsp 24 +
STACK CFI 10596 $r13: .cfa -32 + ^ .cfa: $rsp 32 +
STACK CFI 10598 $r12: .cfa -40 + ^ .cfa: $rsp 40 +
STACK CFI 1059c $rbp: .cfa -48 + ^ .cfa: $rsp 48 +
STACK CFI 1059d $rbx: .cfa -56 + ^ .cfa: $rsp 56 +
STACK CFI 105a4 .cfa: $rsp 304 +
STACK CFI 1084b .cfa: $rsp 56 +
STACK CFI 1084c .cfa: $rsp 48 +
STACK CFI 1084d .cfa: $rsp 40 +
STACK CFI 1084f .cfa: $rsp 32 +
STACK CFI 10851 .cfa: $rsp 24 +
STACK CFI 10853 .cfa: $rsp 16 +
STACK CFI 10855 .cfa: $rsp 8 +
STACK CFI 10860 .cfa: $rsp 304 +
STACK CFI INIT 10cc0 8a .cfa: $rsp 8 + .ra: .cfa -8 + ^
STACK CFI 10cc1 $rbp: .cfa -16 + ^ .cfa: $rsp 16 +
STACK CFI 10cc2 $rbx: .cfa -24 + ^ .cfa: $rsp 24 +
STACK CFI 10cc6 .cfa: $rsp 32 +
STACK CFI 10d1b .cfa: $rsp 24 +
STACK CFI 10d1c .cfa: $rsp 16 +
STACK CFI 10d1d .cfa: $rsp 8 +
STACK CFI 10d20 .cfa: $rsp 32 +
STACK CFI INIT 10d50 f0 .cfa: $rsp 8 + .ra: .cfa -8 + ^
STACK CFI 10d52 $r13: .cfa -16 + ^ .cfa: $rsp 16 +
STACK CFI 10d58 $r12: .cfa -24 + ^ .cfa: $rsp 24 +
STACK CFI 10d59 $rbp: .cfa -32 + ^ .cfa: $rsp 32 +
STACK CFI 10d5a $rbx: .cfa -40 + ^ .cfa: $rsp 40 +
STACK CFI 10d64 .cfa: $rsp 48 +
STACK CFI 10da8 .cfa: $rsp 40 +
STACK CFI 10da9 .cfa: $rsp 32 +
STACK CFI 10daa .cfa: $rsp 24 +
STACK CFI 10dac .cfa: $rsp 16 +
STACK CFI 10dae .cfa: $rsp 8 +
STACK CFI 10db0 .cfa: $rsp 48 +
STACK CFI 10e00 .cfa: $rsp 40 +
STACK CFI 10e07 .cfa: $rsp 32 +
STACK CFI 10e08 .cfa: $rsp 24 +
STACK CFI 10e0a .cfa: $rsp 16 +
STACK CFI 10e0c .cfa: $rsp 8 +
STACK CFI 10e18 .cfa: $rsp 48 +
STACK CFI 10e1c .cfa: $rsp 40 +
STACK CFI 10e22 .cfa: $rsp 32 +
STACK CFI 10e23 .cfa: $rsp 24 +
STACK CFI 10e25 .cfa: $rsp 16 +
STACK CFI 10e27 .cfa: $rsp 8 +
STACK CFI 10e30 .cfa: $rsp 48 +
STACK CFI 10e34 .cfa: $rsp 40 +
STACK CFI 10e3a .cfa: $rsp 32 +
STACK CFI 10e3b .cfa: $rsp 24 +
STACK CFI 10e3d .cfa: $rsp 16 +
STACK CFI 10e3f .cfa: $rsp 8 +
STACK CFI INIT c0f0 2d9 .cfa: $rsp 8 + .ra: .cfa -8 + ^
STACK CFI c0f2 $r15: .cfa -16 + ^ .cfa: $rsp 16 +
STACK CFI c0f4 $r14: .cfa -24 + ^ .cfa: $rsp 24 +
STACK CFI c0f6 $r13: .cfa -32 + ^ .cfa: $rsp 32 +
STACK CFI c0f8 $r12: .cfa -40 + ^ .cfa: $rsp 40 +
STACK CFI c0fc $rbp: .cfa -48 + ^ .cfa: $rsp 48 +
STACK CFI c0fd $rbx: .cfa -56 + ^ .cfa: $rsp 56 +
STACK CFI c10b .cfa: $rsp 144 +
STACK CFI c25a .cfa: $rsp 56 +
STACK CFI c25b .cfa: $rsp 48 +
STACK CFI c25c .cfa: $rsp 40 +
STACK CFI c25e .cfa: $rsp 32 +
STACK CFI c260 .cfa: $rsp 24 +
STACK CFI c262 .cfa: $rsp 16 +
STACK CFI c264 .cfa: $rsp 8 +
STACK CFI c268 .cfa: $rsp 144 +
STACK CFI INIT 10e40 f0 .cfa: $rsp 8 + .ra: .cfa -8 + ^
STACK CFI 10e42 $r13: .cfa -16 + ^ .cfa: $rsp 16 +
STACK CFI 10e48 $r12: .cfa -24 + ^ .cfa: $rsp 24 +
STACK CFI 10e49 $rbp: .cfa -32 + ^ .cfa: $rsp 32 +
STACK CFI 10e4a $rbx: .cfa -40 + ^ .cfa: $rsp 40 +
STACK CFI 10e54 .cfa: $rsp 48 +
STACK CFI 10e98 .cfa: $rsp 40 +
STACK CFI 10e99 .cfa: $rsp 32 +
STACK CFI 10e9a .cfa: $rsp 24 +
STACK CFI 10e9c .cfa: $rsp 16 +
STACK CFI 10e9e .cfa: $rsp 8 +
STACK CFI 10ea0 .cfa: $rsp 48 +
STACK CFI 10ef0 .cfa: $rsp 40 +
STACK CFI 10ef7 .cfa: $rsp 32 +
STACK CFI 10ef8 .cfa: $rsp 24 +
STACK CFI 10efa .cfa: $rsp 16 +
STACK CFI 10efc .cfa: $rsp 8 +
STACK CFI 10f08 .cfa: $rsp 48 +
STACK CFI 10f0c .cfa: $rsp 40 +
STACK CFI 10f12 .cfa: $rsp 32 +
STACK CFI 10f13 .cfa: $rsp 24 +
STACK CFI 10f15 .cfa: $rsp 16 +
STACK CFI 10f17 .cfa: $rsp 8 +
STACK CFI 10f20 .cfa: $rsp 48 +
STACK CFI 10f24 .cfa: $rsp 40 +
STACK CFI 10f2a .cfa: $rsp 32 +
STACK CFI 10f2b .cfa: $rsp 24 +
STACK CFI 10f2d .cfa: $rsp 16 +
STACK CFI 10f2f .cfa: $rsp 8 +
STACK CFI INIT 10f30 3b4 .cfa: $rsp 8 + .ra: .cfa -8 + ^
STACK CFI 10f32 $r15: .cfa -16 + ^ .cfa: $rsp 16 +
STACK CFI 10f34 $r14: .cfa -24 + ^ .cfa: $rsp 24 +
STACK CFI 10f36 $r13: .cfa -32 + ^ .cfa: $rsp 32 +
STACK CFI 10f38 $r12: .cfa -40 + ^ .cfa: $rsp 40 +
STACK CFI 10f39 $rbp: .cfa -48 + ^ .cfa: $rsp 48 +
STACK CFI 10f3a $rbx: .cfa -56 + ^ .cfa: $rsp 56 +
STACK CFI 10f3e .cfa: $rsp 128 +
STACK CFI 10f88 .cfa: $rsp 56 +
STACK CFI 10f89 .cfa: $rsp 48 +
STACK CFI 10f8a .cfa: $rsp 40 +
STACK CFI 10f8c .cfa: $rsp 32 +
STACK CFI 10f8e .cfa: $rsp 24 +
STACK CFI 10f90 .cfa: $rsp 16 +
STACK CFI 10f92 .cfa: $rsp 8 +
STACK CFI 10f98 .cfa: $rsp 128 +
STACK CFI INIT c3d0 58b .cfa: $rsp 8 + .ra: .cfa -8 + ^
STACK CFI c3d2 $r15: .cfa -16 + ^ .cfa: $rsp 16 +
STACK CFI c3d4 $r14: .cfa -24 + ^ .cfa: $rsp 24 +
STACK CFI c3d9 $r13: .cfa -32 + ^ .cfa: $rsp 32 +
STACK CFI c3db $r12: .cfa -40 + ^ .cfa: $rsp 40 +
STACK CFI c3dc $rbp: .cfa -48 + ^ .cfa: $rsp 48 +
STACK CFI c3dd $rbx: .cfa -56 + ^ .cfa: $rsp 56 +
STACK CFI c3e8 .cfa: $rsp 288 +
STACK CFI c49c .cfa: $rsp 56 +
STACK CFI c49d .cfa: $rsp 48 +
STACK CFI c49e .cfa: $rsp 40 +
STACK CFI c4a0 .cfa: $rsp 32 +
STACK CFI c4a2 .cfa: $rsp 24 +
STACK CFI c4a4 .cfa: $rsp 16 +
STACK CFI c4a6 .cfa: $rsp 8 +
STACK CFI c4b0 .cfa: $rsp 288 +
STACK CFI INIT c960 70c .cfa: $rsp 8 + .ra: .cfa -8 + ^
STACK CFI c962 $r15: .cfa -16 + ^ .cfa: $rsp 16 +
STACK CFI c964 $r14: .cfa -24 + ^ .cfa: $rsp 24 +
STACK CFI c966 $r13: .cfa -32 + ^ .cfa: $rsp 32 +
STACK CFI c968 $r12: .cfa -40 + ^ .cfa: $rsp 40 +
STACK CFI c969 $rbp: .cfa -48 + ^ .cfa: $rsp 48 +
STACK CFI c96a $rbx: .cfa -56 + ^ .cfa: $rsp 56 +
STACK CFI c971 .cfa: $rsp 208 +
STACK CFI cb91 .cfa: $rsp 56 +
STACK CFI cb92 .cfa: $rsp 48 +
STACK CFI cb93 .cfa: $rsp 40 +
STACK CFI cb95 .cfa: $rsp 32 +
STACK CFI cb97 .cfa: $rsp 24 +
STACK CFI cb99 .cfa: $rsp 16 +
STACK CFI cb9b .cfa: $rsp 8 +
STACK CFI cba0 .cfa: $rsp 208 +
STACK CFI INIT 6bb0 2e .cfa: $rsp 8 + .ra: .cfa -8 + ^
STACK CFI 6bbb .cfa: $rsp 16 +
STACK CFI 6bd9 .cfa: $rsp 8 +
STACK CFI INIT 113b0 5 .cfa: $rsp 8 + .ra: .cfa -8 + ^
STACK CFI INIT 113c0 42 .cfa: $rsp 8 + .ra: .cfa -8 + ^
STACK CFI 113c8 $rbx: .cfa -16 + ^ .cfa: $rsp 16 +
STACK CFI 113f2 .cfa: $rsp 8 +
STACK CFI 11400 .cfa: $rsp 16 +
STACK CFI 11401 .cfa: $rsp 8 +
STACK CFI INIT 11410 44 .cfa: $rsp 8 + .ra: .cfa -8 + ^
STACK CFI 11418 $rbx: .cfa -16 + ^ .cfa: $rsp 16 +
STACK CFI 1144f .cfa: $rsp 8 +
STACK CFI INIT 112f0 8f .cfa: $rsp 8 + .ra: .cfa -8 + ^
STACK CFI 112f2 $r12: .cfa -16 + ^ .cfa: $rsp 16 +
STACK CFI 112f3 $rbp: .cfa -24 + ^ .cfa: $rsp 24 +
STACK CFI 112f7 $rbx: .cfa -32 + ^ .cfa: $rsp 32 +
STACK CFI 11364 .cfa: $rsp 24 +
STACK CFI 1136e .cfa: $rsp 16 +
STACK CFI 11370 .cfa: $rsp 8 +
STACK CFI 11378 .cfa: $rsp 32 +
STACK CFI INIT 11380 22 .cfa: $rsp 8 + .ra: .cfa -8 + ^
STACK CFI 11381 $rbx: .cfa -16 + ^ .cfa: $rsp 16 +
STACK CFI 11392 .cfa: $rsp 8 +
STACK CFI 113a0 .cfa: $rsp 16 +
STACK CFI 113a1 .cfa: $rsp 8 +
STACK CFI INIT 11460 115 .cfa: $rsp 8 + .ra: .cfa -8 + ^
STACK CFI INIT 121e0 2 .cfa: $rsp 8 + .ra: .cfa -8 + ^
STACK CFI INIT 121f0 a .cfa: $rsp 8 + .ra: .cfa -8 + ^
STACK CFI INIT 11580 9 .cfa: $rsp 8 + .ra: .cfa -8 + ^
STACK CFI INIT 11590 d .cfa: $rsp 8 + .ra: .cfa -8 + ^
STACK CFI INIT 115a0 c8 .cfa: $rsp 8 + .ra: .cfa -8 + ^
STACK CFI 115a2 $r12: .cfa -16 + ^ .cfa: $rsp 16 +
STACK CFI 115a3 $rbp: .cfa -24 + ^ .cfa: $rsp 24 +
STACK CFI 115a7 $rbx: .cfa -32 + ^ .cfa: $rsp 32 +
STACK CFI 115ae .cfa: $rsp 48 +
STACK CFI 11614 .cfa: $rsp 32 +
STACK CFI 11615 .cfa: $rsp 24 +
STACK CFI 11616 .cfa: $rsp 16 +
STACK CFI 11618 .cfa: $rsp 8 +
STACK CFI 11620 .cfa: $rsp 48 +
STACK CFI INIT 11670 8d .cfa: $rsp 8 + .ra: .cfa -8 + ^
STACK CFI 1168a $r12: .cfa -16 + ^ .cfa: $rsp 16 +
STACK CFI 1168b $rbp: .cfa -24 + ^ .cfa: $rsp 24 +
STACK CFI 11690 $rbx: .cfa -32 + ^ .cfa: $rsp 32 +
STACK CFI 116bc .cfa: $rsp 24 +
STACK CFI 116bd .cfa: $rsp 16 +
STACK CFI 116bf .cfa: $rsp 8 +
STACK CFI 116c0 .cfa: $rsp 32 +
STACK CFI INIT 11700 242 .cfa: $rsp 8 + .ra: .cfa -8 + ^
STACK CFI 11702 $r15: .cfa -16 + ^ .cfa: $rsp 16 +
STACK CFI 11704 $r14: .cfa -24 + ^ .cfa: $rsp 24 +
STACK CFI 11706 $r13: .cfa -32 + ^ .cfa: $rsp 32 +
STACK CFI 11708 $r12: .cfa -40 + ^ .cfa: $rsp 40 +
STACK CFI 1170c $rbp: .cfa -48 + ^ .cfa: $rsp 48 +
STACK CFI 1170d $rbx: .cfa -56 + ^ .cfa: $rsp 56 +
STACK CFI 11714 .cfa: $rsp 96 +
STACK CFI 1190a .cfa: $rsp 56 +
STACK CFI 1190b .cfa: $rsp 48 +
STACK CFI 1190c .cfa: $rsp 40 +
STACK CFI 1190e .cfa: $rsp 32 +
STACK CFI 11910 .cfa: $rsp 24 +
STACK CFI 11912 .cfa: $rsp 16 +
STACK CFI 11914 .cfa: $rsp 8 +
STACK CFI 11918 .cfa: $rsp 96 +
STACK CFI INIT 12200 4a .cfa: $rsp 8 + .ra: .cfa -8 + ^
STACK CFI 12202 $r13: .cfa -16 + ^ .cfa: $rsp 16 +
STACK CFI 12204 $r12: .cfa -24 + ^ .cfa: $rsp 24 +
STACK CFI 12208 $rbp: .cfa -32 + ^ .cfa: $rsp 32 +
STACK CFI 12209 $rbx: .cfa -40 + ^ .cfa: $rsp 40 +
STACK CFI 1220d .cfa: $rsp 48 +
STACK CFI 12243 .cfa: $rsp 40 +
STACK CFI 12244 .cfa: $rsp 32 +
STACK CFI 12245 .cfa: $rsp 24 +
STACK CFI 12247 .cfa: $rsp 16 +
STACK CFI 12249 .cfa: $rsp 8 +
STACK CFI INIT 12250 3c .cfa: $rsp 8 + .ra: .cfa -8 + ^
STACK CFI 12258 $rbx: .cfa -16 + ^ .cfa: $rsp 16 +
STACK CFI 12287 .cfa: $rsp 8 +
STACK CFI INIT 11950 5f4 .cfa: $rsp 8 + .ra: .cfa -8 + ^
STACK CFI 11952 $r15: .cfa -16 + ^ .cfa: $rsp 16 +
STACK CFI 11954 $r14: .cfa -24 + ^ .cfa: $rsp 24 +
STACK CFI 11959 $r13: .cfa -32 + ^ .cfa: $rsp 32 +
STACK CFI 1195b $r12: .cfa -40 + ^ .cfa: $rsp 40 +
STACK CFI 1195f $rbp: .cfa -48 + ^ .cfa: $rsp 48 +
STACK CFI 11960 $rbx: .cfa -56 + ^ .cfa: $rsp 56 +
STACK CFI 11967 .cfa: $rsp 528 +
STACK CFI 11ce2 .cfa: $rsp 56 +
STACK CFI 11ce3 .cfa: $rsp 48 +
STACK CFI 11ce4 .cfa: $rsp 40 +
STACK CFI 11ce6 .cfa: $rsp 32 +
STACK CFI 11ce8 .cfa: $rsp 24 +
STACK CFI 11cea .cfa: $rsp 16 +
STACK CFI 11cec .cfa: $rsp 8 +
STACK CFI 11cf0 .cfa: $rsp 528 +
STACK CFI INIT 12290 49 .cfa: $rsp 8 + .ra: .cfa -8 + ^
STACK CFI 12298 $rbx: .cfa -16 + ^ .cfa: $rsp 16 +
STACK CFI 122d4 .cfa: $rsp 8 +
STACK CFI INIT 122e0 52 .cfa: $rsp 8 + .ra: .cfa -8 + ^
STACK CFI 122e7 $r12: .cfa -16 + ^ .cfa: $rsp 16 +
STACK CFI 122eb $rbp: .cfa -24 + ^ .cfa: $rsp 24 +
STACK CFI 122ec $rbx: .cfa -32 + ^ .cfa: $rsp 32 +
STACK CFI 12322 .cfa: $rsp 24 +
STACK CFI 12323 .cfa: $rsp 16 +
STACK CFI 12325 .cfa: $rsp 8 +
STACK CFI 12330 $r12: $r12 $rbp: $rbp $rbx: $rbx
STACK CFI INIT 12340 52 .cfa: $rsp 8 + .ra: .cfa -8 + ^
STACK CFI 12347 $r12: .cfa -16 + ^ .cfa: $rsp 16 +
STACK CFI 1234b $rbp: .cfa -24 + ^ .cfa: $rsp 24 +
STACK CFI 1234c $rbx: .cfa -32 + ^ .cfa: $rsp 32 +
STACK CFI 12382 .cfa: $rsp 24 +
STACK CFI 12383 .cfa: $rsp 16 +
STACK CFI 12385 .cfa: $rsp 8 +
STACK CFI 12390 $r12: $r12 $rbp: $rbp $rbx: $rbx
STACK CFI INIT 123a0 184 .cfa: $rsp 8 + .ra: .cfa -8 + ^
STACK CFI 123a2 $r15: .cfa -16 + ^ .cfa: $rsp 16 +
STACK CFI 123a4 $r14: .cfa -24 + ^ .cfa: $rsp 24 +
STACK CFI 123a6 $r13: .cfa -32 + ^ .cfa: $rsp 32 +
STACK CFI 123a8 $r12: .cfa -40 + ^ .cfa: $rsp 40 +
STACK CFI 123a9 $rbp: .cfa -48 + ^ .cfa: $rsp 48 +
STACK CFI 123aa $rbx: .cfa -56 + ^ .cfa: $rsp 56 +
STACK CFI 123ae .cfa: $rsp 80 +
STACK CFI 12468 .cfa: $rsp 56 +
STACK CFI 1246e .cfa: $rsp 48 +
STACK CFI 1246f .cfa: $rsp 40 +
STACK CFI 12471 .cfa: $rsp 32 +
STACK CFI 12473 .cfa: $rsp 24 +
STACK CFI 12475 .cfa: $rsp 16 +
STACK CFI 12477 .cfa: $rsp 8 +
STACK CFI 12480 .cfa: $rsp 80 +
STACK CFI 12484 .cfa: $rsp 56 +
STACK CFI 1248a .cfa: $rsp 48 +
STACK CFI 1248b .cfa: $rsp 40 +
STACK CFI 1248d .cfa: $rsp 32 +
STACK CFI 1248f .cfa: $rsp 24 +
STACK CFI 12491 .cfa: $rsp 16 +
STACK CFI 12493 .cfa: $rsp 8 +
STACK CFI 12498 .cfa: $rsp 80 +
STACK CFI 12514 .cfa: $rsp 56 +
STACK CFI 1251a .cfa: $rsp 48 +
STACK CFI 1251b .cfa: $rsp 40 +
STACK CFI 1251d .cfa: $rsp 32 +
STACK CFI 1251f .cfa: $rsp 24 +
STACK CFI 12521 .cfa: $rsp 16 +
STACK CFI 12523 .cfa: $rsp 8 +
STACK CFI INIT 12530 2b2 .cfa: $rsp 8 + .ra: .cfa -8 + ^
STACK CFI 12532 $r15: .cfa -16 + ^ .cfa: $rsp 16 +
STACK CFI 12538 $r14: .cfa -24 + ^ .cfa: $rsp 24 +
STACK CFI 1253a $r13: .cfa -32 + ^ .cfa: $rsp 32 +
STACK CFI 1253c $r12: .cfa -40 + ^ .cfa: $rsp 40 +
STACK CFI 12540 $rbp: .cfa -48 + ^ .cfa: $rsp 48 +
STACK CFI 12541 $rbx: .cfa -56 + ^ .cfa: $rsp 56 +
STACK CFI 12548 .cfa: $rsp 80 +
STACK CFI 12617 .cfa: $rsp 56 +
STACK CFI 1261b .cfa: $rsp 48 +
STACK CFI 1261c .cfa: $rsp 40 +
STACK CFI 1261e .cfa: $rsp 32 +
STACK CFI 12620 .cfa: $rsp 24 +
STACK CFI 12622 .cfa: $rsp 16 +
STACK CFI 12624 .cfa: $rsp 8 +
STACK CFI 12628 .cfa: $rsp 80 +
STACK CFI 12739 .cfa: $rsp 56 +
STACK CFI 1273a .cfa: $rsp 48 +
STACK CFI 1273b .cfa: $rsp 40 +
STACK CFI 1273d .cfa: $rsp 32 +
STACK CFI 1273f .cfa: $rsp 24 +
STACK CFI 12741 .cfa: $rsp 16 +
STACK CFI 12743 .cfa: $rsp 8 +
STACK CFI 12748 .cfa: $rsp 80 +
STACK CFI 12789 .cfa: $rsp 56 +
STACK CFI 1278f .cfa: $rsp 48 +
STACK CFI 12790 .cfa: $rsp 40 +
STACK CFI 12792 .cfa: $rsp 32 +
STACK CFI 12794 .cfa: $rsp 24 +
STACK CFI 12796 .cfa: $rsp 16 +
STACK CFI 12798 .cfa: $rsp 8 +
STACK CFI 127a0 .cfa: $rsp 80 +
STACK CFI 127a4 .cfa: $rsp 56 +
STACK CFI 127ab .cfa: $rsp 48 +
STACK CFI 127ac .cfa: $rsp 40 +
STACK CFI 127ae .cfa: $rsp 32 +
STACK CFI 127b0 .cfa: $rsp 24 +
STACK CFI 127b2 .cfa: $rsp 16 +
STACK CFI 127b4 .cfa: $rsp 8 +
STACK CFI 127c0 .cfa: $rsp 80 +
STACK CFI INIT 11f50 28b .cfa: $rsp 8 + .ra: .cfa -8 + ^
STACK CFI 11f52 $r15: .cfa -16 + ^ .cfa: $rsp 16 +
STACK CFI 11f54 $r14: .cfa -24 + ^ .cfa: $rsp 24 +
STACK CFI 11f56 $r13: .cfa -32 + ^ .cfa: $rsp 32 +
STACK CFI 11f58 $r12: .cfa -40 + ^ .cfa: $rsp 40 +
STACK CFI 11f5c $rbp: .cfa -48 + ^ .cfa: $rsp 48 +
STACK CFI 11f5d $rbx: .cfa -56 + ^ .cfa: $rsp 56 +
STACK CFI 11f61 .cfa: $rsp 96 +
STACK CFI 120cc .cfa: $rsp 56 +
STACK CFI 120d1 .cfa: $rsp 48 +
STACK CFI 120d2 .cfa: $rsp 40 +
STACK CFI 120d4 .cfa: $rsp 32 +
STACK CFI 120d6 .cfa: $rsp 24 +
STACK CFI 120d8 .cfa: $rsp 16 +
STACK CFI 120da .cfa: $rsp 8 +
STACK CFI 120e0 .cfa: $rsp 96 +
STACK CFI INIT 127f0 398 .cfa: $rsp 8 + .ra: .cfa -8 + ^
STACK CFI 127f2 $r15: .cfa -16 + ^ .cfa: $rsp 16 +
STACK CFI 127f4 $r14: .cfa -24 + ^ .cfa: $rsp 24 +
STACK CFI 127f6 $r13: .cfa -32 + ^ .cfa: $rsp 32 +
STACK CFI 127f8 $r12: .cfa -40 + ^ .cfa: $rsp 40 +
STACK CFI 127fc $rbp: .cfa -48 + ^ .cfa: $rsp 48 +
STACK CFI 127fd $rbx: .cfa -56 + ^ .cfa: $rsp 56 +
STACK CFI 12807 .cfa: $rsp 80 +
STACK CFI 12947 .cfa: $rsp 56 +
STACK CFI 1294b .cfa: $rsp 48 +
STACK CFI 1294c .cfa: $rsp 40 +
STACK CFI 1294e .cfa: $rsp 32 +
STACK CFI 12950 .cfa: $rsp 24 +
STACK CFI 12952 .cfa: $rsp 16 +
STACK CFI 12954 .cfa: $rsp 8 +
STACK CFI 12958 .cfa: $rsp 80 +
STACK CFI INIT 12b90 133 .cfa: $rsp 8 + .ra: .cfa -8 + ^
STACK CFI 12b91 $rbp: .cfa -16 + ^ .cfa: $rsp 16 +
STACK CFI 12b92 $rbx: .cfa -24 + ^ .cfa: $rsp 24 +
STACK CFI 12b99 .cfa: $rsp 64 +
STACK CFI 12c84 .cfa: $rsp 24 +
STACK CFI 12c85 .cfa: $rsp 16 +
STACK CFI 12c86 .cfa: $rsp 8 +
STACK CFI 12c90 .cfa: $rsp 64 +
STACK CFI INIT 12cd0 41f .cfa: $rsp 8 + .ra: .cfa -8 + ^
STACK CFI 12cd2 $r15: .cfa -16 + ^ .cfa: $rsp 16 +
STACK CFI 12cd4 $r14: .cfa -24 + ^ .cfa: $rsp 24 +
STACK CFI 12cd6 $r13: .cfa -32 + ^ .cfa: $rsp 32 +
STACK CFI 12cd8 $r12: .cfa -40 + ^ .cfa: $rsp 40 +
STACK CFI 12cd9 $rbp: .cfa -48 + ^ .cfa: $rsp 48 +
STACK CFI 12cda $rbx: .cfa -56 + ^ .cfa: $rsp 56 +
STACK CFI 12ce1 .cfa: $rsp 528 +
STACK CFI 12fd1 .cfa: $rsp 56 +
STACK CFI 12fd2 .cfa: $rsp 48 +
STACK CFI 12fd3 .cfa: $rsp 40 +
STACK CFI 12fd5 .cfa: $rsp 32 +
STACK CFI 12fd7 .cfa: $rsp 24 +
STACK CFI 12fd9 .cfa: $rsp 16 +
STACK CFI 12fdb .cfa: $rsp 8 +
STACK CFI 12fe0 .cfa: $rsp 528 +
STACK CFI INIT 130f0 246 .cfa: $rsp 8 + .ra: .cfa -8 + ^
STACK CFI 130f2 $r15: .cfa -16 + ^ .cfa: $rsp 16 +
STACK CFI 130f4 $r14: .cfa -24 + ^ .cfa: $rsp 24 +
STACK CFI 130f9 $r13: .cfa -32 + ^ .cfa: $rsp 32 +
STACK CFI 130fb $r12: .cfa -40 + ^ .cfa: $rsp 40 +
STACK CFI 130fc $rbp: .cfa -48 + ^ .cfa: $rsp 48 +
STACK CFI 130fd $rbx: .cfa -56 + ^ .cfa: $rsp 56 +
STACK CFI 13104 .cfa: $rsp 144 +
STACK CFI 131a2 .cfa: $rsp 56 +
STACK CFI 131a3 .cfa: $rsp 48 +
STACK CFI 131a4 .cfa: $rsp 40 +
STACK CFI 131a6 .cfa: $rsp 32 +
STACK CFI 131a8 .cfa: $rsp 24 +
STACK CFI 131aa .cfa: $rsp 16 +
STACK CFI 131ac .cfa: $rsp 8 +
STACK CFI 131b0 .cfa: $rsp 144 +
STACK CFI INIT 13340 b2 .cfa: $rsp 8 + .ra: .cfa -8 + ^
STACK CFI 13342 $r14: .cfa -16 + ^ .cfa: $rsp 16 +
STACK CFI 13344 $r13: .cfa -24 + ^ .cfa: $rsp 24 +
STACK CFI 13346 $r12: .cfa -32 + ^ .cfa: $rsp 32 +
STACK CFI 13347 $rbp: .cfa -40 + ^ .cfa: $rsp 40 +
STACK CFI 1334b $rbx: .cfa -48 + ^ .cfa: $rsp 48 +
STACK CFI 1335e .cfa: $rsp 64 +
STACK CFI 13377 .cfa: $rsp 48 +
STACK CFI 1337b .cfa: $rsp 40 +
STACK CFI 1337c .cfa: $rsp 32 +
STACK CFI 1337e .cfa: $rsp 24 +
STACK CFI 13380 .cfa: $rsp 16 +
STACK CFI 13382 .cfa: $rsp 8 +
STACK CFI 13388 .cfa: $rsp 64 +
STACK CFI INIT 13400 3a8 .cfa: $rsp 8 + .ra: .cfa -8 + ^
STACK CFI 13402 $r15: .cfa -16 + ^ .cfa: $rsp 16 +
STACK CFI 13404 $r14: .cfa -24 + ^ .cfa: $rsp 24 +
STACK CFI 13406 $r13: .cfa -32 + ^ .cfa: $rsp 32 +
STACK CFI 13408 $r12: .cfa -40 + ^ .cfa: $rsp 40 +
STACK CFI 1340c $rbp: .cfa -48 + ^ .cfa: $rsp 48 +
STACK CFI 1340d $rbx: .cfa -56 + ^ .cfa: $rsp 56 +
STACK CFI 13417 .cfa: $rsp 80 +
STACK CFI 1355a .cfa: $rsp 56 +
STACK CFI 1355e .cfa: $rsp 48 +
STACK CFI 1355f .cfa: $rsp 40 +
STACK CFI 13561 .cfa: $rsp 32 +
STACK CFI 13563 .cfa: $rsp 24 +
STACK CFI 13565 .cfa: $rsp 16 +
STACK CFI 13567 .cfa: $rsp 8 +
STACK CFI 13570 .cfa: $rsp 80 +
STACK CFI INIT 137b0 133 .cfa: $rsp 8 + .ra: .cfa -8 + ^
STACK CFI 137b1 $rbp: .cfa -16 + ^ .cfa: $rsp 16 +
STACK CFI 137b2 $rbx: .cfa -24 + ^ .cfa: $rsp 24 +
STACK CFI 137b9 .cfa: $rsp 64 +
STACK CFI 138a4 .cfa: $rsp 24 +
STACK CFI 138a5 .cfa: $rsp 16 +
STACK CFI 138a6 .cfa: $rsp 8 +
STACK CFI 138b0 .cfa: $rsp 64 +
STACK CFI INIT 138f0 422 .cfa: $rsp 8 + .ra: .cfa -8 + ^
STACK CFI 138f2 $r15: .cfa -16 + ^ .cfa: $rsp 16 +
STACK CFI 138f4 $r14: .cfa -24 + ^ .cfa: $rsp 24 +
STACK CFI 138f6 $r13: .cfa -32 + ^ .cfa: $rsp 32 +
STACK CFI 138f8 $r12: .cfa -40 + ^ .cfa: $rsp 40 +
STACK CFI 138f9 $rbp: .cfa -48 + ^ .cfa: $rsp 48 +
STACK CFI 138fa $rbx: .cfa -56 + ^ .cfa: $rsp 56 +
STACK CFI 13901 .cfa: $rsp 528 +
STACK CFI 13bf2 .cfa: $rsp 56 +
STACK CFI 13bf3 .cfa: $rsp 48 +
STACK CFI 13bf4 .cfa: $rsp 40 +
STACK CFI 13bf6 .cfa: $rsp 32 +
STACK CFI 13bf8 .cfa: $rsp 24 +
STACK CFI 13bfa .cfa: $rsp 16 +
STACK CFI 13bfc .cfa: $rsp 8 +
STACK CFI 13c00 .cfa: $rsp 528 +
STACK CFI INIT 13d20 246 .cfa: $rsp 8 + .ra: .cfa -8 + ^
STACK CFI 13d22 $r15: .cfa -16 + ^ .cfa: $rsp 16 +
STACK CFI 13d24 $r14: .cfa -24 + ^ .cfa: $rsp 24 +
STACK CFI 13d29 $r13: .cfa -32 + ^ .cfa: $rsp 32 +
STACK CFI 13d2b $r12: .cfa -40 + ^ .cfa: $rsp 40 +
STACK CFI 13d2c $rbp: .cfa -48 + ^ .cfa: $rsp 48 +
STACK CFI 13d2d $rbx: .cfa -56 + ^ .cfa: $rsp 56 +
STACK CFI 13d34 .cfa: $rsp 144 +
STACK CFI 13dd2 .cfa: $rsp 56 +
STACK CFI 13dd3 .cfa: $rsp 48 +
STACK CFI 13dd4 .cfa: $rsp 40 +
STACK CFI 13dd6 .cfa: $rsp 32 +
STACK CFI 13dd8 .cfa: $rsp 24 +
STACK CFI 13dda .cfa: $rsp 16 +
STACK CFI 13ddc .cfa: $rsp 8 +
STACK CFI 13de0 .cfa: $rsp 144 +
STACK CFI INIT 13f70 b2 .cfa: $rsp 8 + .ra: .cfa -8 + ^
STACK CFI 13f72 $r14: .cfa -16 + ^ .cfa: $rsp 16 +
STACK CFI 13f74 $r13: .cfa -24 + ^ .cfa: $rsp 24 +
STACK CFI 13f76 $r12: .cfa -32 + ^ .cfa: $rsp 32 +
STACK CFI 13f77 $rbp: .cfa -40 + ^ .cfa: $rsp 40 +
STACK CFI 13f7b $rbx: .cfa -48 + ^ .cfa: $rsp 48 +
STACK CFI 13f8e .cfa: $rsp 64 +
STACK CFI 13fa7 .cfa: $rsp 48 +
STACK CFI 13fab .cfa: $rsp 40 +
STACK CFI 13fac .cfa: $rsp 32 +
STACK CFI 13fae .cfa: $rsp 24 +
STACK CFI 13fb0 .cfa: $rsp 16 +
STACK CFI 13fb2 .cfa: $rsp 8 +
STACK CFI 13fb8 .cfa: $rsp 64 +
STACK CFI INIT 14030 184 .cfa: $rsp 8 + .ra: .cfa -8 + ^
STACK CFI 14032 $r15: .cfa -16 + ^ .cfa: $rsp 16 +
STACK CFI 14034 $r14: .cfa -24 + ^ .cfa: $rsp 24 +
STACK CFI 14036 $r13: .cfa -32 + ^ .cfa: $rsp 32 +
STACK CFI 14038 $r12: .cfa -40 + ^ .cfa: $rsp 40 +
STACK CFI 14039 $rbp: .cfa -48 + ^ .cfa: $rsp 48 +
STACK CFI 1403a $rbx: .cfa -56 + ^ .cfa: $rsp 56 +
STACK CFI 1403e .cfa: $rsp 80 +
STACK CFI 140f8 .cfa: $rsp 56 +
STACK CFI 140fe .cfa: $rsp 48 +
STACK CFI 140ff .cfa: $rsp 40 +
STACK CFI 14101 .cfa: $rsp 32 +
STACK CFI 14103 .cfa: $rsp 24 +
STACK CFI 14105 .cfa: $rsp 16 +
STACK CFI 14107 .cfa: $rsp 8 +
STACK CFI 14110 .cfa: $rsp 80 +
STACK CFI 14114 .cfa: $rsp 56 +
STACK CFI 1411a .cfa: $rsp 48 +
STACK CFI 1411b .cfa: $rsp 40 +
STACK CFI 1411d .cfa: $rsp 32 +
STACK CFI 1411f .cfa: $rsp 24 +
STACK CFI 14121 .cfa: $rsp 16 +
STACK CFI 14123 .cfa: $rsp 8 +
STACK CFI 14128 .cfa: $rsp 80 +
STACK CFI 141a4 .cfa: $rsp 56 +
STACK CFI 141aa .cfa: $rsp 48 +
STACK CFI 141ab .cfa: $rsp 40 +
STACK CFI 141ad .cfa: $rsp 32 +
STACK CFI 141af .cfa: $rsp 24 +
STACK CFI 141b1 .cfa: $rsp 16 +
STACK CFI 141b3 .cfa: $rsp 8 +
STACK CFI INIT 141c0 2b2 .cfa: $rsp 8 + .ra: .cfa -8 + ^
STACK CFI 141c2 $r15: .cfa -16 + ^ .cfa: $rsp 16 +
STACK CFI 141c8 $r14: .cfa -24 + ^ .cfa: $rsp 24 +
STACK CFI 141ca $r13: .cfa -32 + ^ .cfa: $rsp 32 +
STACK CFI 141cc $r12: .cfa -40 + ^ .cfa: $rsp 40 +
STACK CFI 141d0 $rbp: .cfa -48 + ^ .cfa: $rsp 48 +
STACK CFI 141d1 $rbx: .cfa -56 + ^ .cfa: $rsp 56 +
STACK CFI 141d8 .cfa: $rsp 80 +
STACK CFI 142a7 .cfa: $rsp 56 +
STACK CFI 142ab .cfa: $rsp 48 +
STACK CFI 142ac .cfa: $rsp 40 +
STACK CFI 142ae .cfa: $rsp 32 +
STACK CFI 142b0 .cfa: $rsp 24 +
STACK CFI 142b2 .cfa: $rsp 16 +
STACK CFI 142b4 .cfa: $rsp 8 +
STACK CFI 142b8 .cfa: $rsp 80 +
STACK CFI 143c9 .cfa: $rsp 56 +
STACK CFI 143ca .cfa: $rsp 48 +
STACK CFI 143cb .cfa: $rsp 40 +
STACK CFI 143cd .cfa: $rsp 32 +
STACK CFI 143cf .cfa: $rsp 24 +
STACK CFI 143d1 .cfa: $rsp 16 +
STACK CFI 143d3 .cfa: $rsp 8 +
STACK CFI 143d8 .cfa: $rsp 80 +
STACK CFI 14419 .cfa: $rsp 56 +
STACK CFI 1441f .cfa: $rsp 48 +
STACK CFI 14420 .cfa: $rsp 40 +
STACK CFI 14422 .cfa: $rsp 32 +
STACK CFI 14424 .cfa: $rsp 24 +
STACK CFI 14426 .cfa: $rsp 16 +
STACK CFI 14428 .cfa: $rsp 8 +
STACK CFI 14430 .cfa: $rsp 80 +
STACK CFI 14434 .cfa: $rsp 56 +
STACK CFI 1443b .cfa: $rsp 48 +
STACK CFI 1443c .cfa: $rsp 40 +
STACK CFI 1443e .cfa: $rsp 32 +
STACK CFI 14440 .cfa: $rsp 24 +
STACK CFI 14442 .cfa: $rsp 16 +
STACK CFI 14444 .cfa: $rsp 8 +
STACK CFI 14450 .cfa: $rsp 80 +
STACK CFI INIT 14480 1bf .cfa: $rsp 8 + .ra: .cfa -8 + ^
STACK CFI 14482 $r15: .cfa -16 + ^ .cfa: $rsp 16 +
STACK CFI 14484 $r14: .cfa -24 + ^ .cfa: $rsp 24 +
STACK CFI 14489 $r13: .cfa -32 + ^ .cfa: $rsp 32 +
STACK CFI 1448b $r12: .cfa -40 + ^ .cfa: $rsp 40 +
STACK CFI 1448f $rbp: .cfa -48 + ^ .cfa: $rsp 48 +
STACK CFI 14490 $rbx: .cfa -56 + ^ .cfa: $rsp 56 +
STACK CFI 14498 .cfa: $rsp 80 +
STACK CFI 145b2 .cfa: $rsp 56 +
STACK CFI 145b7 .cfa: $rsp 48 +
STACK CFI 145b8 .cfa: $rsp 40 +
STACK CFI 145ba .cfa: $rsp 32 +
STACK CFI 145bc .cfa: $rsp 24 +
STACK CFI 145be .cfa: $rsp 16 +
STACK CFI 145c0 .cfa: $rsp 8 +
STACK CFI 145c8 .cfa: $rsp 80 +
STACK CFI INIT 14640 184 .cfa: $rsp 8 + .ra: .cfa -8 + ^
STACK CFI 14642 $r15: .cfa -16 + ^ .cfa: $rsp 16 +
STACK CFI 14644 $r14: .cfa -24 + ^ .cfa: $rsp 24 +
STACK CFI 14646 $r13: .cfa -32 + ^ .cfa: $rsp 32 +
STACK CFI 14648 $r12: .cfa -40 + ^ .cfa: $rsp 40 +
STACK CFI 14649 $rbp: .cfa -48 + ^ .cfa: $rsp 48 +
STACK CFI 1464a $rbx: .cfa -56 + ^ .cfa: $rsp 56 +
STACK CFI 1464e .cfa: $rsp 80 +
STACK CFI 14708 .cfa: $rsp 56 +
STACK CFI 1470e .cfa: $rsp 48 +
STACK CFI 1470f .cfa: $rsp 40 +
STACK CFI 14711 .cfa: $rsp 32 +
STACK CFI 14713 .cfa: $rsp 24 +
STACK CFI 14715 .cfa: $rsp 16 +
STACK CFI 14717 .cfa: $rsp 8 +
STACK CFI 14720 .cfa: $rsp 80 +
STACK CFI 14724 .cfa: $rsp 56 +
STACK CFI 1472a .cfa: $rsp 48 +
STACK CFI 1472b .cfa: $rsp 40 +
STACK CFI 1472d .cfa: $rsp 32 +
STACK CFI 1472f .cfa: $rsp 24 +
STACK CFI 14731 .cfa: $rsp 16 +
STACK CFI 14733 .cfa: $rsp 8 +
STACK CFI 14738 .cfa: $rsp 80 +
STACK CFI 147b4 .cfa: $rsp 56 +
STACK CFI 147ba .cfa: $rsp 48 +
STACK CFI 147bb .cfa: $rsp 40 +
STACK CFI 147bd .cfa: $rsp 32 +
STACK CFI 147bf .cfa: $rsp 24 +
STACK CFI 147c1 .cfa: $rsp 16 +
STACK CFI 147c3 .cfa: $rsp 8 +
STACK CFI INIT 147d0 2b2 .cfa: $rsp 8 + .ra: .cfa -8 + ^
STACK CFI 147d2 $r15: .cfa -16 + ^ .cfa: $rsp 16 +
STACK CFI 147d8 $r14: .cfa -24 + ^ .cfa: $rsp 24 +
STACK CFI 147da $r13: .cfa -32 + ^ .cfa: $rsp 32 +
STACK CFI 147dc $r12: .cfa -40 + ^ .cfa: $rsp 40 +
STACK CFI 147e0 $rbp: .cfa -48 + ^ .cfa: $rsp 48 +
STACK CFI 147e1 $rbx: .cfa -56 + ^ .cfa: $rsp 56 +
STACK CFI 147e8 .cfa: $rsp 80 +
STACK CFI 148b7 .cfa: $rsp 56 +
STACK CFI 148bb .cfa: $rsp 48 +
STACK CFI 148bc .cfa: $rsp 40 +
STACK CFI 148be .cfa: $rsp 32 +
STACK CFI 148c0 .cfa: $rsp 24 +
STACK CFI 148c2 .cfa: $rsp 16 +
STACK CFI 148c4 .cfa: $rsp 8 +
STACK CFI 148c8 .cfa: $rsp 80 +
STACK CFI 149d9 .cfa: $rsp 56 +
STACK CFI 149da .cfa: $rsp 48 +
STACK CFI 149db .cfa: $rsp 40 +
STACK CFI 149dd .cfa: $rsp 32 +
STACK CFI 149df .cfa: $rsp 24 +
STACK CFI 149e1 .cfa: $rsp 16 +
STACK CFI 149e3 .cfa: $rsp 8 +
STACK CFI 149e8 .cfa: $rsp 80 +
STACK CFI 14a29 .cfa: $rsp 56 +
STACK CFI 14a2f .cfa: $rsp 48 +
STACK CFI 14a30 .cfa: $rsp 40 +
STACK CFI 14a32 .cfa: $rsp 32 +
STACK CFI 14a34 .cfa: $rsp 24 +
STACK CFI 14a36 .cfa: $rsp 16 +
STACK CFI 14a38 .cfa: $rsp 8 +
STACK CFI 14a40 .cfa: $rsp 80 +
STACK CFI 14a44 .cfa: $rsp 56 +
STACK CFI 14a4b .cfa: $rsp 48 +
STACK CFI 14a4c .cfa: $rsp 40 +
STACK CFI 14a4e .cfa: $rsp 32 +
STACK CFI 14a50 .cfa: $rsp 24 +
STACK CFI 14a52 .cfa: $rsp 16 +
STACK CFI 14a54 .cfa: $rsp 8 +
STACK CFI 14a60 .cfa: $rsp 80 +
STACK CFI INIT 14a90 1bf .cfa: $rsp 8 + .ra: .cfa -8 + ^
STACK CFI 14a92 $r15: .cfa -16 + ^ .cfa: $rsp 16 +
STACK CFI 14a94 $r14: .cfa -24 + ^ .cfa: $rsp 24 +
STACK CFI 14a99 $r13: .cfa -32 + ^ .cfa: $rsp 32 +
STACK CFI 14a9b $r12: .cfa -40 + ^ .cfa: $rsp 40 +
STACK CFI 14a9f $rbp: .cfa -48 + ^ .cfa: $rsp 48 +
STACK CFI 14aa0 $rbx: .cfa -56 + ^ .cfa: $rsp 56 +
STACK CFI 14aa8 .cfa: $rsp 80 +
STACK CFI 14bc3 .cfa: $rsp 56 +
STACK CFI 14bc8 .cfa: $rsp 48 +
STACK CFI 14bc9 .cfa: $rsp 40 +
STACK CFI 14bcb .cfa: $rsp 32 +
STACK CFI 14bcd .cfa: $rsp 24 +
STACK CFI 14bcf .cfa: $rsp 16 +
STACK CFI 14bd1 .cfa: $rsp 8 +
STACK CFI 14bd8 .cfa: $rsp 80 +
STACK CFI INIT 14c50 28a .cfa: $rsp 8 + .ra: .cfa -8 + ^
STACK CFI 14c52 $r15: .cfa -16 + ^ .cfa: $rsp 16 +
STACK CFI 14c54 $r14: .cfa -24 + ^ .cfa: $rsp 24 +
STACK CFI 14c59 $r13: .cfa -32 + ^ .cfa: $rsp 32 +
STACK CFI 14c5b $r12: .cfa -40 + ^ .cfa: $rsp 40 +
STACK CFI 14c5f $rbp: .cfa -48 + ^ .cfa: $rsp 48 +
STACK CFI 14c60 $rbx: .cfa -56 + ^ .cfa: $rsp 56 +
STACK CFI 14c6a .cfa: $rsp 80 +
STACK CFI 14e64 .cfa: $rsp 56 +
STACK CFI 14e65 .cfa: $rsp 48 +
STACK CFI 14e66 .cfa: $rsp 40 +
STACK CFI 14e68 .cfa: $rsp 32 +
STACK CFI 14e6a .cfa: $rsp 24 +
STACK CFI 14e6c .cfa: $rsp 16 +
STACK CFI 14e6e .cfa: $rsp 8 +
STACK CFI 14e70 .cfa: $rsp 80 +
STACK CFI INIT 14ee0 4b .cfa: $rsp 8 + .ra: .cfa -8 + ^
STACK CFI 14eee $rbx: .cfa -16 + ^ .cfa: $rsp 16 +
STACK CFI 14f1f .cfa: $rsp 8 +
STACK CFI 14f20 $rbx: $rbx
STACK CFI INIT 14f30 73 .cfa: $rsp 8 + .ra: .cfa -8 + ^
STACK CFI INIT 14fb0 52e .cfa: $rsp 8 + .ra: .cfa -8 + ^
STACK CFI 14fb2 $r15: .cfa -16 + ^ .cfa: $rsp 16 +
STACK CFI 14fb4 $r14: .cfa -24 + ^ .cfa: $rsp 24 +
STACK CFI 14fb9 $r13: .cfa -32 + ^ .cfa: $rsp 32 +
STACK CFI 14fbb $r12: .cfa -40 + ^ .cfa: $rsp 40 +
STACK CFI 14fbc $rbp: .cfa -48 + ^ .cfa: $rsp 48 +
STACK CFI 14fbd $rbx: .cfa -56 + ^ .cfa: $rsp 56 +
STACK CFI 14fc4 .cfa: $rsp 560 +
STACK CFI 152e0 .cfa: $rsp 56 +
STACK CFI 152e1 .cfa: $rsp 48 +
STACK CFI 152e2 .cfa: $rsp 40 +
STACK CFI 152e4 .cfa: $rsp 32 +
STACK CFI 152e6 .cfa: $rsp 24 +
STACK CFI 152e8 .cfa: $rsp 16 +
STACK CFI 152ea .cfa: $rsp 8 +
STACK CFI 152f0 .cfa: $rsp 560 +
STACK CFI INIT 154e0 52e .cfa: $rsp 8 + .ra: .cfa -8 + ^
STACK CFI 154e2 $r15: .cfa -16 + ^ .cfa: $rsp 16 +
STACK CFI 154e4 $r14: .cfa -24 + ^ .cfa: $rsp 24 +
STACK CFI 154e9 $r13: .cfa -32 + ^ .cfa: $rsp 32 +
STACK CFI 154eb $r12: .cfa -40 + ^ .cfa: $rsp 40 +
STACK CFI 154ec $rbp: .cfa -48 + ^ .cfa: $rsp 48 +
STACK CFI 154ed $rbx: .cfa -56 + ^ .cfa: $rsp 56 +
STACK CFI 154f4 .cfa: $rsp 560 +
STACK CFI 15810 .cfa: $rsp 56 +
STACK CFI 15811 .cfa: $rsp 48 +
STACK CFI 15812 .cfa: $rsp 40 +
STACK CFI 15814 .cfa: $rsp 32 +
STACK CFI 15816 .cfa: $rsp 24 +
STACK CFI 15818 .cfa: $rsp 16 +
STACK CFI 1581a .cfa: $rsp 8 +
STACK CFI 15820 .cfa: $rsp 560 +
STACK CFI INIT 15a10 184 .cfa: $rsp 8 + .ra: .cfa -8 + ^
STACK CFI 15a12 $r15: .cfa -16 + ^ .cfa: $rsp 16 +
STACK CFI 15a14 $r14: .cfa -24 + ^ .cfa: $rsp 24 +
STACK CFI 15a16 $r13: .cfa -32 + ^ .cfa: $rsp 32 +
STACK CFI 15a18 $r12: .cfa -40 + ^ .cfa: $rsp 40 +
STACK CFI 15a19 $rbp: .cfa -48 + ^ .cfa: $rsp 48 +
STACK CFI 15a1a $rbx: .cfa -56 + ^ .cfa: $rsp 56 +
STACK CFI 15a1e .cfa: $rsp 80 +
STACK CFI 15ad8 .cfa: $rsp 56 +
STACK CFI 15ade .cfa: $rsp 48 +
STACK CFI 15adf .cfa: $rsp 40 +
STACK CFI 15ae1 .cfa: $rsp 32 +
STACK CFI 15ae3 .cfa: $rsp 24 +
STACK CFI 15ae5 .cfa: $rsp 16 +
STACK CFI 15ae7 .cfa: $rsp 8 +
STACK CFI 15af0 .cfa: $rsp 80 +
STACK CFI 15af4 .cfa: $rsp 56 +
STACK CFI 15afa .cfa: $rsp 48 +
STACK CFI 15afb .cfa: $rsp 40 +
STACK CFI 15afd .cfa: $rsp 32 +
STACK CFI 15aff .cfa: $rsp 24 +
STACK CFI 15b01 .cfa: $rsp 16 +
STACK CFI 15b03 .cfa: $rsp 8 +
STACK CFI 15b08 .cfa: $rsp 80 +
STACK CFI 15b84 .cfa: $rsp 56 +
STACK CFI 15b8a .cfa: $rsp 48 +
STACK CFI 15b8b .cfa: $rsp 40 +
STACK CFI 15b8d .cfa: $rsp 32 +
STACK CFI 15b8f .cfa: $rsp 24 +
STACK CFI 15b91 .cfa: $rsp 16 +
STACK CFI 15b93 .cfa: $rsp 8 +
STACK CFI INIT 15ba0 2b2 .cfa: $rsp 8 + .ra: .cfa -8 + ^
STACK CFI 15ba2 $r15: .cfa -16 + ^ .cfa: $rsp 16 +
STACK CFI 15ba8 $r14: .cfa -24 + ^ .cfa: $rsp 24 +
STACK CFI 15baa $r13: .cfa -32 + ^ .cfa: $rsp 32 +
STACK CFI 15bac $r12: .cfa -40 + ^ .cfa: $rsp 40 +
STACK CFI 15bb0 $rbp: .cfa -48 + ^ .cfa: $rsp 48 +
STACK CFI 15bb1 $rbx: .cfa -56 + ^ .cfa: $rsp 56 +
STACK CFI 15bb8 .cfa: $rsp 80 +
STACK CFI 15c87 .cfa: $rsp 56 +
STACK CFI 15c8b .cfa: $rsp 48 +
STACK CFI 15c8c .cfa: $rsp 40 +
STACK CFI 15c8e .cfa: $rsp 32 +
STACK CFI 15c90 .cfa: $rsp 24 +
STACK CFI 15c92 .cfa: $rsp 16 +
STACK CFI 15c94 .cfa: $rsp 8 +
STACK CFI 15c98 .cfa: $rsp 80 +
STACK CFI 15da9 .cfa: $rsp 56 +
STACK CFI 15daa .cfa: $rsp 48 +
STACK CFI 15dab .cfa: $rsp 40 +
STACK CFI 15dad .cfa: $rsp 32 +
STACK CFI 15daf .cfa: $rsp 24 +
STACK CFI 15db1 .cfa: $rsp 16 +
STACK CFI 15db3 .cfa: $rsp 8 +
STACK CFI 15db8 .cfa: $rsp 80 +
STACK CFI 15df9 .cfa: $rsp 56 +
STACK CFI 15dff .cfa: $rsp 48 +
STACK CFI 15e00 .cfa: $rsp 40 +
STACK CFI 15e02 .cfa: $rsp 32 +
STACK CFI 15e04 .cfa: $rsp 24 +
STACK CFI 15e06 .cfa: $rsp 16 +
STACK CFI 15e08 .cfa: $rsp 8 +
STACK CFI 15e10 .cfa: $rsp 80 +
STACK CFI 15e14 .cfa: $rsp 56 +
STACK CFI 15e1b .cfa: $rsp 48 +
STACK CFI 15e1c .cfa: $rsp 40 +
STACK CFI 15e1e .cfa: $rsp 32 +
STACK CFI 15e20 .cfa: $rsp 24 +
STACK CFI 15e22 .cfa: $rsp 16 +
STACK CFI 15e24 .cfa: $rsp 8 +
STACK CFI 15e30 .cfa: $rsp 80 +
STACK CFI INIT 15e60 23b .cfa: $rsp 8 + .ra: .cfa -8 + ^
STACK CFI 15e62 $r15: .cfa -16 + ^ .cfa: $rsp 16 +
STACK CFI 15e64 $r14: .cfa -24 + ^ .cfa: $rsp 24 +
STACK CFI 15e66 $r13: .cfa -32 + ^ .cfa: $rsp 32 +
STACK CFI 15e68 $r12: .cfa -40 + ^ .cfa: $rsp 40 +
STACK CFI 15e6c $rbp: .cfa -48 + ^ .cfa: $rsp 48 +
STACK CFI 15e6d $rbx: .cfa -56 + ^ .cfa: $rsp 56 +
STACK CFI 15e78 .cfa: $rsp 80 +
STACK CFI 15fb1 .cfa: $rsp 56 +
STACK CFI 15fb6 .cfa: $rsp 48 +
STACK CFI 15fb7 .cfa: $rsp 40 +
STACK CFI 15fb9 .cfa: $rsp 32 +
STACK CFI 15fbb .cfa: $rsp 24 +
STACK CFI 15fbd .cfa: $rsp 16 +
STACK CFI 15fbf .cfa: $rsp 8 +
STACK CFI 15fc0 .cfa: $rsp 80 +
STACK CFI INIT 160a0 705 .cfa: $rsp 8 + .ra: .cfa -8 + ^
STACK CFI 160a2 $r15: .cfa -16 + ^ .cfa: $rsp 16 +
STACK CFI 160a4 $r14: .cfa -24 + ^ .cfa: $rsp 24 +
STACK CFI 160a9 $r13: .cfa -32 + ^ .cfa: $rsp 32 +
STACK CFI 160ab $r12: .cfa -40 + ^ .cfa: $rsp 40 +
STACK CFI 160af $rbp: .cfa -48 + ^ .cfa: $rsp 48 +
STACK CFI 160b0 $rbx: .cfa -56 + ^ .cfa: $rsp 56 +
STACK CFI 160c4 .cfa: $rsp 160 +
STACK CFI 161bc .cfa: $rsp 56 +
STACK CFI 161bd .cfa: $rsp 48 +
STACK CFI 161be .cfa: $rsp 40 +
STACK CFI 161c0 .cfa: $rsp 32 +
STACK CFI 161c2 .cfa: $rsp 24 +
STACK CFI 161c4 .cfa: $rsp 16 +
STACK CFI 161c6 .cfa: $rsp 8 +
STACK CFI 161d0 .cfa: $rsp 160 +
STACK CFI INIT 167b0 4b9 .cfa: $rsp 8 + .ra: .cfa -8 + ^
STACK CFI 167b2 $r15: .cfa -16 + ^ .cfa: $rsp 16 +
STACK CFI 167b4 $r14: .cfa -24 + ^ .cfa: $rsp 24 +
STACK CFI 167b9 $r13: .cfa -32 + ^ .cfa: $rsp 32 +
STACK CFI 167bb $r12: .cfa -40 + ^ .cfa: $rsp 40 +
STACK CFI 167bf $rbp: .cfa -48 + ^ .cfa: $rsp 48 +
STACK CFI 167c0 $rbx: .cfa -56 + ^ .cfa: $rsp 56 +
STACK CFI 167ca .cfa: $rsp 544 +
STACK CFI 16b66 .cfa: $rsp 56 +
STACK CFI 16b67 .cfa: $rsp 48 +
STACK CFI 16b68 .cfa: $rsp 40 +
STACK CFI 16b6a .cfa: $rsp 32 +
STACK CFI 16b6c .cfa: $rsp 24 +
STACK CFI 16b6e .cfa: $rsp 16 +
STACK CFI 16b70 .cfa: $rsp 8 +
STACK CFI 16b78 .cfa: $rsp 544 +
STACK CFI INIT 16c70 15e .cfa: $rsp 8 + .ra: .cfa -8 + ^
STACK CFI 16c72 $r15: .cfa -16 + ^ .cfa: $rsp 16 +
STACK CFI 16c74 $r14: .cfa -24 + ^ .cfa: $rsp 24 +
STACK CFI 16c79 $r13: .cfa -32 + ^ .cfa: $rsp 32 +
STACK CFI 16c7b $r12: .cfa -40 + ^ .cfa: $rsp 40 +
STACK CFI 16c7e $rbp: .cfa -48 + ^ .cfa: $rsp 48 +
STACK CFI 16c7f $rbx: .cfa -56 + ^ .cfa: $rsp 56 +
STACK CFI 16c89 .cfa: $rsp 80 +
STACK CFI 16d85 .cfa: $rsp 56 +
STACK CFI 16d86 .cfa: $rsp 48 +
STACK CFI 16d87 .cfa: $rsp 40 +
STACK CFI 16d89 .cfa: $rsp 32 +
STACK CFI 16d8b .cfa: $rsp 24 +
STACK CFI 16d8d .cfa: $rsp 16 +
STACK CFI 16d8f .cfa: $rsp 8 +
STACK CFI 16d90 .cfa: $rsp 80 +
STACK CFI INIT 16dd0 cc5 .cfa: $rsp 8 + .ra: .cfa -8 + ^
STACK CFI 16dd2 $r15: .cfa -16 + ^ .cfa: $rsp 16 +
STACK CFI 16dd4 $r14: .cfa -24 + ^ .cfa: $rsp 24 +
STACK CFI 16dd6 $r13: .cfa -32 + ^ .cfa: $rsp 32 +
STACK CFI 16dd8 $r12: .cfa -40 + ^ .cfa: $rsp 40 +
STACK CFI 16dd9 $rbp: .cfa -48 + ^ .cfa: $rsp 48 +
STACK CFI 16dda $rbx: .cfa -56 + ^ .cfa: $rsp 56 +
STACK CFI 16de1 .cfa: $rsp 304 +
STACK CFI 16e32 .cfa: $rsp 56 +
STACK CFI 16e33 .cfa: $rsp 48 +
STACK CFI 16e34 .cfa: $rsp 40 +
STACK CFI 16e36 .cfa: $rsp 32 +
STACK CFI 16e38 .cfa: $rsp 24 +
STACK CFI 16e3a .cfa: $rsp 16 +
STACK CFI 16e3c .cfa: $rsp 8 +
STACK CFI 16e40 .cfa: $rsp 304 +
STACK CFI INIT 17aa0 71f .cfa: $rsp 8 + .ra: .cfa -8 + ^
STACK CFI 17aa2 $r15: .cfa -16 + ^ .cfa: $rsp 16 +
STACK CFI 17aa4 $r14: .cfa -24 + ^ .cfa: $rsp 24 +
STACK CFI 17aa9 $r13: .cfa -32 + ^ .cfa: $rsp 32 +
STACK CFI 17aab $r12: .cfa -40 + ^ .cfa: $rsp 40 +
STACK CFI 17aaf $rbp: .cfa -48 + ^ .cfa: $rsp 48 +
STACK CFI 17ab0 $rbx: .cfa -56 + ^ .cfa: $rsp 56 +
STACK CFI 17ac4 .cfa: $rsp 176 +
STACK CFI 17bbf .cfa: $rsp 56 +
STACK CFI 17bc0 .cfa: $rsp 48 +
STACK CFI 17bc1 .cfa: $rsp 40 +
STACK CFI 17bc3 .cfa: $rsp 32 +
STACK CFI 17bc5 .cfa: $rsp 24 +
STACK CFI 17bc7 .cfa: $rsp 16 +
STACK CFI 17bc9 .cfa: $rsp 8 +
STACK CFI 17bd0 .cfa: $rsp 176 +
STACK CFI INIT 181c0 4b9 .cfa: $rsp 8 + .ra: .cfa -8 + ^
STACK CFI 181c2 $r15: .cfa -16 + ^ .cfa: $rsp 16 +
STACK CFI 181c4 $r14: .cfa -24 + ^ .cfa: $rsp 24 +
STACK CFI 181c9 $r13: .cfa -32 + ^ .cfa: $rsp 32 +
STACK CFI 181cb $r12: .cfa -40 + ^ .cfa: $rsp 40 +
STACK CFI 181cf $rbp: .cfa -48 + ^ .cfa: $rsp 48 +
STACK CFI 181d0 $rbx: .cfa -56 + ^ .cfa: $rsp 56 +
STACK CFI 181da .cfa: $rsp 544 +
STACK CFI 18576 .cfa: $rsp 56 +
STACK CFI 18577 .cfa: $rsp 48 +
STACK CFI 18578 .cfa: $rsp 40 +
STACK CFI 1857a .cfa: $rsp 32 +
STACK CFI 1857c .cfa: $rsp 24 +
STACK CFI 1857e .cfa: $rsp 16 +
STACK CFI 18580 .cfa: $rsp 8 +
STACK CFI 18588 .cfa: $rsp 544 +
STACK CFI INIT 18680 15e .cfa: $rsp 8 + .ra: .cfa -8 + ^
STACK CFI 18682 $r15: .cfa -16 + ^ .cfa: $rsp 16 +
STACK CFI 18684 $r14: .cfa -24 + ^ .cfa: $rsp 24 +
STACK CFI 18689 $r13: .cfa -32 + ^ .cfa: $rsp 32 +
STACK CFI 1868b $r12: .cfa -40 + ^ .cfa: $rsp 40 +
STACK CFI 1868e $rbp: .cfa -48 + ^ .cfa: $rsp 48 +
STACK CFI 1868f $rbx: .cfa -56 + ^ .cfa: $rsp 56 +
STACK CFI 18699 .cfa: $rsp 80 +
STACK CFI 18795 .cfa: $rsp 56 +
STACK CFI 18796 .cfa: $rsp 48 +
STACK CFI 18797 .cfa: $rsp 40 +
STACK CFI 18799 .cfa: $rsp 32 +
STACK CFI 1879b .cfa: $rsp 24 +
STACK CFI 1879d .cfa: $rsp 16 +
STACK CFI 1879f .cfa: $rsp 8 +
STACK CFI 187a0 .cfa: $rsp 80 +
STACK CFI INIT 187e0 cd7 .cfa: $rsp 8 + .ra: .cfa -8 + ^
STACK CFI 187e2 $r15: .cfa -16 + ^ .cfa: $rsp 16 +
STACK CFI 187e4 $r14: .cfa -24 + ^ .cfa: $rsp 24 +
STACK CFI 187e6 $r13: .cfa -32 + ^ .cfa: $rsp 32 +
STACK CFI 187e8 $r12: .cfa -40 + ^ .cfa: $rsp 40 +
STACK CFI 187e9 $rbp: .cfa -48 + ^ .cfa: $rsp 48 +
STACK CFI 187ea $rbx: .cfa -56 + ^ .cfa: $rsp 56 +
STACK CFI 187f1 .cfa: $rsp 320 +
STACK CFI 18842 .cfa: $rsp 56 +
STACK CFI 18843 .cfa: $rsp 48 +
STACK CFI 18844 .cfa: $rsp 40 +
STACK CFI 18846 .cfa: $rsp 32 +
STACK CFI 18848 .cfa: $rsp 24 +
STACK CFI 1884a .cfa: $rsp 16 +
STACK CFI 1884c .cfa: $rsp 8 +
STACK CFI 18850 .cfa: $rsp 320 +
STACK CFI INIT 6be0 2e .cfa: $rsp 8 + .ra: .cfa -8 + ^
STACK CFI 6beb .cfa: $rsp 16 +
STACK CFI 6c09 .cfa: $rsp 8 +
STACK CFI INIT 194c0 3e .cfa: $rsp 8 + .ra: .cfa -8 + ^
STACK CFI INIT 19500 26 .cfa: $rsp 8 + .ra: .cfa -8 + ^
STACK CFI 19514 .cfa: $rsp 16 +
STACK CFI 19521 .cfa: $rsp 8 +
STACK CFI INIT 19530 4ae .cfa: $rsp 8 + .ra: .cfa -8 + ^
STACK CFI 19532 $r13: .cfa -16 + ^ .cfa: $rsp 16 +
STACK CFI 19534 $r12: .cfa -24 + ^ .cfa: $rsp 24 +
STACK CFI 19535 $rbp: .cfa -32 + ^ .cfa: $rsp 32 +
STACK CFI 19536 $rbx: .cfa -40 + ^ .cfa: $rsp 40 +
STACK CFI 1953d .cfa: $rsp 48 +
STACK CFI 1955b .cfa: $rsp 40 +
STACK CFI 1955e .cfa: $rsp 32 +
STACK CFI 1955f .cfa: $rsp 24 +
STACK CFI 19561 .cfa: $rsp 16 +
STACK CFI 19563 .cfa: $rsp 8 +
STACK CFI 19568 .cfa: $rsp 48 +
STACK CFI INIT 199e0 63 .cfa: $rsp 8 + .ra: .cfa -8 + ^
STACK CFI 199e1 $rbp: .cfa -16 + ^ .cfa: $rsp 16 +
STACK CFI 199e2 $rbx: .cfa -24 + ^ .cfa: $rsp 24 +
STACK CFI 199e6 .cfa: $rsp 32 +
STACK CFI 199f4 .cfa: $rsp 24 +
STACK CFI 199f7 .cfa: $rsp 16 +
STACK CFI 199f8 .cfa: $rsp 8 +
STACK CFI 19a00 .cfa: $rsp 32 +
STACK CFI INIT 19a50 63 .cfa: $rsp 8 + .ra: .cfa -8 + ^
STACK CFI 19a51 $rbp: .cfa -16 + ^ .cfa: $rsp 16 +
STACK CFI 19a52 $rbx: .cfa -24 + ^ .cfa: $rsp 24 +
STACK CFI 19a56 .cfa: $rsp 32 +
STACK CFI 19a64 .cfa: $rsp 24 +
STACK CFI 19a67 .cfa: $rsp 16 +
STACK CFI 19a68 .cfa: $rsp 8 +
STACK CFI 19a70 .cfa: $rsp 32 +
STACK CFI INIT 19ac0 2c .cfa: $rsp 8 + .ra: .cfa -8 + ^
STACK CFI 19ac1 $rbx: .cfa -16 + ^ .cfa: $rsp 16 +
STACK CFI 19aeb .cfa: $rsp 8 +
STACK CFI INIT 19af0 f .cfa: $rsp 8 + .ra: .cfa -8 + ^
STACK CFI INIT 19b00 4 .cfa: $rsp 8 + .ra: .cfa -8 + ^
STACK CFI INIT 19b10 9d .cfa: $rsp 8 + .ra: .cfa -8 + ^
STACK CFI 19b11 $rbp: .cfa -16 + ^ .cfa: $rsp 16 +
STACK CFI 19b12 $rbx: .cfa -24 + ^ .cfa: $rsp 24 +
STACK CFI 19b19 .cfa: $rsp 48 +
STACK CFI 19b4d .cfa: $rsp 24 +
STACK CFI 19b4e .cfa: $rsp 16 +
STACK CFI 19b4f .cfa: $rsp 8 +
STACK CFI 19b50 .cfa: $rsp 48 +
STACK CFI INIT 19bb0 9d .cfa: $rsp 8 + .ra: .cfa -8 + ^
STACK CFI 19bb1 $rbp: .cfa -16 + ^ .cfa: $rsp 16 +
STACK CFI 19bb2 $rbx: .cfa -24 + ^ .cfa: $rsp 24 +
STACK CFI 19bb9 .cfa: $rsp 48 +
STACK CFI 19bed .cfa: $rsp 24 +
STACK CFI 19bee .cfa: $rsp 16 +
STACK CFI 19bef .cfa: $rsp 8 +
STACK CFI 19bf0 .cfa: $rsp 48 +
STACK CFI INIT 19c50 9d .cfa: $rsp 8 + .ra: .cfa -8 + ^
STACK CFI 19c51 $rbp: .cfa -16 + ^ .cfa: $rsp 16 +
STACK CFI 19c52 $rbx: .cfa -24 + ^ .cfa: $rsp 24 +
STACK CFI 19c59 .cfa: $rsp 48 +
STACK CFI 19c8d .cfa: $rsp 24 +
STACK CFI 19c8e .cfa: $rsp 16 +
STACK CFI 19c8f .cfa: $rsp 8 +
STACK CFI 19c90 .cfa: $rsp 48 +
STACK CFI INIT 19cf0 9d .cfa: $rsp 8 + .ra: .cfa -8 + ^
STACK CFI 19cf1 $rbp: .cfa -16 + ^ .cfa: $rsp 16 +
STACK CFI 19cf2 $rbx: .cfa -24 + ^ .cfa: $rsp 24 +
STACK CFI 19cf9 .cfa: $rsp 48 +
STACK CFI 19d2d .cfa: $rsp 24 +
STACK CFI 19d2e .cfa: $rsp 16 +
STACK CFI 19d2f .cfa: $rsp 8 +
STACK CFI 19d30 .cfa: $rsp 48 +
STACK CFI INIT 19d90 9d .cfa: $rsp 8 + .ra: .cfa -8 + ^
STACK CFI 19d91 $rbp: .cfa -16 + ^ .cfa: $rsp 16 +
STACK CFI 19d92 $rbx: .cfa -24 + ^ .cfa: $rsp 24 +
STACK CFI 19d99 .cfa: $rsp 48 +
STACK CFI 19dcd .cfa: $rsp 24 +
STACK CFI 19dce .cfa: $rsp 16 +
STACK CFI 19dcf .cfa: $rsp 8 +
STACK CFI 19dd0 .cfa: $rsp 48 +
STACK CFI INIT 19e30 9d .cfa: $rsp 8 + .ra: .cfa -8 + ^
STACK CFI 19e31 $rbp: .cfa -16 + ^ .cfa: $rsp 16 +
STACK CFI 19e32 $rbx: .cfa -24 + ^ .cfa: $rsp 24 +
STACK CFI 19e39 .cfa: $rsp 48 +
STACK CFI 19e6d .cfa: $rsp 24 +
STACK CFI 19e6e .cfa: $rsp 16 +
STACK CFI 19e6f .cfa: $rsp 8 +
STACK CFI 19e70 .cfa: $rsp 48 +
STACK CFI INIT 19ed0 9d .cfa: $rsp 8 + .ra: .cfa -8 + ^
STACK CFI 19ed1 $rbp: .cfa -16 + ^ .cfa: $rsp 16 +
STACK CFI 19ed2 $rbx: .cfa -24 + ^ .cfa: $rsp 24 +
STACK CFI 19ed9 .cfa: $rsp 48 +
STACK CFI 19f0d .cfa: $rsp 24 +
STACK CFI 19f0e .cfa: $rsp 16 +
STACK CFI 19f0f .cfa: $rsp 8 +
STACK CFI 19f10 .cfa: $rsp 48 +
STACK CFI INIT 19f70 ad .cfa: $rsp 8 + .ra: .cfa -8 + ^
STACK CFI 19f71 $rbp: .cfa -16 + ^ .cfa: $rsp 16 +
STACK CFI 19f72 $rbx: .cfa -24 + ^ .cfa: $rsp 24 +
STACK CFI 19f79 .cfa: $rsp 48 +
STACK CFI 19fbc .cfa: $rsp 24 +
STACK CFI 19fbd .cfa: $rsp 16 +
STACK CFI 19fbe .cfa: $rsp 8 +
STACK CFI 19fc0 .cfa: $rsp 48 +
STACK CFI INIT 1a020 28f .cfa: $rsp 8 + .ra: .cfa -8 + ^
STACK CFI 1a022 $r13: .cfa -16 + ^ .cfa: $rsp 16 +
STACK CFI 1a024 $r12: .cfa -24 + ^ .cfa: $rsp 24 +
STACK CFI 1a028 $rbp: .cfa -32 + ^ .cfa: $rsp 32 +
STACK CFI 1a029 $rbx: .cfa -40 + ^ .cfa: $rsp 40 +
STACK CFI 1a030 .cfa: $rsp 64 +
STACK CFI 1a0b6 .cfa: $rsp 40 +
STACK CFI 1a0b7 .cfa: $rsp 32 +
STACK CFI 1a0b8 .cfa: $rsp 24 +
STACK CFI 1a0ba .cfa: $rsp 16 +
STACK CFI 1a0bc .cfa: $rsp 8 +
STACK CFI 1a0c0 .cfa: $rsp 64 +
STACK CFI INIT 1a2b0 28f .cfa: $rsp 8 + .ra: .cfa -8 + ^
STACK CFI 1a2b2 $r13: .cfa -16 + ^ .cfa: $rsp 16 +
STACK CFI 1a2b4 $r12: .cfa -24 + ^ .cfa: $rsp 24 +
STACK CFI 1a2b8 $rbp: .cfa -32 + ^ .cfa: $rsp 32 +
STACK CFI 1a2b9 $rbx: .cfa -40 + ^ .cfa: $rsp 40 +
STACK CFI 1a2c0 .cfa: $rsp 64 +
STACK CFI 1a346 .cfa: $rsp 40 +
STACK CFI 1a347 .cfa: $rsp 32 +
STACK CFI 1a348 .cfa: $rsp 24 +
STACK CFI 1a34a .cfa: $rsp 16 +
STACK CFI 1a34c .cfa: $rsp 8 +
STACK CFI 1a350 .cfa: $rsp 64 +
STACK CFI INIT 1a540 4 .cfa: $rsp 8 + .ra: .cfa -8 + ^
STACK CFI INIT 1a550 5 .cfa: $rsp 8 + .ra: .cfa -8 + ^
STACK CFI INIT 1a560 5 .cfa: $rsp 8 + .ra: .cfa -8 + ^
STACK CFI INIT 1a570 5 .cfa: $rsp 8 + .ra: .cfa -8 + ^
STACK CFI INIT 1a580 5 .cfa: $rsp 8 + .ra: .cfa -8 + ^
STACK CFI INIT 1a590 5 .cfa: $rsp 8 + .ra: .cfa -8 + ^
STACK CFI INIT 1a5a0 5 .cfa: $rsp 8 + .ra: .cfa -8 + ^
STACK CFI INIT 1a5b0 5 .cfa: $rsp 8 + .ra: .cfa -8 + ^
STACK CFI INIT 1a5c0 5 .cfa: $rsp 8 + .ra: .cfa -8 + ^
STACK CFI INIT 1a5d0 11b .cfa: $rsp 8 + .ra: .cfa -8 + ^
STACK CFI 1a5d1 $rbx: .cfa -16 + ^ .cfa: $rsp 16 +
STACK CFI 1a65d .cfa: $rsp 8 +
STACK CFI 1a660 .cfa: $rsp 16 +
STACK CFI INIT 1a6f0 13 .cfa: $rsp 8 + .ra: .cfa -8 + ^
STACK CFI INIT 1a710 17 .cfa: $rsp 8 + .ra: .cfa -8 + ^
STACK CFI 1a711 $rbx: .cfa -16 + ^ .cfa: $rsp 16 +
STACK CFI 1a722 .cfa: $rsp 8 +
STACK CFI INIT 1a730 116a .cfa: $rsp 8 + .ra: .cfa -8 + ^
STACK CFI 1a732 $r13: .cfa -16 + ^ .cfa: $rsp 16 +
STACK CFI 1a734 $r12: .cfa -24 + ^ .cfa: $rsp 24 +
STACK CFI 1a735 $rbp: .cfa -32 + ^ .cfa: $rsp 32 +
STACK CFI 1a736 $rbx: .cfa -40 + ^ .cfa: $rsp 40 +
STACK CFI 1a73d .cfa: $rsp 208 +
STACK CFI 1a7b8 .cfa: $rsp 40 +
STACK CFI 1a7b9 .cfa: $rsp 32 +
STACK CFI 1a7ba .cfa: $rsp 24 +
STACK CFI 1a7bc .cfa: $rsp 16 +
STACK CFI 1a7be .cfa: $rsp 8 +
STACK CFI 1a7c0 .cfa: $rsp 208 +
STACK CFI INIT 6c10 2e .cfa: $rsp 8 + .ra: .cfa -8 + ^
STACK CFI 6c1b .cfa: $rsp 16 +
STACK CFI 6c39 .cfa: $rsp 8 +
STACK CFI INIT 1b8a0 4 .cfa: $rsp 8 + .ra: .cfa -8 + ^
STACK CFI INIT 1bf40 3 .cfa: $rsp 8 + .ra: .cfa -8 + ^
STACK CFI INIT 1b8b0 2d8 .cfa: $rsp 8 + .ra: .cfa -8 + ^
STACK CFI 1b8b2 $r15: .cfa -16 + ^ .cfa: $rsp 16 +
STACK CFI 1b8b4 $r14: .cfa -24 + ^ .cfa: $rsp 24 +
STACK CFI 1b8b9 $r13: .cfa -32 + ^ .cfa: $rsp 32 +
STACK CFI 1b8bb $r12: .cfa -40 + ^ .cfa: $rsp 40 +
STACK CFI 1b8bf $rbp: .cfa -48 + ^ .cfa: $rsp 48 +
STACK CFI 1b8c0 $rbx: .cfa -56 + ^ .cfa: $rsp 56 +
STACK CFI 1b8cd .cfa: $rsp 256 +
STACK CFI 1bacd .cfa: $rsp 56 +
STACK CFI 1bace .cfa: $rsp 48 +
STACK CFI 1bacf .cfa: $rsp 40 +
STACK CFI 1bad1 .cfa: $rsp 32 +
STACK CFI 1bad3 .cfa: $rsp 24 +
STACK CFI 1bad5 .cfa: $rsp 16 +
STACK CFI 1bad7 .cfa: $rsp 8 +
STACK CFI 1bae0 .cfa: $rsp 256 +
STACK CFI INIT 1bb90 6c .cfa: $rsp 8 + .ra: .cfa -8 + ^
STACK CFI 1bb91 $rbp: .cfa -16 + ^ .cfa: $rsp 16 +
STACK CFI 1bb92 $rbx: .cfa -24 + ^ .cfa: $rsp 24 +
STACK CFI 1bb96 .cfa: $rsp 32 +
STACK CFI 1bbc4 .cfa: $rsp 24 +
STACK CFI 1bbc8 .cfa: $rsp 16 +
STACK CFI 1bbc9 .cfa: $rsp 8 +
STACK CFI 1bbd0 .cfa: $rsp 32 +
STACK CFI INIT 1bc00 dc .cfa: $rsp 8 + .ra: .cfa -8 + ^
STACK CFI 1bc02 $r13: .cfa -16 + ^ .cfa: $rsp 16 +
STACK CFI 1bc04 $r12: .cfa -24 + ^ .cfa: $rsp 24 +
STACK CFI 1bc0c $rbp: .cfa -32 + ^ .cfa: $rsp 32 +
STACK CFI 1bc0d $rbx: .cfa -40 + ^ .cfa: $rsp 40 +
STACK CFI 1bc20 .cfa: $rsp 80 +
STACK CFI 1bc8d .cfa: $rsp 40 +
STACK CFI 1bc8e .cfa: $rsp 32 +
STACK CFI 1bc8f .cfa: $rsp 24 +
STACK CFI 1bc91 .cfa: $rsp 16 +
STACK CFI 1bc93 .cfa: $rsp 8 +
STACK CFI 1bc98 .cfa: $rsp 80 +
STACK CFI INIT 1bce0 110 .cfa: $rsp 8 + .ra: .cfa -8 + ^
STACK CFI 1bce2 $r12: .cfa -16 + ^ .cfa: $rsp 16 +
STACK CFI 1bce3 $rbp: .cfa -24 + ^ .cfa: $rsp 24 +
STACK CFI 1bceb $rbx: .cfa -32 + ^ .cfa: $rsp 32 +
STACK CFI 1bd04 .cfa: $rsp 80 +
STACK CFI 1bd9e .cfa: $rsp 32 +
STACK CFI 1bd9f .cfa: $rsp 24 +
STACK CFI 1bda0 .cfa: $rsp 16 +
STACK CFI 1bda2 .cfa: $rsp 8 +
STACK CFI 1bda8 .cfa: $rsp 80 +
STACK CFI INIT 1bdf0 110 .cfa: $rsp 8 + .ra: .cfa -8 + ^
STACK CFI 1bdf2 $r12: .cfa -16 + ^ .cfa: $rsp 16 +
STACK CFI 1bdf3 $rbp: .cfa -24 + ^ .cfa: $rsp 24 +
STACK CFI 1bdfb $rbx: .cfa -32 + ^ .cfa: $rsp 32 +
STACK CFI 1be14 .cfa: $rsp 80 +
STACK CFI 1beae .cfa: $rsp 32 +
STACK CFI 1beaf .cfa: $rsp 24 +
STACK CFI 1beb0 .cfa: $rsp 16 +
STACK CFI 1beb2 .cfa: $rsp 8 +
STACK CFI 1beb8 .cfa: $rsp 80 +
STACK CFI INIT 1bf00 3c .cfa: $rsp 8 + .ra: .cfa -8 + ^
STACK CFI 1bf02 $r12: .cfa -16 + ^ .cfa: $rsp 16 +
STACK CFI 1bf03 $rbp: .cfa -24 + ^ .cfa: $rsp 24 +
STACK CFI 1bf07 $rbx: .cfa -32 + ^ .cfa: $rsp 32 +
STACK CFI 1bf38 .cfa: $rsp 24 +
STACK CFI 1bf39 .cfa: $rsp 16 +
STACK CFI 1bf3b .cfa: $rsp 8 +
STACK CFI INIT 6c40 2e .cfa: $rsp 8 + .ra: .cfa -8 + ^
STACK CFI 6c4b .cfa: $rsp 16 +
STACK CFI 6c69 .cfa: $rsp 8 +
STACK CFI INIT 1f9d0 5 .cfa: $rsp 8 + .ra: .cfa -8 + ^
STACK CFI INIT 1f9e0 5 .cfa: $rsp 8 + .ra: .cfa -8 + ^
STACK CFI INIT 1f9f0 5 .cfa: $rsp 8 + .ra: .cfa -8 + ^
STACK CFI INIT 1fa00 5 .cfa: $rsp 8 + .ra: .cfa -8 + ^
STACK CFI INIT 1fa10 8 .cfa: $rsp 8 + .ra: .cfa -8 + ^
STACK CFI INIT 1bf50 5 .cfa: $rsp 8 + .ra: .cfa -8 + ^
STACK CFI INIT 1bf60 9 .cfa: $rsp 8 + .ra: .cfa -8 + ^
STACK CFI INIT 1bf70 30 .cfa: $rsp 8 + .ra: .cfa -8 + ^
STACK CFI INIT 1bfa0 3e .cfa: $rsp 8 + .ra: .cfa -8 + ^
STACK CFI INIT 1bfe0 49 .cfa: $rsp 8 + .ra: .cfa -8 + ^
STACK CFI INIT 1c030 4f .cfa: $rsp 8 + .ra: .cfa -8 + ^
STACK CFI INIT 1c080 2 .cfa: $rsp 8 + .ra: .cfa -8 + ^
STACK CFI INIT 1fa20 82 .cfa: $rsp 8 + .ra: .cfa -8 + ^
STACK CFI 1fa28 $rbx: .cfa -16 + ^ .cfa: $rsp 16 +
STACK CFI 1fa94 .cfa: $rsp 8 +
STACK CFI 1faa0 .cfa: $rsp 16 +
STACK CFI 1faa1 .cfa: $rsp 8 +
STACK CFI INIT 1c090 2c .cfa: $rsp 8 + .ra: .cfa -8 + ^
STACK CFI 1c091 $rbp: .cfa -16 + ^ .cfa: $rsp 16 +
STACK CFI 1c092 $rbx: .cfa -24 + ^ .cfa: $rsp 24 +
STACK CFI 1c0a1 .cfa: $rsp 32 +
STACK CFI 1c0b9 .cfa: $rsp 24 +
STACK CFI 1c0ba .cfa: $rsp 16 +
STACK CFI 1c0bb .cfa: $rsp 8 +
STACK CFI INIT 1c0c0 2c .cfa: $rsp 8 + .ra: .cfa -8 + ^
STACK CFI 1c0c1 $rbp: .cfa -16 + ^ .cfa: $rsp 16 +
STACK CFI 1c0c2 $rbx: .cfa -24 + ^ .cfa: $rsp 24 +
STACK CFI 1c0d1 .cfa: $rsp 32 +
STACK CFI 1c0e9 .cfa: $rsp 24 +
STACK CFI 1c0ea .cfa: $rsp 16 +
STACK CFI 1c0eb .cfa: $rsp 8 +
STACK CFI INIT 1c0f0 2c .cfa: $rsp 8 + .ra: .cfa -8 + ^
STACK CFI 1c0f1 $rbp: .cfa -16 + ^ .cfa: $rsp 16 +
STACK CFI 1c0f2 $rbx: .cfa -24 + ^ .cfa: $rsp 24 +
STACK CFI 1c101 .cfa: $rsp 32 +
STACK CFI 1c119 .cfa: $rsp 24 +
STACK CFI 1c11a .cfa: $rsp 16 +
STACK CFI 1c11b .cfa: $rsp 8 +
STACK CFI INIT 1c120 2c .cfa: $rsp 8 + .ra: .cfa -8 + ^
STACK CFI 1c121 $rbp: .cfa -16 + ^ .cfa: $rsp 16 +
STACK CFI 1c122 $rbx: .cfa -24 + ^ .cfa: $rsp 24 +
STACK CFI 1c131 .cfa: $rsp 32 +
STACK CFI 1c149 .cfa: $rsp 24 +
STACK CFI 1c14a .cfa: $rsp 16 +
STACK CFI 1c14b .cfa: $rsp 8 +
STACK CFI INIT 1c150 2c .cfa: $rsp 8 + .ra: .cfa -8 + ^
STACK CFI 1c151 $rbp: .cfa -16 + ^ .cfa: $rsp 16 +
STACK CFI 1c152 $rbx: .cfa -24 + ^ .cfa: $rsp 24 +
STACK CFI 1c161 .cfa: $rsp 32 +
STACK CFI 1c179 .cfa: $rsp 24 +
STACK CFI 1c17a .cfa: $rsp 16 +
STACK CFI 1c17b .cfa: $rsp 8 +
STACK CFI INIT 1fab0 13 .cfa: $rsp 8 + .ra: .cfa -8 + ^
STACK CFI INIT 1fad0 25 .cfa: $rsp 8 + .ra: .cfa -8 + ^
STACK CFI 1fad8 $rbx: .cfa -16 + ^ .cfa: $rsp 16 +
STACK CFI 1faf0 .cfa: $rsp 8 +
STACK CFI INIT 1fb00 13 .cfa: $rsp 8 + .ra: .cfa -8 + ^
STACK CFI INIT 1fb20 25 .cfa: $rsp 8 + .ra: .cfa -8 + ^
STACK CFI 1fb28 $rbx: .cfa -16 + ^ .cfa: $rsp 16 +
STACK CFI 1fb40 .cfa: $rsp 8 +
STACK CFI INIT 68be f .cfa: $rsp 8 + .ra: .cfa -8 + ^
STACK CFI INIT 1c180 c8 .cfa: $rsp 8 + .ra: .cfa -8 + ^
STACK CFI 1c182 $r12: .cfa -16 + ^ .cfa: $rsp 16 +
STACK CFI 1c183 $rbp: .cfa -24 + ^ .cfa: $rsp 24 +
STACK CFI 1c187 $rbx: .cfa -32 + ^ .cfa: $rsp 32 +
STACK CFI 1c18e .cfa: $rsp 48 +
STACK CFI 1c1f4 .cfa: $rsp 32 +
STACK CFI 1c1f5 .cfa: $rsp 24 +
STACK CFI 1c1f6 .cfa: $rsp 16 +
STACK CFI 1c1f8 .cfa: $rsp 8 +
STACK CFI 1c200 .cfa: $rsp 48 +
STACK CFI INIT 1fb50 23 .cfa: $rsp 8 + .ra: .cfa -8 + ^
STACK CFI 1fb55 $rbx: .cfa -16 + ^ .cfa: $rsp 16 +
STACK CFI 1fb72 .cfa: $rsp 8 +
STACK CFI INIT 1fb80 29 .cfa: $rsp 8 + .ra: .cfa -8 + ^
STACK CFI 1fb85 $rbx: .cfa -16 + ^ .cfa: $rsp 16 +
STACK CFI 1fba8 .cfa: $rsp 8 +
STACK CFI INIT 1fbb0 29 .cfa: $rsp 8 + .ra: .cfa -8 + ^
STACK CFI 1fbb5 $rbx: .cfa -16 + ^ .cfa: $rsp 16 +
STACK CFI 1fbd8 .cfa: $rsp 8 +
STACK CFI INIT 1fbe0 23 .cfa: $rsp 8 + .ra: .cfa -8 + ^
STACK CFI 1fbe5 $rbx: .cfa -16 + ^ .cfa: $rsp 16 +
STACK CFI 1fc02 .cfa: $rsp 8 +
STACK CFI INIT 1fc10 23 .cfa: $rsp 8 + .ra: .cfa -8 + ^
STACK CFI 1fc15 $rbx: .cfa -16 + ^ .cfa: $rsp 16 +
STACK CFI 1fc32 .cfa: $rsp 8 +
STACK CFI INIT 1fc40 310 .cfa: $rsp 8 + .ra: .cfa -8 + ^
STACK CFI 1fc41 $rbp: .cfa -16 + ^ .cfa: $rsp 16 +
STACK CFI 1fc42 $rbx: .cfa -24 + ^ .cfa: $rsp 24 +
STACK CFI 1fc4e .cfa: $rsp 48 +
STACK CFI 1fe06 .cfa: $rsp 24 +
STACK CFI 1fe07 .cfa: $rsp 16 +
STACK CFI 1fe08 .cfa: $rsp 8 +
STACK CFI 1fe10 .cfa: $rsp 48 +
STACK CFI INIT 1ff50 86 .cfa: $rsp 8 + .ra: .cfa -8 + ^
STACK CFI 1ff58 $rbx: .cfa -16 + ^ .cfa: $rsp 16 +
STACK CFI 1ffd1 .cfa: $rsp 8 +
STACK CFI INIT 1c250 af .cfa: $rsp 8 + .ra: .cfa -8 + ^
STACK CFI 1c252 $r12: .cfa -16 + ^ .cfa: $rsp 16 +
STACK CFI 1c253 $rbp: .cfa -24 + ^ .cfa: $rsp 24 +
STACK CFI 1c254 $rbx: .cfa -32 + ^ .cfa: $rsp 32 +
STACK CFI 1c2ba .cfa: $rsp 24 +
STACK CFI 1c2bb .cfa: $rsp 16 +
STACK CFI 1c2bd .cfa: $rsp 8 +
STACK CFI 1c2c0 .cfa: $rsp 32 +
STACK CFI INIT 1c300 5 .cfa: $rsp 8 + .ra: .cfa -8 + ^
STACK CFI INIT 1c310 2f .cfa: $rsp 8 + .ra: .cfa -8 + ^
STACK CFI INIT 1c340 153 .cfa: $rsp 8 + .ra: .cfa -8 + ^
STACK CFI 1c353 $r13: .cfa -16 + ^ .cfa: $rsp 16 +
STACK CFI 1c355 $r12: .cfa -24 + ^ .cfa: $rsp 24 +
STACK CFI 1c356 $rbp: .cfa -32 + ^ .cfa: $rsp 32 +
STACK CFI 1c357 $rbx: .cfa -40 + ^ .cfa: $rsp 40 +
STACK CFI 1c361 .cfa: $rsp 48 +
STACK CFI 1c39e .cfa: $rsp 40 +
STACK CFI 1c39f .cfa: $rsp 32 +
STACK CFI 1c3a0 .cfa: $rsp 24 +
STACK CFI 1c3a2 .cfa: $rsp 16 +
STACK CFI 1c3a4 .cfa: $rsp 8 +
STACK CFI 1c3a8 .cfa: $rsp 48 +
STACK CFI 1c3db .cfa: $rsp 40 +
STACK CFI 1c3dc .cfa: $rsp 32 +
STACK CFI 1c3dd .cfa: $rsp 24 +
STACK CFI 1c3df .cfa: $rsp 16 +
STACK CFI 1c3e1 .cfa: $rsp 8 +
STACK CFI 1c3e8 $r12: $r12 $r13: $r13 $rbp: $rbp $rbx: $rbx
STACK CFI 1c3f0 $r12: .cfa -24 + ^ $r13: .cfa -16 + ^ $rbp: .cfa -32 + ^ $rbx: .cfa -40 + ^ .cfa: $rsp 48 +
STACK CFI 1c40a .cfa: $rsp 40 +
STACK CFI 1c40b .cfa: $rsp 32 +
STACK CFI 1c40c .cfa: $rsp 24 +
STACK CFI 1c40e .cfa: $rsp 16 +
STACK CFI 1c410 .cfa: $rsp 8 +
STACK CFI 1c418 .cfa: $rsp 48 +
STACK CFI INIT 1ffe0 ca .cfa: $rsp 8 + .ra: .cfa -8 + ^
STACK CFI 1ffe1 $rbx: .cfa -16 + ^ .cfa: $rsp 16 +
STACK CFI 2009d .cfa: $rsp 8 +
STACK CFI 200a8 .cfa: $rsp 16 +
STACK CFI 200a9 .cfa: $rsp 8 +
STACK CFI INIT 1c4a0 2fd .cfa: $rsp 8 + .ra: .cfa -8 + ^
STACK CFI 1c4a2 $r15: .cfa -16 + ^ .cfa: $rsp 16 +
STACK CFI 1c4a4 $r14: .cfa -24 + ^ .cfa: $rsp 24 +
STACK CFI 1c4a9 $r13: .cfa -32 + ^ .cfa: $rsp 32 +
STACK CFI 1c4ab $r12: .cfa -40 + ^ .cfa: $rsp 40 +
STACK CFI 1c4ac $rbp: .cfa -48 + ^ .cfa: $rsp 48 +
STACK CFI 1c4ad $rbx: .cfa -56 + ^ .cfa: $rsp 56 +
STACK CFI 1c4b4 .cfa: $rsp 480 +
STACK CFI 1c6ff .cfa: $rsp 56 +
STACK CFI 1c700 .cfa: $rsp 48 +
STACK CFI 1c701 .cfa: $rsp 40 +
STACK CFI 1c703 .cfa: $rsp 32 +
STACK CFI 1c705 .cfa: $rsp 24 +
STACK CFI 1c707 .cfa: $rsp 16 +
STACK CFI 1c709 .cfa: $rsp 8 +
STACK CFI 1c70a .cfa: $rsp 480 +
STACK CFI INIT 1c7a0 2fd .cfa: $rsp 8 + .ra: .cfa -8 + ^
STACK CFI 1c7a2 $r15: .cfa -16 + ^ .cfa: $rsp 16 +
STACK CFI 1c7a4 $r14: .cfa -24 + ^ .cfa: $rsp 24 +
STACK CFI 1c7a9 $r13: .cfa -32 + ^ .cfa: $rsp 32 +
STACK CFI 1c7ab $r12: .cfa -40 + ^ .cfa: $rsp 40 +
STACK CFI 1c7ac $rbp: .cfa -48 + ^ .cfa: $rsp 48 +
STACK CFI 1c7ad $rbx: .cfa -56 + ^ .cfa: $rsp 56 +
STACK CFI 1c7b4 .cfa: $rsp 480 +
STACK CFI 1c9ff .cfa: $rsp 56 +
STACK CFI 1ca00 .cfa: $rsp 48 +
STACK CFI 1ca01 .cfa: $rsp 40 +
STACK CFI 1ca03 .cfa: $rsp 32 +
STACK CFI 1ca05 .cfa: $rsp 24 +
STACK CFI 1ca07 .cfa: $rsp 16 +
STACK CFI 1ca09 .cfa: $rsp 8 +
STACK CFI 1ca0a .cfa: $rsp 480 +
STACK CFI INIT 1caa0 26c .cfa: $rsp 8 + .ra: .cfa -8 + ^
STACK CFI 1caa2 $r15: .cfa -16 + ^ .cfa: $rsp 16 +
STACK CFI 1caa4 $r14: .cfa -24 + ^ .cfa: $rsp 24 +
STACK CFI 1caa6 $r13: .cfa -32 + ^ .cfa: $rsp 32 +
STACK CFI 1caa8 $r12: .cfa -40 + ^ .cfa: $rsp 40 +
STACK CFI 1caac $rbp: .cfa -48 + ^ .cfa: $rsp 48 +
STACK CFI 1caad $rbx: .cfa -56 + ^ .cfa: $rsp 56 +
STACK CFI 1cab1 .cfa: $rsp 144 +
STACK CFI 1cc4b .cfa: $rsp 56 +
STACK CFI 1cc4c .cfa: $rsp 48 +
STACK CFI 1cc4d .cfa: $rsp 40 +
STACK CFI 1cc4f .cfa: $rsp 32 +
STACK CFI 1cc51 .cfa: $rsp 24 +
STACK CFI 1cc53 .cfa: $rsp 16 +
STACK CFI 1cc55 .cfa: $rsp 8 +
STACK CFI 1cc60 .cfa: $rsp 144 +
STACK CFI INIT 200b0 274 .cfa: $rsp 8 + .ra: .cfa -8 + ^
STACK CFI 200bb $r15: .cfa -16 + ^ .cfa: $rsp 16 +
STACK CFI 200bd $r14: .cfa -24 + ^ .cfa: $rsp 24 +
STACK CFI 200bf $r13: .cfa -32 + ^ .cfa: $rsp 32 +
STACK CFI 200c1 $r12: .cfa -40 + ^ .cfa: $rsp 40 +
STACK CFI 200c5 $rbp: .cfa -48 + ^ .cfa: $rsp 48 +
STACK CFI 200c6 $rbx: .cfa -56 + ^ .cfa: $rsp 56 +
STACK CFI 200d6 .cfa: $rsp 96 +
STACK CFI 2011a .cfa: $rsp 56 +
STACK CFI 2011b .cfa: $rsp 48 +
STACK CFI 2011c .cfa: $rsp 40 +
STACK CFI 2011e .cfa: $rsp 32 +
STACK CFI 20120 .cfa: $rsp 24 +
STACK CFI 20122 .cfa: $rsp 16 +
STACK CFI 20124 .cfa: $rsp 8 +
STACK CFI 20128 .cfa: $rsp 96 +
STACK CFI 201b6 .cfa: $rsp 56 +
STACK CFI 201b7 .cfa: $rsp 48 +
STACK CFI 201b8 .cfa: $rsp 40 +
STACK CFI 201ba .cfa: $rsp 32 +
STACK CFI 201bc .cfa: $rsp 24 +
STACK CFI 201be .cfa: $rsp 16 +
STACK CFI 201c0 .cfa: $rsp 8 +
STACK CFI 201c8 .cfa: $rsp 96 +
STACK CFI 20201 .cfa: $rsp 56 +
STACK CFI 20202 $rbx: $rbx .cfa: $rsp 48 +
STACK CFI 20203 $rbp: $rbp .cfa: $rsp 40 +
STACK CFI 20205 $r12: $r12 .cfa: $rsp 32 +
STACK CFI 20207 $r13: $r13 .cfa: $rsp 24 +
STACK CFI 20209 $r14: $r14 .cfa: $rsp 16 +
STACK CFI 2020b $r15: $r15 .cfa: $rsp 8 +
STACK CFI 20218 $r12: .cfa -40 + ^ $r13: .cfa -32 + ^ $r14: .cfa -24 + ^ $r15: .cfa -16 + ^ $rbp: .cfa -48 + ^ $rbx: .cfa -56 + ^ .cfa: $rsp 96 +
STACK CFI INIT 1cd10 2ea .cfa: $rsp 8 + .ra: .cfa -8 + ^
STACK CFI 1cd12 $r14: .cfa -16 + ^ .cfa: $rsp 16 +
STACK CFI 1cd14 $r13: .cfa -24 + ^ .cfa: $rsp 24 +
STACK CFI 1cd16 $r12: .cfa -32 + ^ .cfa: $rsp 32 +
STACK CFI 1cd17 $rbp: .cfa -40 + ^ .cfa: $rsp 40 +
STACK CFI 1cd1c $rbx: .cfa -48 + ^ .cfa: $rsp 48 +
STACK CFI 1cd23 .cfa: $rsp 144 +
STACK CFI 1cde6 .cfa: $rsp 48 +
STACK CFI 1cde7 .cfa: $rsp 40 +
STACK CFI 1cde8 .cfa: $rsp 32 +
STACK CFI 1cdea .cfa: $rsp 24 +
STACK CFI 1cdec .cfa: $rsp 16 +
STACK CFI 1cdee .cfa: $rsp 8 +
STACK CFI 1cdf0 .cfa: $rsp 144 +
STACK CFI INIT 1d000 29c7 .cfa: $rsp 8 + .ra: .cfa -8 + ^
STACK CFI 1d001 $rbp: .cfa -16 + ^ .cfa: $rsp 16 +
STACK CFI 1d004 .cfa: $rbp 16 +
STACK CFI 1d00c $r12: .cfa -48 + ^ $r13: .cfa -40 + ^ $r14: .cfa -32 + ^ $r15: .cfa -24 + ^
STACK CFI 1d01a $rbx: .cfa -56 + ^
STACK CFI 1dad5 .cfa: $rsp 8 +
STACK CFI 1dae0 .cfa: $rbp 16 +
STACK CFI INIT 6c70 2e .cfa: $rsp 8 + .ra: .cfa -8 + ^
STACK CFI 6c7b .cfa: $rsp 16 +
STACK CFI 6c99 .cfa: $rsp 8 +
STACK CFI INIT 20330 2 .cfa: $rsp 8 + .ra: .cfa -8 + ^
STACK CFI INIT 20340 17 .cfa: $rsp 8 + .ra: .cfa -8 + ^
STACK CFI 20341 $rbx: .cfa -16 + ^ .cfa: $rsp 16 +
STACK CFI 20352 .cfa: $rsp 8 +
STACK CFI INIT 20360 13 .cfa: $rsp 8 + .ra: .cfa -8 + ^
STACK CFI INIT 208a0 12e .cfa: $rsp 8 + .ra: .cfa -8 + ^
STACK CFI 208a2 $r15: .cfa -16 + ^ .cfa: $rsp 16 +
STACK CFI 208a4 $r14: .cfa -24 + ^ .cfa: $rsp 24 +
STACK CFI 208a9 $r13: .cfa -32 + ^ .cfa: $rsp 32 +
STACK CFI 208ab $r12: .cfa -40 + ^ .cfa: $rsp 40 +
STACK CFI 208af $rbp: .cfa -48 + ^ .cfa: $rsp 48 +
STACK CFI 208b0 $rbx: .cfa -56 + ^ .cfa: $rsp 56 +
STACK CFI 208b7 .cfa: $rsp 80 +
STACK CFI 2097d .cfa: $rsp 56 +
STACK CFI 2097e .cfa: $rsp 48 +
STACK CFI 2097f .cfa: $rsp 40 +
STACK CFI 20981 .cfa: $rsp 32 +
STACK CFI 20983 .cfa: $rsp 24 +
STACK CFI 20985 .cfa: $rsp 16 +
STACK CFI 20987 .cfa: $rsp 8 +
STACK CFI 20990 .cfa: $rsp 80 +
STACK CFI INIT 209d0 12e .cfa: $rsp 8 + .ra: .cfa -8 + ^
STACK CFI 209d2 $r15: .cfa -16 + ^ .cfa: $rsp 16 +
STACK CFI 209d4 $r14: .cfa -24 + ^ .cfa: $rsp 24 +
STACK CFI 209d9 $r13: .cfa -32 + ^ .cfa: $rsp 32 +
STACK CFI 209db $r12: .cfa -40 + ^ .cfa: $rsp 40 +
STACK CFI 209df $rbp: .cfa -48 + ^ .cfa: $rsp 48 +
STACK CFI 209e0 $rbx: .cfa -56 + ^ .cfa: $rsp 56 +
STACK CFI 209e7 .cfa: $rsp 80 +
STACK CFI 20aad .cfa: $rsp 56 +
STACK CFI 20aae .cfa: $rsp 48 +
STACK CFI 20aaf .cfa: $rsp 40 +
STACK CFI 20ab1 .cfa: $rsp 32 +
STACK CFI 20ab3 .cfa: $rsp 24 +
STACK CFI 20ab5 .cfa: $rsp 16 +
STACK CFI 20ab7 .cfa: $rsp 8 +
STACK CFI 20ac0 .cfa: $rsp 80 +
STACK CFI INIT 20380 512 .cfa: $rsp 8 + .ra: .cfa -8 + ^
STACK CFI 20382 $r15: .cfa -16 + ^ .cfa: $rsp 16 +
STACK CFI 20384 $r14: .cfa -24 + ^ .cfa: $rsp 24 +
STACK CFI 20386 $r13: .cfa -32 + ^ .cfa: $rsp 32 +
STACK CFI 20388 $r12: .cfa -40 + ^ .cfa: $rsp 40 +
STACK CFI 2038c $rbp: .cfa -48 + ^ .cfa: $rsp 48 +
STACK CFI 2038d $rbx: .cfa -56 + ^ .cfa: $rsp 56 +
STACK CFI 2039a .cfa: $rsp 144 +
STACK CFI 20629 .cfa: $rsp 56 +
STACK CFI 2062a .cfa: $rsp 48 +
STACK CFI 2062b .cfa: $rsp 40 +
STACK CFI 2062d .cfa: $rsp 32 +
STACK CFI 2062f .cfa: $rsp 24 +
STACK CFI 20631 .cfa: $rsp 16 +
STACK CFI 20633 .cfa: $rsp 8 +
STACK CFI 20638 .cfa: $rsp 144 +
STACK CFI INIT 6ca0 2e .cfa: $rsp 8 + .ra: .cfa -8 + ^
STACK CFI 6cab .cfa: $rsp 16 +
STACK CFI 6cc9 .cfa: $rsp 8 +
STACK CFI INIT 20b00 1a4 .cfa: $rsp 8 + .ra: .cfa -8 + ^
STACK CFI 20b02 $r12: .cfa -16 + ^ .cfa: $rsp 16 +
STACK CFI 20b03 $rbp: .cfa -24 + ^ .cfa: $rsp 24 +
STACK CFI 20b07 $rbx: .cfa -32 + ^ .cfa: $rsp 32 +
STACK CFI 20b1d .cfa: $rsp 48 +
STACK CFI 20bee .cfa: $rsp 32 +
STACK CFI 20bef .cfa: $rsp 24 +
STACK CFI 20bf0 .cfa: $rsp 16 +
STACK CFI 20bf2 .cfa: $rsp 8 +
STACK CFI 20bf8 .cfa: $rsp 48 +
STACK CFI INIT 20cb0 18d .cfa: $rsp 8 + .ra: .cfa -8 + ^
STACK CFI 20cb2 $r12: .cfa -16 + ^ .cfa: $rsp 16 +
STACK CFI 20cb3 $rbp: .cfa -24 + ^ .cfa: $rsp 24 +
STACK CFI 20cb4 $rbx: .cfa -32 + ^ .cfa: $rsp 32 +
STACK CFI 20e39 .cfa: $rsp 24 +
STACK CFI 20e3a .cfa: $rsp 16 +
STACK CFI 20e3c .cfa: $rsp 8 +
STACK CFI INIT 20e40 1b5 .cfa: $rsp 8 + .ra: .cfa -8 + ^
STACK CFI 20e42 $r12: .cfa -16 + ^ .cfa: $rsp 16 +
STACK CFI 20e43 $rbp: .cfa -24 + ^ .cfa: $rsp 24 +
STACK CFI 20e47 $rbx: .cfa -32 + ^ .cfa: $rsp 32 +
STACK CFI 20fc7 .cfa: $rsp 24 +
STACK CFI 20fc8 .cfa: $rsp 16 +
STACK CFI 20fca .cfa: $rsp 8 +
STACK CFI 20fd0 .cfa: $rsp 32 +
STACK CFI 20ff1 .cfa: $rsp 24 +
STACK CFI 20ff2 .cfa: $rsp 16 +
STACK CFI 20ff4 .cfa: $rsp 8 +
STACK CFI INIT 6cd0 2e .cfa: $rsp 8 + .ra: .cfa -8 + ^
STACK CFI 6cdb .cfa: $rsp 16 +
STACK CFI 6cf9 .cfa: $rsp 8 +
STACK CFI INIT 21000 c8 .cfa: $rsp 8 + .ra: .cfa -8 + ^
STACK CFI 21002 $r12: .cfa -16 + ^ .cfa: $rsp 16 +
STACK CFI 21003 $rbp: .cfa -24 + ^ .cfa: $rsp 24 +
STACK CFI 21007 $rbx: .cfa -32 + ^ .cfa: $rsp 32 +
STACK CFI 2100e .cfa: $rsp 48 +
STACK CFI 21074 .cfa: $rsp 32 +
STACK CFI 21075 .cfa: $rsp 24 +
STACK CFI 21076 .cfa: $rsp 16 +
STACK CFI 21078 .cfa: $rsp 8 +
STACK CFI 21080 .cfa: $rsp 48 +
STACK CFI INIT 210d0 2d8 .cfa: $rsp 8 + .ra: .cfa -8 + ^
STACK CFI 210d2 $r15: .cfa -16 + ^ .cfa: $rsp 16 +
STACK CFI 210d4 $r14: .cfa -24 + ^ .cfa: $rsp 24 +
STACK CFI 210d6 $r13: .cfa -32 + ^ .cfa: $rsp 32 +
STACK CFI 210d8 $r12: .cfa -40 + ^ .cfa: $rsp 40 +
STACK CFI 210d9 $rbp: .cfa -48 + ^ .cfa: $rsp 48 +
STACK CFI 210da $rbx: .cfa -56 + ^ .cfa: $rsp 56 +
STACK CFI 210e7 .cfa: $rsp 608 +
STACK CFI 21137 .cfa: $rsp 56 +
STACK CFI 21138 .cfa: $rsp 48 +
STACK CFI 21139 .cfa: $rsp 40 +
STACK CFI 2113b .cfa: $rsp 32 +
STACK CFI 2113d .cfa: $rsp 24 +
STACK CFI 2113f .cfa: $rsp 16 +
STACK CFI 21141 .cfa: $rsp 8 +
STACK CFI 21148 .cfa: $rsp 608 +
STACK CFI INIT 213b0 2e6 .cfa: $rsp 8 + .ra: .cfa -8 + ^
STACK CFI 213b2 $r15: .cfa -16 + ^ .cfa: $rsp 16 +
STACK CFI 213b4 $r14: .cfa -24 + ^ .cfa: $rsp 24 +
STACK CFI 213b6 $r13: .cfa -32 + ^ .cfa: $rsp 32 +
STACK CFI 213b8 $r12: .cfa -40 + ^ .cfa: $rsp 40 +
STACK CFI 213b9 $rbp: .cfa -48 + ^ .cfa: $rsp 48 +
STACK CFI 213ba $rbx: .cfa -56 + ^ .cfa: $rsp 56 +
STACK CFI 213be .cfa: $rsp 160 +
STACK CFI 2152e .cfa: $rsp 56 +
STACK CFI 2152f .cfa: $rsp 48 +
STACK CFI 21530 .cfa: $rsp 40 +
STACK CFI 21532 .cfa: $rsp 32 +
STACK CFI 21534 .cfa: $rsp 24 +
STACK CFI 21536 .cfa: $rsp 16 +
STACK CFI 21538 .cfa: $rsp 8 +
STACK CFI 21540 .cfa: $rsp 160 +
STACK CFI INIT 216a0 8ea .cfa: $rsp 8 + .ra: .cfa -8 + ^
STACK CFI 216a2 $r15: .cfa -16 + ^ .cfa: $rsp 16 +
STACK CFI 216a4 $r14: .cfa -24 + ^ .cfa: $rsp 24 +
STACK CFI 216a6 $r13: .cfa -32 + ^ .cfa: $rsp 32 +
STACK CFI 216a8 $r12: .cfa -40 + ^ .cfa: $rsp 40 +
STACK CFI 216ac $rbp: .cfa -48 + ^ .cfa: $rsp 48 +
STACK CFI 216ad $rbx: .cfa -56 + ^ .cfa: $rsp 56 +
STACK CFI 216ba .cfa: $rsp 384 +
STACK CFI 21890 .cfa: $rsp 56 +
STACK CFI 21891 .cfa: $rsp 48 +
STACK CFI 21892 .cfa: $rsp 40 +
STACK CFI 21894 .cfa: $rsp 32 +
STACK CFI 21896 .cfa: $rsp 24 +
STACK CFI 21898 .cfa: $rsp 16 +
STACK CFI 2189a .cfa: $rsp 8 +
STACK CFI 218a0 .cfa: $rsp 384 +
STACK CFI INIT 21f90 116 .cfa: $rsp 8 + .ra: .cfa -8 + ^
STACK CFI 21f92 $r14: .cfa -16 + ^ .cfa: $rsp 16 +
STACK CFI 21f94 $r13: .cfa -24 + ^ .cfa: $rsp 24 +
STACK CFI 21f99 $r12: .cfa -32 + ^ .cfa: $rsp 32 +
STACK CFI 21f9a $rbp: .cfa -40 + ^ .cfa: $rsp 40 +
STACK CFI 21f9e $rbx: .cfa -48 + ^ .cfa: $rsp 48 +
STACK CFI 21fa8 .cfa: $rsp 64 +
STACK CFI 22033 .cfa: $rsp 48 +
STACK CFI 22034 .cfa: $rsp 40 +
STACK CFI 22035 .cfa: $rsp 32 +
STACK CFI 22037 .cfa: $rsp 24 +
STACK CFI 22039 .cfa: $rsp 16 +
STACK CFI 2203b .cfa: $rsp 8 +
STACK CFI 22040 .cfa: $rsp 64 +
STACK CFI INIT 22270 64 .cfa: $rsp 8 + .ra: .cfa -8 + ^
STACK CFI 22272 $r12: .cfa -16 + ^ .cfa: $rsp 16 +
STACK CFI 2227a $rbp: .cfa -24 + ^ .cfa: $rsp 24 +
STACK CFI 2227b $rbx: .cfa -32 + ^ .cfa: $rsp 32 +
STACK CFI 222c4 .cfa: $rsp 24 +
STACK CFI 222cd .cfa: $rsp 16 +
STACK CFI 222cf .cfa: $rsp 8 +
STACK CFI INIT 222e0 71 .cfa: $rsp 8 + .ra: .cfa -8 + ^
STACK CFI 222e2 $r12: .cfa -16 + ^ .cfa: $rsp 16 +
STACK CFI 222ea $rbp: .cfa -24 + ^ .cfa: $rsp 24 +
STACK CFI 222eb $rbx: .cfa -32 + ^ .cfa: $rsp 32 +
STACK CFI 22341 .cfa: $rsp 24 +
STACK CFI 2234a .cfa: $rsp 16 +
STACK CFI 2234c .cfa: $rsp 8 +
STACK CFI INIT 22360 2b8 .cfa: $rsp 8 + .ra: .cfa -8 + ^
STACK CFI 22362 $r15: .cfa -16 + ^ .cfa: $rsp 16 +
STACK CFI 22364 $r14: .cfa -24 + ^ .cfa: $rsp 24 +
STACK CFI 22366 $r13: .cfa -32 + ^ .cfa: $rsp 32 +
STACK CFI 22368 $r12: .cfa -40 + ^ .cfa: $rsp 40 +
STACK CFI 22369 $rbp: .cfa -48 + ^ .cfa: $rsp 48 +
STACK CFI 2236a $rbx: .cfa -56 + ^ .cfa: $rsp 56 +
STACK CFI 22371 .cfa: $rsp 112 +
STACK CFI 224ac .cfa: $rsp 56 +
STACK CFI 224b2 .cfa: $rsp 48 +
STACK CFI 224b3 .cfa: $rsp 40 +
STACK CFI 224b5 .cfa: $rsp 32 +
STACK CFI 224b7 .cfa: $rsp 24 +
STACK CFI 224b9 .cfa: $rsp 16 +
STACK CFI 224bb .cfa: $rsp 8 +
STACK CFI 224c0 .cfa: $rsp 112 +
STACK CFI 22578 .cfa: $rsp 56 +
STACK CFI 2257c .cfa: $rsp 48 +
STACK CFI 2257d .cfa: $rsp 40 +
STACK CFI 2257f .cfa: $rsp 32 +
STACK CFI 22581 .cfa: $rsp 24 +
STACK CFI 22583 .cfa: $rsp 16 +
STACK CFI 22585 .cfa: $rsp 8 +
STACK CFI 22590 .cfa: $rsp 112 +
STACK CFI INIT 220b0 1ba .cfa: $rsp 8 + .ra: .cfa -8 + ^
STACK CFI 220b2 $r15: .cfa -16 + ^ .cfa: $rsp 16 +
STACK CFI 220b4 $r14: .cfa -24 + ^ .cfa: $rsp 24 +
STACK CFI 220b9 $r13: .cfa -32 + ^ .cfa: $rsp 32 +
STACK CFI 220bb $r12: .cfa -40 + ^ .cfa: $rsp 40 +
STACK CFI 220bf $rbp: .cfa -48 + ^ .cfa: $rsp 48 +
STACK CFI 220c0 $rbx: .cfa -56 + ^ .cfa: $rsp 56 +
STACK CFI 220ca .cfa: $rsp 176 +
STACK CFI 22131 .cfa: $rsp 56 +
STACK CFI 22132 .cfa: $rsp 48 +
STACK CFI 22133 .cfa: $rsp 40 +
STACK CFI 22135 .cfa: $rsp 32 +
STACK CFI 22137 .cfa: $rsp 24 +
STACK CFI 22139 .cfa: $rsp 16 +
STACK CFI 2213b .cfa: $rsp 8 +
STACK CFI 22140 .cfa: $rsp 176 +
STACK CFI INIT 6d00 2e .cfa: $rsp 8 + .ra: .cfa -8 + ^
STACK CFI 6d0b .cfa: $rsp 16 +
STACK CFI 6d29 .cfa: $rsp 8 +
STACK CFI INIT 22620 6 .cfa: $rsp 8 + .ra: .cfa -8 + ^
STACK CFI INIT 22630 e4 .cfa: $rsp 8 + .ra: .cfa -8 + ^
STACK CFI 22631 $rbp: .cfa -16 + ^ .cfa: $rsp 16 +
STACK CFI 22632 $rbx: .cfa -24 + ^ .cfa: $rsp 24 +
STACK CFI 22636 .cfa: $rsp 128 +
STACK CFI 226db .cfa: $rsp 24 +
STACK CFI 226dc .cfa: $rsp 16 +
STACK CFI 226dd .cfa: $rsp 8 +
STACK CFI 226de .cfa: $rsp 128 +
STACK CFI INIT 22720 b8 .cfa: $rsp 8 + .ra: .cfa -8 + ^
STACK CFI 22721 $rbp: .cfa -16 + ^ .cfa: $rsp 16 +
STACK CFI 22722 $rbx: .cfa -24 + ^ .cfa: $rsp 24 +
STACK CFI 2272c .cfa: $rsp 32 +
STACK CFI 227d5 .cfa: $rsp 24 +
STACK CFI 227d6 .cfa: $rsp 16 +
STACK CFI 227d7 .cfa: $rsp 8 +
STACK CFI INIT 227e0 4e9 .cfa: $rsp 8 + .ra: .cfa -8 + ^
STACK CFI 227e2 $r15: .cfa -16 + ^ .cfa: $rsp 16 +
STACK CFI 227e4 $r14: .cfa -24 + ^ .cfa: $rsp 24 +
STACK CFI 227e6 $r13: .cfa -32 + ^ .cfa: $rsp 32 +
STACK CFI 227e8 $r12: .cfa -40 + ^ .cfa: $rsp 40 +
STACK CFI 227e9 $rbp: .cfa -48 + ^ .cfa: $rsp 48 +
STACK CFI 227ea $rbx: .cfa -56 + ^ .cfa: $rsp 56 +
STACK CFI 227f1 .cfa: $rsp 288 +
STACK CFI 2287a .cfa: $rsp 56 +
STACK CFI 2287b .cfa: $rsp 48 +
STACK CFI 2287c .cfa: $rsp 40 +
STACK CFI 2287e .cfa: $rsp 32 +
STACK CFI 22880 .cfa: $rsp 24 +
STACK CFI 22882 .cfa: $rsp 16 +
STACK CFI 22884 .cfa: $rsp 8 +
STACK CFI 22888 .cfa: $rsp 288 +
STACK CFI INIT 22cd0 1a .cfa: $rsp 8 + .ra: .cfa -8 + ^
STACK CFI 22cd7 .cfa: $rsp 16 +
STACK CFI 22ce6 .cfa: $rsp 8 +
STACK CFI INIT 22cf0 ff .cfa: $rsp 8 + .ra: .cfa -8 + ^
STACK CFI 22cf2 $r14: .cfa -16 + ^ .cfa: $rsp 16 +
STACK CFI 22cf4 $r13: .cfa -24 + ^ .cfa: $rsp 24 +
STACK CFI 22cf6 $r12: .cfa -32 + ^ .cfa: $rsp 32 +
STACK CFI 22cf7 $rbp: .cfa -40 + ^ .cfa: $rsp 40 +
STACK CFI 22cf8 $rbx: .cfa -48 + ^ .cfa: $rsp 48 +
STACK CFI 22cfc .cfa: $rsp 112 +
STACK CFI 22db5 .cfa: $rsp 48 +
STACK CFI 22db6 .cfa: $rsp 40 +
STACK CFI 22db7 .cfa: $rsp 32 +
STACK CFI 22db9 .cfa: $rsp 24 +
STACK CFI 22dbb .cfa: $rsp 16 +
STACK CFI 22dbd .cfa: $rsp 8 +
STACK CFI 22dc0 .cfa: $rsp 112 +
STACK CFI INIT 23ee0 52 .cfa: $rsp 8 + .ra: .cfa -8 + ^
STACK CFI 23ee7 $r12: .cfa -16 + ^ .cfa: $rsp 16 +
STACK CFI 23eeb $rbp: .cfa -24 + ^ .cfa: $rsp 24 +
STACK CFI 23eec $rbx: .cfa -32 + ^ .cfa: $rsp 32 +
STACK CFI 23f22 .cfa: $rsp 24 +
STACK CFI 23f23 .cfa: $rsp 16 +
STACK CFI 23f25 .cfa: $rsp 8 +
STACK CFI 23f30 $r12: $r12 $rbp: $rbp $rbx: $rbx
STACK CFI INIT 23f40 52 .cfa: $rsp 8 + .ra: .cfa -8 + ^
STACK CFI 23f47 $r12: .cfa -16 + ^ .cfa: $rsp 16 +
STACK CFI 23f4b $rbp: .cfa -24 + ^ .cfa: $rsp 24 +
STACK CFI 23f4c $rbx: .cfa -32 + ^ .cfa: $rsp 32 +
STACK CFI 23f82 .cfa: $rsp 24 +
STACK CFI 23f83 .cfa: $rsp 16 +
STACK CFI 23f85 .cfa: $rsp 8 +
STACK CFI 23f90 $r12: $r12 $rbp: $rbp $rbx: $rbx
STACK CFI INIT 23fa0 52 .cfa: $rsp 8 + .ra: .cfa -8 + ^
STACK CFI 23fa7 $r12: .cfa -16 + ^ .cfa: $rsp 16 +
STACK CFI 23fab $rbp: .cfa -24 + ^ .cfa: $rsp 24 +
STACK CFI 23fac $rbx: .cfa -32 + ^ .cfa: $rsp 32 +
STACK CFI 23fe2 .cfa: $rsp 24 +
STACK CFI 23fe3 .cfa: $rsp 16 +
STACK CFI 23fe5 .cfa: $rsp 8 +
STACK CFI 23ff0 $r12: $r12 $rbp: $rbp $rbx: $rbx
STACK CFI INIT 22df0 145 .cfa: $rsp 8 + .ra: .cfa -8 + ^
STACK CFI 22df2 $r12: .cfa -16 + ^ .cfa: $rsp 16 +
STACK CFI 22dfa $rbp: .cfa -24 + ^ .cfa: $rsp 24 +
STACK CFI 22dfb $rbx: .cfa -32 + ^ .cfa: $rsp 32 +
STACK CFI 22ee1 .cfa: $rsp 24 +
STACK CFI 22ee2 .cfa: $rsp 16 +
STACK CFI 22ee4 .cfa: $rsp 8 +
STACK CFI 22ef0 .cfa: $rsp 32 +
STACK CFI 22f31 .cfa: $rsp 24 +
STACK CFI 22f32 .cfa: $rsp 16 +
STACK CFI 22f34 .cfa: $rsp 8 +
STACK CFI INIT 22f40 17 .cfa: $rsp 8 + .ra: .cfa -8 + ^
STACK CFI 22f41 $rbx: .cfa -16 + ^ .cfa: $rsp 16 +
STACK CFI 22f52 .cfa: $rsp 8 +
STACK CFI INIT 24000 7c .cfa: $rsp 8 + .ra: .cfa -8 + ^
STACK CFI 24002 $r14: .cfa -16 + ^ .cfa: $rsp 16 +
STACK CFI 24004 $r13: .cfa -24 + ^ .cfa: $rsp 24 +
STACK CFI 2400a $r12: .cfa -32 + ^ .cfa: $rsp 32 +
STACK CFI 2400b $rbp: .cfa -40 + ^ .cfa: $rsp 40 +
STACK CFI 2400c $rbx: .cfa -48 + ^ .cfa: $rsp 48 +
STACK CFI 24061 .cfa: $rsp 40 +
STACK CFI 24065 .cfa: $rsp 32 +
STACK CFI 24067 .cfa: $rsp 24 +
STACK CFI 24069 .cfa: $rsp 16 +
STACK CFI 2406b .cfa: $rsp 8 +
STACK CFI 24070 .cfa: $rsp 48 +
STACK CFI 24071 .cfa: $rsp 40 +
STACK CFI 24075 .cfa: $rsp 32 +
STACK CFI 24077 .cfa: $rsp 24 +
STACK CFI 24079 .cfa: $rsp 16 +
STACK CFI 2407b .cfa: $rsp 8 +
STACK CFI INIT 22f60 a7 .cfa: $rsp 8 + .ra: .cfa -8 + ^
STACK CFI 22f62 $r12: .cfa -16 + ^ .cfa: $rsp 16 +
STACK CFI 22f63 $rbp: .cfa -24 + ^ .cfa: $rsp 24 +
STACK CFI 22f64 $rbx: .cfa -32 + ^ .cfa: $rsp 32 +
STACK CFI 22f68 .cfa: $rsp 96 +
STACK CFI 22fd4 .cfa: $rsp 32 +
STACK CFI 22fd5 .cfa: $rsp 24 +
STACK CFI 22fd6 .cfa: $rsp 16 +
STACK CFI 22fd8 .cfa: $rsp 8 +
STACK CFI 22fe0 .cfa: $rsp 96 +
STACK CFI INIT 23010 b1 .cfa: $rsp 8 + .ra: .cfa -8 + ^
STACK CFI 23012 $r13: .cfa -16 + ^ .cfa: $rsp 16 +
STACK CFI 23014 $r12: .cfa -24 + ^ .cfa: $rsp 24 +
STACK CFI 23015 $rbp: .cfa -32 + ^ .cfa: $rsp 32 +
STACK CFI 23016 $rbx: .cfa -40 + ^ .cfa: $rsp 40 +
STACK CFI 2301d .cfa: $rsp 96 +
STACK CFI 23098 .cfa: $rsp 40 +
STACK CFI 23099 .cfa: $rsp 32 +
STACK CFI 2309a .cfa: $rsp 24 +
STACK CFI 2309c .cfa: $rsp 16 +
STACK CFI 2309e .cfa: $rsp 8 +
STACK CFI 2309f .cfa: $rsp 96 +
STACK CFI INIT 230d0 b6 .cfa: $rsp 8 + .ra: .cfa -8 + ^
STACK CFI 230d2 $r13: .cfa -16 + ^ .cfa: $rsp 16 +
STACK CFI 230d4 $r12: .cfa -24 + ^ .cfa: $rsp 24 +
STACK CFI 230d5 $rbp: .cfa -32 + ^ .cfa: $rsp 32 +
STACK CFI 230d6 $rbx: .cfa -40 + ^ .cfa: $rsp 40 +
STACK CFI 230dd .cfa: $rsp 96 +
STACK CFI 23158 .cfa: $rsp 40 +
STACK CFI 23159 .cfa: $rsp 32 +
STACK CFI 2315a .cfa: $rsp 24 +
STACK CFI 2315c .cfa: $rsp 16 +
STACK CFI 2315e .cfa: $rsp 8 +
STACK CFI 23160 .cfa: $rsp 96 +
STACK CFI INIT 23190 b6 .cfa: $rsp 8 + .ra: .cfa -8 + ^
STACK CFI 23192 $r13: .cfa -16 + ^ .cfa: $rsp 16 +
STACK CFI 23194 $r12: .cfa -24 + ^ .cfa: $rsp 24 +
STACK CFI 23195 $rbp: .cfa -32 + ^ .cfa: $rsp 32 +
STACK CFI 23196 $rbx: .cfa -40 + ^ .cfa: $rsp 40 +
STACK CFI 2319d .cfa: $rsp 96 +
STACK CFI 23218 .cfa: $rsp 40 +
STACK CFI 23219 .cfa: $rsp 32 +
STACK CFI 2321a .cfa: $rsp 24 +
STACK CFI 2321c .cfa: $rsp 16 +
STACK CFI 2321e .cfa: $rsp 8 +
STACK CFI 23220 .cfa: $rsp 96 +
STACK CFI INIT 24080 1ee .cfa: $rsp 8 + .ra: .cfa -8 + ^
STACK CFI 24082 $r15: .cfa -16 + ^ .cfa: $rsp 16 +
STACK CFI 24084 $r14: .cfa -24 + ^ .cfa: $rsp 24 +
STACK CFI 24086 $r13: .cfa -32 + ^ .cfa: $rsp 32 +
STACK CFI 24088 $r12: .cfa -40 + ^ .cfa: $rsp 40 +
STACK CFI 2408c $rbp: .cfa -48 + ^ .cfa: $rsp 48 +
STACK CFI 2408d $rbx: .cfa -56 + ^ .cfa: $rsp 56 +
STACK CFI 24099 .cfa: $rsp 80 +
STACK CFI 2418e .cfa: $rsp 56 +
STACK CFI 24194 .cfa: $rsp 48 +
STACK CFI 24195 .cfa: $rsp 40 +
STACK CFI 24197 .cfa: $rsp 32 +
STACK CFI 24199 .cfa: $rsp 24 +
STACK CFI 2419b .cfa: $rsp 16 +
STACK CFI 2419d .cfa: $rsp 8 +
STACK CFI 241a0 .cfa: $rsp 80 +
STACK CFI 241cc .cfa: $rsp 56 +
STACK CFI 241d0 .cfa: $rsp 48 +
STACK CFI 241d6 .cfa: $rsp 40 +
STACK CFI 241d8 .cfa: $rsp 32 +
STACK CFI 241da .cfa: $rsp 24 +
STACK CFI 241dc .cfa: $rsp 16 +
STACK CFI 241de .cfa: $rsp 8 +
STACK CFI 241e0 .cfa: $rsp 80 +
STACK CFI INIT 23250 3b9 .cfa: $rsp 8 + .ra: .cfa -8 + ^
STACK CFI 23252 $r15: .cfa -16 + ^ .cfa: $rsp 16 +
STACK CFI 23254 $r14: .cfa -24 + ^ .cfa: $rsp 24 +
STACK CFI 23256 $r13: .cfa -32 + ^ .cfa: $rsp 32 +
STACK CFI 23258 $r12: .cfa -40 + ^ .cfa: $rsp 40 +
STACK CFI 23259 $rbp: .cfa -48 + ^ .cfa: $rsp 48 +
STACK CFI 2325a $rbx: .cfa -56 + ^ .cfa: $rsp 56 +
STACK CFI 2325e .cfa: $rsp 176 +
STACK CFI 23369 .cfa: $rsp 56 +
STACK CFI 2336a .cfa: $rsp 48 +
STACK CFI 2336b .cfa: $rsp 40 +
STACK CFI 2336d .cfa: $rsp 32 +
STACK CFI 2336f .cfa: $rsp 24 +
STACK CFI 23371 .cfa: $rsp 16 +
STACK CFI 23373 .cfa: $rsp 8 +
STACK CFI 23378 .cfa: $rsp 176 +
STACK CFI INIT 23610 2bb .cfa: $rsp 8 + .ra: .cfa -8 + ^
STACK CFI 23612 $r15: .cfa -16 + ^ .cfa: $rsp 16 +
STACK CFI 23614 $r14: .cfa -24 + ^ .cfa: $rsp 24 +
STACK CFI 23616 $r13: .cfa -32 + ^ .cfa: $rsp 32 +
STACK CFI 23618 $r12: .cfa -40 + ^ .cfa: $rsp 40 +
STACK CFI 23619 $rbp: .cfa -48 + ^ .cfa: $rsp 48 +
STACK CFI 2361a $rbx: .cfa -56 + ^ .cfa: $rsp 56 +
STACK CFI 2361e .cfa: $rsp 176 +
STACK CFI 23728 .cfa: $rsp 56 +
STACK CFI 23729 .cfa: $rsp 48 +
STACK CFI 2372a .cfa: $rsp 40 +
STACK CFI 2372c .cfa: $rsp 32 +
STACK CFI 2372e .cfa: $rsp 24 +
STACK CFI 23730 .cfa: $rsp 16 +
STACK CFI 23732 .cfa: $rsp 8 +
STACK CFI 23738 .cfa: $rsp 176 +
STACK CFI INIT 24270 1ee .cfa: $rsp 8 + .ra: .cfa -8 + ^
STACK CFI 24272 $r15: .cfa -16 + ^ .cfa: $rsp 16 +
STACK CFI 24274 $r14: .cfa -24 + ^ .cfa: $rsp 24 +
STACK CFI 24276 $r13: .cfa -32 + ^ .cfa: $rsp 32 +
STACK CFI 24278 $r12: .cfa -40 + ^ .cfa: $rsp 40 +
STACK CFI 2427c $rbp: .cfa -48 + ^ .cfa: $rsp 48 +
STACK CFI 2427d $rbx: .cfa -56 + ^ .cfa: $rsp 56 +
STACK CFI 24289 .cfa: $rsp 80 +
STACK CFI 2437e .cfa: $rsp 56 +
STACK CFI 24384 .cfa: $rsp 48 +
STACK CFI 24385 .cfa: $rsp 40 +
STACK CFI 24387 .cfa: $rsp 32 +
STACK CFI 24389 .cfa: $rsp 24 +
STACK CFI 2438b .cfa: $rsp 16 +
STACK CFI 2438d .cfa: $rsp 8 +
STACK CFI 24390 .cfa: $rsp 80 +
STACK CFI 243bc .cfa: $rsp 56 +
STACK CFI 243c0 .cfa: $rsp 48 +
STACK CFI 243c6 .cfa: $rsp 40 +
STACK CFI 243c8 .cfa: $rsp 32 +
STACK CFI 243ca .cfa: $rsp 24 +
STACK CFI 243cc .cfa: $rsp 16 +
STACK CFI 243ce .cfa: $rsp 8 +
STACK CFI 243d0 .cfa: $rsp 80 +
STACK CFI INIT 24460 178 .cfa: $rsp 8 + .ra: .cfa -8 + ^
STACK CFI 24462 $r15: .cfa -16 + ^ .cfa: $rsp 16 +
STACK CFI 24464 $r14: .cfa -24 + ^ .cfa: $rsp 24 +
STACK CFI 24466 $r13: .cfa -32 + ^ .cfa: $rsp 32 +
STACK CFI 24468 $r12: .cfa -40 + ^ .cfa: $rsp 40 +
STACK CFI 2446d $rbp: .cfa -48 + ^ .cfa: $rsp 48 +
STACK CFI 2446e $rbx: .cfa -56 + ^ .cfa: $rsp 56 +
STACK CFI 24478 .cfa: $rsp 64 +
STACK CFI 244f1 .cfa: $rsp 56 +
STACK CFI 244f7 .cfa: $rsp 48 +
STACK CFI 244f8 .cfa: $rsp 40 +
STACK CFI 244fa .cfa: $rsp 32 +
STACK CFI 244fc .cfa: $rsp 24 +
STACK CFI 244fe .cfa: $rsp 16 +
STACK CFI 24500 .cfa: $rsp 8 +
STACK CFI 24508 .cfa: $rsp 64 +
STACK CFI 24580 .cfa: $rsp 56 +
STACK CFI 24589 .cfa: $rsp 48 +
STACK CFI 2458a .cfa: $rsp 40 +
STACK CFI 2458c .cfa: $rsp 32 +
STACK CFI 2458e .cfa: $rsp 24 +
STACK CFI 24590 .cfa: $rsp 16 +
STACK CFI 24592 .cfa: $rsp 8 +
STACK CFI 24598 .cfa: $rsp 64 +
STACK CFI INIT 238d0 41a .cfa: $rsp 8 + .ra: .cfa -8 + ^
STACK CFI 238d2 $r15: .cfa -16 + ^ .cfa: $rsp 16 +
STACK CFI 238d4 $r14: .cfa -24 + ^ .cfa: $rsp 24 +
STACK CFI 238d6 $r13: .cfa -32 + ^ .cfa: $rsp 32 +
STACK CFI 238d8 $r12: .cfa -40 + ^ .cfa: $rsp 40 +
STACK CFI 238d9 $rbp: .cfa -48 + ^ .cfa: $rsp 48 +
STACK CFI 238da $rbx: .cfa -56 + ^ .cfa: $rsp 56 +
STACK CFI 238de .cfa: $rsp 176 +
STACK CFI 239ec .cfa: $rsp 56 +
STACK CFI 239ed .cfa: $rsp 48 +
STACK CFI 239ee .cfa: $rsp 40 +
STACK CFI 239f0 .cfa: $rsp 32 +
STACK CFI 239f2 .cfa: $rsp 24 +
STACK CFI 239f4 .cfa: $rsp 16 +
STACK CFI 239f6 .cfa: $rsp 8 +
STACK CFI 23a00 .cfa: $rsp 176 +
STACK CFI INIT 245e0 f6 .cfa: $rsp 8 + .ra: .cfa -8 + ^
STACK CFI 245e2 $r15: .cfa -16 + ^ .cfa: $rsp 16 +
STACK CFI 245e4 $r14: .cfa -24 + ^ .cfa: $rsp 24 +
STACK CFI 245e9 $r13: .cfa -32 + ^ .cfa: $rsp 32 +
STACK CFI 245eb $r12: .cfa -40 + ^ .cfa: $rsp 40 +
STACK CFI 245f0 $rbp: .cfa -48 + ^ .cfa: $rsp 48 +
STACK CFI 245f1 $rbx: .cfa -56 + ^ .cfa: $rsp 56 +
STACK CFI 245f8 .cfa: $rsp 64 +
STACK CFI 2464c .cfa: $rsp 56 +
STACK CFI 24650 .cfa: $rsp 48 +
STACK CFI 24651 .cfa: $rsp 40 +
STACK CFI 24653 .cfa: $rsp 32 +
STACK CFI 24655 .cfa: $rsp 24 +
STACK CFI 24657 .cfa: $rsp 16 +
STACK CFI 24659 .cfa: $rsp 8 +
STACK CFI 24660 .cfa: $rsp 64 +
STACK CFI INIT 246e0 d5 .cfa: $rsp 8 + .ra: .cfa -8 + ^
STACK CFI 246e2 $r15: .cfa -16 + ^ .cfa: $rsp 16 +
STACK CFI 246e4 $r14: .cfa -24 + ^ .cfa: $rsp 24 +
STACK CFI 246e6 $r13: .cfa -32 + ^ .cfa: $rsp 32 +
STACK CFI 246e8 $r12: .cfa -40 + ^ .cfa: $rsp 40 +
STACK CFI 246e9 $rbp: .cfa -48 + ^ .cfa: $rsp 48 +
STACK CFI 246ea $rbx: .cfa -56 + ^ .cfa: $rsp 56 +
STACK CFI 246f1 .cfa: $rsp 64 +
STACK CFI 24766 .cfa: $rsp 56 +
STACK CFI 2476a .cfa: $rsp 48 +
STACK CFI 2476b .cfa: $rsp 40 +
STACK CFI 2476d .cfa: $rsp 32 +
STACK CFI 2476f .cfa: $rsp 24 +
STACK CFI 24771 .cfa: $rsp 16 +
STACK CFI 24773 .cfa: $rsp 8 +
STACK CFI 24778 .cfa: $rsp 64 +
STACK CFI INIT 23cf0 1e8 .cfa: $rsp 8 + .ra: .cfa -8 + ^
STACK CFI 23cf2 $r15: .cfa -16 + ^ .cfa: $rsp 16 +
STACK CFI 23cf4 $r14: .cfa -24 + ^ .cfa: $rsp 24 +
STACK CFI 23cf6 $r13: .cfa -32 + ^ .cfa: $rsp 32 +
STACK CFI 23cf8 $r12: .cfa -40 + ^ .cfa: $rsp 40 +
STACK CFI 23cf9 $rbp: .cfa -48 + ^ .cfa: $rsp 48 +
STACK CFI 23cfa $rbx: .cfa -56 + ^ .cfa: $rsp 56 +
STACK CFI 23cfe .cfa: $rsp 112 +
STACK CFI 23dd1 .cfa: $rsp 56 +
STACK CFI 23dd2 .cfa: $rsp 48 +
STACK CFI 23dd3 .cfa: $rsp 40 +
STACK CFI 23dd5 .cfa: $rsp 32 +
STACK CFI 23dd7 .cfa: $rsp 24 +
STACK CFI 23dd9 .cfa: $rsp 16 +
STACK CFI 23ddb .cfa: $rsp 8 +
STACK CFI 23de0 .cfa: $rsp 112 +
STACK CFI INIT 6d30 2e .cfa: $rsp 8 + .ra: .cfa -8 + ^
STACK CFI 6d3b .cfa: $rsp 16 +
STACK CFI 6d59 .cfa: $rsp 8 +
STACK CFI INIT 24cf0 13 .cfa: $rsp 8 + .ra: .cfa -8 + ^
STACK CFI INIT 247c0 13 .cfa: $rsp 8 + .ra: .cfa -8 + ^
STACK CFI INIT 247e0 13 .cfa: $rsp 8 + .ra: .cfa -8 + ^
STACK CFI INIT 24800 3a .cfa: $rsp 8 + .ra: .cfa -8 + ^
STACK CFI INIT 24d10 2f .cfa: $rsp 8 + .ra: .cfa -8 + ^
STACK CFI 24d11 $rbx: .cfa -16 + ^ .cfa: $rsp 16 +
STACK CFI 24d3e .cfa: $rsp 8 +
STACK CFI INIT 24d40 1c .cfa: $rsp 8 + .ra: .cfa -8 + ^
STACK CFI INIT 24d60 2e .cfa: $rsp 8 + .ra: .cfa -8 + ^
STACK CFI 24d68 $rbx: .cfa -16 + ^ .cfa: $rsp 16 +
STACK CFI 24d89 .cfa: $rsp 8 +
STACK CFI INIT 24d90 299 .cfa: $rsp 8 + .ra: .cfa -8 + ^
STACK CFI 24d92 $r15: .cfa -16 + ^ .cfa: $rsp 16 +
STACK CFI 24d94 $r14: .cfa -24 + ^ .cfa: $rsp 24 +
STACK CFI 24d99 $r13: .cfa -32 + ^ .cfa: $rsp 32 +
STACK CFI 24d9b $r12: .cfa -40 + ^ .cfa: $rsp 40 +
STACK CFI 24da0 $rbp: .cfa -48 + ^ .cfa: $rsp 48 +
STACK CFI 24da1 $rbx: .cfa -56 + ^ .cfa: $rsp 56 +
STACK CFI 24da8 .cfa: $rsp 96 +
STACK CFI 24efa .cfa: $rsp 56 +
STACK CFI 24efe .cfa: $rsp 48 +
STACK CFI 24eff .cfa: $rsp 40 +
STACK CFI 24f01 .cfa: $rsp 32 +
STACK CFI 24f03 .cfa: $rsp 24 +
STACK CFI 24f05 .cfa: $rsp 16 +
STACK CFI 24f07 .cfa: $rsp 8 +
STACK CFI 24f08 .cfa: $rsp 96 +
STACK CFI 24f0e .cfa: $rsp 56 +
STACK CFI 24f14 .cfa: $rsp 48 +
STACK CFI 24f15 .cfa: $rsp 40 +
STACK CFI 24f17 .cfa: $rsp 32 +
STACK CFI 24f19 .cfa: $rsp 24 +
STACK CFI 24f1b .cfa: $rsp 16 +
STACK CFI 24f1d .cfa: $rsp 8 +
STACK CFI 24f20 .cfa: $rsp 96 +
STACK CFI INIT 24840 4ad .cfa: $rsp 8 + .ra: .cfa -8 + ^
STACK CFI 24842 $r15: .cfa -16 + ^ .cfa: $rsp 16 +
STACK CFI 24844 $r14: .cfa -24 + ^ .cfa: $rsp 24 +
STACK CFI 24846 $r13: .cfa -32 + ^ .cfa: $rsp 32 +
STACK CFI 24848 $r12: .cfa -40 + ^ .cfa: $rsp 40 +
STACK CFI 2484c $rbp: .cfa -48 + ^ .cfa: $rsp 48 +
STACK CFI 2484d $rbx: .cfa -56 + ^ .cfa: $rsp 56 +
STACK CFI 2485a .cfa: $rsp 224 +
STACK CFI 249eb .cfa: $rsp 56 +
STACK CFI 249ec .cfa: $rsp 48 +
STACK CFI 249ed .cfa: $rsp 40 +
STACK CFI 249ef .cfa: $rsp 32 +
STACK CFI 249f1 .cfa: $rsp 24 +
STACK CFI 249f3 .cfa: $rsp 16 +
STACK CFI 249f5 .cfa: $rsp 8 +
STACK CFI 24a00 .cfa: $rsp 224 +
STACK CFI INIT 6d60 2e .cfa: $rsp 8 + .ra: .cfa -8 + ^
STACK CFI 6d6b .cfa: $rsp 16 +
STACK CFI 6d89 .cfa: $rsp 8 +
STACK CFI INIT 25030 120 .cfa: $rsp 8 + .ra: .cfa -8 + ^
STACK CFI 25031 $rbp: .cfa -16 + ^ .cfa: $rsp 16 +
STACK CFI 25043 .cfa: $rbp 16 +
STACK CFI 25046 $r14: .cfa -24 + ^ $rbx: .cfa -32 + ^
STACK CFI 2512b .cfa: $rsp 8 +
STACK CFI 25130 .cfa: $rbp 16 +
STACK CFI INIT 25150 120 .cfa: $rsp 8 + .ra: .cfa -8 + ^
STACK CFI 25151 $rbp: .cfa -16 + ^ .cfa: $rsp 16 +
STACK CFI 25163 .cfa: $rbp 16 +
STACK CFI 25166 $r14: .cfa -24 + ^ $rbx: .cfa -32 + ^
STACK CFI 2524b .cfa: $rsp 8 +
STACK CFI 25250 .cfa: $rbp 16 +
STACK CFI INIT 25270 c8 .cfa: $rsp 8 + .ra: .cfa -8 + ^
STACK CFI 25272 $r12: .cfa -16 + ^ .cfa: $rsp 16 +
STACK CFI 25273 $rbp: .cfa -24 + ^ .cfa: $rsp 24 +
STACK CFI 25277 $rbx: .cfa -32 + ^ .cfa: $rsp 32 +
STACK CFI 2527e .cfa: $rsp 48 +
STACK CFI 252e4 .cfa: $rsp 32 +
STACK CFI 252e5 .cfa: $rsp 24 +
STACK CFI 252e6 .cfa: $rsp 16 +
STACK CFI 252e8 .cfa: $rsp 8 +
STACK CFI 252f0 .cfa: $rsp 48 +
STACK CFI INIT 25340 113 .cfa: $rsp 8 + .ra: .cfa -8 + ^
STACK CFI 25342 $r13: .cfa -16 + ^ .cfa: $rsp 16 +
STACK CFI 25344 $r12: .cfa -24 + ^ .cfa: $rsp 24 +
STACK CFI 2534b $rbp: .cfa -32 + ^ .cfa: $rsp 32 +
STACK CFI 25350 $rbx: .cfa -40 + ^ .cfa: $rsp 40 +
STACK CFI 2535a .cfa: $rsp 48 +
STACK CFI 253f8 .cfa: $rsp 40 +
STACK CFI 253fc .cfa: $rsp 32 +
STACK CFI 253fd .cfa: $rsp 24 +
STACK CFI 253ff .cfa: $rsp 16 +
STACK CFI 25401 .cfa: $rsp 8 +
STACK CFI 25402 .cfa: $rsp 48 +
STACK CFI INIT 25460 3c0 .cfa: $rsp 8 + .ra: .cfa -8 + ^
STACK CFI 25461 $rbp: .cfa -16 + ^ .cfa: $rsp 16 +
STACK CFI 25464 .cfa: $rbp 16 +
STACK CFI 25474 $r12: .cfa -48 + ^ $r13: .cfa -40 + ^ $r14: .cfa -32 + ^ $r15: .cfa -24 + ^ $rbx: .cfa -56 + ^
STACK CFI 25771 .cfa: $rsp 8 +
STACK CFI 25772 .cfa: $rbp 16 +
STACK CFI INIT 25820 29c .cfa: $rsp 8 + .ra: .cfa -8 + ^
STACK CFI 25822 $r15: .cfa -16 + ^ .cfa: $rsp 16 +
STACK CFI 25824 $r14: .cfa -24 + ^ .cfa: $rsp 24 +
STACK CFI 25826 $r13: .cfa -32 + ^ .cfa: $rsp 32 +
STACK CFI 25828 $r12: .cfa -40 + ^ .cfa: $rsp 40 +
STACK CFI 25829 $rbp: .cfa -48 + ^ .cfa: $rsp 48 +
STACK CFI 2582a $rbx: .cfa -56 + ^ .cfa: $rsp 56 +
STACK CFI 25831 .cfa: $rsp 272 +
STACK CFI 25a50 .cfa: $rsp 56 +
STACK CFI 25a51 .cfa: $rsp 48 +
STACK CFI 25a52 .cfa: $rsp 40 +
STACK CFI 25a54 .cfa: $rsp 32 +
STACK CFI 25a56 .cfa: $rsp 24 +
STACK CFI 25a58 .cfa: $rsp 16 +
STACK CFI 25a5a .cfa: $rsp 8 +
STACK CFI 25a5b .cfa: $rsp 272 +
STACK CFI INIT 25ac0 1c79 .cfa: $rsp 8 + .ra: .cfa -8 + ^
STACK CFI 25ac2 $r15: .cfa -16 + ^ .cfa: $rsp 16 +
STACK CFI 25ac4 $r14: .cfa -24 + ^ .cfa: $rsp 24 +
STACK CFI 25ac6 $r13: .cfa -32 + ^ .cfa: $rsp 32 +
STACK CFI 25ac8 $r12: .cfa -40 + ^ .cfa: $rsp 40 +
STACK CFI 25ac9 $rbp: .cfa -48 + ^ .cfa: $rsp 48 +
STACK CFI 25aca $rbx: .cfa -56 + ^ .cfa: $rsp 56 +
STACK CFI 25ad1 .cfa: $rsp 400 +
STACK CFI 25d37 .cfa: $rsp 56 +
STACK CFI 25d38 .cfa: $rsp 48 +
STACK CFI 25d39 .cfa: $rsp 40 +
STACK CFI 25d3b .cfa: $rsp 32 +
STACK CFI 25d3d .cfa: $rsp 24 +
STACK CFI 25d3f .cfa: $rsp 16 +
STACK CFI 25d41 .cfa: $rsp 8 +
STACK CFI 25d48 .cfa: $rsp 400 +
STACK CFI INIT 27740 1294 .cfa: $rsp 8 + .ra: .cfa -8 + ^
STACK CFI 27741 $rbp: .cfa -16 + ^ .cfa: $rsp 16 +
STACK CFI 27744 .cfa: $rbp 16 +
STACK CFI 2774c $r12: .cfa -48 + ^ $r13: .cfa -40 + ^ $r14: .cfa -32 + ^ $r15: .cfa -24 + ^
STACK CFI 27750 $rbx: .cfa -56 + ^
STACK CFI 28219 .cfa: $rsp 8 +
STACK CFI 28220 .cfa: $rbp 16 +
STACK CFI INIT 289e0 992 .cfa: $rsp 8 + .ra: .cfa -8 + ^
STACK CFI 289e1 $rbp: .cfa -16 + ^ .cfa: $rsp 16 +
STACK CFI 289e4 .cfa: $rbp 16 +
STACK CFI 289ec $r12: .cfa -48 + ^ $r13: .cfa -40 + ^ $r14: .cfa -32 + ^ $r15: .cfa -24 + ^
STACK CFI 28a03 $rbx: .cfa -56 + ^
STACK CFI 290a4 .cfa: $rsp 8 +
STACK CFI 290a8 .cfa: $rbp 16 +
STACK CFI INIT 6d90 2e .cfa: $rsp 8 + .ra: .cfa -8 + ^
STACK CFI 6d9b .cfa: $rsp 16 +
STACK CFI 6db9 .cfa: $rsp 8 +
STACK CFI INIT 29380 27 .cfa: $rsp 8 + .ra: .cfa -8 + ^
STACK CFI INIT 293b0 4b4 .cfa: $rsp 8 + .ra: .cfa -8 + ^
STACK CFI 293b1 $rbp: .cfa -16 + ^ .cfa: $rsp 16 +
STACK CFI 293b4 .cfa: $rbp 16 +
STACK CFI 293c1 $r12: .cfa -48 + ^ $r13: .cfa -40 + ^ $r14: .cfa -32 + ^ $r15: .cfa -24 + ^ $rbx: .cfa -56 + ^
STACK CFI 29518 .cfa: $rsp 8 +
STACK CFI 29520 .cfa: $rbp 16 +
STACK CFI INIT 29870 28 .cfa: $rsp 8 + .ra: .cfa -8 + ^
STACK CFI INIT 298a0 17f .cfa: $rsp 8 + .ra: .cfa -8 + ^
STACK CFI 298a2 $r13: .cfa -16 + ^ .cfa: $rsp 16 +
STACK CFI 298a4 $r12: .cfa -24 + ^ .cfa: $rsp 24 +
STACK CFI 298a5 $rbp: .cfa -32 + ^ .cfa: $rsp 32 +
STACK CFI 298a6 $rbx: .cfa -40 + ^ .cfa: $rsp 40 +
STACK CFI 298b0 .cfa: $rsp 176 +
STACK CFI 299d7 .cfa: $rsp 40 +
STACK CFI 299d8 .cfa: $rsp 32 +
STACK CFI 299d9 .cfa: $rsp 24 +
STACK CFI 299db .cfa: $rsp 16 +
STACK CFI 299dd .cfa: $rsp 8 +
STACK CFI 299e0 .cfa: $rsp 176 +
STACK CFI INIT 29fc0 12e .cfa: $rsp 8 + .ra: .cfa -8 + ^
STACK CFI 29fc2 $r15: .cfa -16 + ^ .cfa: $rsp 16 +
STACK CFI 29fc4 $r14: .cfa -24 + ^ .cfa: $rsp 24 +
STACK CFI 29fc9 $r13: .cfa -32 + ^ .cfa: $rsp 32 +
STACK CFI 29fcb $r12: .cfa -40 + ^ .cfa: $rsp 40 +
STACK CFI 29fcf $rbp: .cfa -48 + ^ .cfa: $rsp 48 +
STACK CFI 29fd0 $rbx: .cfa -56 + ^ .cfa: $rsp 56 +
STACK CFI 29fd7 .cfa: $rsp 80 +
STACK CFI 2a09d .cfa: $rsp 56 +
STACK CFI 2a09e .cfa: $rsp 48 +
STACK CFI 2a09f .cfa: $rsp 40 +
STACK CFI 2a0a1 .cfa: $rsp 32 +
STACK CFI 2a0a3 .cfa: $rsp 24 +
STACK CFI 2a0a5 .cfa: $rsp 16 +
STACK CFI 2a0a7 .cfa: $rsp 8 +
STACK CFI 2a0b0 .cfa: $rsp 80 +
STACK CFI INIT 29a20 1cc .cfa: $rsp 8 + .ra: .cfa -8 + ^
STACK CFI 29a22 $r14: .cfa -16 + ^ .cfa: $rsp 16 +
STACK CFI 29a24 $r13: .cfa -24 + ^ .cfa: $rsp 24 +
STACK CFI 29a26 $r12: .cfa -32 + ^ .cfa: $rsp 32 +
STACK CFI 29a27 $rbp: .cfa -40 + ^ .cfa: $rsp 40 +
STACK CFI 29a28 $rbx: .cfa -48 + ^ .cfa: $rsp 48 +
STACK CFI 29a2c .cfa: $rsp 160 +
STACK CFI 29a86 .cfa: $rsp 48 +
STACK CFI 29a87 .cfa: $rsp 40 +
STACK CFI 29a88 .cfa: $rsp 32 +
STACK CFI 29a8a .cfa: $rsp 24 +
STACK CFI 29a8c .cfa: $rsp 16 +
STACK CFI 29a8e .cfa: $rsp 8 +
STACK CFI 29a90 .cfa: $rsp 160 +
STACK CFI INIT 2a0f0 12e .cfa: $rsp 8 + .ra: .cfa -8 + ^
STACK CFI 2a0f2 $r15: .cfa -16 + ^ .cfa: $rsp 16 +
STACK CFI 2a0f4 $r14: .cfa -24 + ^ .cfa: $rsp 24 +
STACK CFI 2a0f9 $r13: .cfa -32 + ^ .cfa: $rsp 32 +
STACK CFI 2a0fb $r12: .cfa -40 + ^ .cfa: $rsp 40 +
STACK CFI 2a0ff $rbp: .cfa -48 + ^ .cfa: $rsp 48 +
STACK CFI 2a100 $rbx: .cfa -56 + ^ .cfa: $rsp 56 +
STACK CFI 2a107 .cfa: $rsp 80 +
STACK CFI 2a1cd .cfa: $rsp 56 +
STACK CFI 2a1ce .cfa: $rsp 48 +
STACK CFI 2a1cf .cfa: $rsp 40 +
STACK CFI 2a1d1 .cfa: $rsp 32 +
STACK CFI 2a1d3 .cfa: $rsp 24 +
STACK CFI 2a1d5 .cfa: $rsp 16 +
STACK CFI 2a1d7 .cfa: $rsp 8 +
STACK CFI 2a1e0 .cfa: $rsp 80 +
STACK CFI INIT 29bf0 3ce .cfa: $rsp 8 + .ra: .cfa -8 + ^
STACK CFI 29bf2 $r15: .cfa -16 + ^ .cfa: $rsp 16 +
STACK CFI 29bf4 $r14: .cfa -24 + ^ .cfa: $rsp 24 +
STACK CFI 29bf9 $r13: .cfa -32 + ^ .cfa: $rsp 32 +
STACK CFI 29bfb $r12: .cfa -40 + ^ .cfa: $rsp 40 +
STACK CFI 29bff $rbp: .cfa -48 + ^ .cfa: $rsp 48 +
STACK CFI 29c00 $rbx: .cfa -56 + ^ .cfa: $rsp 56 +
STACK CFI 29c0a .cfa: $rsp 96 +
STACK CFI 29d17 .cfa: $rsp 56 +
STACK CFI 29d18 .cfa: $rsp 48 +
STACK CFI 29d19 .cfa: $rsp 40 +
STACK CFI 29d1b .cfa: $rsp 32 +
STACK CFI 29d1d .cfa: $rsp 24 +
STACK CFI 29d1f .cfa: $rsp 16 +
STACK CFI 29d21 .cfa: $rsp 8 +
STACK CFI 29d28 .cfa: $rsp 96 +
STACK CFI INIT 6dc0 2e .cfa: $rsp 8 + .ra: .cfa -8 + ^
STACK CFI 6dcb .cfa: $rsp 16 +
STACK CFI 6de9 .cfa: $rsp 8 +
STACK CFI INIT 2a440 2 .cfa: $rsp 8 + .ra: .cfa -8 + ^
STACK CFI INIT 2a220 93 .cfa: $rsp 8 + .ra: .cfa -8 + ^
STACK CFI 2a22c $rbx: .cfa -16 + ^ .cfa: $rsp 16 +
STACK CFI 2a2a9 .cfa: $rsp 8 +
STACK CFI 2a2b0 $rbx: $rbx
STACK CFI INIT 2a450 a .cfa: $rsp 8 + .ra: .cfa -8 + ^
STACK CFI INIT 2a2c0 135 .cfa: $rsp 8 + .ra: .cfa -8 + ^
STACK CFI 2a2c1 $rbp: .cfa -16 + ^ .cfa: $rsp 16 +
STACK CFI 2a2c2 $rbx: .cfa -24 + ^ .cfa: $rsp 24 +
STACK CFI 2a2c6 .cfa: $rsp 48 +
STACK CFI 2a388 .cfa: $rsp 24 +
STACK CFI 2a389 .cfa: $rsp 16 +
STACK CFI 2a38a .cfa: $rsp 8 +
STACK CFI 2a390 .cfa: $rsp 48 +
STACK CFI INIT 2a400 31 .cfa: $rsp 8 + .ra: .cfa -8 + ^
STACK CFI 2a402 $r12: .cfa -16 + ^ .cfa: $rsp 16 +
STACK CFI 2a403 $rbp: .cfa -24 + ^ .cfa: $rsp 24 +
STACK CFI 2a407 $rbx: .cfa -32 + ^ .cfa: $rsp 32 +
STACK CFI 2a42d .cfa: $rsp 24 +
STACK CFI 2a42e .cfa: $rsp 16 +
STACK CFI 2a430 .cfa: $rsp 8 +
STACK CFI INIT 6df0 2e .cfa: $rsp 8 + .ra: .cfa -8 + ^
STACK CFI 6dfb .cfa: $rsp 16 +
STACK CFI 6e19 .cfa: $rsp 8 +
STACK CFI INIT 2a460 8 .cfa: $rsp 8 + .ra: .cfa -8 + ^
STACK CFI INIT 2ade0 2 .cfa: $rsp 8 + .ra: .cfa -8 + ^
STACK CFI INIT 2adf0 a .cfa: $rsp 8 + .ra: .cfa -8 + ^
STACK CFI INIT 2ae00 42 .cfa: $rsp 8 + .ra: .cfa -8 + ^
STACK CFI 2ae08 $rbx: .cfa -16 + ^ .cfa: $rsp 16 +
STACK CFI 2ae32 .cfa: $rsp 8 +
STACK CFI 2ae40 .cfa: $rsp 16 +
STACK CFI 2ae41 .cfa: $rsp 8 +
STACK CFI INIT 2ae50 44 .cfa: $rsp 8 + .ra: .cfa -8 + ^
STACK CFI 2ae58 $rbx: .cfa -16 + ^ .cfa: $rsp 16 +
STACK CFI 2ae8f .cfa: $rsp 8 +
STACK CFI INIT 2a470 155 .cfa: $rsp 8 + .ra: .cfa -8 + ^
STACK CFI 2a471 $rbp: .cfa -16 + ^ .cfa: $rsp 16 +
STACK CFI 2a472 $rbx: .cfa -24 + ^ .cfa: $rsp 24 +
STACK CFI 2a476 .cfa: $rsp 48 +
STACK CFI 2a560 .cfa: $rsp 24 +
STACK CFI 2a561 .cfa: $rsp 16 +
STACK CFI 2a562 .cfa: $rsp 8 +
STACK CFI 2a568 .cfa: $rsp 48 +
STACK CFI INIT 2a5d0 46 .cfa: $rsp 8 + .ra: .cfa -8 + ^
STACK CFI 2a5d1 $rbp: .cfa -16 + ^ .cfa: $rsp 16 +
STACK CFI 2a5d2 $rbx: .cfa -24 + ^ .cfa: $rsp 24 +
STACK CFI 2a5e2 .cfa: $rsp 32 +
STACK CFI 2a613 .cfa: $rsp 24 +
STACK CFI 2a614 .cfa: $rsp 16 +
STACK CFI 2a615 .cfa: $rsp 8 +
STACK CFI INIT 2a620 19a .cfa: $rsp 8 + .ra: .cfa -8 + ^
STACK CFI 2a622 $r14: .cfa -16 + ^ .cfa: $rsp 16 +
STACK CFI 2a624 $r13: .cfa -24 + ^ .cfa: $rsp 24 +
STACK CFI 2a626 $r12: .cfa -32 + ^ .cfa: $rsp 32 +
STACK CFI 2a627 $rbp: .cfa -40 + ^ .cfa: $rsp 40 +
STACK CFI 2a628 $rbx: .cfa -48 + ^ .cfa: $rsp 48 +
STACK CFI 2a62c .cfa: $rsp 80 +
STACK CFI 2a6c6 .cfa: $rsp 48 +
STACK CFI 2a6c7 .cfa: $rsp 40 +
STACK CFI 2a6c8 .cfa: $rsp 32 +
STACK CFI 2a6ca .cfa: $rsp 24 +
STACK CFI 2a6cc .cfa: $rsp 16 +
STACK CFI 2a6ce .cfa: $rsp 8 +
STACK CFI 2a6d0 .cfa: $rsp 80 +
STACK CFI INIT 2a7c0 22d .cfa: $rsp 8 + .ra: .cfa -8 + ^
STACK CFI 2a7c2 $r15: .cfa -16 + ^ .cfa: $rsp 16 +
STACK CFI 2a7c4 $r14: .cfa -24 + ^ .cfa: $rsp 24 +
STACK CFI 2a7c6 $r13: .cfa -32 + ^ .cfa: $rsp 32 +
STACK CFI 2a7c8 $r12: .cfa -40 + ^ .cfa: $rsp 40 +
STACK CFI 2a7c9 $rbp: .cfa -48 + ^ .cfa: $rsp 48 +
STACK CFI 2a7ca $rbx: .cfa -56 + ^ .cfa: $rsp 56 +
STACK CFI 2a7ce .cfa: $rsp 80 +
STACK CFI 2a883 .cfa: $rsp 56 +
STACK CFI 2a884 .cfa: $rsp 48 +
STACK CFI 2a885 .cfa: $rsp 40 +
STACK CFI 2a887 .cfa: $rsp 32 +
STACK CFI 2a889 .cfa: $rsp 24 +
STACK CFI 2a88b .cfa: $rsp 16 +
STACK CFI 2a88d .cfa: $rsp 8 +
STACK CFI 2a890 .cfa: $rsp 80 +
STACK CFI INIT 2aea0 106 .cfa: $rsp 8 + .ra: .cfa -8 + ^
STACK CFI 2aea2 $r15: .cfa -16 + ^ .cfa: $rsp 16 +
STACK CFI 2aea4 $r14: .cfa -24 + ^ .cfa: $rsp 24 +
STACK CFI 2aea6 $r13: .cfa -32 + ^ .cfa: $rsp 32 +
STACK CFI 2aea8 $r12: .cfa -40 + ^ .cfa: $rsp 40 +
STACK CFI 2aead $rbp: .cfa -48 + ^ .cfa: $rsp 48 +
STACK CFI 2aeae $rbx: .cfa -56 + ^ .cfa: $rsp 56 +
STACK CFI 2aeb2 .cfa: $rsp 64 +
STACK CFI 2af5b .cfa: $rsp 56 +
STACK CFI 2af5f .cfa: $rsp 48 +
STACK CFI 2af60 .cfa: $rsp 40 +
STACK CFI 2af62 .cfa: $rsp 32 +
STACK CFI 2af64 .cfa: $rsp 24 +
STACK CFI 2af66 .cfa: $rsp 16 +
STACK CFI 2af68 .cfa: $rsp 8 +
STACK CFI 2af70 .cfa: $rsp 64 +
STACK CFI 2af74 .cfa: $rsp 56 +
STACK CFI 2af78 .cfa: $rsp 48 +
STACK CFI 2af79 .cfa: $rsp 40 +
STACK CFI 2af7b .cfa: $rsp 32 +
STACK CFI 2af7d .cfa: $rsp 24 +
STACK CFI 2af7f .cfa: $rsp 16 +
STACK CFI 2af81 .cfa: $rsp 8 +
STACK CFI 2af88 .cfa: $rsp 64 +
STACK CFI INIT 2afb0 8da .cfa: $rsp 8 + .ra: .cfa -8 + ^
STACK CFI 2afb2 $r15: .cfa -16 + ^ .cfa: $rsp 16 +
STACK CFI 2afb4 $r14: .cfa -24 + ^ .cfa: $rsp 24 +
STACK CFI 2afb6 $r13: .cfa -32 + ^ .cfa: $rsp 32 +
STACK CFI 2afb8 $r12: .cfa -40 + ^ .cfa: $rsp 40 +
STACK CFI 2afb9 $rbp: .cfa -48 + ^ .cfa: $rsp 48 +
STACK CFI 2afba $rbx: .cfa -56 + ^ .cfa: $rsp 56 +
STACK CFI 2afc4 .cfa: $rsp 384 +
STACK CFI 2b536 .cfa: $rsp 56 +
STACK CFI 2b537 .cfa: $rsp 48 +
STACK CFI 2b538 .cfa: $rsp 40 +
STACK CFI 2b53a .cfa: $rsp 32 +
STACK CFI 2b53c .cfa: $rsp 24 +
STACK CFI 2b53e .cfa: $rsp 16 +
STACK CFI 2b540 .cfa: $rsp 8 +
STACK CFI 2b548 .cfa: $rsp 384 +
STACK CFI INIT 2a9f0 12f .cfa: $rsp 8 + .ra: .cfa -8 + ^
STACK CFI 2a9f1 $rbp: .cfa -16 + ^ .cfa: $rsp 16 +
STACK CFI 2a9f4 .cfa: $rbp 16 +
STACK CFI 2a9fb $r12: .cfa -40 + ^ $r13: .cfa -32 + ^ $r14: .cfa -24 + ^ $rbx: .cfa -48 + ^
STACK CFI 2aaed .cfa: $rsp 8 +
STACK CFI 2aaf0 .cfa: $rbp 16 +
STACK CFI 2ab0a .cfa: $rsp 8 +
STACK CFI 2ab0b .cfa: $rbp 16 +
STACK CFI INIT 2ab20 2be .cfa: $rsp 8 + .ra: .cfa -8 + ^
STACK CFI 2ab22 $r15: .cfa -16 + ^ .cfa: $rsp 16 +
STACK CFI 2ab24 $r14: .cfa -24 + ^ .cfa: $rsp 24 +
STACK CFI 2ab26 $r13: .cfa -32 + ^ .cfa: $rsp 32 +
STACK CFI 2ab28 $r12: .cfa -40 + ^ .cfa: $rsp 40 +
STACK CFI 2ab29 $rbp: .cfa -48 + ^ .cfa: $rsp 48 +
STACK CFI 2ab2a $rbx: .cfa -56 + ^ .cfa: $rsp 56 +
STACK CFI 2ab2e .cfa: $rsp 80 +
STACK CFI 2ac22 .cfa: $rsp 56 +
STACK CFI 2ac23 .cfa: $rsp 48 +
STACK CFI 2ac24 .cfa: $rsp 40 +
STACK CFI 2ac26 .cfa: $rsp 32 +
STACK CFI 2ac28 .cfa: $rsp 24 +
STACK CFI 2ac2a .cfa: $rsp 16 +
STACK CFI 2ac2c .cfa: $rsp 8 +
STACK CFI 2ac30 .cfa: $rsp 80 +
STACK CFI INIT 6e20 2e .cfa: $rsp 8 + .ra: .cfa -8 + ^
STACK CFI 6e2b .cfa: $rsp 16 +
STACK CFI 6e49 .cfa: $rsp 8 +
STACK CFI INIT 2c9a0 2 .cfa: $rsp 8 + .ra: .cfa -8 + ^
STACK CFI INIT 2c9b0 a .cfa: $rsp 8 + .ra: .cfa -8 + ^
STACK CFI INIT 2c9c0 42 .cfa: $rsp 8 + .ra: .cfa -8 + ^
STACK CFI 2c9c8 $rbx: .cfa -16 + ^ .cfa: $rsp 16 +
STACK CFI 2c9f2 .cfa: $rsp 8 +
STACK CFI 2ca00 .cfa: $rsp 16 +
STACK CFI 2ca01 .cfa: $rsp 8 +
STACK CFI INIT 2ca10 44 .cfa: $rsp 8 + .ra: .cfa -8 + ^
STACK CFI 2ca18 $rbx: .cfa -16 + ^ .cfa: $rsp 16 +
STACK CFI 2ca4f .cfa: $rsp 8 +
STACK CFI INIT 2b890 13d .cfa: $rsp 8 + .ra: .cfa -8 + ^
STACK CFI 2b891 $rbp: .cfa -16 + ^ .cfa: $rsp 16 +
STACK CFI 2b892 $rbx: .cfa -24 + ^ .cfa: $rsp 24 +
STACK CFI 2b896 .cfa: $rsp 48 +
STACK CFI 2b965 .cfa: $rsp 24 +
STACK CFI 2b966 .cfa: $rsp 16 +
STACK CFI 2b967 .cfa: $rsp 8 +
STACK CFI 2b970 .cfa: $rsp 48 +
STACK CFI INIT 2b9d0 3d .cfa: $rsp 8 + .ra: .cfa -8 + ^
STACK CFI 2b9d2 $r12: .cfa -16 + ^ .cfa: $rsp 16 +
STACK CFI 2b9d6 $rbp: .cfa -24 + ^ .cfa: $rsp 24 +
STACK CFI 2b9da $rbx: .cfa -32 + ^ .cfa: $rsp 32 +
STACK CFI 2ba09 .cfa: $rsp 24 +
STACK CFI 2ba0a .cfa: $rsp 16 +
STACK CFI 2ba0c .cfa: $rsp 8 +
STACK CFI INIT 2ba10 186 .cfa: $rsp 8 + .ra: .cfa -8 + ^
STACK CFI 2ba12 $r14: .cfa -16 + ^ .cfa: $rsp 16 +
STACK CFI 2ba14 $r13: .cfa -24 + ^ .cfa: $rsp 24 +
STACK CFI 2ba16 $r12: .cfa -32 + ^ .cfa: $rsp 32 +
STACK CFI 2ba17 $rbp: .cfa -40 + ^ .cfa: $rsp 40 +
STACK CFI 2ba18 $rbx: .cfa -48 + ^ .cfa: $rsp 48 +
STACK CFI 2ba1c .cfa: $rsp 64 +
STACK CFI 2bad1 .cfa: $rsp 48 +
STACK CFI 2bad2 .cfa: $rsp 40 +
STACK CFI 2bad3 .cfa: $rsp 32 +
STACK CFI 2bad5 .cfa: $rsp 24 +
STACK CFI 2bad7 .cfa: $rsp 16 +
STACK CFI 2bad9 .cfa: $rsp 8 +
STACK CFI 2bae0 .cfa: $rsp 64 +
STACK CFI INIT 2bba0 29d .cfa: $rsp 8 + .ra: .cfa -8 + ^
STACK CFI 2bba2 $r13: .cfa -16 + ^ .cfa: $rsp 16 +
STACK CFI 2bba4 $r12: .cfa -24 + ^ .cfa: $rsp 24 +
STACK CFI 2bba5 $rbp: .cfa -32 + ^ .cfa: $rsp 32 +
STACK CFI 2bba6 $rbx: .cfa -40 + ^ .cfa: $rsp 40 +
STACK CFI 2bbaa .cfa: $rsp 80 +
STACK CFI 2bce4 .cfa: $rsp 40 +
STACK CFI 2bce5 .cfa: $rsp 32 +
STACK CFI 2bce6 .cfa: $rsp 24 +
STACK CFI 2bce8 .cfa: $rsp 16 +
STACK CFI 2bcea .cfa: $rsp 8 +
STACK CFI 2bcf0 .cfa: $rsp 80 +
STACK CFI INIT 2ca60 106 .cfa: $rsp 8 + .ra: .cfa -8 + ^
STACK CFI 2ca62 $r15: .cfa -16 + ^ .cfa: $rsp 16 +
STACK CFI 2ca64 $r14: .cfa -24 + ^ .cfa: $rsp 24 +
STACK CFI 2ca66 $r13: .cfa -32 + ^ .cfa: $rsp 32 +
STACK CFI 2ca68 $r12: .cfa -40 + ^ .cfa: $rsp 40 +
STACK CFI 2ca6d $rbp: .cfa -48 + ^ .cfa: $rsp 48 +
STACK CFI 2ca6e $rbx: .cfa -56 + ^ .cfa: $rsp 56 +
STACK CFI 2ca72 .cfa: $rsp 64 +
STACK CFI 2cb1b .cfa: $rsp 56 +
STACK CFI 2cb1f .cfa: $rsp 48 +
STACK CFI 2cb20 .cfa: $rsp 40 +
STACK CFI 2cb22 .cfa: $rsp 32 +
STACK CFI 2cb24 .cfa: $rsp 24 +
STACK CFI 2cb26 .cfa: $rsp 16 +
STACK CFI 2cb28 .cfa: $rsp 8 +
STACK CFI 2cb30 .cfa: $rsp 64 +
STACK CFI 2cb34 .cfa: $rsp 56 +
STACK CFI 2cb38 .cfa: $rsp 48 +
STACK CFI 2cb39 .cfa: $rsp 40 +
STACK CFI 2cb3b .cfa: $rsp 32 +
STACK CFI 2cb3d .cfa: $rsp 24 +
STACK CFI 2cb3f .cfa: $rsp 16 +
STACK CFI 2cb41 .cfa: $rsp 8 +
STACK CFI 2cb48 .cfa: $rsp 64 +
STACK CFI INIT 2be40 8a1 .cfa: $rsp 8 + .ra: .cfa -8 + ^
STACK CFI 2be42 $r15: .cfa -16 + ^ .cfa: $rsp 16 +
STACK CFI 2be44 $r14: .cfa -24 + ^ .cfa: $rsp 24 +
STACK CFI 2be46 $r13: .cfa -32 + ^ .cfa: $rsp 32 +
STACK CFI 2be48 $r12: .cfa -40 + ^ .cfa: $rsp 40 +
STACK CFI 2be49 $rbp: .cfa -48 + ^ .cfa: $rsp 48 +
STACK CFI 2be4a $rbx: .cfa -56 + ^ .cfa: $rsp 56 +
STACK CFI 2be5a .cfa: $rsp 288 +
STACK CFI 2c3f5 .cfa: $rsp 56 +
STACK CFI 2c3f6 .cfa: $rsp 48 +
STACK CFI 2c3f7 .cfa: $rsp 40 +
STACK CFI 2c3f9 .cfa: $rsp 32 +
STACK CFI 2c3fb .cfa: $rsp 24 +
STACK CFI 2c3fd .cfa: $rsp 16 +
STACK CFI 2c3ff .cfa: $rsp 8 +
STACK CFI 2c400 .cfa: $rsp 288 +
STACK CFI INIT 2c6f0 2aa .cfa: $rsp 8 + .ra: .cfa -8 + ^
STACK CFI 2c6f2 $r15: .cfa -16 + ^ .cfa: $rsp 16 +
STACK CFI 2c6f4 $r14: .cfa -24 + ^ .cfa: $rsp 24 +
STACK CFI 2c6f6 $r13: .cfa -32 + ^ .cfa: $rsp 32 +
STACK CFI 2c6f8 $r12: .cfa -40 + ^ .cfa: $rsp 40 +
STACK CFI 2c6f9 $rbp: .cfa -48 + ^ .cfa: $rsp 48 +
STACK CFI 2c6fa $rbx: .cfa -56 + ^ .cfa: $rsp 56 +
STACK CFI 2c6fe .cfa: $rsp 96 +
STACK CFI 2c82b .cfa: $rsp 56 +
STACK CFI 2c82c .cfa: $rsp 48 +
STACK CFI 2c82d .cfa: $rsp 40 +
STACK CFI 2c82f .cfa: $rsp 32 +
STACK CFI 2c831 .cfa: $rsp 24 +
STACK CFI 2c833 .cfa: $rsp 16 +
STACK CFI 2c835 .cfa: $rsp 8 +
STACK CFI 2c840 .cfa: $rsp 96 +
STACK CFI INIT 6e50 2e .cfa: $rsp 8 + .ra: .cfa -8 + ^
STACK CFI 6e5b .cfa: $rsp 16 +
STACK CFI 6e79 .cfa: $rsp 8 +
STACK CFI INIT 2dc10 2 .cfa: $rsp 8 + .ra: .cfa -8 + ^
STACK CFI INIT 2dc20 a .cfa: $rsp 8 + .ra: .cfa -8 + ^
STACK CFI INIT 2dc30 42 .cfa: $rsp 8 + .ra: .cfa -8 + ^
STACK CFI 2dc38 $rbx: .cfa -16 + ^ .cfa: $rsp 16 +
STACK CFI 2dc62 .cfa: $rsp 8 +
STACK CFI 2dc70 .cfa: $rsp 16 +
STACK CFI 2dc71 .cfa: $rsp 8 +
STACK CFI INIT 2dc80 44 .cfa: $rsp 8 + .ra: .cfa -8 + ^
STACK CFI 2dc88 $rbx: .cfa -16 + ^ .cfa: $rsp 16 +
STACK CFI 2dcbf .cfa: $rsp 8 +
STACK CFI INIT 2cb70 13d .cfa: $rsp 8 + .ra: .cfa -8 + ^
STACK CFI 2cb71 $rbp: .cfa -16 + ^ .cfa: $rsp 16 +
STACK CFI 2cb72 $rbx: .cfa -24 + ^ .cfa: $rsp 24 +
STACK CFI 2cb76 .cfa: $rsp 48 +
STACK CFI 2cc48 .cfa: $rsp 24 +
STACK CFI 2cc49 .cfa: $rsp 16 +
STACK CFI 2cc4a .cfa: $rsp 8 +
STACK CFI 2cc50 .cfa: $rsp 48 +
STACK CFI INIT 2ccb0 3b .cfa: $rsp 8 + .ra: .cfa -8 + ^
STACK CFI 2ccb1 $rbp: .cfa -16 + ^ .cfa: $rsp 16 +
STACK CFI 2ccb2 $rbx: .cfa -24 + ^ .cfa: $rsp 24 +
STACK CFI 2ccc2 .cfa: $rsp 32 +
STACK CFI 2cce8 .cfa: $rsp 24 +
STACK CFI 2cce9 .cfa: $rsp 16 +
STACK CFI 2ccea .cfa: $rsp 8 +
STACK CFI INIT 2ccf0 190 .cfa: $rsp 8 + .ra: .cfa -8 + ^
STACK CFI 2ccf2 $r14: .cfa -16 + ^ .cfa: $rsp 16 +
STACK CFI 2ccf4 $r13: .cfa -24 + ^ .cfa: $rsp 24 +
STACK CFI 2ccf6 $r12: .cfa -32 + ^ .cfa: $rsp 32 +
STACK CFI 2ccf7 $rbp: .cfa -40 + ^ .cfa: $rsp 40 +
STACK CFI 2ccf8 $rbx: .cfa -48 + ^ .cfa: $rsp 48 +
STACK CFI 2ccfc .cfa: $rsp 64 +
STACK CFI 2cdb2 .cfa: $rsp 48 +
STACK CFI 2cdb3 .cfa: $rsp 40 +
STACK CFI 2cdb4 .cfa: $rsp 32 +
STACK CFI 2cdb6 .cfa: $rsp 24 +
STACK CFI 2cdb8 .cfa: $rsp 16 +
STACK CFI 2cdba .cfa: $rsp 8 +
STACK CFI 2cdc0 .cfa: $rsp 64 +
STACK CFI INIT 2ce80 26d .cfa: $rsp 8 + .ra: .cfa -8 + ^
STACK CFI 2ce82 $r12: .cfa -16 + ^ .cfa: $rsp 16 +
STACK CFI 2ce83 $rbp: .cfa -24 + ^ .cfa: $rsp 24 +
STACK CFI 2ce84 $rbx: .cfa -32 + ^ .cfa: $rsp 32 +
STACK CFI 2ce88 .cfa: $rsp 64 +
STACK CFI 2cfaf .cfa: $rsp 32 +
STACK CFI 2cfb0 .cfa: $rsp 24 +
STACK CFI 2cfb1 .cfa: $rsp 16 +
STACK CFI 2cfb3 .cfa: $rsp 8 +
STACK CFI 2cfb8 .cfa: $rsp 64 +
STACK CFI INIT 2d0f0 8a9 .cfa: $rsp 8 + .ra: .cfa -8 + ^
STACK CFI 2d0f2 $r15: .cfa -16 + ^ .cfa: $rsp 16 +
STACK CFI 2d0f4 $r14: .cfa -24 + ^ .cfa: $rsp 24 +
STACK CFI 2d0f6 $r13: .cfa -32 + ^ .cfa: $rsp 32 +
STACK CFI 2d0f8 $r12: .cfa -40 + ^ .cfa: $rsp 40 +
STACK CFI 2d0f9 $rbp: .cfa -48 + ^ .cfa: $rsp 48 +
STACK CFI 2d0fa $rbx: .cfa -56 + ^ .cfa: $rsp 56 +
STACK CFI 2d10a .cfa: $rsp 288 +
STACK CFI 2d6d7 .cfa: $rsp 56 +
STACK CFI 2d6d8 .cfa: $rsp 48 +
STACK CFI 2d6d9 .cfa: $rsp 40 +
STACK CFI 2d6db .cfa: $rsp 32 +
STACK CFI 2d6dd .cfa: $rsp 24 +
STACK CFI 2d6df .cfa: $rsp 16 +
STACK CFI 2d6e1 .cfa: $rsp 8 +
STACK CFI 2d6e8 .cfa: $rsp 288 +
STACK CFI INIT 2d9a0 26e .cfa: $rsp 8 + .ra: .cfa -8 + ^
STACK CFI 2d9a2 $r15: .cfa -16 + ^ .cfa: $rsp 16 +
STACK CFI 2d9a4 $r14: .cfa -24 + ^ .cfa: $rsp 24 +
STACK CFI 2d9a6 $r13: .cfa -32 + ^ .cfa: $rsp 32 +
STACK CFI 2d9a8 $r12: .cfa -40 + ^ .cfa: $rsp 40 +
STACK CFI 2d9a9 $rbp: .cfa -48 + ^ .cfa: $rsp 48 +
STACK CFI 2d9aa $rbx: .cfa -56 + ^ .cfa: $rsp 56 +
STACK CFI 2d9ae .cfa: $rsp 80 +
STACK CFI 2db0a .cfa: $rsp 56 +
STACK CFI 2db0b .cfa: $rsp 48 +
STACK CFI 2db0c .cfa: $rsp 40 +
STACK CFI 2db0e .cfa: $rsp 32 +
STACK CFI 2db10 .cfa: $rsp 24 +
STACK CFI 2db12 .cfa: $rsp 16 +
STACK CFI 2db14 .cfa: $rsp 8 +
STACK CFI 2db18 .cfa: $rsp 80 +
STACK CFI INIT 6e80 2e .cfa: $rsp 8 + .ra: .cfa -8 + ^
STACK CFI 6e8b .cfa: $rsp 16 +
STACK CFI 6ea9 .cfa: $rsp 8 +
STACK CFI INIT 31630 2 .cfa: $rsp 8 + .ra: .cfa -8 + ^
STACK CFI INIT 31640 a .cfa: $rsp 8 + .ra: .cfa -8 + ^
STACK CFI INIT 31650 42 .cfa: $rsp 8 + .ra: .cfa -8 + ^
STACK CFI 31658 $rbx: .cfa -16 + ^ .cfa: $rsp 16 +
STACK CFI 31682 .cfa: $rsp 8 +
STACK CFI 31690 .cfa: $rsp 16 +
STACK CFI 31691 .cfa: $rsp 8 +
STACK CFI INIT 316a0 44 .cfa: $rsp 8 + .ra: .cfa -8 + ^
STACK CFI 316a8 $rbx: .cfa -16 + ^ .cfa: $rsp 16 +
STACK CFI 316df .cfa: $rsp 8 +
STACK CFI INIT 2dcd0 13d .cfa: $rsp 8 + .ra: .cfa -8 + ^
STACK CFI 2dcd1 $rbp: .cfa -16 + ^ .cfa: $rsp 16 +
STACK CFI 2dcd2 $rbx: .cfa -24 + ^ .cfa: $rsp 24 +
STACK CFI 2dcd6 .cfa: $rsp 48 +
STACK CFI 2dda7 .cfa: $rsp 24 +
STACK CFI 2dda8 .cfa: $rsp 16 +
STACK CFI 2dda9 .cfa: $rsp 8 +
STACK CFI 2ddb0 .cfa: $rsp 48 +
STACK CFI INIT 2de10 2ae .cfa: $rsp 8 + .ra: .cfa -8 + ^
STACK CFI 2de12 $r14: .cfa -16 + ^ .cfa: $rsp 16 +
STACK CFI 2de14 $r13: .cfa -24 + ^ .cfa: $rsp 24 +
STACK CFI 2de16 $r12: .cfa -32 + ^ .cfa: $rsp 32 +
STACK CFI 2de17 $rbp: .cfa -40 + ^ .cfa: $rsp 40 +
STACK CFI 2de1b $rbx: .cfa -48 + ^ .cfa: $rsp 48 +
STACK CFI 2de2b .cfa: $rsp 144 +
STACK CFI 2dea3 .cfa: $rsp 48 +
STACK CFI 2dea4 .cfa: $rsp 40 +
STACK CFI 2dea5 .cfa: $rsp 32 +
STACK CFI 2dea7 .cfa: $rsp 24 +
STACK CFI 2dea9 .cfa: $rsp 16 +
STACK CFI 2deab .cfa: $rsp 8 +
STACK CFI 2deb0 .cfa: $rsp 144 +
STACK CFI INIT 2e0c0 53a .cfa: $rsp 8 + .ra: .cfa -8 + ^
STACK CFI 2e0c2 $r15: .cfa -16 + ^ .cfa: $rsp 16 +
STACK CFI 2e0c4 $r14: .cfa -24 + ^ .cfa: $rsp 24 +
STACK CFI 2e0c6 $r13: .cfa -32 + ^ .cfa: $rsp 32 +
STACK CFI 2e0c8 $r12: .cfa -40 + ^ .cfa: $rsp 40 +
STACK CFI 2e0c9 $rbp: .cfa -48 + ^ .cfa: $rsp 48 +
STACK CFI 2e0ca $rbx: .cfa -56 + ^ .cfa: $rsp 56 +
STACK CFI 2e0d1 .cfa: $rsp 112 +
STACK CFI 2e33d .cfa: $rsp 56 +
STACK CFI 2e33e .cfa: $rsp 48 +
STACK CFI 2e33f .cfa: $rsp 40 +
STACK CFI 2e341 .cfa: $rsp 32 +
STACK CFI 2e343 .cfa: $rsp 24 +
STACK CFI 2e345 .cfa: $rsp 16 +
STACK CFI 2e347 .cfa: $rsp 8 +
STACK CFI 2e350 .cfa: $rsp 112 +
STACK CFI INIT 316f0 25d .cfa: $rsp 8 + .ra: .cfa -8 + ^
STACK CFI 316f2 $r15: .cfa -16 + ^ .cfa: $rsp 16 +
STACK CFI 316f4 $r14: .cfa -24 + ^ .cfa: $rsp 24 +
STACK CFI 316fa $r13: .cfa -32 + ^ .cfa: $rsp 32 +
STACK CFI 316fc $r12: .cfa -40 + ^ .cfa: $rsp 40 +
STACK CFI 31700 $rbp: .cfa -48 + ^ .cfa: $rsp 48 +
STACK CFI 31701 $rbx: .cfa -56 + ^ .cfa: $rsp 56 +
STACK CFI 31708 .cfa: $rsp 80 +
STACK CFI 31866 .cfa: $rsp 56 +
STACK CFI 3186b .cfa: $rsp 48 +
STACK CFI 3186c .cfa: $rsp 40 +
STACK CFI 3186e .cfa: $rsp 32 +
STACK CFI 31870 .cfa: $rsp 24 +
STACK CFI 31872 .cfa: $rsp 16 +
STACK CFI 31874 .cfa: $rsp 8 +
STACK CFI 31878 .cfa: $rsp 80 +
STACK CFI INIT 31950 25d .cfa: $rsp 8 + .ra: .cfa -8 + ^
STACK CFI 31952 $r15: .cfa -16 + ^ .cfa: $rsp 16 +
STACK CFI 31954 $r14: .cfa -24 + ^ .cfa: $rsp 24 +
STACK CFI 3195a $r13: .cfa -32 + ^ .cfa: $rsp 32 +
STACK CFI 3195c $r12: .cfa -40 + ^ .cfa: $rsp 40 +
STACK CFI 31960 $rbp: .cfa -48 + ^ .cfa: $rsp 48 +
STACK CFI 31961 $rbx: .cfa -56 + ^ .cfa: $rsp 56 +
STACK CFI 31968 .cfa: $rsp 80 +
STACK CFI 31ac6 .cfa: $rsp 56 +
STACK CFI 31acb .cfa: $rsp 48 +
STACK CFI 31acc .cfa: $rsp 40 +
STACK CFI 31ace .cfa: $rsp 32 +
STACK CFI 31ad0 .cfa: $rsp 24 +
STACK CFI 31ad2 .cfa: $rsp 16 +
STACK CFI 31ad4 .cfa: $rsp 8 +
STACK CFI 31ad8 .cfa: $rsp 80 +
STACK CFI INIT 2e600 2ddf .cfa: $rsp 8 + .ra: .cfa -8 + ^
STACK CFI 2e602 $r15: .cfa -16 + ^ .cfa: $rsp 16 +
STACK CFI 2e604 $r14: .cfa -24 + ^ .cfa: $rsp 24 +
STACK CFI 2e606 $r13: .cfa -32 + ^ .cfa: $rsp 32 +
STACK CFI 2e608 $r12: .cfa -40 + ^ .cfa: $rsp 40 +
STACK CFI 2e609 $rbp: .cfa -48 + ^ .cfa: $rsp 48 +
STACK CFI 2e60a $rbx: .cfa -56 + ^ .cfa: $rsp 56 +
STACK CFI 2e611 .cfa: $rsp 336 +
STACK CFI 2f6d4 .cfa: $rsp 56 +
STACK CFI 2f6d5 .cfa: $rsp 48 +
STACK CFI 2f6d6 .cfa: $rsp 40 +
STACK CFI 2f6d8 .cfa: $rsp 32 +
STACK CFI 2f6da .cfa: $rsp 24 +
STACK CFI 2f6dc .cfa: $rsp 16 +
STACK CFI 2f6de .cfa: $rsp 8 +
STACK CFI 2f6e0 .cfa: $rsp 336 +
STACK CFI INIT 313e0 24b .cfa: $rsp 8 + .ra: .cfa -8 + ^
STACK CFI 313e2 $r15: .cfa -16 + ^ .cfa: $rsp 16 +
STACK CFI 313e4 $r14: .cfa -24 + ^ .cfa: $rsp 24 +
STACK CFI 313e6 $r13: .cfa -32 + ^ .cfa: $rsp 32 +
STACK CFI 313e8 $r12: .cfa -40 + ^ .cfa: $rsp 40 +
STACK CFI 313e9 $rbp: .cfa -48 + ^ .cfa: $rsp 48 +
STACK CFI 313ea $rbx: .cfa -56 + ^ .cfa: $rsp 56 +
STACK CFI 313ee .cfa: $rsp 80 +
STACK CFI 31513 .cfa: $rsp 56 +
STACK CFI 31514 .cfa: $rsp 48 +
STACK CFI 31515 .cfa: $rsp 40 +
STACK CFI 31517 .cfa: $rsp 32 +
STACK CFI 31519 .cfa: $rsp 24 +
STACK CFI 3151b .cfa: $rsp 16 +
STACK CFI 3151d .cfa: $rsp 8 +
STACK CFI 31520 .cfa: $rsp 80 +
STACK CFI INIT 6eb0 2e .cfa: $rsp 8 + .ra: .cfa -8 + ^
STACK CFI 6ebb .cfa: $rsp 16 +
STACK CFI 6ed9 .cfa: $rsp 8 +
STACK CFI INIT 32150 2 .cfa: $rsp 8 + .ra: .cfa -8 + ^
STACK CFI INIT 32160 a .cfa: $rsp 8 + .ra: .cfa -8 + ^
STACK CFI INIT 32170 42 .cfa: $rsp 8 + .ra: .cfa -8 + ^
STACK CFI 32178 $rbx: .cfa -16 + ^ .cfa: $rsp 16 +
STACK CFI 321a2 .cfa: $rsp 8 +
STACK CFI 321b0 .cfa: $rsp 16 +
STACK CFI 321b1 .cfa: $rsp 8 +
STACK CFI INIT 321c0 44 .cfa: $rsp 8 + .ra: .cfa -8 + ^
STACK CFI 321c8 $rbx: .cfa -16 + ^ .cfa: $rsp 16 +
STACK CFI 321ff .cfa: $rsp 8 +
STACK CFI INIT 31bb0 254 .cfa: $rsp 8 + .ra: .cfa -8 + ^
STACK CFI 31bb2 $r13: .cfa -16 + ^ .cfa: $rsp 16 +
STACK CFI 31bb4 $r12: .cfa -24 + ^ .cfa: $rsp 24 +
STACK CFI 31bb8 $rbp: .cfa -32 + ^ .cfa: $rsp 32 +
STACK CFI 31bb9 $rbx: .cfa -40 + ^ .cfa: $rsp 40 +
STACK CFI 31bbd .cfa: $rsp 80 +
STACK CFI 31d71 .cfa: $rsp 40 +
STACK CFI 31d72 .cfa: $rsp 32 +
STACK CFI 31d73 .cfa: $rsp 24 +
STACK CFI 31d75 .cfa: $rsp 16 +
STACK CFI 31d77 .cfa: $rsp 8 +
STACK CFI 31d80 .cfa: $rsp 80 +
STACK CFI INIT 31e10 17d .cfa: $rsp 8 + .ra: .cfa -8 + ^
STACK CFI 31e11 $rbp: .cfa -16 + ^ .cfa: $rsp 16 +
STACK CFI 31e12 $rbx: .cfa -24 + ^ .cfa: $rsp 24 +
STACK CFI 31e16 .cfa: $rsp 48 +
STACK CFI 31f25 .cfa: $rsp 24 +
STACK CFI 31f26 .cfa: $rsp 16 +
STACK CFI 31f27 .cfa: $rsp 8 +
STACK CFI 31f30 .cfa: $rsp 48 +
STACK CFI INIT 31f90 1c0 .cfa: $rsp 8 + .ra: .cfa -8 + ^
STACK CFI 31f92 $r14: .cfa -16 + ^ .cfa: $rsp 16 +
STACK CFI 31f94 $r13: .cfa -24 + ^ .cfa: $rsp 24 +
STACK CFI 31f96 $r12: .cfa -32 + ^ .cfa: $rsp 32 +
STACK CFI 31f97 $rbp: .cfa -40 + ^ .cfa: $rsp 40 +
STACK CFI 31f9b $rbx: .cfa -48 + ^ .cfa: $rsp 48 +
STACK CFI 31fab .cfa: $rsp 144 +
STACK CFI 32017 .cfa: $rsp 48 +
STACK CFI 32018 .cfa: $rsp 40 +
STACK CFI 32019 .cfa: $rsp 32 +
STACK CFI 3201b .cfa: $rsp 24 +
STACK CFI 3201d .cfa: $rsp 16 +
STACK CFI 3201f .cfa: $rsp 8 +
STACK CFI 32020 .cfa: $rsp 144 +
STACK CFI INIT 6ee0 2e .cfa: $rsp 8 + .ra: .cfa -8 + ^
STACK CFI 6eeb .cfa: $rsp 16 +
STACK CFI 6f09 .cfa: $rsp 8 +
STACK CFI INIT 325c0 2 .cfa: $rsp 8 + .ra: .cfa -8 + ^
STACK CFI INIT 325d0 a .cfa: $rsp 8 + .ra: .cfa -8 + ^
STACK CFI INIT 325e0 42 .cfa: $rsp 8 + .ra: .cfa -8 + ^
STACK CFI 325e8 $rbx: .cfa -16 + ^ .cfa: $rsp 16 +
STACK CFI 32612 .cfa: $rsp 8 +
STACK CFI 32620 .cfa: $rsp 16 +
STACK CFI 32621 .cfa: $rsp 8 +
STACK CFI INIT 32630 44 .cfa: $rsp 8 + .ra: .cfa -8 + ^
STACK CFI 32638 $rbx: .cfa -16 + ^ .cfa: $rsp 16 +
STACK CFI 3266f .cfa: $rsp 8 +
STACK CFI INIT 32210 13d .cfa: $rsp 8 + .ra: .cfa -8 + ^
STACK CFI 32211 $rbp: .cfa -16 + ^ .cfa: $rsp 16 +
STACK CFI 32212 $rbx: .cfa -24 + ^ .cfa: $rsp 24 +
STACK CFI 32216 .cfa: $rsp 48 +
STACK CFI 322e7 .cfa: $rsp 24 +
STACK CFI 322e8 .cfa: $rsp 16 +
STACK CFI 322e9 .cfa: $rsp 8 +
STACK CFI 322f0 .cfa: $rsp 48 +
STACK CFI INIT 32350 22f .cfa: $rsp 8 + .ra: .cfa -8 + ^
STACK CFI 32352 $r13: .cfa -16 + ^ .cfa: $rsp 16 +
STACK CFI 32354 $r12: .cfa -24 + ^ .cfa: $rsp 24 +
STACK CFI 32358 $rbp: .cfa -32 + ^ .cfa: $rsp 32 +
STACK CFI 32359 $rbx: .cfa -40 + ^ .cfa: $rsp 40 +
STACK CFI 3235d .cfa: $rsp 80 +
STACK CFI 324df .cfa: $rsp 40 +
STACK CFI 324e0 .cfa: $rsp 32 +
STACK CFI 324e1 .cfa: $rsp 24 +
STACK CFI 324e3 .cfa: $rsp 16 +
STACK CFI 324e5 .cfa: $rsp 8 +
STACK CFI 324f0 .cfa: $rsp 80 +
STACK CFI INIT 32580 33 .cfa: $rsp 8 + .ra: .cfa -8 + ^
STACK CFI 32581 $rbp: .cfa -16 + ^ .cfa: $rsp 16 +
STACK CFI 32582 $rbx: .cfa -24 + ^ .cfa: $rsp 24 +
STACK CFI 32592 .cfa: $rsp 32 +
STACK CFI 325b0 .cfa: $rsp 24 +
STACK CFI 325b1 .cfa: $rsp 16 +
STACK CFI 325b2 .cfa: $rsp 8 +
STACK CFI INIT 6f10 2e .cfa: $rsp 8 + .ra: .cfa -8 + ^
STACK CFI 6f1b .cfa: $rsp 16 +
STACK CFI 6f39 .cfa: $rsp 8 +
STACK CFI INIT 32a10 2 .cfa: $rsp 8 + .ra: .cfa -8 + ^
STACK CFI INIT 32a20 a .cfa: $rsp 8 + .ra: .cfa -8 + ^
STACK CFI INIT 32a30 42 .cfa: $rsp 8 + .ra: .cfa -8 + ^
STACK CFI 32a38 $rbx: .cfa -16 + ^ .cfa: $rsp 16 +
STACK CFI 32a62 .cfa: $rsp 8 +
STACK CFI 32a70 .cfa: $rsp 16 +
STACK CFI 32a71 .cfa: $rsp 8 +
STACK CFI INIT 32a80 44 .cfa: $rsp 8 + .ra: .cfa -8 + ^
STACK CFI 32a88 $rbx: .cfa -16 + ^ .cfa: $rsp 16 +
STACK CFI 32abf .cfa: $rsp 8 +
STACK CFI INIT 32680 13d .cfa: $rsp 8 + .ra: .cfa -8 + ^
STACK CFI 32681 $rbp: .cfa -16 + ^ .cfa: $rsp 16 +
STACK CFI 32682 $rbx: .cfa -24 + ^ .cfa: $rsp 24 +
STACK CFI 32686 .cfa: $rsp 48 +
STACK CFI 32757 .cfa: $rsp 24 +
STACK CFI 32758 .cfa: $rsp 16 +
STACK CFI 32759 .cfa: $rsp 8 +
STACK CFI 32760 .cfa: $rsp 48 +
STACK CFI INIT 327c0 208 .cfa: $rsp 8 + .ra: .cfa -8 + ^
STACK CFI 327c2 $r13: .cfa -16 + ^ .cfa: $rsp 16 +
STACK CFI 327c4 $r12: .cfa -24 + ^ .cfa: $rsp 24 +
STACK CFI 327c8 $rbp: .cfa -32 + ^ .cfa: $rsp 32 +
STACK CFI 327c9 $rbx: .cfa -40 + ^ .cfa: $rsp 40 +
STACK CFI 327cd .cfa: $rsp 80 +
STACK CFI 32959 .cfa: $rsp 40 +
STACK CFI 3295a .cfa: $rsp 32 +
STACK CFI 3295b .cfa: $rsp 24 +
STACK CFI 3295d .cfa: $rsp 16 +
STACK CFI 3295f .cfa: $rsp 8 +
STACK CFI 32960 .cfa: $rsp 80 +
STACK CFI INIT 329d0 33 .cfa: $rsp 8 + .ra: .cfa -8 + ^
STACK CFI 329d1 $rbp: .cfa -16 + ^ .cfa: $rsp 16 +
STACK CFI 329d2 $rbx: .cfa -24 + ^ .cfa: $rsp 24 +
STACK CFI 329e2 .cfa: $rsp 32 +
STACK CFI 32a00 .cfa: $rsp 24 +
STACK CFI 32a01 .cfa: $rsp 16 +
STACK CFI 32a02 .cfa: $rsp 8 +
STACK CFI INIT 6f40 2e .cfa: $rsp 8 + .ra: .cfa -8 + ^
STACK CFI 6f4b .cfa: $rsp 16 +
STACK CFI 6f69 .cfa: $rsp 8 +
STACK CFI INIT 32ad0 7 .cfa: $rsp 8 + .ra: .cfa -8 + ^
STACK CFI INIT 365f0 2 .cfa: $rsp 8 + .ra: .cfa -8 + ^
STACK CFI INIT 36600 a .cfa: $rsp 8 + .ra: .cfa -8 + ^
STACK CFI INIT 32ae0 c8 .cfa: $rsp 8 + .ra: .cfa -8 + ^
STACK CFI 32ae2 $r12: .cfa -16 + ^ .cfa: $rsp 16 +
STACK CFI 32ae3 $rbp: .cfa -24 + ^ .cfa: $rsp 24 +
STACK CFI 32ae7 $rbx: .cfa -32 + ^ .cfa: $rsp 32 +
STACK CFI 32aee .cfa: $rsp 48 +
STACK CFI 32b54 .cfa: $rsp 32 +
STACK CFI 32b55 .cfa: $rsp 24 +
STACK CFI 32b56 .cfa: $rsp 16 +
STACK CFI 32b58 .cfa: $rsp 8 +
STACK CFI 32b60 .cfa: $rsp 48 +
STACK CFI INIT 32bb0 1ad .cfa: $rsp 8 + .ra: .cfa -8 + ^
STACK CFI 32bb1 $rbp: .cfa -16 + ^ .cfa: $rsp 16 +
STACK CFI 32bb2 $rbx: .cfa -24 + ^ .cfa: $rsp 24 +
STACK CFI 32bb6 .cfa: $rsp 48 +
STACK CFI 32cf7 .cfa: $rsp 24 +
STACK CFI 32cf8 .cfa: $rsp 16 +
STACK CFI 32cf9 .cfa: $rsp 8 +
STACK CFI 32d00 .cfa: $rsp 48 +
STACK CFI INIT 32d60 1d8 .cfa: $rsp 8 + .ra: .cfa -8 + ^
STACK CFI 32d62 $r14: .cfa -16 + ^ .cfa: $rsp 16 +
STACK CFI 32d64 $r13: .cfa -24 + ^ .cfa: $rsp 24 +
STACK CFI 32d66 $r12: .cfa -32 + ^ .cfa: $rsp 32 +
STACK CFI 32d67 $rbp: .cfa -40 + ^ .cfa: $rsp 40 +
STACK CFI 32d6b $rbx: .cfa -48 + ^ .cfa: $rsp 48 +
STACK CFI 32d7b .cfa: $rsp 144 +
STACK CFI 32dfa .cfa: $rsp 48 +
STACK CFI 32dfb .cfa: $rsp 40 +
STACK CFI 32dfc .cfa: $rsp 32 +
STACK CFI 32dfe .cfa: $rsp 24 +
STACK CFI 32e00 .cfa: $rsp 16 +
STACK CFI 32e02 .cfa: $rsp 8 +
STACK CFI 32e08 .cfa: $rsp 144 +
STACK CFI INIT 32f40 2b5 .cfa: $rsp 8 + .ra: .cfa -8 + ^
STACK CFI 32f42 $r15: .cfa -16 + ^ .cfa: $rsp 16 +
STACK CFI 32f44 $r14: .cfa -24 + ^ .cfa: $rsp 24 +
STACK CFI 32f49 $r13: .cfa -32 + ^ .cfa: $rsp 32 +
STACK CFI 32f4b $r12: .cfa -40 + ^ .cfa: $rsp 40 +
STACK CFI 32f4f $rbp: .cfa -48 + ^ .cfa: $rsp 48 +
STACK CFI 32f50 $rbx: .cfa -56 + ^ .cfa: $rsp 56 +
STACK CFI 32f57 .cfa: $rsp 96 +
STACK CFI 33039 .cfa: $rsp 56 +
STACK CFI 3303a .cfa: $rsp 48 +
STACK CFI 3303b .cfa: $rsp 40 +
STACK CFI 3303d .cfa: $rsp 32 +
STACK CFI 3303f .cfa: $rsp 24 +
STACK CFI 33041 .cfa: $rsp 16 +
STACK CFI 33043 .cfa: $rsp 8 +
STACK CFI 33048 .cfa: $rsp 96 +
STACK CFI INIT 33200 e7 .cfa: $rsp 8 + .ra: .cfa -8 + ^
STACK CFI 33201 $rbp: .cfa -16 + ^ .cfa: $rsp 16 +
STACK CFI 33202 $rbx: .cfa -24 + ^ .cfa: $rsp 24 +
STACK CFI 33209 .cfa: $rsp 32 +
STACK CFI 332d3 .cfa: $rsp 24 +
STACK CFI 332d4 .cfa: $rsp 16 +
STACK CFI 332d5 .cfa: $rsp 8 +
STACK CFI 332e0 .cfa: $rsp 32 +
STACK CFI 332e4 .cfa: $rsp 24 +
STACK CFI 332e5 .cfa: $rsp 16 +
STACK CFI 332e6 .cfa: $rsp 8 +
STACK CFI INIT 332f0 17 .cfa: $rsp 8 + .ra: .cfa -8 + ^
STACK CFI 332f1 $rbx: .cfa -16 + ^ .cfa: $rsp 16 +
STACK CFI 33302 .cfa: $rsp 8 +
STACK CFI INIT 36610 52 .cfa: $rsp 8 + .ra: .cfa -8 + ^
STACK CFI 36617 $r12: .cfa -16 + ^ .cfa: $rsp 16 +
STACK CFI 3661b $rbp: .cfa -24 + ^ .cfa: $rsp 24 +
STACK CFI 3661c $rbx: .cfa -32 + ^ .cfa: $rsp 32 +
STACK CFI 36652 .cfa: $rsp 24 +
STACK CFI 36653 .cfa: $rsp 16 +
STACK CFI 36655 .cfa: $rsp 8 +
STACK CFI 36660 $r12: $r12 $rbp: $rbp $rbx: $rbx
STACK CFI INIT 36670 106 .cfa: $rsp 8 + .ra: .cfa -8 + ^
STACK CFI 36672 $r15: .cfa -16 + ^ .cfa: $rsp 16 +
STACK CFI 36674 $r14: .cfa -24 + ^ .cfa: $rsp 24 +
STACK CFI 36676 $r13: .cfa -32 + ^ .cfa: $rsp 32 +
STACK CFI 36678 $r12: .cfa -40 + ^ .cfa: $rsp 40 +
STACK CFI 3667d $rbp: .cfa -48 + ^ .cfa: $rsp 48 +
STACK CFI 3667e $rbx: .cfa -56 + ^ .cfa: $rsp 56 +
STACK CFI 36682 .cfa: $rsp 64 +
STACK CFI 3672b .cfa: $rsp 56 +
STACK CFI 3672f .cfa: $rsp 48 +
STACK CFI 36730 .cfa: $rsp 40 +
STACK CFI 36732 .cfa: $rsp 32 +
STACK CFI 36734 .cfa: $rsp 24 +
STACK CFI 36736 .cfa: $rsp 16 +
STACK CFI 36738 .cfa: $rsp 8 +
STACK CFI 36740 .cfa: $rsp 64 +
STACK CFI 36744 .cfa: $rsp 56 +
STACK CFI 36748 .cfa: $rsp 48 +
STACK CFI 36749 .cfa: $rsp 40 +
STACK CFI 3674b .cfa: $rsp 32 +
STACK CFI 3674d .cfa: $rsp 24 +
STACK CFI 3674f .cfa: $rsp 16 +
STACK CFI 36751 .cfa: $rsp 8 +
STACK CFI 36758 .cfa: $rsp 64 +
STACK CFI INIT 33310 ce .cfa: $rsp 8 + .ra: .cfa -8 + ^
STACK CFI 33312 $r13: .cfa -16 + ^ .cfa: $rsp 16 +
STACK CFI 33314 $r12: .cfa -24 + ^ .cfa: $rsp 24 +
STACK CFI 33318 $rbp: .cfa -32 + ^ .cfa: $rsp 32 +
STACK CFI 33319 $rbx: .cfa -40 + ^ .cfa: $rsp 40 +
STACK CFI 33328 .cfa: $rsp 48 +
STACK CFI 33391 .cfa: $rsp 40 +
STACK CFI 33398 .cfa: $rsp 32 +
STACK CFI 33399 .cfa: $rsp 24 +
STACK CFI 3339b .cfa: $rsp 16 +
STACK CFI 3339d .cfa: $rsp 8 +
STACK CFI 333a8 .cfa: $rsp 48 +
STACK CFI 333c2 .cfa: $rsp 40 +
STACK CFI 333c6 .cfa: $rsp 32 +
STACK CFI 333c7 .cfa: $rsp 24 +
STACK CFI 333c9 .cfa: $rsp 16 +
STACK CFI 333cb .cfa: $rsp 8 +
STACK CFI 333d0 .cfa: $rsp 48 +
STACK CFI INIT 36780 590 .cfa: $rsp 8 + .ra: .cfa -8 + ^
STACK CFI 36782 $r15: .cfa -16 + ^ .cfa: $rsp 16 +
STACK CFI 36784 $r14: .cfa -24 + ^ .cfa: $rsp 24 +
STACK CFI 36786 $r13: .cfa -32 + ^ .cfa: $rsp 32 +
STACK CFI 36788 $r12: .cfa -40 + ^ .cfa: $rsp 40 +
STACK CFI 36789 $rbp: .cfa -48 + ^ .cfa: $rsp 48 +
STACK CFI 3678a $rbx: .cfa -56 + ^ .cfa: $rsp 56 +
STACK CFI 36794 .cfa: $rsp 368 +
STACK CFI 36c61 .cfa: $rsp 56 +
STACK CFI 36c62 .cfa: $rsp 48 +
STACK CFI 36c63 .cfa: $rsp 40 +
STACK CFI 36c65 .cfa: $rsp 32 +
STACK CFI 36c67 .cfa: $rsp 24 +
STACK CFI 36c69 .cfa: $rsp 16 +
STACK CFI 36c6b .cfa: $rsp 8 +
STACK CFI 36c70 .cfa: $rsp 368 +
STACK CFI INIT 333e0 16f .cfa: $rsp 8 + .ra: .cfa -8 + ^
STACK CFI 333e1 $rbp: .cfa -16 + ^ .cfa: $rsp 16 +
STACK CFI 333e4 .cfa: $rbp 16 +
STACK CFI 333eb $r12: .cfa -40 + ^ $r13: .cfa -32 + ^ $r14: .cfa -24 + ^ $rbx: .cfa -48 + ^
STACK CFI 33519 .cfa: $rsp 8 +
STACK CFI 33520 .cfa: $rbp 16 +
STACK CFI 3353a .cfa: $rsp 8 +
STACK CFI 3353b .cfa: $rbp 16 +
STACK CFI INIT 33550 2ed1 .cfa: $rsp 8 + .ra: .cfa -8 + ^
STACK CFI 33552 $r15: .cfa -16 + ^ .cfa: $rsp 16 +
STACK CFI 33554 $r14: .cfa -24 + ^ .cfa: $rsp 24 +
STACK CFI 33556 $r13: .cfa -32 + ^ .cfa: $rsp 32 +
STACK CFI 33558 $r12: .cfa -40 + ^ .cfa: $rsp 40 +
STACK CFI 33559 $rbp: .cfa -48 + ^ .cfa: $rsp 48 +
STACK CFI 3355a $rbx: .cfa -56 + ^ .cfa: $rsp 56 +
STACK CFI 33561 .cfa: $rsp 656 +
STACK CFI 3452b .cfa: $rsp 56 +
STACK CFI 3452c .cfa: $rsp 48 +
STACK CFI 3452d .cfa: $rsp 40 +
STACK CFI 3452f .cfa: $rsp 32 +
STACK CFI 34531 .cfa: $rsp 24 +
STACK CFI 34533 .cfa: $rsp 16 +
STACK CFI 34535 .cfa: $rsp 8 +
STACK CFI 34540 .cfa: $rsp 656 +
STACK CFI INIT 36430 1b4 .cfa: $rsp 8 + .ra: .cfa -8 + ^
STACK CFI 36432 $r14: .cfa -16 + ^ .cfa: $rsp 16 +
STACK CFI 36434 $r13: .cfa -24 + ^ .cfa: $rsp 24 +
STACK CFI 36436 $r12: .cfa -32 + ^ .cfa: $rsp 32 +
STACK CFI 36437 $rbp: .cfa -40 + ^ .cfa: $rsp 40 +
STACK CFI 36438 $rbx: .cfa -48 + ^ .cfa: $rsp 48 +
STACK CFI 3643c .cfa: $rsp 64 +
STACK CFI 36500 .cfa: $rsp 48 +
STACK CFI 36501 .cfa: $rsp 40 +
STACK CFI 36502 .cfa: $rsp 32 +
STACK CFI 36504 .cfa: $rsp 24 +
STACK CFI 36506 .cfa: $rsp 16 +
STACK CFI 36508 .cfa: $rsp 8 +
STACK CFI 36510 .cfa: $rsp 64 +
STACK CFI INIT 6f70 2e .cfa: $rsp 8 + .ra: .cfa -8 + ^
STACK CFI 6f7b .cfa: $rsp 16 +
STACK CFI 6f99 .cfa: $rsp 8 +
STACK CFI INIT 36d10 176 .cfa: $rsp 8 + .ra: .cfa -8 + ^
STACK CFI 36d12 $r15: .cfa -16 + ^ .cfa: $rsp 16 +
STACK CFI 36d14 $r14: .cfa -24 + ^ .cfa: $rsp 24 +
STACK CFI 36d19 $r13: .cfa -32 + ^ .cfa: $rsp 32 +
STACK CFI 36d1b $r12: .cfa -40 + ^ .cfa: $rsp 40 +
STACK CFI 36d1c $rbp: .cfa -48 + ^ .cfa: $rsp 48 +
STACK CFI 36d1d $rbx: .cfa -56 + ^ .cfa: $rsp 56 +
STACK CFI 36d24 .cfa: $rsp 80 +
STACK CFI 36d6b .cfa: $rsp 56 +
STACK CFI 36d6c .cfa: $rsp 48 +
STACK CFI 36d6d .cfa: $rsp 40 +
STACK CFI 36d6f .cfa: $rsp 32 +
STACK CFI 36d71 .cfa: $rsp 24 +
STACK CFI 36d73 .cfa: $rsp 16 +
STACK CFI 36d75 .cfa: $rsp 8 +
STACK CFI 36d80 .cfa: $rsp 80 +
STACK CFI INIT 36e90 1c6 .cfa: $rsp 8 + .ra: .cfa -8 + ^
STACK CFI 36e92 $r15: .cfa -16 + ^ .cfa: $rsp 16 +
STACK CFI 36e94 $r14: .cfa -24 + ^ .cfa: $rsp 24 +
STACK CFI 36e99 $r13: .cfa -32 + ^ .cfa: $rsp 32 +
STACK CFI 36e9b $r12: .cfa -40 + ^ .cfa: $rsp 40 +
STACK CFI 36e9f $rbp: .cfa -48 + ^ .cfa: $rsp 48 +
STACK CFI 36ea0 $rbx: .cfa -56 + ^ .cfa: $rsp 56 +
STACK CFI 36ea4 .cfa: $rsp 96 +
STACK CFI 36f77 .cfa: $rsp 56 +
STACK CFI 36f78 .cfa: $rsp 48 +
STACK CFI 36f79 .cfa: $rsp 40 +
STACK CFI 36f7b .cfa: $rsp 32 +
STACK CFI 36f7d .cfa: $rsp 24 +
STACK CFI 36f7f .cfa: $rsp 16 +
STACK CFI 36f81 .cfa: $rsp 8 +
STACK CFI 36f88 .cfa: $rsp 96 +
STACK CFI INIT 37060 65 .cfa: $rsp 8 + .ra: .cfa -8 + ^
STACK CFI 37062 $r15: .cfa -16 + ^ .cfa: $rsp 16 +
STACK CFI 37064 $r14: .cfa -24 + ^ .cfa: $rsp 24 +
STACK CFI 37069 $r13: .cfa -32 + ^ .cfa: $rsp 32 +
STACK CFI 3706b $r12: .cfa -40 + ^ .cfa: $rsp 40 +
STACK CFI 37073 $rbp: .cfa -48 + ^ .cfa: $rsp 48 +
STACK CFI 3707b $rbx: .cfa -56 + ^ .cfa: $rsp 56 +
STACK CFI 37088 .cfa: $rsp 64 +
STACK CFI 370ba .cfa: $rsp 56 +
STACK CFI 370bb .cfa: $rsp 48 +
STACK CFI 370bc .cfa: $rsp 40 +
STACK CFI 370be .cfa: $rsp 32 +
STACK CFI 370c0 .cfa: $rsp 24 +
STACK CFI 370c2 .cfa: $rsp 16 +
STACK CFI 370c4 .cfa: $rsp 8 +
STACK CFI INIT 370d0 2 .cfa: $rsp 8 + .ra: .cfa -8 + ^
