MODULE Linux x86_64 A6B8B203F524B57DE91773E8D8C01DA40 minidump_dump
INFO CODE_ID 03B2B8A624F57DB5E91773E8D8C01DA42C6C018E
PUBLIC 3f68 0 _init
PUBLIC 4420 0 google_breakpad::linked_ptr<google_breakpad::CodeModule const>::depart() [clone .part.12]
PUBLIC 4430 0 _GLOBAL__sub_I_minidump_dump.cc
PUBLIC 4460 0 main
PUBLIC 4a90 0 _GLOBAL__sub_I_basic_code_modules.cc
PUBLIC 4ac0 0 _GLOBAL__sub_I_dump_context.cc
PUBLIC 4af0 0 _GLOBAL__sub_I_logging.cc
PUBLIC 4b20 0 _GLOBAL__sub_I_minidump.cc
PUBLIC 4b50 0 _GLOBAL__sub_I_proc_maps_linux.cc
PUBLIC 4b80 0 _start
PUBLIC 4bb0 0 deregister_tm_clones
PUBLIC 4bf0 0 register_tm_clones
PUBLIC 4c40 0 __do_global_dtors_aux
PUBLIC 4c80 0 frame_dummy
PUBLIC 4c90 0 (anonymous namespace)::DumpRawStream(google_breakpad::Minidump*, unsigned int, char const*, int*)
PUBLIC 4e40 0 google_breakpad::BasicCodeModules::module_count() const [clone .localalias.75]
PUBLIC 4e50 0 google_breakpad::BasicCodeModules::GetMainModule() const
PUBLIC 4e60 0 google_breakpad::BasicCodeModules::GetModuleAtIndex(unsigned int) const
PUBLIC 4e70 0 google_breakpad::BasicCodeModules::IsModuleShrinkEnabled() const [clone .localalias.77]
PUBLIC 4e80 0 google_breakpad::BasicCodeModules::GetShrunkRangeModules() const
PUBLIC 4f80 0 google_breakpad::BasicCodeModules::GetModuleAtSequence(unsigned int) const
PUBLIC 5270 0 google_breakpad::BasicCodeModules::BasicCodeModules()
PUBLIC 52d0 0 google_breakpad::BasicCodeModules::GetModuleForAddress(unsigned long) const
PUBLIC 5470 0 google_breakpad::BasicCodeModules::~BasicCodeModules()
PUBLIC 5500 0 google_breakpad::BasicCodeModules::~BasicCodeModules()
PUBLIC 5520 0 google_breakpad::BasicCodeModules::BasicCodeModules(google_breakpad::CodeModules const*)
PUBLIC 5e00 0 google_breakpad::BasicCodeModules::Copy() const
PUBLIC 5e50 0 google_breakpad::RangeMap<unsigned long, google_breakpad::linked_ptr<google_breakpad::CodeModule const> >::RetrieveRange(unsigned long const&, google_breakpad::linked_ptr<google_breakpad::CodeModule const>*, unsigned long*, unsigned long*, unsigned long*) const
PUBLIC 6100 0 std::_Rb_tree<unsigned long, std::pair<unsigned long const, google_breakpad::RangeMap<unsigned long, google_breakpad::linked_ptr<google_breakpad::CodeModule const> >::Range>, std::_Select1st<std::pair<unsigned long const, google_breakpad::RangeMap<unsigned long, google_breakpad::linked_ptr<google_breakpad::CodeModule const> >::Range> >, std::less<unsigned long>, std::allocator<std::pair<unsigned long const, google_breakpad::RangeMap<unsigned long, google_breakpad::linked_ptr<google_breakpad::CodeModule const> >::Range> > >::_M_erase(std::_Rb_tree_node<std::pair<unsigned long const, google_breakpad::RangeMap<unsigned long, google_breakpad::linked_ptr<google_breakpad::CodeModule const> >::Range> >*)
PUBLIC 6180 0 void std::vector<google_breakpad::linked_ptr<google_breakpad::CodeModule const>, std::allocator<google_breakpad::linked_ptr<google_breakpad::CodeModule const> > >::_M_realloc_insert<google_breakpad::linked_ptr<google_breakpad::CodeModule const> >(__gnu_cxx::__normal_iterator<google_breakpad::linked_ptr<google_breakpad::CodeModule const>*, std::vector<google_breakpad::linked_ptr<google_breakpad::CodeModule const>, std::allocator<google_breakpad::linked_ptr<google_breakpad::CodeModule const> > > >, google_breakpad::linked_ptr<google_breakpad::CodeModule const>&&)
PUBLIC 6430 0 std::pair<std::_Rb_tree_iterator<std::pair<unsigned long const, google_breakpad::RangeMap<unsigned long, google_breakpad::linked_ptr<google_breakpad::CodeModule const> >::Range> >, bool> std::_Rb_tree<unsigned long, std::pair<unsigned long const, google_breakpad::RangeMap<unsigned long, google_breakpad::linked_ptr<google_breakpad::CodeModule const> >::Range>, std::_Select1st<std::pair<unsigned long const, google_breakpad::RangeMap<unsigned long, google_breakpad::linked_ptr<google_breakpad::CodeModule const> >::Range> >, std::less<unsigned long>, std::allocator<std::pair<unsigned long const, google_breakpad::RangeMap<unsigned long, google_breakpad::linked_ptr<google_breakpad::CodeModule const> >::Range> > >::_M_insert_unique<std::pair<unsigned long const, google_breakpad::RangeMap<unsigned long, google_breakpad::linked_ptr<google_breakpad::CodeModule const> >::Range> >(std::pair<unsigned long const, google_breakpad::RangeMap<unsigned long, google_breakpad::linked_ptr<google_breakpad::CodeModule const> >::Range>&&)
PUBLIC 65b0 0 google_breakpad::RangeMap<unsigned long, google_breakpad::linked_ptr<google_breakpad::CodeModule const> >::StoreRangeInternal(unsigned long const&, unsigned long const&, unsigned long const&, google_breakpad::linked_ptr<google_breakpad::CodeModule const> const&)
PUBLIC 6f30 0 google_breakpad::ConvertOldARM64Context(MDRawContextARM64_Old const&, MDRawContextARM64*)
PUBLIC 7050 0 google_breakpad::DumpContext::DumpContext()
PUBLIC 7080 0 google_breakpad::DumpContext::GetContextCPU() const
PUBLIC 7090 0 google_breakpad::DumpContext::GetContextFlags() const
PUBLIC 70a0 0 google_breakpad::DumpContext::GetContextX86() const
PUBLIC 7140 0 google_breakpad::DumpContext::GetContextPPC() const
PUBLIC 71e0 0 google_breakpad::DumpContext::GetContextPPC64() const
PUBLIC 7280 0 google_breakpad::DumpContext::GetContextAMD64() const
PUBLIC 7320 0 google_breakpad::DumpContext::GetContextSPARC() const
PUBLIC 73c0 0 google_breakpad::DumpContext::GetContextARM() const
PUBLIC 7460 0 google_breakpad::DumpContext::GetContextARM64() const
PUBLIC 7500 0 google_breakpad::DumpContext::GetContextMIPS() const
PUBLIC 75b0 0 google_breakpad::DumpContext::GetInstructionPointer(unsigned long*) const
PUBLIC 7840 0 google_breakpad::DumpContext::GetStackPointer(unsigned long*) const
PUBLIC 7ad0 0 google_breakpad::DumpContext::SetContextFlags(unsigned int)
PUBLIC 7ae0 0 google_breakpad::DumpContext::SetContextX86(MDRawContextX86*)
PUBLIC 7af0 0 google_breakpad::DumpContext::SetContextPPC(MDRawContextPPC*)
PUBLIC 7b00 0 google_breakpad::DumpContext::SetContextPPC64(MDRawContextPPC64*)
PUBLIC 7b10 0 google_breakpad::DumpContext::SetContextAMD64(MDRawContextAMD64*)
PUBLIC 7b20 0 google_breakpad::DumpContext::SetContextSPARC(MDRawContextSPARC*)
PUBLIC 7b30 0 google_breakpad::DumpContext::SetContextARM(MDRawContextARM*)
PUBLIC 7b40 0 google_breakpad::DumpContext::SetContextARM64(MDRawContextARM64*)
PUBLIC 7b50 0 google_breakpad::DumpContext::SetContextMIPS(MDRawContextMIPS*)
PUBLIC 7b60 0 google_breakpad::DumpContext::FreeContext()
PUBLIC 7c80 0 google_breakpad::DumpContext::~DumpContext()
PUBLIC 7ca0 0 google_breakpad::DumpContext::~DumpContext()
PUBLIC 7cc0 0 google_breakpad::DumpContext::Print()
PUBLIC 8e30 0 google_breakpad::DumpObject::DumpObject()
PUBLIC 8e40 0 google_breakpad::LogStream::LogStream(std::ostream&, google_breakpad::LogStream::Severity, char const*, int)
PUBLIC 9120 0 google_breakpad::LogStream::~LogStream()
PUBLIC 9190 0 google_breakpad::HexString[abi:cxx11](unsigned int)
PUBLIC 9270 0 google_breakpad::HexString[abi:cxx11](unsigned long)
PUBLIC 9380 0 google_breakpad::HexString[abi:cxx11](int)
PUBLIC 9490 0 google_breakpad::ErrnoString(std::__cxx11::basic_string<char, std::char_traits<char>, std::allocator<char> >*)
PUBLIC 94d0 0 std::ctype<char>::do_widen(char) const
PUBLIC 94e0 0 google_breakpad::(anonymous namespace)::Swap(unsigned long*)
PUBLIC 94f0 0 google_breakpad::MinidumpThread::~MinidumpThread()
PUBLIC 9530 0 google_breakpad::MinidumpUnloadedModule::shrink_down_delta() const
PUBLIC 9540 0 google_breakpad::MinidumpUnloadedModule::SetShrinkDownDelta(unsigned long)
PUBLIC 9550 0 google_breakpad::MinidumpModuleList::GetShrunkRangeModules() const
PUBLIC 9570 0 non-virtual thunk to google_breakpad::MinidumpUnloadedModuleList::GetShrunkRangeModules() const
PUBLIC 9580 0 non-virtual thunk to google_breakpad::MinidumpModuleList::GetShrunkRangeModules() const
PUBLIC 9590 0 google_breakpad::MinidumpModuleList::IsModuleShrinkEnabled() const
PUBLIC 95a0 0 non-virtual thunk to google_breakpad::MinidumpModuleList::IsModuleShrinkEnabled() const
PUBLIC 95b0 0 google_breakpad::MinidumpException::~MinidumpException()
PUBLIC 95e0 0 covariant return thunk to google_breakpad::MinidumpUnloadedModuleList::GetMainModule() const
PUBLIC 95f0 0 google_breakpad::MinidumpUnloadedModuleList::IsModuleShrinkEnabled() const
PUBLIC 9600 0 non-virtual thunk to google_breakpad::MinidumpUnloadedModuleList::IsModuleShrinkEnabled() const
PUBLIC 9610 0 google_breakpad::get_stream_name(unsigned int)
PUBLIC 98a0 0 google_breakpad::MinidumpThread::~MinidumpThread()
PUBLIC 98c0 0 google_breakpad::MinidumpException::~MinidumpException()
PUBLIC 98e0 0 google_breakpad::MinidumpContext::~MinidumpContext()
PUBLIC 9900 0 google_breakpad::MinidumpContext::~MinidumpContext()
PUBLIC 9920 0 google_breakpad::MinidumpUnloadedModule::Copy() const
PUBLIC 9aa0 0 non-virtual thunk to google_breakpad::MinidumpUnloadedModule::Copy() const
PUBLIC 9ab0 0 google_breakpad::MinidumpAssertion::~MinidumpAssertion()
PUBLIC 9b20 0 google_breakpad::MinidumpAssertion::~MinidumpAssertion()
PUBLIC 9b40 0 google_breakpad::MinidumpSystemInfo::~MinidumpSystemInfo()
PUBLIC 9bc0 0 google_breakpad::MinidumpSystemInfo::~MinidumpSystemInfo()
PUBLIC 9be0 0 google_breakpad::MinidumpUnloadedModule::~MinidumpUnloadedModule()
PUBLIC 9c30 0 non-virtual thunk to google_breakpad::MinidumpUnloadedModule::~MinidumpUnloadedModule()
PUBLIC 9c40 0 google_breakpad::MinidumpUnloadedModule::~MinidumpUnloadedModule()
PUBLIC 9c60 0 non-virtual thunk to google_breakpad::MinidumpUnloadedModule::~MinidumpUnloadedModule()
PUBLIC 9c70 0 google_breakpad::MinidumpMemoryRegion::~MinidumpMemoryRegion()
PUBLIC 9cc0 0 non-virtual thunk to google_breakpad::MinidumpMemoryRegion::~MinidumpMemoryRegion()
PUBLIC 9cd0 0 google_breakpad::MinidumpMemoryRegion::~MinidumpMemoryRegion()
PUBLIC 9cf0 0 non-virtual thunk to google_breakpad::MinidumpMemoryRegion::~MinidumpMemoryRegion()
PUBLIC 9d00 0 google_breakpad::MinidumpModule::~MinidumpModule()
PUBLIC 9db0 0 non-virtual thunk to google_breakpad::MinidumpModule::~MinidumpModule()
PUBLIC 9dc0 0 google_breakpad::MinidumpModule::~MinidumpModule()
PUBLIC 9de0 0 non-virtual thunk to google_breakpad::MinidumpModule::~MinidumpModule()
PUBLIC 9df0 0 google_breakpad::MinidumpModuleList::Copy() const
PUBLIC 9e40 0 non-virtual thunk to google_breakpad::MinidumpModuleList::Copy() const
PUBLIC 9e50 0 google_breakpad::MinidumpUnloadedModuleList::Copy() const
PUBLIC 9ea0 0 non-virtual thunk to google_breakpad::MinidumpUnloadedModuleList::Copy() const
PUBLIC 9eb0 0 google_breakpad::(anonymous namespace)::PrintValueOrInvalid(bool, google_breakpad::(anonymous namespace)::NumberFormat, unsigned int) [clone .part.2]
PUBLIC 9ec0 0 google_breakpad::MinidumpLinuxMapsList::~MinidumpLinuxMapsList()
PUBLIC 9f50 0 google_breakpad::MinidumpLinuxMapsList::~MinidumpLinuxMapsList()
PUBLIC 9f70 0 covariant return thunk to google_breakpad::MinidumpUnloadedModuleList::GetMainModule() const
PUBLIC 9f80 0 non-virtual thunk to google_breakpad::MinidumpModule::shrink_down_delta() const
PUBLIC 9f90 0 non-virtual thunk to google_breakpad::MinidumpModule::SetShrinkDownDelta(unsigned long)
PUBLIC 9fa0 0 non-virtual thunk to google_breakpad::MinidumpUnloadedModule::shrink_down_delta() const
PUBLIC 9fb0 0 non-virtual thunk to google_breakpad::MinidumpUnloadedModule::SetShrinkDownDelta(unsigned long)
PUBLIC 9fc0 0 void std::__cxx11::basic_string<char, std::char_traits<char>, std::allocator<char> >::_M_construct<char const*>(char const*, char const*, std::forward_iterator_tag) [clone .isra.143]
PUBLIC a090 0 google_breakpad::MinidumpUnloadedModule::debug_file[abi:cxx11]() const
PUBLIC a0b0 0 non-virtual thunk to google_breakpad::MinidumpUnloadedModule::version[abi:cxx11]() const
PUBLIC a0c0 0 non-virtual thunk to google_breakpad::MinidumpUnloadedModule::debug_identifier[abi:cxx11]() const
PUBLIC a0d0 0 non-virtual thunk to google_breakpad::MinidumpUnloadedModule::debug_file[abi:cxx11]() const
PUBLIC a0e0 0 google_breakpad::(anonymous namespace)::MDGUIDToString(MDGUID const&)
PUBLIC a1d0 0 google_breakpad::guid_and_age_to_debug_id(MDGUID const&, unsigned int)
PUBLIC a2c0 0 google_breakpad::(anonymous namespace)::TimeTToUTCString(long)
PUBLIC a3a0 0 google_breakpad::MinidumpUnloadedModule::code_file[abi:cxx11]() const
PUBLIC a470 0 non-virtual thunk to google_breakpad::MinidumpUnloadedModule::code_file[abi:cxx11]() const
PUBLIC a480 0 google_breakpad::MinidumpModule::code_file[abi:cxx11]() const
PUBLIC a550 0 non-virtual thunk to google_breakpad::MinidumpModule::code_file[abi:cxx11]() const
PUBLIC a560 0 google_breakpad::MinidumpThread::GetStartOfStackMemoryRange() const
PUBLIC a600 0 google_breakpad::MinidumpMemoryRegion::GetSize() const
PUBLIC a6a0 0 non-virtual thunk to google_breakpad::MinidumpMemoryRegion::GetSize() const
PUBLIC a6b0 0 google_breakpad::MinidumpMemoryRegion::GetBase() const
PUBLIC a760 0 non-virtual thunk to google_breakpad::MinidumpMemoryRegion::GetBase() const
PUBLIC a770 0 google_breakpad::MinidumpThread::GetThreadID(unsigned int*) const
PUBLIC a880 0 google_breakpad::MinidumpModuleList::GetMainModule() const
PUBLIC a920 0 google_breakpad::MinidumpThread::GetMemory()
PUBLIC a9c0 0 google_breakpad::MinidumpModule::version[abi:cxx11]() const
PUBLIC ac40 0 non-virtual thunk to google_breakpad::MinidumpModule::version[abi:cxx11]() const
PUBLIC ac50 0 google_breakpad::MinidumpThreadList::GetThreadAtIndex(unsigned int) const
PUBLIC ad80 0 google_breakpad::MinidumpUnloadedModuleList::GetModuleAtIndex(unsigned int) const
PUBLIC aeb0 0 google_breakpad::MinidumpModuleList::GetModuleAtIndex(unsigned int) const
PUBLIC afe0 0 google_breakpad::MinidumpModule::Copy() const
PUBLIC b160 0 non-virtual thunk to google_breakpad::MinidumpModule::Copy() const
PUBLIC b170 0 google_breakpad::MinidumpUnloadedModule::code_identifier[abi:cxx11]() const
PUBLIC b560 0 non-virtual thunk to google_breakpad::MinidumpUnloadedModule::code_identifier[abi:cxx11]() const
PUBLIC b570 0 google_breakpad::MinidumpModule::code_identifier[abi:cxx11]() const
PUBLIC ba90 0 non-virtual thunk to google_breakpad::MinidumpModule::code_identifier[abi:cxx11]() const
PUBLIC baa0 0 google_breakpad::MinidumpModule::debug_identifier[abi:cxx11]() const
PUBLIC bfd0 0 non-virtual thunk to google_breakpad::MinidumpModule::debug_identifier[abi:cxx11]() const
PUBLIC bfe0 0 google_breakpad::MinidumpObject::MinidumpObject(google_breakpad::Minidump*)
PUBLIC c010 0 google_breakpad::MinidumpStream::MinidumpStream(google_breakpad::Minidump*)
PUBLIC c030 0 google_breakpad::MinidumpContext::MinidumpContext(google_breakpad::Minidump*)
PUBLIC c060 0 google_breakpad::MinidumpContext::CheckAgainstSystemInfo(unsigned int)
PUBLIC c410 0 google_breakpad::MinidumpMemoryRegion::MinidumpMemoryRegion(google_breakpad::Minidump*)
PUBLIC c480 0 google_breakpad::MinidumpMemoryRegion::SetDescriptor(MDMemoryDescriptor*)
PUBLIC c4a0 0 google_breakpad::MinidumpMemoryRegion::FreeMemory()
PUBLIC c4e0 0 google_breakpad::MinidumpMemoryRegion::SetPrintMode(bool, unsigned int)
PUBLIC c5a0 0 google_breakpad::MinidumpThread::MinidumpThread(google_breakpad::Minidump*)
PUBLIC c5e0 0 google_breakpad::MinidumpThread::Print()
PUBLIC c7f0 0 google_breakpad::MinidumpThreadList::MinidumpThreadList(google_breakpad::Minidump*)
PUBLIC c840 0 google_breakpad::MinidumpThreadList::Print()
PUBLIC c950 0 google_breakpad::MinidumpModule::MinidumpModule(google_breakpad::Minidump*)
PUBLIC c9c0 0 covariant return thunk to google_breakpad::MinidumpModuleList::GetMainModule() const
PUBLIC c9e0 0 covariant return thunk to google_breakpad::MinidumpModuleList::GetMainModule() const
PUBLIC c9f0 0 covariant return thunk to google_breakpad::MinidumpModuleList::GetModuleAtIndex(unsigned int) const
PUBLIC ca10 0 covariant return thunk to google_breakpad::MinidumpModuleList::GetModuleAtIndex(unsigned int) const
PUBLIC ca20 0 google_breakpad::MinidumpMemoryList::MinidumpMemoryList(google_breakpad::Minidump*)
PUBLIC ca90 0 google_breakpad::MinidumpMemoryList::GetMemoryRegionAtIndex(unsigned int)
PUBLIC cbc0 0 google_breakpad::MinidumpMemoryList::Print()
PUBLIC cd70 0 google_breakpad::MinidumpException::MinidumpException(google_breakpad::Minidump*)
PUBLIC cdb0 0 google_breakpad::MinidumpException::GetThreadID(unsigned int*) const
PUBLIC cec0 0 google_breakpad::MinidumpAssertion::MinidumpAssertion(google_breakpad::Minidump*)
PUBLIC cf50 0 google_breakpad::MinidumpAssertion::Print()
PUBLIC d090 0 google_breakpad::MinidumpSystemInfo::MinidumpSystemInfo(google_breakpad::Minidump*)
PUBLIC d0e0 0 google_breakpad::MinidumpSystemInfo::GetOS[abi:cxx11]()
PUBLIC d3a0 0 google_breakpad::MinidumpSystemInfo::GetCPU[abi:cxx11]()
PUBLIC d6f0 0 google_breakpad::MinidumpSystemInfo::GetCPUVendor[abi:cxx11]()
PUBLIC d880 0 google_breakpad::MinidumpUnloadedModule::MinidumpUnloadedModule(google_breakpad::Minidump*)
PUBLIC d8d0 0 google_breakpad::MinidumpUnloadedModuleList::MinidumpUnloadedModuleList(google_breakpad::Minidump*)
PUBLIC d940 0 covariant return thunk to google_breakpad::MinidumpUnloadedModuleList::GetModuleAtIndex(unsigned int) const
PUBLIC d960 0 covariant return thunk to google_breakpad::MinidumpUnloadedModuleList::GetModuleAtIndex(unsigned int) const
PUBLIC d970 0 google_breakpad::MinidumpMiscInfo::MinidumpMiscInfo(google_breakpad::Minidump*)
PUBLIC da20 0 google_breakpad::MinidumpMiscInfo::Print()
PUBLIC e1f0 0 google_breakpad::MinidumpBreakpadInfo::MinidumpBreakpadInfo(google_breakpad::Minidump*)
PUBLIC e220 0 google_breakpad::MinidumpBreakpadInfo::GetDumpThreadID(unsigned int*) const
PUBLIC e390 0 google_breakpad::MinidumpBreakpadInfo::GetRequestingThreadID(unsigned int*) const
PUBLIC e500 0 google_breakpad::MinidumpBreakpadInfo::Print()
PUBLIC e640 0 google_breakpad::MinidumpMemoryInfo::MinidumpMemoryInfo(google_breakpad::Minidump*)
PUBLIC e670 0 google_breakpad::MinidumpMemoryInfo::IsExecutable() const
PUBLIC e690 0 google_breakpad::MinidumpMemoryInfo::IsWritable() const
PUBLIC e6b0 0 google_breakpad::MinidumpMemoryInfo::Print()
PUBLIC e800 0 google_breakpad::MinidumpMemoryInfoList::MinidumpMemoryInfoList(google_breakpad::Minidump*)
PUBLIC e860 0 google_breakpad::MinidumpMemoryInfoList::GetMemoryInfoAtIndex(unsigned int) const
PUBLIC e990 0 google_breakpad::MinidumpMemoryInfoList::Print()
PUBLIC eab0 0 google_breakpad::MinidumpLinuxMaps::MinidumpLinuxMaps(google_breakpad::Minidump*)
PUBLIC eb00 0 google_breakpad::MinidumpLinuxMaps::Print() const
PUBLIC ec10 0 google_breakpad::MinidumpLinuxMapsList::MinidumpLinuxMapsList(google_breakpad::Minidump*)
PUBLIC ec40 0 google_breakpad::MinidumpLinuxMapsList::GetLinuxMapsForAddress(unsigned long) const
PUBLIC edd0 0 google_breakpad::MinidumpLinuxMapsList::GetLinuxMapsAtIndex(unsigned int) const
PUBLIC ef00 0 google_breakpad::MinidumpLinuxMapsList::Print() const
PUBLIC efd0 0 google_breakpad::MinidumpCrashpadInfo::MinidumpCrashpadInfo(google_breakpad::Minidump*)
PUBLIC f0b0 0 google_breakpad::MinidumpCrashpadInfo::Print()
PUBLIC f3b0 0 google_breakpad::Minidump::Minidump(std::__cxx11::basic_string<char, std::char_traits<char>, std::allocator<char> > const&, bool, unsigned int)
PUBLIC f460 0 google_breakpad::Minidump::Minidump(std::istream&)
PUBLIC f500 0 google_breakpad::Minidump::Print()
PUBLIC f7c0 0 google_breakpad::Minidump::GetDirectoryEntryAtIndex(unsigned int) const
PUBLIC f8f0 0 google_breakpad::Minidump::ReadBytes(void*, unsigned long)
PUBLIC faf0 0 google_breakpad::MinidumpException::Read(unsigned int)
PUBLIC fd00 0 google_breakpad::MinidumpBreakpadInfo::Read(unsigned int)
PUBLIC fe70 0 google_breakpad::MinidumpThread::Read()
PUBLIC 101c0 0 google_breakpad::MinidumpSystemInfo::Read(unsigned int)
PUBLIC 10430 0 google_breakpad::MinidumpMemoryInfo::Read()
PUBLIC 106a0 0 google_breakpad::MinidumpModule::Read()
PUBLIC 10a10 0 google_breakpad::Minidump::SeekSet(long)
PUBLIC 10b70 0 google_breakpad::Minidump::Open()
PUBLIC 10f40 0 google_breakpad::Minidump::Tell()
PUBLIC 10f90 0 google_breakpad::Minidump::GetContextCPUFlagsFromSystemInfo(unsigned int*)
PUBLIC 11110 0 google_breakpad::MinidumpContext::Read(unsigned int)
PUBLIC 13320 0 google_breakpad::MinidumpThread::GetContext()
PUBLIC 13500 0 google_breakpad::MinidumpException::GetContext()
PUBLIC 136f0 0 google_breakpad::MinidumpException::Print()
PUBLIC 138e0 0 google_breakpad::Minidump::IsAndroid()
PUBLIC 139e0 0 google_breakpad::MinidumpModuleList::MinidumpModuleList(google_breakpad::Minidump*)
PUBLIC 13a60 0 google_breakpad::MinidumpUnloadedModule::Read(unsigned int)
PUBLIC 13de0 0 google_breakpad::Minidump::ReadUTF8String(long, std::__cxx11::basic_string<char, std::char_traits<char>, std::allocator<char> >*)
PUBLIC 140c0 0 google_breakpad::Minidump::SeekToStreamType(unsigned int, unsigned int*)
PUBLIC 143b0 0 google_breakpad::(anonymous namespace)::UTF16ToUTF8(std::vector<unsigned short, std::allocator<unsigned short> > const&, bool)
PUBLIC 14ae0 0 google_breakpad::Minidump::ReadString[abi:cxx11](long)
PUBLIC 14ef0 0 google_breakpad::MinidumpSystemInfo::GetCSDVersion[abi:cxx11]()
PUBLIC 15010 0 google_breakpad::MinidumpSystemInfo::Print()
PUBLIC 15330 0 google_breakpad::MinidumpUnloadedModule::ReadAuxiliaryData()
PUBLIC 15440 0 google_breakpad::MinidumpModule::debug_file[abi:cxx11]() const
PUBLIC 158f0 0 non-virtual thunk to google_breakpad::MinidumpModule::debug_file[abi:cxx11]() const
PUBLIC 15900 0 google_breakpad::(anonymous namespace)::ConvertUTF16BufferToUTF8String(unsigned short const*, unsigned long, std::__cxx11::basic_string<char, std::char_traits<char>, std::allocator<char> >*, bool)
PUBLIC 15a70 0 google_breakpad::MinidumpAssertion::Read(unsigned int)
PUBLIC 15c70 0 google_breakpad::MinidumpMiscInfo::Read(unsigned int)
PUBLIC 16310 0 google_breakpad::MinidumpMemoryRegion::GetMemory() const
PUBLIC 16670 0 google_breakpad::MinidumpMemoryRegion::Print() const
PUBLIC 168d0 0 non-virtual thunk to google_breakpad::MinidumpMemoryRegion::Print() const
PUBLIC 168e0 0 google_breakpad::MinidumpModule::GetCVRecord(unsigned int*)
PUBLIC 16e60 0 google_breakpad::MinidumpModule::GetMiscRecord(unsigned int*)
PUBLIC 172f0 0 google_breakpad::MinidumpModule::ReadAuxiliaryData()
PUBLIC 174c0 0 google_breakpad::MinidumpModule::Print()
PUBLIC 17bf0 0 google_breakpad::MinidumpModuleList::Print()
PUBLIC 17d00 0 google_breakpad::MinidumpMemoryRegion::GetMemoryAtAddress(unsigned long, unsigned char*) const
PUBLIC 17d10 0 non-virtual thunk to google_breakpad::MinidumpMemoryRegion::GetMemoryAtAddress(unsigned long, unsigned char*) const
PUBLIC 17d20 0 google_breakpad::MinidumpMemoryRegion::GetMemoryAtAddress(unsigned long, unsigned short*) const
PUBLIC 17d30 0 non-virtual thunk to google_breakpad::MinidumpMemoryRegion::GetMemoryAtAddress(unsigned long, unsigned short*) const
PUBLIC 17d40 0 google_breakpad::MinidumpMemoryRegion::GetMemoryAtAddress(unsigned long, unsigned int*) const
PUBLIC 17d50 0 non-virtual thunk to google_breakpad::MinidumpMemoryRegion::GetMemoryAtAddress(unsigned long, unsigned int*) const
PUBLIC 17d60 0 google_breakpad::MinidumpMemoryRegion::GetMemoryAtAddress(unsigned long, unsigned long*) const
PUBLIC 17d70 0 non-virtual thunk to google_breakpad::MinidumpMemoryRegion::GetMemoryAtAddress(unsigned long, unsigned long*) const
PUBLIC 17d80 0 google_breakpad::MinidumpModuleList::GetModuleForAddress(unsigned long) const
PUBLIC 17f00 0 covariant return thunk to google_breakpad::MinidumpModuleList::GetModuleForAddress(unsigned long) const
PUBLIC 17f20 0 covariant return thunk to google_breakpad::MinidumpModuleList::GetModuleForAddress(unsigned long) const
PUBLIC 17f30 0 google_breakpad::MinidumpMemoryList::GetMemoryRegionForAddress(unsigned long)
PUBLIC 180b0 0 google_breakpad::MinidumpUnloadedModuleList::GetModuleForAddress(unsigned long) const
PUBLIC 18230 0 covariant return thunk to google_breakpad::MinidumpUnloadedModuleList::GetModuleForAddress(unsigned long) const
PUBLIC 18250 0 covariant return thunk to google_breakpad::MinidumpUnloadedModuleList::GetModuleForAddress(unsigned long) const
PUBLIC 18260 0 google_breakpad::MinidumpMemoryInfoList::GetMemoryInfoForAddress(unsigned long) const
PUBLIC 183e0 0 google_breakpad::MinidumpModuleList::GetModuleAtSequence(unsigned int) const
PUBLIC 18590 0 covariant return thunk to google_breakpad::MinidumpModuleList::GetModuleAtSequence(unsigned int) const
PUBLIC 185b0 0 covariant return thunk to google_breakpad::MinidumpModuleList::GetModuleAtSequence(unsigned int) const
PUBLIC 185c0 0 google_breakpad::MinidumpUnloadedModuleList::GetModuleAtSequence(unsigned int) const
PUBLIC 18770 0 covariant return thunk to google_breakpad::MinidumpUnloadedModuleList::GetModuleAtSequence(unsigned int) const
PUBLIC 18790 0 covariant return thunk to google_breakpad::MinidumpUnloadedModuleList::GetModuleAtSequence(unsigned int) const
PUBLIC 187a0 0 google_breakpad::Minidump::GetException()
PUBLIC 187e0 0 google_breakpad::Minidump::GetAssertion()
PUBLIC 18820 0 google_breakpad::Minidump::GetSystemInfo()
PUBLIC 18860 0 google_breakpad::Minidump::GetMiscInfo()
PUBLIC 188a0 0 google_breakpad::Minidump::GetBreakpadInfo()
PUBLIC 188e0 0 google_breakpad::MinidumpThreadList::~MinidumpThreadList()
PUBLIC 189a0 0 google_breakpad::MinidumpThreadList::~MinidumpThreadList()
PUBLIC 189c0 0 google_breakpad::MinidumpModuleList::~MinidumpModuleList()
PUBLIC 18aa0 0 non-virtual thunk to google_breakpad::MinidumpModuleList::~MinidumpModuleList()
PUBLIC 18ab0 0 google_breakpad::MinidumpModuleList::~MinidumpModuleList()
PUBLIC 18ad0 0 non-virtual thunk to google_breakpad::MinidumpModuleList::~MinidumpModuleList()
PUBLIC 18ae0 0 google_breakpad::MinidumpMemoryList::~MinidumpMemoryList()
PUBLIC 18bd0 0 google_breakpad::MinidumpMemoryList::~MinidumpMemoryList()
PUBLIC 18bf0 0 google_breakpad::MinidumpUnloadedModuleList::~MinidumpUnloadedModuleList()
PUBLIC 18ca0 0 non-virtual thunk to google_breakpad::MinidumpUnloadedModuleList::~MinidumpUnloadedModuleList()
PUBLIC 18cb0 0 google_breakpad::MinidumpUnloadedModuleList::~MinidumpUnloadedModuleList()
PUBLIC 18cd0 0 non-virtual thunk to google_breakpad::MinidumpUnloadedModuleList::~MinidumpUnloadedModuleList()
PUBLIC 18ce0 0 google_breakpad::MinidumpMemoryInfoList::~MinidumpMemoryInfoList()
PUBLIC 18d80 0 google_breakpad::MinidumpMemoryInfoList::~MinidumpMemoryInfoList()
PUBLIC 18da0 0 google_breakpad::Minidump::~Minidump()
PUBLIC 18ea0 0 google_breakpad::Minidump::~Minidump()
PUBLIC 18ec0 0 google_breakpad::Minidump::ReadStringList(long, std::vector<std::__cxx11::basic_string<char, std::char_traits<char>, std::allocator<char> >, std::allocator<std::__cxx11::basic_string<char, std::char_traits<char>, std::allocator<char> > > >*)
PUBLIC 19260 0 google_breakpad::Minidump::ReadSimpleStringDictionary(long, std::map<std::__cxx11::basic_string<char, std::char_traits<char>, std::allocator<char> >, std::__cxx11::basic_string<char, std::char_traits<char>, std::allocator<char> >, std::less<std::__cxx11::basic_string<char, std::char_traits<char>, std::allocator<char> > >, std::allocator<std::pair<std::__cxx11::basic_string<char, std::char_traits<char>, std::allocator<char> > const, std::__cxx11::basic_string<char, std::char_traits<char>, std::allocator<char> > > > >*)
PUBLIC 19980 0 google_breakpad::MinidumpLinuxMapsList::Read(unsigned int)
PUBLIC 19fd0 0 google_breakpad::Minidump::GetLinuxMapsList()
PUBLIC 1a010 0 std::_Rb_tree_iterator<std::pair<unsigned int const, google_breakpad::MinidumpThread*> > std::_Rb_tree<unsigned int, std::pair<unsigned int const, google_breakpad::MinidumpThread*>, std::_Select1st<std::pair<unsigned int const, google_breakpad::MinidumpThread*> >, std::less<unsigned int>, std::allocator<std::pair<unsigned int const, google_breakpad::MinidumpThread*> > >::_M_emplace_hint_unique<std::piecewise_construct_t const&, std::tuple<unsigned int const&>, std::tuple<> >(std::_Rb_tree_const_iterator<std::pair<unsigned int const, google_breakpad::MinidumpThread*> >, std::piecewise_construct_t const&, std::tuple<unsigned int const&>&&, std::tuple<>&&) [clone .isra.385]
PUBLIC 1a0c0 0 google_breakpad::MinidumpThreadList::GetThreadByID(unsigned int)
PUBLIC 1a160 0 google_breakpad::MinidumpThreadList::Read(unsigned int)
PUBLIC 1aaa0 0 google_breakpad::Minidump::GetThreadList()
PUBLIC 1aae0 0 google_breakpad::MinidumpModuleList::StoreRange(google_breakpad::MinidumpModule const&, unsigned long, unsigned int, unsigned int, bool)
PUBLIC 1ae80 0 google_breakpad::MinidumpModuleList::Read(unsigned int)
PUBLIC 1bf90 0 google_breakpad::Minidump::GetModuleList()
PUBLIC 1bfd0 0 google_breakpad::MinidumpMemoryList::Read(unsigned int)
PUBLIC 1caf0 0 google_breakpad::Minidump::GetMemoryList()
PUBLIC 1cb30 0 google_breakpad::MinidumpUnloadedModuleList::Read(unsigned int)
PUBLIC 1d360 0 google_breakpad::Minidump::GetUnloadedModuleList()
PUBLIC 1d3a0 0 google_breakpad::MinidumpMemoryInfoList::Read(unsigned int)
PUBLIC 1dbe0 0 google_breakpad::Minidump::GetMemoryInfoList()
PUBLIC 1dc20 0 google_breakpad::Minidump::Read()
PUBLIC 1e5f0 0 google_breakpad::MinidumpCrashpadInfo::Read(unsigned int)
PUBLIC 1f0c0 0 google_breakpad::Minidump::GetCrashpadInfo()
PUBLIC 1f100 0 google_breakpad::MinidumpObject::~MinidumpObject()
PUBLIC 1f110 0 google_breakpad::MinidumpThreadList::thread_count() const
PUBLIC 1f120 0 google_breakpad::MinidumpModule::base_address() const
PUBLIC 1f140 0 non-virtual thunk to google_breakpad::MinidumpModule::base_address() const
PUBLIC 1f160 0 google_breakpad::MinidumpModule::size() const
PUBLIC 1f170 0 non-virtual thunk to google_breakpad::MinidumpModule::size() const
PUBLIC 1f180 0 google_breakpad::MinidumpModule::is_unloaded() const
PUBLIC 1f190 0 non-virtual thunk to google_breakpad::MinidumpModule::is_unloaded() const
PUBLIC 1f1a0 0 google_breakpad::MinidumpModuleList::module_count() const
PUBLIC 1f1b0 0 non-virtual thunk to google_breakpad::MinidumpModuleList::module_count() const
PUBLIC 1f1c0 0 google_breakpad::MinidumpUnloadedModule::base_address() const
PUBLIC 1f1d0 0 non-virtual thunk to google_breakpad::MinidumpUnloadedModule::base_address() const
PUBLIC 1f1e0 0 google_breakpad::MinidumpUnloadedModule::size() const
PUBLIC 1f1f0 0 non-virtual thunk to google_breakpad::MinidumpUnloadedModule::size() const
PUBLIC 1f200 0 google_breakpad::MinidumpUnloadedModule::is_unloaded() const
PUBLIC 1f210 0 non-virtual thunk to google_breakpad::MinidumpUnloadedModule::is_unloaded() const
PUBLIC 1f220 0 google_breakpad::MinidumpUnloadedModuleList::module_count() const
PUBLIC 1f230 0 non-virtual thunk to google_breakpad::MinidumpUnloadedModuleList::module_count() const
PUBLIC 1f240 0 google_breakpad::Minidump::header() const
PUBLIC 1f260 0 google_breakpad::BasicCodeModule::base_address() const
PUBLIC 1f270 0 google_breakpad::BasicCodeModule::size() const
PUBLIC 1f280 0 google_breakpad::BasicCodeModule::shrink_down_delta() const
PUBLIC 1f290 0 google_breakpad::BasicCodeModule::SetShrinkDownDelta(unsigned long)
PUBLIC 1f2a0 0 google_breakpad::BasicCodeModule::is_unloaded() const
PUBLIC 1f2b0 0 google_breakpad::MinidumpBreakpadInfo::~MinidumpBreakpadInfo()
PUBLIC 1f2c0 0 google_breakpad::MinidumpMemoryInfo::~MinidumpMemoryInfo()
PUBLIC 1f2d0 0 google_breakpad::MinidumpObject::~MinidumpObject()
PUBLIC 1f2e0 0 google_breakpad::MinidumpMemoryInfo::~MinidumpMemoryInfo()
PUBLIC 1f2f0 0 google_breakpad::MinidumpBreakpadInfo::~MinidumpBreakpadInfo()
PUBLIC 1f300 0 google_breakpad::BasicCodeModule::~BasicCodeModule()
PUBLIC 1f390 0 google_breakpad::MinidumpLinuxMaps::~MinidumpLinuxMaps()
PUBLIC 1f3e0 0 google_breakpad::MinidumpMiscInfo::~MinidumpMiscInfo()
PUBLIC 1f460 0 google_breakpad::BasicCodeModule::code_file[abi:cxx11]() const
PUBLIC 1f490 0 google_breakpad::BasicCodeModule::code_identifier[abi:cxx11]() const
PUBLIC 1f4c0 0 google_breakpad::BasicCodeModule::debug_file[abi:cxx11]() const
PUBLIC 1f4f0 0 google_breakpad::BasicCodeModule::debug_identifier[abi:cxx11]() const
PUBLIC 1f520 0 google_breakpad::BasicCodeModule::version[abi:cxx11]() const
PUBLIC 1f550 0 google_breakpad::Minidump::path[abi:cxx11]() const
PUBLIC 1f580 0 google_breakpad::MinidumpLinuxMaps::~MinidumpLinuxMaps()
PUBLIC 1f5d0 0 google_breakpad::MinidumpMiscInfo::~MinidumpMiscInfo()
PUBLIC 1f650 0 google_breakpad::BasicCodeModule::~BasicCodeModule()
PUBLIC 1f6e0 0 google_breakpad::BasicCodeModule::Copy() const
PUBLIC 1f850 0 google_breakpad::scoped_ptr<std::__cxx11::basic_string<char, std::char_traits<char>, std::allocator<char> > >::~scoped_ptr()
PUBLIC 1f890 0 google_breakpad::scoped_ptr<std::vector<unsigned char, std::allocator<unsigned char> > >::~scoped_ptr()
PUBLIC 1f8c0 0 bool google_breakpad::MinidumpMemoryRegion::GetMemoryAtAddressInternal<unsigned char>(unsigned long, unsigned char*) const
PUBLIC 1fbe0 0 bool google_breakpad::MinidumpMemoryRegion::GetMemoryAtAddressInternal<unsigned short>(unsigned long, unsigned short*) const
PUBLIC 1ff10 0 bool google_breakpad::MinidumpMemoryRegion::GetMemoryAtAddressInternal<unsigned int>(unsigned long, unsigned int*) const
PUBLIC 20240 0 bool google_breakpad::MinidumpMemoryRegion::GetMemoryAtAddressInternal<unsigned long>(unsigned long, unsigned long*) const
PUBLIC 20580 0 google_breakpad::RangeMap<unsigned long, unsigned int>::RetrieveRange(unsigned long const&, unsigned int*, unsigned long*, unsigned long*, unsigned long*) const
PUBLIC 206e0 0 google_breakpad::RangeMap<unsigned long, unsigned int>::RetrieveRangeAtIndex(int, unsigned int*, unsigned long*, unsigned long*, unsigned long*) const
PUBLIC 20890 0 std::vector<std::__cxx11::basic_string<char, std::char_traits<char>, std::allocator<char> >, std::allocator<std::__cxx11::basic_string<char, std::char_traits<char>, std::allocator<char> > > >::~vector()
PUBLIC 208f0 0 google_breakpad::MinidumpException* google_breakpad::Minidump::GetStream<google_breakpad::MinidumpException>(google_breakpad::MinidumpException**)
PUBLIC 20c30 0 google_breakpad::MinidumpAssertion* google_breakpad::Minidump::GetStream<google_breakpad::MinidumpAssertion>(google_breakpad::MinidumpAssertion**)
PUBLIC 20f70 0 google_breakpad::MinidumpSystemInfo* google_breakpad::Minidump::GetStream<google_breakpad::MinidumpSystemInfo>(google_breakpad::MinidumpSystemInfo**)
PUBLIC 212b0 0 google_breakpad::MinidumpMiscInfo* google_breakpad::Minidump::GetStream<google_breakpad::MinidumpMiscInfo>(google_breakpad::MinidumpMiscInfo**)
PUBLIC 215f0 0 google_breakpad::MinidumpBreakpadInfo* google_breakpad::Minidump::GetStream<google_breakpad::MinidumpBreakpadInfo>(google_breakpad::MinidumpBreakpadInfo**)
PUBLIC 21930 0 std::_Rb_tree<unsigned int, std::pair<unsigned int const, google_breakpad::MinidumpThread*>, std::_Select1st<std::pair<unsigned int const, google_breakpad::MinidumpThread*> >, std::less<unsigned int>, std::allocator<std::pair<unsigned int const, google_breakpad::MinidumpThread*> > >::_M_erase(std::_Rb_tree_node<std::pair<unsigned int const, google_breakpad::MinidumpThread*> >*)
PUBLIC 21970 0 std::_Rb_tree<unsigned long, std::pair<unsigned long const, google_breakpad::RangeMap<unsigned long, unsigned int>::Range>, std::_Select1st<std::pair<unsigned long const, google_breakpad::RangeMap<unsigned long, unsigned int>::Range> >, std::less<unsigned long>, std::allocator<std::pair<unsigned long const, google_breakpad::RangeMap<unsigned long, unsigned int>::Range> > >::_M_erase(std::_Rb_tree_node<std::pair<unsigned long const, google_breakpad::RangeMap<unsigned long, unsigned int>::Range> >*)
PUBLIC 219b0 0 std::_Rb_tree<std::__cxx11::basic_string<char, std::char_traits<char>, std::allocator<char> >, std::pair<std::__cxx11::basic_string<char, std::char_traits<char>, std::allocator<char> > const, std::__cxx11::basic_string<char, std::char_traits<char>, std::allocator<char> > >, std::_Select1st<std::pair<std::__cxx11::basic_string<char, std::char_traits<char>, std::allocator<char> > const, std::__cxx11::basic_string<char, std::char_traits<char>, std::allocator<char> > > >, std::less<std::__cxx11::basic_string<char, std::char_traits<char>, std::allocator<char> > >, std::allocator<std::pair<std::__cxx11::basic_string<char, std::char_traits<char>, std::allocator<char> > const, std::__cxx11::basic_string<char, std::char_traits<char>, std::allocator<char> > > > >::_M_erase(std::_Rb_tree_node<std::pair<std::__cxx11::basic_string<char, std::char_traits<char>, std::allocator<char> > const, std::__cxx11::basic_string<char, std::char_traits<char>, std::allocator<char> > > >*)
PUBLIC 21a20 0 google_breakpad::MinidumpCrashpadInfo::~MinidumpCrashpadInfo()
PUBLIC 21b90 0 google_breakpad::MinidumpCrashpadInfo::~MinidumpCrashpadInfo()
PUBLIC 21d00 0 void std::vector<unsigned int, std::allocator<unsigned int> >::_M_realloc_insert<unsigned int const&>(__gnu_cxx::__normal_iterator<unsigned int*, std::vector<unsigned int, std::allocator<unsigned int> > >, unsigned int const&)
PUBLIC 21e30 0 void std::vector<MDRawModuleCrashpadInfo, std::allocator<MDRawModuleCrashpadInfo> >::_M_realloc_insert<MDRawModuleCrashpadInfo const&>(__gnu_cxx::__normal_iterator<MDRawModuleCrashpadInfo*, std::vector<MDRawModuleCrashpadInfo, std::allocator<MDRawModuleCrashpadInfo> > >, MDRawModuleCrashpadInfo const&)
PUBLIC 21f70 0 void std::vector<std::vector<std::__cxx11::basic_string<char, std::char_traits<char>, std::allocator<char> >, std::allocator<std::__cxx11::basic_string<char, std::char_traits<char>, std::allocator<char> > > >, std::allocator<std::vector<std::__cxx11::basic_string<char, std::char_traits<char>, std::allocator<char> >, std::allocator<std::__cxx11::basic_string<char, std::char_traits<char>, std::allocator<char> > > > > >::_M_realloc_insert<std::vector<std::__cxx11::basic_string<char, std::char_traits<char>, std::allocator<char> >, std::allocator<std::__cxx11::basic_string<char, std::char_traits<char>, std::allocator<char> > > > const&>(__gnu_cxx::__normal_iterator<std::vector<std::__cxx11::basic_string<char, std::char_traits<char>, std::allocator<char> >, std::allocator<std::__cxx11::basic_string<char, std::char_traits<char>, std::allocator<char> > > >*, std::vector<std::vector<std::__cxx11::basic_string<char, std::char_traits<char>, std::allocator<char> >, std::allocator<std::__cxx11::basic_string<char, std::char_traits<char>, std::allocator<char> > > >, std::allocator<std::vector<std::__cxx11::basic_string<char, std::char_traits<char>, std::allocator<char> >, std::allocator<std::__cxx11::basic_string<char, std::char_traits<char>, std::allocator<char> > > > > > >, std::vector<std::__cxx11::basic_string<char, std::char_traits<char>, std::allocator<char> >, std::allocator<std::__cxx11::basic_string<char, std::char_traits<char>, std::allocator<char> > > > const&)
PUBLIC 22390 0 std::_Rb_tree<unsigned int, std::pair<unsigned int const, google_breakpad::Minidump::MinidumpStreamInfo>, std::_Select1st<std::pair<unsigned int const, google_breakpad::Minidump::MinidumpStreamInfo> >, std::less<unsigned int>, std::allocator<std::pair<unsigned int const, google_breakpad::Minidump::MinidumpStreamInfo> > >::_M_erase(std::_Rb_tree_node<std::pair<unsigned int const, google_breakpad::Minidump::MinidumpStreamInfo> >*)
PUBLIC 223e0 0 void std::vector<std::__cxx11::basic_string<char, std::char_traits<char>, std::allocator<char> >, std::allocator<std::__cxx11::basic_string<char, std::char_traits<char>, std::allocator<char> > > >::_M_realloc_insert<std::__cxx11::basic_string<char, std::char_traits<char>, std::allocator<char> > const&>(__gnu_cxx::__normal_iterator<std::__cxx11::basic_string<char, std::char_traits<char>, std::allocator<char> >*, std::vector<std::__cxx11::basic_string<char, std::char_traits<char>, std::allocator<char> >, std::allocator<std::__cxx11::basic_string<char, std::char_traits<char>, std::allocator<char> > > > >, std::__cxx11::basic_string<char, std::char_traits<char>, std::allocator<char> > const&)
PUBLIC 22670 0 std::pair<std::_Rb_tree_iterator<std::pair<std::__cxx11::basic_string<char, std::char_traits<char>, std::allocator<char> > const, std::__cxx11::basic_string<char, std::char_traits<char>, std::allocator<char> > > >, bool> std::_Rb_tree<std::__cxx11::basic_string<char, std::char_traits<char>, std::allocator<char> >, std::pair<std::__cxx11::basic_string<char, std::char_traits<char>, std::allocator<char> > const, std::__cxx11::basic_string<char, std::char_traits<char>, std::allocator<char> > >, std::_Select1st<std::pair<std::__cxx11::basic_string<char, std::char_traits<char>, std::allocator<char> > const, std::__cxx11::basic_string<char, std::char_traits<char>, std::allocator<char> > > >, std::less<std::__cxx11::basic_string<char, std::char_traits<char>, std::allocator<char> > >, std::allocator<std::pair<std::__cxx11::basic_string<char, std::char_traits<char>, std::allocator<char> > const, std::__cxx11::basic_string<char, std::char_traits<char>, std::allocator<char> > > > >::_M_emplace_unique<std::pair<std::__cxx11::basic_string<char, std::char_traits<char>, std::allocator<char> >, std::__cxx11::basic_string<char, std::char_traits<char>, std::allocator<char> > > >(std::pair<std::__cxx11::basic_string<char, std::char_traits<char>, std::allocator<char> >, std::__cxx11::basic_string<char, std::char_traits<char>, std::allocator<char> > >&&)
PUBLIC 22990 0 void std::vector<google_breakpad::MinidumpLinuxMaps*, std::allocator<google_breakpad::MinidumpLinuxMaps*> >::_M_realloc_insert<google_breakpad::MinidumpLinuxMaps*>(__gnu_cxx::__normal_iterator<google_breakpad::MinidumpLinuxMaps**, std::vector<google_breakpad::MinidumpLinuxMaps*, std::allocator<google_breakpad::MinidumpLinuxMaps*> > >, google_breakpad::MinidumpLinuxMaps*&&)
PUBLIC 22ac0 0 google_breakpad::MinidumpLinuxMapsList* google_breakpad::Minidump::GetStream<google_breakpad::MinidumpLinuxMapsList>(google_breakpad::MinidumpLinuxMapsList**)
PUBLIC 22e00 0 std::_Rb_tree<unsigned int, std::pair<unsigned int const, google_breakpad::MinidumpThread*>, std::_Select1st<std::pair<unsigned int const, google_breakpad::MinidumpThread*> >, std::less<unsigned int>, std::allocator<std::pair<unsigned int const, google_breakpad::MinidumpThread*> > >::_M_get_insert_unique_pos(unsigned int const&)
PUBLIC 22e90 0 std::_Rb_tree<unsigned int, std::pair<unsigned int const, google_breakpad::MinidumpThread*>, std::_Select1st<std::pair<unsigned int const, google_breakpad::MinidumpThread*> >, std::less<unsigned int>, std::allocator<std::pair<unsigned int const, google_breakpad::MinidumpThread*> > >::_M_get_insert_hint_unique_pos(std::_Rb_tree_const_iterator<std::pair<unsigned int const, google_breakpad::MinidumpThread*> >, unsigned int const&)
PUBLIC 22f70 0 google_breakpad::MinidumpThreadList* google_breakpad::Minidump::GetStream<google_breakpad::MinidumpThreadList>(google_breakpad::MinidumpThreadList**)
PUBLIC 232b0 0 std::pair<std::_Rb_tree_iterator<std::pair<unsigned long const, google_breakpad::RangeMap<unsigned long, unsigned int>::Range> >, bool> std::_Rb_tree<unsigned long, std::pair<unsigned long const, google_breakpad::RangeMap<unsigned long, unsigned int>::Range>, std::_Select1st<std::pair<unsigned long const, google_breakpad::RangeMap<unsigned long, unsigned int>::Range> >, std::less<unsigned long>, std::allocator<std::pair<unsigned long const, google_breakpad::RangeMap<unsigned long, unsigned int>::Range> > >::_M_insert_unique<std::pair<unsigned long const, google_breakpad::RangeMap<unsigned long, unsigned int>::Range> >(std::pair<unsigned long const, google_breakpad::RangeMap<unsigned long, unsigned int>::Range>&&)
PUBLIC 233d0 0 google_breakpad::RangeMap<unsigned long, unsigned int>::StoreRangeInternal(unsigned long const&, unsigned long const&, unsigned long const&, unsigned int const&)
PUBLIC 23890 0 google_breakpad::MinidumpModuleList* google_breakpad::Minidump::GetStream<google_breakpad::MinidumpModuleList>(google_breakpad::MinidumpModuleList**)
PUBLIC 23bd0 0 google_breakpad::MinidumpMemoryList* google_breakpad::Minidump::GetStream<google_breakpad::MinidumpMemoryList>(google_breakpad::MinidumpMemoryList**)
PUBLIC 23f10 0 google_breakpad::MinidumpUnloadedModuleList* google_breakpad::Minidump::GetStream<google_breakpad::MinidumpUnloadedModuleList>(google_breakpad::MinidumpUnloadedModuleList**)
PUBLIC 24250 0 google_breakpad::MinidumpMemoryInfoList* google_breakpad::Minidump::GetStream<google_breakpad::MinidumpMemoryInfoList>(google_breakpad::MinidumpMemoryInfoList**)
PUBLIC 24590 0 std::_Rb_tree<unsigned int, std::pair<unsigned int const, google_breakpad::Minidump::MinidumpStreamInfo>, std::_Select1st<std::pair<unsigned int const, google_breakpad::Minidump::MinidumpStreamInfo> >, std::less<unsigned int>, std::allocator<std::pair<unsigned int const, google_breakpad::Minidump::MinidumpStreamInfo> > >::_M_get_insert_unique_pos(unsigned int const&)
PUBLIC 24620 0 std::_Rb_tree<unsigned int, std::pair<unsigned int const, google_breakpad::Minidump::MinidumpStreamInfo>, std::_Select1st<std::pair<unsigned int const, google_breakpad::Minidump::MinidumpStreamInfo> >, std::less<unsigned int>, std::allocator<std::pair<unsigned int const, google_breakpad::Minidump::MinidumpStreamInfo> > >::_M_get_insert_hint_unique_pos(std::_Rb_tree_const_iterator<std::pair<unsigned int const, google_breakpad::Minidump::MinidumpStreamInfo> >, unsigned int const&)
PUBLIC 24700 0 std::_Rb_tree_node<std::pair<std::__cxx11::basic_string<char, std::char_traits<char>, std::allocator<char> > const, std::__cxx11::basic_string<char, std::char_traits<char>, std::allocator<char> > > >* std::_Rb_tree<std::__cxx11::basic_string<char, std::char_traits<char>, std::allocator<char> >, std::pair<std::__cxx11::basic_string<char, std::char_traits<char>, std::allocator<char> > const, std::__cxx11::basic_string<char, std::char_traits<char>, std::allocator<char> > >, std::_Select1st<std::pair<std::__cxx11::basic_string<char, std::char_traits<char>, std::allocator<char> > const, std::__cxx11::basic_string<char, std::char_traits<char>, std::allocator<char> > > >, std::less<std::__cxx11::basic_string<char, std::char_traits<char>, std::allocator<char> > >, std::allocator<std::pair<std::__cxx11::basic_string<char, std::char_traits<char>, std::allocator<char> > const, std::__cxx11::basic_string<char, std::char_traits<char>, std::allocator<char> > > > >::_M_copy<std::_Rb_tree<std::__cxx11::basic_string<char, std::char_traits<char>, std::allocator<char> >, std::pair<std::__cxx11::basic_string<char, std::char_traits<char>, std::allocator<char> > const, std::__cxx11::basic_string<char, std::char_traits<char>, std::allocator<char> > >, std::_Select1st<std::pair<std::__cxx11::basic_string<char, std::char_traits<char>, std::allocator<char> > const, std::__cxx11::basic_string<char, std::char_traits<char>, std::allocator<char> > > >, std::less<std::__cxx11::basic_string<char, std::char_traits<char>, std::allocator<char> > >, std::allocator<std::pair<std::__cxx11::basic_string<char, std::char_traits<char>, std::allocator<char> > const, std::__cxx11::basic_string<char, std::char_traits<char>, std::allocator<char> > > > >::_Alloc_node>(std::_Rb_tree_node<std::pair<std::__cxx11::basic_string<char, std::char_traits<char>, std::allocator<char> > const, std::__cxx11::basic_string<char, std::char_traits<char>, std::allocator<char> > > > const*, std::_Rb_tree_node_base*, std::_Rb_tree<std::__cxx11::basic_string<char, std::char_traits<char>, std::allocator<char> >, std::pair<std::__cxx11::basic_string<char, std::char_traits<char>, std::allocator<char> > const, std::__cxx11::basic_string<char, std::char_traits<char>, std::allocator<char> > >, std::_Select1st<std::pair<std::__cxx11::basic_string<char, std::char_traits<char>, std::allocator<char> > const, std::__cxx11::basic_string<char, std::char_traits<char>, std::allocator<char> > > >, std::less<std::__cxx11::basic_string<char, std::char_traits<char>, std::allocator<char> > >, std::allocator<std::pair<std::__cxx11::basic_string<char, std::char_traits<char>, std::allocator<char> > const, std::__cxx11::basic_string<char, std::char_traits<char>, std::allocator<char> > > > >::_Alloc_node&)
PUBLIC 24900 0 void std::vector<std::map<std::__cxx11::basic_string<char, std::char_traits<char>, std::allocator<char> >, std::__cxx11::basic_string<char, std::char_traits<char>, std::allocator<char> >, std::less<std::__cxx11::basic_string<char, std::char_traits<char>, std::allocator<char> > >, std::allocator<std::pair<std::__cxx11::basic_string<char, std::char_traits<char>, std::allocator<char> > const, std::__cxx11::basic_string<char, std::char_traits<char>, std::allocator<char> > > > >, std::allocator<std::map<std::__cxx11::basic_string<char, std::char_traits<char>, std::allocator<char> >, std::__cxx11::basic_string<char, std::char_traits<char>, std::allocator<char> >, std::less<std::__cxx11::basic_string<char, std::char_traits<char>, std::allocator<char> > >, std::allocator<std::pair<std::__cxx11::basic_string<char, std::char_traits<char>, std::allocator<char> > const, std::__cxx11::basic_string<char, std::char_traits<char>, std::allocator<char> > > > > > >::_M_realloc_insert<std::map<std::__cxx11::basic_string<char, std::char_traits<char>, std::allocator<char> >, std::__cxx11::basic_string<char, std::char_traits<char>, std::allocator<char> >, std::less<std::__cxx11::basic_string<char, std::char_traits<char>, std::allocator<char> > >, std::allocator<std::pair<std::__cxx11::basic_string<char, std::char_traits<char>, std::allocator<char> > const, std::__cxx11::basic_string<char, std::char_traits<char>, std::allocator<char> > > > > const&>(__gnu_cxx::__normal_iterator<std::map<std::__cxx11::basic_string<char, std::char_traits<char>, std::allocator<char> >, std::__cxx11::basic_string<char, std::char_traits<char>, std::allocator<char> >, std::less<std::__cxx11::basic_string<char, std::char_traits<char>, std::allocator<char> > >, std::allocator<std::pair<std::__cxx11::basic_string<char, std::char_traits<char>, std::allocator<char> > const, std::__cxx11::basic_string<char, std::char_traits<char>, std::allocator<char> > > > >*, std::vector<std::map<std::__cxx11::basic_string<char, std::char_traits<char>, std::allocator<char> >, std::__cxx11::basic_string<char, std::char_traits<char>, std::allocator<char> >, std::less<std::__cxx11::basic_string<char, std::char_traits<char>, std::allocator<char> > >, std::allocator<std::pair<std::__cxx11::basic_string<char, std::char_traits<char>, std::allocator<char> > const, std::__cxx11::basic_string<char, std::char_traits<char>, std::allocator<char> > > > >, std::allocator<std::map<std::__cxx11::basic_string<char, std::char_traits<char>, std::allocator<char> >, std::__cxx11::basic_string<char, std::char_traits<char>, std::allocator<char> >, std::less<std::__cxx11::basic_string<char, std::char_traits<char>, std::allocator<char> > >, std::allocator<std::pair<std::__cxx11::basic_string<char, std::char_traits<char>, std::allocator<char> > const, std::__cxx11::basic_string<char, std::char_traits<char>, std::allocator<char> > > > > > > >, std::map<std::__cxx11::basic_string<char, std::char_traits<char>, std::allocator<char> >, std::__cxx11::basic_string<char, std::char_traits<char>, std::allocator<char> >, std::less<std::__cxx11::basic_string<char, std::char_traits<char>, std::allocator<char> > >, std::allocator<std::pair<std::__cxx11::basic_string<char, std::char_traits<char>, std::allocator<char> > const, std::__cxx11::basic_string<char, std::char_traits<char>, std::allocator<char> > > > > const&)
PUBLIC 24cf0 0 google_breakpad::MinidumpCrashpadInfo* google_breakpad::Minidump::GetStream<google_breakpad::MinidumpCrashpadInfo>(google_breakpad::MinidumpCrashpadInfo**)
PUBLIC 25030 0 google_breakpad::PathnameStripper::File(std::__cxx11::basic_string<char, std::char_traits<char>, std::allocator<char> > const&)
PUBLIC 251e0 0 void std::__cxx11::basic_string<char, std::char_traits<char>, std::allocator<char> >::_M_construct<char const*>(char const*, char const*, std::forward_iterator_tag) [clone .isra.34]
PUBLIC 252b0 0 google_breakpad::ParseProcMaps(std::__cxx11::basic_string<char, std::char_traits<char>, std::allocator<char> > const&, std::vector<google_breakpad::MappedMemoryRegion, std::allocator<google_breakpad::MappedMemoryRegion> >*)
PUBLIC 25b30 0 google_breakpad::MappedMemoryRegion::~MappedMemoryRegion()
PUBLIC 25b70 0 void std::vector<google_breakpad::MappedMemoryRegion, std::allocator<google_breakpad::MappedMemoryRegion> >::_M_realloc_insert<google_breakpad::MappedMemoryRegion const&>(__gnu_cxx::__normal_iterator<google_breakpad::MappedMemoryRegion*, std::vector<google_breakpad::MappedMemoryRegion, std::allocator<google_breakpad::MappedMemoryRegion> > >, google_breakpad::MappedMemoryRegion const&)
PUBLIC 26050 0 __libc_csu_init
PUBLIC 260c0 0 __libc_csu_fini
PUBLIC 260c4 0 _fini
STACK CFI INIT 4b80 2b .cfa: $rsp 8 + .ra: .cfa -8 + ^
STACK CFI INIT 3f80 490 .cfa: $rsp 16 + .ra: .cfa -8 + ^
STACK CFI 3f86 .cfa: $rsp 24 +
STACK CFI INIT 4410 8 .cfa: $rsp 8 + .ra: .cfa -8 + ^
STACK CFI INIT 4c90 1ac .cfa: $rsp 8 + .ra: .cfa -8 + ^
STACK CFI 4c92 $r13: .cfa -16 + ^ .cfa: $rsp 16 +
STACK CFI 4c94 $r12: .cfa -24 + ^ .cfa: $rsp 24 +
STACK CFI 4c98 $rbp: .cfa -32 + ^ .cfa: $rsp 32 +
STACK CFI 4c99 $rbx: .cfa -40 + ^ .cfa: $rsp 40 +
STACK CFI 4ca3 .cfa: $rsp 80 +
STACK CFI 4ce1 .cfa: $rsp 40 +
STACK CFI 4ce2 .cfa: $rsp 32 +
STACK CFI 4ce3 .cfa: $rsp 24 +
STACK CFI 4ce5 .cfa: $rsp 16 +
STACK CFI 4ce7 .cfa: $rsp 8 +
STACK CFI 4ce8 .cfa: $rsp 80 +
STACK CFI INIT 4430 2e .cfa: $rsp 8 + .ra: .cfa -8 + ^
STACK CFI 443b .cfa: $rsp 16 +
STACK CFI 4459 .cfa: $rsp 8 +
STACK CFI INIT 4460 630 .cfa: $rsp 8 + .ra: .cfa -8 + ^
STACK CFI 4462 $r13: .cfa -16 + ^ .cfa: $rsp 16 +
STACK CFI 4464 $r12: .cfa -24 + ^ .cfa: $rsp 24 +
STACK CFI 446c $rbp: .cfa -32 + ^ .cfa: $rsp 32 +
STACK CFI 446d $rbx: .cfa -40 + ^ .cfa: $rsp 40 +
STACK CFI 4479 .cfa: $rsp 224 +
STACK CFI 473d .cfa: $rsp 40 +
STACK CFI 473e .cfa: $rsp 32 +
STACK CFI 473f .cfa: $rsp 24 +
STACK CFI 4741 .cfa: $rsp 16 +
STACK CFI 4743 .cfa: $rsp 8 +
STACK CFI 4744 .cfa: $rsp 224 +
STACK CFI INIT 4e40 5 .cfa: $rsp 8 + .ra: .cfa -8 + ^
STACK CFI INIT 4e50 a .cfa: $rsp 8 + .ra: .cfa -8 + ^
STACK CFI INIT 4e60 6 .cfa: $rsp 8 + .ra: .cfa -8 + ^
STACK CFI INIT 4e70 5 .cfa: $rsp 8 + .ra: .cfa -8 + ^
STACK CFI INIT 4420 f .cfa: $rsp 8 + .ra: .cfa -8 + ^
STACK CFI INIT 4e80 fb .cfa: $rsp 8 + .ra: .cfa -8 + ^
STACK CFI 4e82 $r12: .cfa -16 + ^ .cfa: $rsp 16 +
STACK CFI 4e83 $rbp: .cfa -24 + ^ .cfa: $rsp 24 +
STACK CFI 4e87 $rbx: .cfa -32 + ^ .cfa: $rsp 32 +
STACK CFI 4f62 .cfa: $rsp 24 +
STACK CFI 4f63 .cfa: $rsp 16 +
STACK CFI 4f65 .cfa: $rsp 8 +
STACK CFI 4f70 .cfa: $rsp 32 +
STACK CFI INIT 4f80 2ed .cfa: $rsp 8 + .ra: .cfa -8 + ^
STACK CFI 4f82 $r15: .cfa -16 + ^ .cfa: $rsp 16 +
STACK CFI 4f84 $r14: .cfa -24 + ^ .cfa: $rsp 24 +
STACK CFI 4f86 $r13: .cfa -32 + ^ .cfa: $rsp 32 +
STACK CFI 4f88 $r12: .cfa -40 + ^ .cfa: $rsp 40 +
STACK CFI 4f8c $rbp: .cfa -48 + ^ .cfa: $rsp 48 +
STACK CFI 4f8d $rbx: .cfa -56 + ^ .cfa: $rsp 56 +
STACK CFI 4f94 .cfa: $rsp 128 +
STACK CFI 50e6 .cfa: $rsp 56 +
STACK CFI 50e7 .cfa: $rsp 48 +
STACK CFI 50e8 .cfa: $rsp 40 +
STACK CFI 50ea .cfa: $rsp 32 +
STACK CFI 50ec .cfa: $rsp 24 +
STACK CFI 50ee .cfa: $rsp 16 +
STACK CFI 50f0 .cfa: $rsp 8 +
STACK CFI 50f8 .cfa: $rsp 128 +
STACK CFI INIT 5270 56 .cfa: $rsp 8 + .ra: .cfa -8 + ^
STACK CFI INIT 5e50 2a3 .cfa: $rsp 8 + .ra: .cfa -8 + ^
STACK CFI 5e52 $r15: .cfa -16 + ^ .cfa: $rsp 16 +
STACK CFI 5e54 $r14: .cfa -24 + ^ .cfa: $rsp 24 +
STACK CFI 5e59 $r13: .cfa -32 + ^ .cfa: $rsp 32 +
STACK CFI 5e5b $r12: .cfa -40 + ^ .cfa: $rsp 40 +
STACK CFI 5e5f $rbp: .cfa -48 + ^ .cfa: $rsp 48 +
STACK CFI 5e60 $rbx: .cfa -56 + ^ .cfa: $rsp 56 +
STACK CFI 5e6d .cfa: $rsp 112 +
STACK CFI 6000 .cfa: $rsp 56 +
STACK CFI 6001 .cfa: $rsp 48 +
STACK CFI 6002 .cfa: $rsp 40 +
STACK CFI 6004 .cfa: $rsp 32 +
STACK CFI 6006 .cfa: $rsp 24 +
STACK CFI 6008 .cfa: $rsp 16 +
STACK CFI 600a .cfa: $rsp 8 +
STACK CFI 6010 .cfa: $rsp 112 +
STACK CFI INIT 52d0 19a .cfa: $rsp 8 + .ra: .cfa -8 + ^
STACK CFI 52d2 $r13: .cfa -16 + ^ .cfa: $rsp 16 +
STACK CFI 52d4 $r12: .cfa -24 + ^ .cfa: $rsp 24 +
STACK CFI 52d9 $rbp: .cfa -32 + ^ .cfa: $rsp 32 +
STACK CFI 52da $rbx: .cfa -40 + ^ .cfa: $rsp 40 +
STACK CFI 52e6 .cfa: $rsp 144 +
STACK CFI 5369 .cfa: $rsp 40 +
STACK CFI 536a .cfa: $rsp 32 +
STACK CFI 536b .cfa: $rsp 24 +
STACK CFI 536d .cfa: $rsp 16 +
STACK CFI 536f .cfa: $rsp 8 +
STACK CFI 5370 .cfa: $rsp 144 +
STACK CFI INIT 6100 7a .cfa: $rsp 8 + .ra: .cfa -8 + ^
STACK CFI 6107 $r12: .cfa -16 + ^ .cfa: $rsp 16 +
STACK CFI 610b $rbp: .cfa -24 + ^ .cfa: $rsp 24 +
STACK CFI 610c $rbx: .cfa -32 + ^ .cfa: $rsp 32 +
STACK CFI 6157 .cfa: $rsp 24 +
STACK CFI 6158 .cfa: $rsp 16 +
STACK CFI 615a .cfa: $rsp 8 +
STACK CFI 6160 .cfa: $rsp 32 +
STACK CFI 6178 $r12: $r12 $rbp: $rbp $rbx: $rbx .cfa: $rsp 8 +
STACK CFI INIT 5470 90 .cfa: $rsp 8 + .ra: .cfa -8 + ^
STACK CFI 5472 $r12: .cfa -16 + ^ .cfa: $rsp 16 +
STACK CFI 547a $rbp: .cfa -24 + ^ .cfa: $rsp 24 +
STACK CFI 547b $rbx: .cfa -32 + ^ .cfa: $rsp 32 +
STACK CFI 54d9 .cfa: $rsp 24 +
STACK CFI 54e2 .cfa: $rsp 16 +
STACK CFI 54e4 .cfa: $rsp 8 +
STACK CFI 54f0 .cfa: $rsp 32 +
STACK CFI INIT 5500 17 .cfa: $rsp 8 + .ra: .cfa -8 + ^
STACK CFI 5501 $rbx: .cfa -16 + ^ .cfa: $rsp 16 +
STACK CFI 5512 .cfa: $rsp 8 +
STACK CFI INIT 6180 2a9 .cfa: $rsp 8 + .ra: .cfa -8 + ^
STACK CFI 6182 $r15: .cfa -16 + ^ .cfa: $rsp 16 +
STACK CFI 6184 $r14: .cfa -24 + ^ .cfa: $rsp 24 +
STACK CFI 6189 $r13: .cfa -32 + ^ .cfa: $rsp 32 +
STACK CFI 618b $r12: .cfa -40 + ^ .cfa: $rsp 40 +
STACK CFI 618f $rbp: .cfa -48 + ^ .cfa: $rsp 48 +
STACK CFI 6190 $rbx: .cfa -56 + ^ .cfa: $rsp 56 +
STACK CFI 6197 .cfa: $rsp 96 +
STACK CFI 6396 .cfa: $rsp 56 +
STACK CFI 6397 .cfa: $rsp 48 +
STACK CFI 6398 .cfa: $rsp 40 +
STACK CFI 639a .cfa: $rsp 32 +
STACK CFI 639c .cfa: $rsp 24 +
STACK CFI 639e .cfa: $rsp 16 +
STACK CFI 63a0 .cfa: $rsp 8 +
STACK CFI 63a8 .cfa: $rsp 96 +
STACK CFI INIT 6430 17a .cfa: $rsp 8 + .ra: .cfa -8 + ^
STACK CFI 6432 $r15: .cfa -16 + ^ .cfa: $rsp 16 +
STACK CFI 6434 $r14: .cfa -24 + ^ .cfa: $rsp 24 +
STACK CFI 643a $r13: .cfa -32 + ^ .cfa: $rsp 32 +
STACK CFI 643c $r12: .cfa -40 + ^ .cfa: $rsp 40 +
STACK CFI 6440 $rbp: .cfa -48 + ^ .cfa: $rsp 48 +
STACK CFI 6441 $rbx: .cfa -56 + ^ .cfa: $rsp 56 +
STACK CFI 6448 .cfa: $rsp 64 +
STACK CFI 6498 .cfa: $rsp 56 +
STACK CFI 649e .cfa: $rsp 48 +
STACK CFI 649f .cfa: $rsp 40 +
STACK CFI 64a1 .cfa: $rsp 32 +
STACK CFI 64a3 .cfa: $rsp 24 +
STACK CFI 64a5 .cfa: $rsp 16 +
STACK CFI 64a7 .cfa: $rsp 8 +
STACK CFI 64b0 .cfa: $rsp 64 +
STACK CFI 655d .cfa: $rsp 56 +
STACK CFI 6566 .cfa: $rsp 48 +
STACK CFI 6567 .cfa: $rsp 40 +
STACK CFI 6569 .cfa: $rsp 32 +
STACK CFI 656b .cfa: $rsp 24 +
STACK CFI 656d .cfa: $rsp 16 +
STACK CFI 656f .cfa: $rsp 8 +
STACK CFI 6570 .cfa: $rsp 64 +
STACK CFI INIT 65b0 972 .cfa: $rsp 8 + .ra: .cfa -8 + ^
STACK CFI 65b2 $r15: .cfa -16 + ^ .cfa: $rsp 16 +
STACK CFI 65b4 $r14: .cfa -24 + ^ .cfa: $rsp 24 +
STACK CFI 65b6 $r13: .cfa -32 + ^ .cfa: $rsp 32 +
STACK CFI 65b8 $r12: .cfa -40 + ^ .cfa: $rsp 40 +
STACK CFI 65bc $rbp: .cfa -48 + ^ .cfa: $rsp 48 +
STACK CFI 65bd $rbx: .cfa -56 + ^ .cfa: $rsp 56 +
STACK CFI 65c4 .cfa: $rsp 368 +
STACK CFI 6875 .cfa: $rsp 56 +
STACK CFI 6876 .cfa: $rsp 48 +
STACK CFI 6877 .cfa: $rsp 40 +
STACK CFI 6879 .cfa: $rsp 32 +
STACK CFI 687b .cfa: $rsp 24 +
STACK CFI 687d .cfa: $rsp 16 +
STACK CFI 687f .cfa: $rsp 8 +
STACK CFI 6880 .cfa: $rsp 368 +
STACK CFI INIT 5520 8da .cfa: $rsp 8 + .ra: .cfa -8 + ^
STACK CFI 5522 $r15: .cfa -16 + ^ .cfa: $rsp 16 +
STACK CFI 5524 $r14: .cfa -24 + ^ .cfa: $rsp 24 +
STACK CFI 552a $r13: .cfa -32 + ^ .cfa: $rsp 32 +
STACK CFI 552c $r12: .cfa -40 + ^ .cfa: $rsp 40 +
STACK CFI 552d $rbp: .cfa -48 + ^ .cfa: $rsp 48 +
STACK CFI 552e $rbx: .cfa -56 + ^ .cfa: $rsp 56 +
STACK CFI 5538 .cfa: $rsp 288 +
STACK CFI 5809 .cfa: $rsp 56 +
STACK CFI 580a .cfa: $rsp 48 +
STACK CFI 580b .cfa: $rsp 40 +
STACK CFI 580d .cfa: $rsp 32 +
STACK CFI 580f .cfa: $rsp 24 +
STACK CFI 5811 .cfa: $rsp 16 +
STACK CFI 5813 .cfa: $rsp 8 +
STACK CFI 5818 .cfa: $rsp 288 +
STACK CFI INIT 5e00 43 .cfa: $rsp 8 + .ra: .cfa -8 + ^
STACK CFI 5e01 $rbp: .cfa -16 + ^ .cfa: $rsp 16 +
STACK CFI 5e02 $rbx: .cfa -24 + ^ .cfa: $rsp 24 +
STACK CFI 5e0e .cfa: $rsp 32 +
STACK CFI 5e25 .cfa: $rsp 24 +
STACK CFI 5e29 .cfa: $rsp 16 +
STACK CFI 5e2a .cfa: $rsp 8 +
STACK CFI 5e2b .cfa: $rsp 32 +
STACK CFI INIT 4a90 2e .cfa: $rsp 8 + .ra: .cfa -8 + ^
STACK CFI 4a9b .cfa: $rsp 16 +
STACK CFI 4ab9 .cfa: $rsp 8 +
STACK CFI INIT 6f30 115 .cfa: $rsp 8 + .ra: .cfa -8 + ^
STACK CFI INIT 7050 2c .cfa: $rsp 8 + .ra: .cfa -8 + ^
STACK CFI 7051 $rbx: .cfa -16 + ^ .cfa: $rsp 16 +
STACK CFI 707b .cfa: $rsp 8 +
STACK CFI INIT 7080 f .cfa: $rsp 8 + .ra: .cfa -8 + ^
STACK CFI INIT 7090 4 .cfa: $rsp 8 + .ra: .cfa -8 + ^
STACK CFI INIT 70a0 9d .cfa: $rsp 8 + .ra: .cfa -8 + ^
STACK CFI 70a1 $rbp: .cfa -16 + ^ .cfa: $rsp 16 +
STACK CFI 70a2 $rbx: .cfa -24 + ^ .cfa: $rsp 24 +
STACK CFI 70a9 .cfa: $rsp 48 +
STACK CFI 70dd .cfa: $rsp 24 +
STACK CFI 70de .cfa: $rsp 16 +
STACK CFI 70df .cfa: $rsp 8 +
STACK CFI 70e0 .cfa: $rsp 48 +
STACK CFI INIT 7140 9d .cfa: $rsp 8 + .ra: .cfa -8 + ^
STACK CFI 7141 $rbp: .cfa -16 + ^ .cfa: $rsp 16 +
STACK CFI 7142 $rbx: .cfa -24 + ^ .cfa: $rsp 24 +
STACK CFI 7149 .cfa: $rsp 48 +
STACK CFI 717d .cfa: $rsp 24 +
STACK CFI 717e .cfa: $rsp 16 +
STACK CFI 717f .cfa: $rsp 8 +
STACK CFI 7180 .cfa: $rsp 48 +
STACK CFI INIT 71e0 9d .cfa: $rsp 8 + .ra: .cfa -8 + ^
STACK CFI 71e1 $rbp: .cfa -16 + ^ .cfa: $rsp 16 +
STACK CFI 71e2 $rbx: .cfa -24 + ^ .cfa: $rsp 24 +
STACK CFI 71e9 .cfa: $rsp 48 +
STACK CFI 721d .cfa: $rsp 24 +
STACK CFI 721e .cfa: $rsp 16 +
STACK CFI 721f .cfa: $rsp 8 +
STACK CFI 7220 .cfa: $rsp 48 +
STACK CFI INIT 7280 9d .cfa: $rsp 8 + .ra: .cfa -8 + ^
STACK CFI 7281 $rbp: .cfa -16 + ^ .cfa: $rsp 16 +
STACK CFI 7282 $rbx: .cfa -24 + ^ .cfa: $rsp 24 +
STACK CFI 7289 .cfa: $rsp 48 +
STACK CFI 72bd .cfa: $rsp 24 +
STACK CFI 72be .cfa: $rsp 16 +
STACK CFI 72bf .cfa: $rsp 8 +
STACK CFI 72c0 .cfa: $rsp 48 +
STACK CFI INIT 7320 9d .cfa: $rsp 8 + .ra: .cfa -8 + ^
STACK CFI 7321 $rbp: .cfa -16 + ^ .cfa: $rsp 16 +
STACK CFI 7322 $rbx: .cfa -24 + ^ .cfa: $rsp 24 +
STACK CFI 7329 .cfa: $rsp 48 +
STACK CFI 735d .cfa: $rsp 24 +
STACK CFI 735e .cfa: $rsp 16 +
STACK CFI 735f .cfa: $rsp 8 +
STACK CFI 7360 .cfa: $rsp 48 +
STACK CFI INIT 73c0 9d .cfa: $rsp 8 + .ra: .cfa -8 + ^
STACK CFI 73c1 $rbp: .cfa -16 + ^ .cfa: $rsp 16 +
STACK CFI 73c2 $rbx: .cfa -24 + ^ .cfa: $rsp 24 +
STACK CFI 73c9 .cfa: $rsp 48 +
STACK CFI 73fd .cfa: $rsp 24 +
STACK CFI 73fe .cfa: $rsp 16 +
STACK CFI 73ff .cfa: $rsp 8 +
STACK CFI 7400 .cfa: $rsp 48 +
STACK CFI INIT 7460 9d .cfa: $rsp 8 + .ra: .cfa -8 + ^
STACK CFI 7461 $rbp: .cfa -16 + ^ .cfa: $rsp 16 +
STACK CFI 7462 $rbx: .cfa -24 + ^ .cfa: $rsp 24 +
STACK CFI 7469 .cfa: $rsp 48 +
STACK CFI 749d .cfa: $rsp 24 +
STACK CFI 749e .cfa: $rsp 16 +
STACK CFI 749f .cfa: $rsp 8 +
STACK CFI 74a0 .cfa: $rsp 48 +
STACK CFI INIT 7500 ad .cfa: $rsp 8 + .ra: .cfa -8 + ^
STACK CFI 7501 $rbp: .cfa -16 + ^ .cfa: $rsp 16 +
STACK CFI 7502 $rbx: .cfa -24 + ^ .cfa: $rsp 24 +
STACK CFI 7509 .cfa: $rsp 48 +
STACK CFI 754c .cfa: $rsp 24 +
STACK CFI 754d .cfa: $rsp 16 +
STACK CFI 754e .cfa: $rsp 8 +
STACK CFI 7550 .cfa: $rsp 48 +
STACK CFI INIT 75b0 28f .cfa: $rsp 8 + .ra: .cfa -8 + ^
STACK CFI 75b2 $r13: .cfa -16 + ^ .cfa: $rsp 16 +
STACK CFI 75b4 $r12: .cfa -24 + ^ .cfa: $rsp 24 +
STACK CFI 75b8 $rbp: .cfa -32 + ^ .cfa: $rsp 32 +
STACK CFI 75b9 $rbx: .cfa -40 + ^ .cfa: $rsp 40 +
STACK CFI 75c0 .cfa: $rsp 64 +
STACK CFI 7646 .cfa: $rsp 40 +
STACK CFI 7647 .cfa: $rsp 32 +
STACK CFI 7648 .cfa: $rsp 24 +
STACK CFI 764a .cfa: $rsp 16 +
STACK CFI 764c .cfa: $rsp 8 +
STACK CFI 7650 .cfa: $rsp 64 +
STACK CFI INIT 7840 28f .cfa: $rsp 8 + .ra: .cfa -8 + ^
STACK CFI 7842 $r13: .cfa -16 + ^ .cfa: $rsp 16 +
STACK CFI 7844 $r12: .cfa -24 + ^ .cfa: $rsp 24 +
STACK CFI 7848 $rbp: .cfa -32 + ^ .cfa: $rsp 32 +
STACK CFI 7849 $rbx: .cfa -40 + ^ .cfa: $rsp 40 +
STACK CFI 7850 .cfa: $rsp 64 +
STACK CFI 78d6 .cfa: $rsp 40 +
STACK CFI 78d7 .cfa: $rsp 32 +
STACK CFI 78d8 .cfa: $rsp 24 +
STACK CFI 78da .cfa: $rsp 16 +
STACK CFI 78dc .cfa: $rsp 8 +
STACK CFI 78e0 .cfa: $rsp 64 +
STACK CFI INIT 7ad0 4 .cfa: $rsp 8 + .ra: .cfa -8 + ^
STACK CFI INIT 7ae0 5 .cfa: $rsp 8 + .ra: .cfa -8 + ^
STACK CFI INIT 7af0 5 .cfa: $rsp 8 + .ra: .cfa -8 + ^
STACK CFI INIT 7b00 5 .cfa: $rsp 8 + .ra: .cfa -8 + ^
STACK CFI INIT 7b10 5 .cfa: $rsp 8 + .ra: .cfa -8 + ^
STACK CFI INIT 7b20 5 .cfa: $rsp 8 + .ra: .cfa -8 + ^
STACK CFI INIT 7b30 5 .cfa: $rsp 8 + .ra: .cfa -8 + ^
STACK CFI INIT 7b40 5 .cfa: $rsp 8 + .ra: .cfa -8 + ^
STACK CFI INIT 7b50 5 .cfa: $rsp 8 + .ra: .cfa -8 + ^
STACK CFI INIT 7b60 11b .cfa: $rsp 8 + .ra: .cfa -8 + ^
STACK CFI 7b61 $rbx: .cfa -16 + ^ .cfa: $rsp 16 +
STACK CFI 7bed .cfa: $rsp 8 +
STACK CFI 7bf0 .cfa: $rsp 16 +
STACK CFI INIT 7c80 13 .cfa: $rsp 8 + .ra: .cfa -8 + ^
STACK CFI INIT 7ca0 17 .cfa: $rsp 8 + .ra: .cfa -8 + ^
STACK CFI 7ca1 $rbx: .cfa -16 + ^ .cfa: $rsp 16 +
STACK CFI 7cb2 .cfa: $rsp 8 +
STACK CFI INIT 7cc0 116a .cfa: $rsp 8 + .ra: .cfa -8 + ^
STACK CFI 7cc2 $r13: .cfa -16 + ^ .cfa: $rsp 16 +
STACK CFI 7cc4 $r12: .cfa -24 + ^ .cfa: $rsp 24 +
STACK CFI 7cc5 $rbp: .cfa -32 + ^ .cfa: $rsp 32 +
STACK CFI 7cc6 $rbx: .cfa -40 + ^ .cfa: $rsp 40 +
STACK CFI 7ccd .cfa: $rsp 208 +
STACK CFI 7d48 .cfa: $rsp 40 +
STACK CFI 7d49 .cfa: $rsp 32 +
STACK CFI 7d4a .cfa: $rsp 24 +
STACK CFI 7d4c .cfa: $rsp 16 +
STACK CFI 7d4e .cfa: $rsp 8 +
STACK CFI 7d50 .cfa: $rsp 208 +
STACK CFI INIT 4ac0 2e .cfa: $rsp 8 + .ra: .cfa -8 + ^
STACK CFI 4acb .cfa: $rsp 16 +
STACK CFI 4ae9 .cfa: $rsp 8 +
STACK CFI INIT 8e30 4 .cfa: $rsp 8 + .ra: .cfa -8 + ^
STACK CFI INIT 94d0 3 .cfa: $rsp 8 + .ra: .cfa -8 + ^
STACK CFI INIT 8e40 2d8 .cfa: $rsp 8 + .ra: .cfa -8 + ^
STACK CFI 8e42 $r15: .cfa -16 + ^ .cfa: $rsp 16 +
STACK CFI 8e44 $r14: .cfa -24 + ^ .cfa: $rsp 24 +
STACK CFI 8e49 $r13: .cfa -32 + ^ .cfa: $rsp 32 +
STACK CFI 8e4b $r12: .cfa -40 + ^ .cfa: $rsp 40 +
STACK CFI 8e4f $rbp: .cfa -48 + ^ .cfa: $rsp 48 +
STACK CFI 8e50 $rbx: .cfa -56 + ^ .cfa: $rsp 56 +
STACK CFI 8e5d .cfa: $rsp 256 +
STACK CFI 905d .cfa: $rsp 56 +
STACK CFI 905e .cfa: $rsp 48 +
STACK CFI 905f .cfa: $rsp 40 +
STACK CFI 9061 .cfa: $rsp 32 +
STACK CFI 9063 .cfa: $rsp 24 +
STACK CFI 9065 .cfa: $rsp 16 +
STACK CFI 9067 .cfa: $rsp 8 +
STACK CFI 9070 .cfa: $rsp 256 +
STACK CFI INIT 9120 6c .cfa: $rsp 8 + .ra: .cfa -8 + ^
STACK CFI 9121 $rbp: .cfa -16 + ^ .cfa: $rsp 16 +
STACK CFI 9122 $rbx: .cfa -24 + ^ .cfa: $rsp 24 +
STACK CFI 9126 .cfa: $rsp 32 +
STACK CFI 9154 .cfa: $rsp 24 +
STACK CFI 9158 .cfa: $rsp 16 +
STACK CFI 9159 .cfa: $rsp 8 +
STACK CFI 9160 .cfa: $rsp 32 +
STACK CFI INIT 9190 dc .cfa: $rsp 8 + .ra: .cfa -8 + ^
STACK CFI 9192 $r13: .cfa -16 + ^ .cfa: $rsp 16 +
STACK CFI 9194 $r12: .cfa -24 + ^ .cfa: $rsp 24 +
STACK CFI 919c $rbp: .cfa -32 + ^ .cfa: $rsp 32 +
STACK CFI 919d $rbx: .cfa -40 + ^ .cfa: $rsp 40 +
STACK CFI 91b0 .cfa: $rsp 80 +
STACK CFI 921d .cfa: $rsp 40 +
STACK CFI 921e .cfa: $rsp 32 +
STACK CFI 921f .cfa: $rsp 24 +
STACK CFI 9221 .cfa: $rsp 16 +
STACK CFI 9223 .cfa: $rsp 8 +
STACK CFI 9228 .cfa: $rsp 80 +
STACK CFI INIT 9270 110 .cfa: $rsp 8 + .ra: .cfa -8 + ^
STACK CFI 9272 $r12: .cfa -16 + ^ .cfa: $rsp 16 +
STACK CFI 9273 $rbp: .cfa -24 + ^ .cfa: $rsp 24 +
STACK CFI 927b $rbx: .cfa -32 + ^ .cfa: $rsp 32 +
STACK CFI 9294 .cfa: $rsp 80 +
STACK CFI 932e .cfa: $rsp 32 +
STACK CFI 932f .cfa: $rsp 24 +
STACK CFI 9330 .cfa: $rsp 16 +
STACK CFI 9332 .cfa: $rsp 8 +
STACK CFI 9338 .cfa: $rsp 80 +
STACK CFI INIT 9380 110 .cfa: $rsp 8 + .ra: .cfa -8 + ^
STACK CFI 9382 $r12: .cfa -16 + ^ .cfa: $rsp 16 +
STACK CFI 9383 $rbp: .cfa -24 + ^ .cfa: $rsp 24 +
STACK CFI 938b $rbx: .cfa -32 + ^ .cfa: $rsp 32 +
STACK CFI 93a4 .cfa: $rsp 80 +
STACK CFI 943e .cfa: $rsp 32 +
STACK CFI 943f .cfa: $rsp 24 +
STACK CFI 9440 .cfa: $rsp 16 +
STACK CFI 9442 .cfa: $rsp 8 +
STACK CFI 9448 .cfa: $rsp 80 +
STACK CFI INIT 9490 3c .cfa: $rsp 8 + .ra: .cfa -8 + ^
STACK CFI 9492 $r12: .cfa -16 + ^ .cfa: $rsp 16 +
STACK CFI 9493 $rbp: .cfa -24 + ^ .cfa: $rsp 24 +
STACK CFI 9497 $rbx: .cfa -32 + ^ .cfa: $rsp 32 +
STACK CFI 94c8 .cfa: $rsp 24 +
STACK CFI 94c9 .cfa: $rsp 16 +
STACK CFI 94cb .cfa: $rsp 8 +
STACK CFI INIT 4af0 2e .cfa: $rsp 8 + .ra: .cfa -8 + ^
STACK CFI 4afb .cfa: $rsp 16 +
STACK CFI 4b19 .cfa: $rsp 8 +
STACK CFI INIT 1f100 2 .cfa: $rsp 8 + .ra: .cfa -8 + ^
STACK CFI INIT 1f110 d .cfa: $rsp 8 + .ra: .cfa -8 + ^
STACK CFI INIT 1f120 13 .cfa: $rsp 8 + .ra: .cfa -8 + ^
STACK CFI INIT 1f160 d .cfa: $rsp 8 + .ra: .cfa -8 + ^
STACK CFI INIT 1f180 3 .cfa: $rsp 8 + .ra: .cfa -8 + ^
STACK CFI INIT 1f1a0 d .cfa: $rsp 8 + .ra: .cfa -8 + ^
STACK CFI INIT 1f1c0 e .cfa: $rsp 8 + .ra: .cfa -8 + ^
STACK CFI INIT 1f1e0 d .cfa: $rsp 8 + .ra: .cfa -8 + ^
STACK CFI INIT 1f200 6 .cfa: $rsp 8 + .ra: .cfa -8 + ^
STACK CFI INIT 1f220 d .cfa: $rsp 8 + .ra: .cfa -8 + ^
STACK CFI INIT 1f240 13 .cfa: $rsp 8 + .ra: .cfa -8 + ^
STACK CFI INIT 1f260 5 .cfa: $rsp 8 + .ra: .cfa -8 + ^
STACK CFI INIT 1f270 5 .cfa: $rsp 8 + .ra: .cfa -8 + ^
STACK CFI INIT 1f280 5 .cfa: $rsp 8 + .ra: .cfa -8 + ^
STACK CFI INIT 1f290 5 .cfa: $rsp 8 + .ra: .cfa -8 + ^
STACK CFI INIT 1f2a0 8 .cfa: $rsp 8 + .ra: .cfa -8 + ^
STACK CFI INIT 94e0 f .cfa: $rsp 8 + .ra: .cfa -8 + ^
STACK CFI INIT 94f0 3a .cfa: $rsp 8 + .ra: .cfa -8 + ^
STACK CFI 94f8 $rbx: .cfa -16 + ^ .cfa: $rsp 16 +
STACK CFI 951e .cfa: $rsp 8 +
STACK CFI 9528 .cfa: $rsp 16 +
STACK CFI 9529 .cfa: $rsp 8 +
STACK CFI INIT 9530 3 .cfa: $rsp 8 + .ra: .cfa -8 + ^
STACK CFI INIT 9540 2 .cfa: $rsp 8 + .ra: .cfa -8 + ^
STACK CFI INIT 9550 1b .cfa: $rsp 8 + .ra: .cfa -8 + ^
STACK CFI INIT 9570 6 .cfa: $rsp 8 + .ra: .cfa -8 + ^
STACK CFI INIT 9580 6 .cfa: $rsp 8 + .ra: .cfa -8 + ^
STACK CFI INIT 9590 8 .cfa: $rsp 8 + .ra: .cfa -8 + ^
STACK CFI INIT 95a0 6 .cfa: $rsp 8 + .ra: .cfa -8 + ^
STACK CFI INIT 95b0 22 .cfa: $rsp 8 + .ra: .cfa -8 + ^
STACK CFI INIT 95e0 3 .cfa: $rsp 8 + .ra: .cfa -8 + ^
STACK CFI INIT 95f0 8 .cfa: $rsp 8 + .ra: .cfa -8 + ^
STACK CFI INIT 9600 6 .cfa: $rsp 8 + .ra: .cfa -8 + ^
STACK CFI INIT 9610 288 .cfa: $rsp 8 + .ra: .cfa -8 + ^
STACK CFI INIT 1f2b0 2 .cfa: $rsp 8 + .ra: .cfa -8 + ^
STACK CFI INIT 1f2c0 2 .cfa: $rsp 8 + .ra: .cfa -8 + ^
STACK CFI INIT 1f2d0 a .cfa: $rsp 8 + .ra: .cfa -8 + ^
STACK CFI INIT 98a0 17 .cfa: $rsp 8 + .ra: .cfa -8 + ^
STACK CFI 98a1 $rbx: .cfa -16 + ^ .cfa: $rsp 16 +
STACK CFI 98b2 .cfa: $rsp 8 +
STACK CFI INIT 1f2e0 a .cfa: $rsp 8 + .ra: .cfa -8 + ^
STACK CFI INIT 98c0 17 .cfa: $rsp 8 + .ra: .cfa -8 + ^
STACK CFI 98c1 $rbx: .cfa -16 + ^ .cfa: $rsp 16 +
STACK CFI 98d2 .cfa: $rsp 8 +
STACK CFI INIT 1f2f0 a .cfa: $rsp 8 + .ra: .cfa -8 + ^
STACK CFI INIT 98e0 13 .cfa: $rsp 8 + .ra: .cfa -8 + ^
STACK CFI INIT 9900 17 .cfa: $rsp 8 + .ra: .cfa -8 + ^
STACK CFI 9901 $rbx: .cfa -16 + ^ .cfa: $rsp 16 +
STACK CFI 9912 .cfa: $rsp 8 +
STACK CFI INIT 9920 178 .cfa: $rsp 8 + .ra: .cfa -8 + ^
STACK CFI 9922 $r12: .cfa -16 + ^ .cfa: $rsp 16 +
STACK CFI 9923 $rbp: .cfa -24 + ^ .cfa: $rsp 24 +
STACK CFI 9927 $rbx: .cfa -32 + ^ .cfa: $rsp 32 +
STACK CFI 9934 .cfa: $rsp 48 +
STACK CFI 99f7 .cfa: $rsp 32 +
STACK CFI 99f8 .cfa: $rsp 24 +
STACK CFI 99f9 .cfa: $rsp 16 +
STACK CFI 99fb .cfa: $rsp 8 +
STACK CFI 99fc .cfa: $rsp 48 +
STACK CFI INIT 9aa0 9 .cfa: $rsp 8 + .ra: .cfa -8 + ^
STACK CFI INIT 1f300 82 .cfa: $rsp 8 + .ra: .cfa -8 + ^
STACK CFI 1f308 $rbx: .cfa -16 + ^ .cfa: $rsp 16 +
STACK CFI 1f374 .cfa: $rsp 8 +
STACK CFI 1f380 .cfa: $rsp 16 +
STACK CFI 1f381 .cfa: $rsp 8 +
STACK CFI INIT 9ab0 62 .cfa: $rsp 8 + .ra: .cfa -8 + ^
STACK CFI 9ab8 $rbx: .cfa -16 + ^ .cfa: $rsp 16 +
STACK CFI 9b06 .cfa: $rsp 8 +
STACK CFI 9b10 .cfa: $rsp 16 +
STACK CFI 9b11 .cfa: $rsp 8 +
STACK CFI INIT 9b20 17 .cfa: $rsp 8 + .ra: .cfa -8 + ^
STACK CFI 9b21 $rbx: .cfa -16 + ^ .cfa: $rsp 16 +
STACK CFI 9b32 .cfa: $rsp 8 +
STACK CFI INIT 9b40 77 .cfa: $rsp 8 + .ra: .cfa -8 + ^
STACK CFI 9b41 $rbp: .cfa -16 + ^ .cfa: $rsp 16 +
STACK CFI 9b42 $rbx: .cfa -24 + ^ .cfa: $rsp 24 +
STACK CFI 9b49 .cfa: $rsp 32 +
STACK CFI 9b9c .cfa: $rsp 24 +
STACK CFI 9ba5 .cfa: $rsp 16 +
STACK CFI 9ba6 .cfa: $rsp 8 +
STACK CFI 9bb0 .cfa: $rsp 32 +
STACK CFI 9bb4 .cfa: $rsp 24 +
STACK CFI 9bb5 .cfa: $rsp 16 +
STACK CFI 9bb6 .cfa: $rsp 8 +
STACK CFI INIT 9bc0 17 .cfa: $rsp 8 + .ra: .cfa -8 + ^
STACK CFI 9bc1 $rbx: .cfa -16 + ^ .cfa: $rsp 16 +
STACK CFI 9bd2 .cfa: $rsp 8 +
STACK CFI INIT 9be0 4a .cfa: $rsp 8 + .ra: .cfa -8 + ^
STACK CFI 9be8 $rbx: .cfa -16 + ^ .cfa: $rsp 16 +
STACK CFI 9c1c .cfa: $rsp 8 +
STACK CFI 9c28 .cfa: $rsp 16 +
STACK CFI 9c29 .cfa: $rsp 8 +
STACK CFI INIT 9c30 6 .cfa: $rsp 8 + .ra: .cfa -8 + ^
STACK CFI INIT 9c40 17 .cfa: $rsp 8 + .ra: .cfa -8 + ^
STACK CFI 9c41 $rbx: .cfa -16 + ^ .cfa: $rsp 16 +
STACK CFI 9c52 .cfa: $rsp 8 +
STACK CFI INIT 9c60 6 .cfa: $rsp 8 + .ra: .cfa -8 + ^
STACK CFI INIT 1f390 44 .cfa: $rsp 8 + .ra: .cfa -8 + ^
STACK CFI 1f398 $rbx: .cfa -16 + ^ .cfa: $rsp 16 +
STACK CFI 1f3cf .cfa: $rsp 8 +
STACK CFI INIT 1f3e0 7a .cfa: $rsp 8 + .ra: .cfa -8 + ^
STACK CFI 1f3e8 $rbx: .cfa -16 + ^ .cfa: $rsp 16 +
STACK CFI 1f44e .cfa: $rsp 8 +
STACK CFI 1f458 .cfa: $rsp 16 +
STACK CFI 1f459 .cfa: $rsp 8 +
STACK CFI INIT 9c70 42 .cfa: $rsp 8 + .ra: .cfa -8 + ^
STACK CFI 9c78 $rbx: .cfa -16 + ^ .cfa: $rsp 16 +
STACK CFI 9ca6 .cfa: $rsp 8 +
STACK CFI 9cb0 .cfa: $rsp 16 +
STACK CFI 9cb1 .cfa: $rsp 8 +
STACK CFI INIT 9cc0 6 .cfa: $rsp 8 + .ra: .cfa -8 + ^
STACK CFI INIT 9cd0 17 .cfa: $rsp 8 + .ra: .cfa -8 + ^
STACK CFI 9cd1 $rbx: .cfa -16 + ^ .cfa: $rsp 16 +
STACK CFI 9ce2 .cfa: $rsp 8 +
STACK CFI INIT 9cf0 6 .cfa: $rsp 8 + .ra: .cfa -8 + ^
STACK CFI INIT 9d00 a7 .cfa: $rsp 8 + .ra: .cfa -8 + ^
STACK CFI 9d01 $rbp: .cfa -16 + ^ .cfa: $rsp 16 +
STACK CFI 9d02 $rbx: .cfa -24 + ^ .cfa: $rsp 24 +
STACK CFI 9d09 .cfa: $rsp 32 +
STACK CFI 9d90 .cfa: $rsp 24 +
STACK CFI 9d99 .cfa: $rsp 16 +
STACK CFI 9d9a .cfa: $rsp 8 +
STACK CFI 9da0 .cfa: $rsp 32 +
STACK CFI 9da4 .cfa: $rsp 24 +
STACK CFI 9da5 .cfa: $rsp 16 +
STACK CFI 9da6 .cfa: $rsp 8 +
STACK CFI INIT 9db0 9 .cfa: $rsp 8 + .ra: .cfa -8 + ^
STACK CFI INIT 9dc0 17 .cfa: $rsp 8 + .ra: .cfa -8 + ^
STACK CFI 9dc1 $rbx: .cfa -16 + ^ .cfa: $rsp 16 +
STACK CFI 9dd2 .cfa: $rsp 8 +
STACK CFI INIT 9de0 6 .cfa: $rsp 8 + .ra: .cfa -8 + ^
STACK CFI INIT 9df0 44 .cfa: $rsp 8 + .ra: .cfa -8 + ^
STACK CFI 9df1 $rbp: .cfa -16 + ^ .cfa: $rsp 16 +
STACK CFI 9df2 $rbx: .cfa -24 + ^ .cfa: $rsp 24 +
STACK CFI 9dfe .cfa: $rsp 32 +
STACK CFI 9e16 .cfa: $rsp 24 +
STACK CFI 9e1a .cfa: $rsp 16 +
STACK CFI 9e1b .cfa: $rsp 8 +
STACK CFI 9e1c .cfa: $rsp 32 +
STACK CFI INIT 9e40 6 .cfa: $rsp 8 + .ra: .cfa -8 + ^
STACK CFI INIT 9e50 44 .cfa: $rsp 8 + .ra: .cfa -8 + ^
STACK CFI 9e51 $rbp: .cfa -16 + ^ .cfa: $rsp 16 +
STACK CFI 9e52 $rbx: .cfa -24 + ^ .cfa: $rsp 24 +
STACK CFI 9e5e .cfa: $rsp 32 +
STACK CFI 9e76 .cfa: $rsp 24 +
STACK CFI 9e7a .cfa: $rsp 16 +
STACK CFI 9e7b .cfa: $rsp 8 +
STACK CFI 9e7c .cfa: $rsp 32 +
STACK CFI INIT 9ea0 6 .cfa: $rsp 8 + .ra: .cfa -8 + ^
STACK CFI INIT 9eb0 c .cfa: $rsp 8 + .ra: .cfa -8 + ^
STACK CFI INIT 9ec0 85 .cfa: $rsp 8 + .ra: .cfa -8 + ^
STACK CFI 9ec2 $r12: .cfa -16 + ^ .cfa: $rsp 16 +
STACK CFI 9eca $rbp: .cfa -24 + ^ .cfa: $rsp 24 +
STACK CFI 9ecb $rbx: .cfa -32 + ^ .cfa: $rsp 32 +
STACK CFI 9f31 .cfa: $rsp 24 +
STACK CFI 9f32 .cfa: $rsp 16 +
STACK CFI 9f34 .cfa: $rsp 8 +
STACK CFI 9f40 .cfa: $rsp 32 +
STACK CFI 9f41 .cfa: $rsp 24 +
STACK CFI 9f42 .cfa: $rsp 16 +
STACK CFI 9f44 .cfa: $rsp 8 +
STACK CFI INIT 9f50 17 .cfa: $rsp 8 + .ra: .cfa -8 + ^
STACK CFI 9f51 $rbx: .cfa -16 + ^ .cfa: $rsp 16 +
STACK CFI 9f62 .cfa: $rsp 8 +
STACK CFI INIT 1f190 3 .cfa: $rsp 8 + .ra: .cfa -8 + ^
STACK CFI INIT 1f210 6 .cfa: $rsp 8 + .ra: .cfa -8 + ^
STACK CFI INIT 9f70 3 .cfa: $rsp 8 + .ra: .cfa -8 + ^
STACK CFI INIT 9f80 3 .cfa: $rsp 8 + .ra: .cfa -8 + ^
STACK CFI INIT 9f90 2 .cfa: $rsp 8 + .ra: .cfa -8 + ^
STACK CFI INIT 9fa0 3 .cfa: $rsp 8 + .ra: .cfa -8 + ^
STACK CFI INIT 9fb0 2 .cfa: $rsp 8 + .ra: .cfa -8 + ^
STACK CFI INIT 9fc0 c8 .cfa: $rsp 8 + .ra: .cfa -8 + ^
STACK CFI 9fc2 $r12: .cfa -16 + ^ .cfa: $rsp 16 +
STACK CFI 9fc3 $rbp: .cfa -24 + ^ .cfa: $rsp 24 +
STACK CFI 9fc7 $rbx: .cfa -32 + ^ .cfa: $rsp 32 +
STACK CFI 9fce .cfa: $rsp 48 +
STACK CFI a034 .cfa: $rsp 32 +
STACK CFI a035 .cfa: $rsp 24 +
STACK CFI a036 .cfa: $rsp 16 +
STACK CFI a038 .cfa: $rsp 8 +
STACK CFI a040 .cfa: $rsp 48 +
STACK CFI INIT 1f460 23 .cfa: $rsp 8 + .ra: .cfa -8 + ^
STACK CFI 1f465 $rbx: .cfa -16 + ^ .cfa: $rsp 16 +
STACK CFI 1f482 .cfa: $rsp 8 +
STACK CFI INIT 1f490 23 .cfa: $rsp 8 + .ra: .cfa -8 + ^
STACK CFI 1f495 $rbx: .cfa -16 + ^ .cfa: $rsp 16 +
STACK CFI 1f4b2 .cfa: $rsp 8 +
STACK CFI INIT 1f4c0 23 .cfa: $rsp 8 + .ra: .cfa -8 + ^
STACK CFI 1f4c5 $rbx: .cfa -16 + ^ .cfa: $rsp 16 +
STACK CFI 1f4e2 .cfa: $rsp 8 +
STACK CFI INIT 1f4f0 29 .cfa: $rsp 8 + .ra: .cfa -8 + ^
STACK CFI 1f4f5 $rbx: .cfa -16 + ^ .cfa: $rsp 16 +
STACK CFI 1f518 .cfa: $rsp 8 +
STACK CFI INIT 1f520 29 .cfa: $rsp 8 + .ra: .cfa -8 + ^
STACK CFI 1f525 $rbx: .cfa -16 + ^ .cfa: $rsp 16 +
STACK CFI 1f548 .cfa: $rsp 8 +
STACK CFI INIT 1f550 23 .cfa: $rsp 8 + .ra: .cfa -8 + ^
STACK CFI 1f555 $rbx: .cfa -16 + ^ .cfa: $rsp 16 +
STACK CFI 1f572 .cfa: $rsp 8 +
STACK CFI INIT 1f230 d .cfa: $rsp 8 + .ra: .cfa -8 + ^
STACK CFI INIT 1f140 13 .cfa: $rsp 8 + .ra: .cfa -8 + ^
STACK CFI INIT 1f170 d .cfa: $rsp 8 + .ra: .cfa -8 + ^
STACK CFI INIT 1f1b0 d .cfa: $rsp 8 + .ra: .cfa -8 + ^
STACK CFI INIT 1f1d0 e .cfa: $rsp 8 + .ra: .cfa -8 + ^
STACK CFI INIT 1f1f0 d .cfa: $rsp 8 + .ra: .cfa -8 + ^
STACK CFI INIT 1f580 42 .cfa: $rsp 8 + .ra: .cfa -8 + ^
STACK CFI 1f588 $rbx: .cfa -16 + ^ .cfa: $rsp 16 +
STACK CFI 1f5b2 .cfa: $rsp 8 +
STACK CFI 1f5c0 .cfa: $rsp 16 +
STACK CFI 1f5c1 .cfa: $rsp 8 +
STACK CFI INIT 1f5d0 80 .cfa: $rsp 8 + .ra: .cfa -8 + ^
STACK CFI 1f5d8 $rbx: .cfa -16 + ^ .cfa: $rsp 16 +
STACK CFI 1f64b .cfa: $rsp 8 +
STACK CFI INIT 1f650 86 .cfa: $rsp 8 + .ra: .cfa -8 + ^
STACK CFI 1f658 $rbx: .cfa -16 + ^ .cfa: $rsp 16 +
STACK CFI 1f6d1 .cfa: $rsp 8 +
STACK CFI INIT a090 1f .cfa: $rsp 8 + .ra: .cfa -8 + ^
STACK CFI a09c $rbx: .cfa -16 + ^ .cfa: $rsp 16 +
STACK CFI a0ae .cfa: $rsp 8 +
STACK CFI INIT a0b0 6 .cfa: $rsp 8 + .ra: .cfa -8 + ^
STACK CFI INIT a0c0 6 .cfa: $rsp 8 + .ra: .cfa -8 + ^
STACK CFI INIT a0d0 6 .cfa: $rsp 8 + .ra: .cfa -8 + ^
STACK CFI INIT a0e0 e4 .cfa: $rsp 8 + .ra: .cfa -8 + ^
STACK CFI a0e1 $rbp: .cfa -16 + ^ .cfa: $rsp 16 +
STACK CFI a0f5 .cfa: $rbp 16 +
STACK CFI a0f8 $r14: .cfa -24 + ^ $rbx: .cfa -32 + ^
STACK CFI a1be .cfa: $rsp 8 +
STACK CFI a1bf .cfa: $rbp 16 +
STACK CFI INIT a1d0 e5 .cfa: $rsp 8 + .ra: .cfa -8 + ^
STACK CFI a1d1 $rbp: .cfa -16 + ^ .cfa: $rsp 16 +
STACK CFI a1e0 .cfa: $rbp 16 +
STACK CFI a1e3 $r14: .cfa -24 + ^ $rbx: .cfa -32 + ^
STACK CFI a2af .cfa: $rsp 8 +
STACK CFI a2b0 .cfa: $rbp 16 +
STACK CFI INIT a2c0 d1 .cfa: $rsp 8 + .ra: .cfa -8 + ^
STACK CFI a2c2 $r12: .cfa -16 + ^ .cfa: $rsp 16 +
STACK CFI a2c3 $rbp: .cfa -24 + ^ .cfa: $rsp 24 +
STACK CFI a2c4 $rbx: .cfa -32 + ^ .cfa: $rsp 32 +
STACK CFI a2cb .cfa: $rsp 144 +
STACK CFI a33d .cfa: $rsp 32 +
STACK CFI a33e .cfa: $rsp 24 +
STACK CFI a33f .cfa: $rsp 16 +
STACK CFI a341 .cfa: $rsp 8 +
STACK CFI a348 .cfa: $rsp 144 +
STACK CFI INIT a3a0 cc .cfa: $rsp 8 + .ra: .cfa -8 + ^
STACK CFI a3a1 $rbp: .cfa -16 + ^ .cfa: $rsp 16 +
STACK CFI a3a2 $rbx: .cfa -24 + ^ .cfa: $rsp 24 +
STACK CFI a3a9 .cfa: $rsp 48 +
STACK CFI a430 .cfa: $rsp 24 +
STACK CFI a431 .cfa: $rsp 16 +
STACK CFI a432 .cfa: $rsp 8 +
STACK CFI a438 .cfa: $rsp 48 +
STACK CFI INIT a470 9 .cfa: $rsp 8 + .ra: .cfa -8 + ^
STACK CFI INIT a480 cf .cfa: $rsp 8 + .ra: .cfa -8 + ^
STACK CFI a481 $rbp: .cfa -16 + ^ .cfa: $rsp 16 +
STACK CFI a482 $rbx: .cfa -24 + ^ .cfa: $rsp 24 +
STACK CFI a489 .cfa: $rsp 48 +
STACK CFI a510 .cfa: $rsp 24 +
STACK CFI a511 .cfa: $rsp 16 +
STACK CFI a512 .cfa: $rsp 8 +
STACK CFI a518 .cfa: $rsp 48 +
STACK CFI INIT a550 9 .cfa: $rsp 8 + .ra: .cfa -8 + ^
STACK CFI INIT a560 9d .cfa: $rsp 8 + .ra: .cfa -8 + ^
STACK CFI a561 $rbp: .cfa -16 + ^ .cfa: $rsp 16 +
STACK CFI a562 $rbx: .cfa -24 + ^ .cfa: $rsp 24 +
STACK CFI a566 .cfa: $rsp 48 +
STACK CFI a594 .cfa: $rsp 24 +
STACK CFI a595 .cfa: $rsp 16 +
STACK CFI a596 .cfa: $rsp 8 +
STACK CFI a5a0 .cfa: $rsp 48 +
STACK CFI INIT a600 9d .cfa: $rsp 8 + .ra: .cfa -8 + ^
STACK CFI a601 $rbp: .cfa -16 + ^ .cfa: $rsp 16 +
STACK CFI a602 $rbx: .cfa -24 + ^ .cfa: $rsp 24 +
STACK CFI a606 .cfa: $rsp 48 +
STACK CFI a637 .cfa: $rsp 24 +
STACK CFI a638 .cfa: $rsp 16 +
STACK CFI a639 .cfa: $rsp 8 +
STACK CFI a640 .cfa: $rsp 48 +
STACK CFI INIT a6a0 9 .cfa: $rsp 8 + .ra: .cfa -8 + ^
STACK CFI INIT a6b0 a2 .cfa: $rsp 8 + .ra: .cfa -8 + ^
STACK CFI a6b1 $rbp: .cfa -16 + ^ .cfa: $rsp 16 +
STACK CFI a6b2 $rbx: .cfa -24 + ^ .cfa: $rsp 24 +
STACK CFI a6b6 .cfa: $rsp 48 +
STACK CFI a6e7 .cfa: $rsp 24 +
STACK CFI a6e8 .cfa: $rsp 16 +
STACK CFI a6e9 .cfa: $rsp 8 +
STACK CFI a6f0 .cfa: $rsp 48 +
STACK CFI INIT a760 9 .cfa: $rsp 8 + .ra: .cfa -8 + ^
STACK CFI INIT a770 110 .cfa: $rsp 8 + .ra: .cfa -8 + ^
STACK CFI a772 $r13: .cfa -16 + ^ .cfa: $rsp 16 +
STACK CFI a774 $r12: .cfa -24 + ^ .cfa: $rsp 24 +
STACK CFI a778 $rbp: .cfa -32 + ^ .cfa: $rsp 32 +
STACK CFI a779 $rbx: .cfa -40 + ^ .cfa: $rsp 40 +
STACK CFI a780 .cfa: $rsp 64 +
STACK CFI a7cb .cfa: $rsp 40 +
STACK CFI a7cc .cfa: $rsp 32 +
STACK CFI a7cd .cfa: $rsp 24 +
STACK CFI a7cf .cfa: $rsp 16 +
STACK CFI a7d1 .cfa: $rsp 8 +
STACK CFI a7d8 .cfa: $rsp 64 +
STACK CFI INIT a880 9d .cfa: $rsp 8 + .ra: .cfa -8 + ^
STACK CFI a881 $rbp: .cfa -16 + ^ .cfa: $rsp 16 +
STACK CFI a882 $rbx: .cfa -24 + ^ .cfa: $rsp 24 +
STACK CFI a886 .cfa: $rsp 48 +
STACK CFI a8b8 .cfa: $rsp 24 +
STACK CFI a8b9 .cfa: $rsp 16 +
STACK CFI a8ba .cfa: $rsp 8 +
STACK CFI a8c0 .cfa: $rsp 48 +
STACK CFI INIT a920 9d .cfa: $rsp 8 + .ra: .cfa -8 + ^
STACK CFI a921 $rbp: .cfa -16 + ^ .cfa: $rsp 16 +
STACK CFI a922 $rbx: .cfa -24 + ^ .cfa: $rsp 24 +
STACK CFI a926 .cfa: $rsp 48 +
STACK CFI a954 .cfa: $rsp 24 +
STACK CFI a955 .cfa: $rsp 16 +
STACK CFI a956 .cfa: $rsp 8 +
STACK CFI a960 .cfa: $rsp 48 +
STACK CFI INIT a9c0 276 .cfa: $rsp 8 + .ra: .cfa -8 + ^
STACK CFI a9c1 $rbp: .cfa -16 + ^ .cfa: $rsp 16 +
STACK CFI a9c4 .cfa: $rbp 16 +
STACK CFI a9cd $r12: .cfa -48 + ^ $r13: .cfa -40 + ^ $r14: .cfa -32 + ^ $r15: .cfa -24 + ^ $rbx: .cfa -56 + ^
STACK CFI aad3 .cfa: $rsp 8 +
STACK CFI aad8 .cfa: $rbp 16 +
STACK CFI INIT ac40 9 .cfa: $rsp 8 + .ra: .cfa -8 + ^
STACK CFI INIT ac50 12c .cfa: $rsp 8 + .ra: .cfa -8 + ^
STACK CFI ac52 $r13: .cfa -16 + ^ .cfa: $rsp 16 +
STACK CFI ac54 $r12: .cfa -24 + ^ .cfa: $rsp 24 +
STACK CFI ac55 $rbp: .cfa -32 + ^ .cfa: $rsp 32 +
STACK CFI ac56 $rbx: .cfa -40 + ^ .cfa: $rsp 40 +
STACK CFI ac5a .cfa: $rsp 64 +
STACK CFI aca7 .cfa: $rsp 40 +
STACK CFI aca8 .cfa: $rsp 32 +
STACK CFI aca9 .cfa: $rsp 24 +
STACK CFI acab .cfa: $rsp 16 +
STACK CFI acad .cfa: $rsp 8 +
STACK CFI acb0 .cfa: $rsp 64 +
STACK CFI INIT ad80 12c .cfa: $rsp 8 + .ra: .cfa -8 + ^
STACK CFI ad82 $r13: .cfa -16 + ^ .cfa: $rsp 16 +
STACK CFI ad84 $r12: .cfa -24 + ^ .cfa: $rsp 24 +
STACK CFI ad85 $rbp: .cfa -32 + ^ .cfa: $rsp 32 +
STACK CFI ad86 $rbx: .cfa -40 + ^ .cfa: $rsp 40 +
STACK CFI ad8a .cfa: $rsp 64 +
STACK CFI add1 .cfa: $rsp 40 +
STACK CFI add2 .cfa: $rsp 32 +
STACK CFI add3 .cfa: $rsp 24 +
STACK CFI add5 .cfa: $rsp 16 +
STACK CFI add7 .cfa: $rsp 8 +
STACK CFI ade0 .cfa: $rsp 64 +
STACK CFI INIT aeb0 12c .cfa: $rsp 8 + .ra: .cfa -8 + ^
STACK CFI aeb2 $r13: .cfa -16 + ^ .cfa: $rsp 16 +
STACK CFI aeb4 $r12: .cfa -24 + ^ .cfa: $rsp 24 +
STACK CFI aeb5 $rbp: .cfa -32 + ^ .cfa: $rsp 32 +
STACK CFI aeb6 $rbx: .cfa -40 + ^ .cfa: $rsp 40 +
STACK CFI aeba .cfa: $rsp 64 +
STACK CFI af02 .cfa: $rsp 40 +
STACK CFI af03 .cfa: $rsp 32 +
STACK CFI af04 .cfa: $rsp 24 +
STACK CFI af06 .cfa: $rsp 16 +
STACK CFI af08 .cfa: $rsp 8 +
STACK CFI af10 .cfa: $rsp 64 +
STACK CFI INIT afe0 178 .cfa: $rsp 8 + .ra: .cfa -8 + ^
STACK CFI afe2 $r12: .cfa -16 + ^ .cfa: $rsp 16 +
STACK CFI afe3 $rbp: .cfa -24 + ^ .cfa: $rsp 24 +
STACK CFI afe7 $rbx: .cfa -32 + ^ .cfa: $rsp 32 +
STACK CFI aff4 .cfa: $rsp 48 +
STACK CFI b0b7 .cfa: $rsp 32 +
STACK CFI b0b8 .cfa: $rsp 24 +
STACK CFI b0b9 .cfa: $rsp 16 +
STACK CFI b0bb .cfa: $rsp 8 +
STACK CFI b0bc .cfa: $rsp 48 +
STACK CFI INIT b160 9 .cfa: $rsp 8 + .ra: .cfa -8 + ^
STACK CFI INIT 1f6e0 168 .cfa: $rsp 8 + .ra: .cfa -8 + ^
STACK CFI 1f6e1 $rbp: .cfa -16 + ^ .cfa: $rsp 16 +
STACK CFI 1f6e2 $rbx: .cfa -24 + ^ .cfa: $rsp 24 +
STACK CFI 1f6ee .cfa: $rsp 48 +
STACK CFI 1f7a9 .cfa: $rsp 24 +
STACK CFI 1f7aa .cfa: $rsp 16 +
STACK CFI 1f7ab .cfa: $rsp 8 +
STACK CFI 1f7ac .cfa: $rsp 48 +
STACK CFI INIT b170 3f0 .cfa: $rsp 8 + .ra: .cfa -8 + ^
STACK CFI b171 $rbp: .cfa -16 + ^ .cfa: $rsp 16 +
STACK CFI b174 .cfa: $rbp 16 +
STACK CFI b17d $r12: .cfa -48 + ^ $r13: .cfa -40 + ^ $r14: .cfa -32 + ^ $r15: .cfa -24 + ^ $rbx: .cfa -56 + ^
STACK CFI b34f .cfa: $rsp 8 +
STACK CFI b350 .cfa: $rbp 16 +
STACK CFI INIT b560 9 .cfa: $rsp 8 + .ra: .cfa -8 + ^
STACK CFI INIT b570 515 .cfa: $rsp 8 + .ra: .cfa -8 + ^
STACK CFI b571 $rbp: .cfa -16 + ^ .cfa: $rsp 16 +
STACK CFI b574 .cfa: $rbp 16 +
STACK CFI b57d $r12: .cfa -48 + ^ $r13: .cfa -40 + ^ $r14: .cfa -32 + ^ $r15: .cfa -24 + ^ $rbx: .cfa -56 + ^
STACK CFI b747 .cfa: $rsp 8 +
STACK CFI b750 .cfa: $rbp 16 +
STACK CFI INIT ba90 9 .cfa: $rsp 8 + .ra: .cfa -8 + ^
STACK CFI INIT baa0 526 .cfa: $rsp 8 + .ra: .cfa -8 + ^
STACK CFI baa1 $rbp: .cfa -16 + ^ .cfa: $rsp 16 +
STACK CFI baa4 .cfa: $rbp 16 +
STACK CFI baad $r12: .cfa -48 + ^ $r13: .cfa -40 + ^ $r14: .cfa -32 + ^ $r15: .cfa -24 + ^ $rbx: .cfa -56 + ^
STACK CFI bc55 .cfa: $rsp 8 +
STACK CFI bc60 .cfa: $rbp 16 +
STACK CFI INIT bfd0 9 .cfa: $rsp 8 + .ra: .cfa -8 + ^
STACK CFI INIT bfe0 2e .cfa: $rsp 8 + .ra: .cfa -8 + ^
STACK CFI bfe1 $rbp: .cfa -16 + ^ .cfa: $rsp 16 +
STACK CFI bfe2 $rbx: .cfa -24 + ^ .cfa: $rsp 24 +
STACK CFI bff0 .cfa: $rsp 32 +
STACK CFI c00b .cfa: $rsp 24 +
STACK CFI c00c .cfa: $rsp 16 +
STACK CFI c00d .cfa: $rsp 8 +
STACK CFI INIT c010 19 .cfa: $rsp 8 + .ra: .cfa -8 + ^
STACK CFI c011 $rbx: .cfa -16 + ^ .cfa: $rsp 16 +
STACK CFI c028 .cfa: $rsp 8 +
STACK CFI INIT c030 2a .cfa: $rsp 8 + .ra: .cfa -8 + ^
STACK CFI c031 $rbp: .cfa -16 + ^ .cfa: $rsp 16 +
STACK CFI c032 $rbx: .cfa -24 + ^ .cfa: $rsp 24 +
STACK CFI c03c .cfa: $rsp 32 +
STACK CFI c057 .cfa: $rsp 24 +
STACK CFI c058 .cfa: $rsp 16 +
STACK CFI c059 .cfa: $rsp 8 +
STACK CFI INIT c060 3b0 .cfa: $rsp 8 + .ra: .cfa -8 + ^
STACK CFI c062 $r15: .cfa -16 + ^ .cfa: $rsp 16 +
STACK CFI c064 $r14: .cfa -24 + ^ .cfa: $rsp 24 +
STACK CFI c066 $r13: .cfa -32 + ^ .cfa: $rsp 32 +
STACK CFI c068 $r12: .cfa -40 + ^ .cfa: $rsp 40 +
STACK CFI c069 $rbp: .cfa -48 + ^ .cfa: $rsp 48 +
STACK CFI c06a $rbx: .cfa -56 + ^ .cfa: $rsp 56 +
STACK CFI c070 .cfa: $rsp 160 +
STACK CFI c25b .cfa: $rsp 56 +
STACK CFI c25c .cfa: $rsp 48 +
STACK CFI c25d .cfa: $rsp 40 +
STACK CFI c25f .cfa: $rsp 32 +
STACK CFI c261 .cfa: $rsp 24 +
STACK CFI c263 .cfa: $rsp 16 +
STACK CFI c265 .cfa: $rsp 8 +
STACK CFI c270 .cfa: $rsp 160 +
STACK CFI INIT c410 64 .cfa: $rsp 8 + .ra: .cfa -8 + ^
STACK CFI c411 $rbx: .cfa -16 + ^ .cfa: $rsp 16 +
STACK CFI c461 .cfa: $rsp 8 +
STACK CFI c468 .cfa: $rsp 16 +
STACK CFI c473 .cfa: $rsp 8 +
STACK CFI INIT c480 1e .cfa: $rsp 8 + .ra: .cfa -8 + ^
STACK CFI INIT c4a0 3b .cfa: $rsp 8 + .ra: .cfa -8 + ^
STACK CFI c4a1 $rbp: .cfa -16 + ^ .cfa: $rsp 16 +
STACK CFI c4a2 $rbx: .cfa -24 + ^ .cfa: $rsp 24 +
STACK CFI c4a9 .cfa: $rsp 32 +
STACK CFI c4d8 .cfa: $rsp 24 +
STACK CFI c4d9 .cfa: $rsp 16 +
STACK CFI c4da .cfa: $rsp 8 +
STACK CFI INIT c4e0 b1 .cfa: $rsp 8 + .ra: .cfa -8 + ^
STACK CFI c4e2 $r12: .cfa -16 + ^ .cfa: $rsp 16 +
STACK CFI c4e3 $rbp: .cfa -24 + ^ .cfa: $rsp 24 +
STACK CFI c4e4 $rbx: .cfa -32 + ^ .cfa: $rsp 32 +
STACK CFI c4ea .cfa: $rsp 48 +
STACK CFI c565 .cfa: $rsp 32 +
STACK CFI c566 .cfa: $rsp 24 +
STACK CFI c567 .cfa: $rsp 16 +
STACK CFI c569 .cfa: $rsp 8 +
STACK CFI c570 .cfa: $rsp 48 +
STACK CFI INIT c5a0 39 .cfa: $rsp 8 + .ra: .cfa -8 + ^
STACK CFI c5a1 $rbx: .cfa -16 + ^ .cfa: $rsp 16 +
STACK CFI c5d8 .cfa: $rsp 8 +
STACK CFI INIT c5e0 206 .cfa: $rsp 8 + .ra: .cfa -8 + ^
STACK CFI c5e1 $rbp: .cfa -16 + ^ .cfa: $rsp 16 +
STACK CFI c5e2 $rbx: .cfa -24 + ^ .cfa: $rsp 24 +
STACK CFI c5e6 .cfa: $rsp 48 +
STACK CFI c655 .cfa: $rsp 24 +
STACK CFI c656 .cfa: $rsp 16 +
STACK CFI c657 .cfa: $rsp 8 +
STACK CFI c660 .cfa: $rsp 48 +
STACK CFI INIT c7f0 4b .cfa: $rsp 8 + .ra: .cfa -8 + ^
STACK CFI c7f1 $rbx: .cfa -16 + ^ .cfa: $rsp 16 +
STACK CFI c83a .cfa: $rsp 8 +
STACK CFI INIT c840 110 .cfa: $rsp 8 + .ra: .cfa -8 + ^
STACK CFI c842 $r12: .cfa -16 + ^ .cfa: $rsp 16 +
STACK CFI c843 $rbp: .cfa -24 + ^ .cfa: $rsp 24 +
STACK CFI c844 $rbx: .cfa -32 + ^ .cfa: $rsp 32 +
STACK CFI c848 .cfa: $rsp 48 +
STACK CFI c8b7 .cfa: $rsp 32 +
STACK CFI c8b8 .cfa: $rsp 24 +
STACK CFI c8b9 .cfa: $rsp 16 +
STACK CFI c8bb .cfa: $rsp 8 +
STACK CFI c8c0 .cfa: $rsp 48 +
STACK CFI INIT c950 64 .cfa: $rsp 8 + .ra: .cfa -8 + ^
STACK CFI c951 $rbx: .cfa -16 + ^ .cfa: $rsp 16 +
STACK CFI c9b3 .cfa: $rsp 8 +
STACK CFI INIT c9c0 19 .cfa: $rsp 8 + .ra: .cfa -8 + ^
STACK CFI c9c4 .cfa: $rsp 16 +
STACK CFI c9d8 .cfa: $rsp 8 +
STACK CFI INIT c9e0 6 .cfa: $rsp 8 + .ra: .cfa -8 + ^
STACK CFI INIT c9f0 19 .cfa: $rsp 8 + .ra: .cfa -8 + ^
STACK CFI c9f4 .cfa: $rsp 16 +
STACK CFI ca08 .cfa: $rsp 8 +
STACK CFI INIT ca10 6 .cfa: $rsp 8 + .ra: .cfa -8 + ^
STACK CFI INIT ca20 64 .cfa: $rsp 8 + .ra: .cfa -8 + ^
STACK CFI ca21 $rbx: .cfa -16 + ^ .cfa: $rsp 16 +
STACK CFI ca83 .cfa: $rsp 8 +
STACK CFI INIT ca90 12c .cfa: $rsp 8 + .ra: .cfa -8 + ^
STACK CFI ca92 $r13: .cfa -16 + ^ .cfa: $rsp 16 +
STACK CFI ca94 $r12: .cfa -24 + ^ .cfa: $rsp 24 +
STACK CFI ca95 $rbp: .cfa -32 + ^ .cfa: $rsp 32 +
STACK CFI ca96 $rbx: .cfa -40 + ^ .cfa: $rsp 40 +
STACK CFI ca9a .cfa: $rsp 64 +
STACK CFI cae8 .cfa: $rsp 40 +
STACK CFI cae9 .cfa: $rsp 32 +
STACK CFI caea .cfa: $rsp 24 +
STACK CFI caec .cfa: $rsp 16 +
STACK CFI caee .cfa: $rsp 8 +
STACK CFI caf0 .cfa: $rsp 64 +
STACK CFI INIT cbc0 1a1 .cfa: $rsp 8 + .ra: .cfa -8 + ^
STACK CFI cbc2 $r13: .cfa -16 + ^ .cfa: $rsp 16 +
STACK CFI cbc4 $r12: .cfa -24 + ^ .cfa: $rsp 24 +
STACK CFI cbc5 $rbp: .cfa -32 + ^ .cfa: $rsp 32 +
STACK CFI cbc6 $rbx: .cfa -40 + ^ .cfa: $rsp 40 +
STACK CFI cbca .cfa: $rsp 64 +
STACK CFI cc39 .cfa: $rsp 40 +
STACK CFI cc3a .cfa: $rsp 32 +
STACK CFI cc3b .cfa: $rsp 24 +
STACK CFI cc3d .cfa: $rsp 16 +
STACK CFI cc3f .cfa: $rsp 8 +
STACK CFI cc40 .cfa: $rsp 64 +
STACK CFI INIT cd70 32 .cfa: $rsp 8 + .ra: .cfa -8 + ^
STACK CFI cd71 $rbx: .cfa -16 + ^ .cfa: $rsp 16 +
STACK CFI cda1 .cfa: $rsp 8 +
STACK CFI INIT cdb0 110 .cfa: $rsp 8 + .ra: .cfa -8 + ^
STACK CFI cdb2 $r13: .cfa -16 + ^ .cfa: $rsp 16 +
STACK CFI cdb4 $r12: .cfa -24 + ^ .cfa: $rsp 24 +
STACK CFI cdb8 $rbp: .cfa -32 + ^ .cfa: $rsp 32 +
STACK CFI cdb9 $rbx: .cfa -40 + ^ .cfa: $rsp 40 +
STACK CFI cdc0 .cfa: $rsp 64 +
STACK CFI ce0b .cfa: $rsp 40 +
STACK CFI ce0c .cfa: $rsp 32 +
STACK CFI ce0d .cfa: $rsp 24 +
STACK CFI ce0f .cfa: $rsp 16 +
STACK CFI ce11 .cfa: $rsp 8 +
STACK CFI ce18 .cfa: $rsp 64 +
STACK CFI INIT cec0 87 .cfa: $rsp 8 + .ra: .cfa -8 + ^
STACK CFI cec1 $rbx: .cfa -16 + ^ .cfa: $rsp 16 +
STACK CFI cf46 .cfa: $rsp 8 +
STACK CFI INIT cf50 136 .cfa: $rsp 8 + .ra: .cfa -8 + ^
STACK CFI cf51 $rbp: .cfa -16 + ^ .cfa: $rsp 16 +
STACK CFI cf52 $rbx: .cfa -24 + ^ .cfa: $rsp 24 +
STACK CFI cf56 .cfa: $rsp 48 +
STACK CFI cfc5 .cfa: $rsp 24 +
STACK CFI cfc6 .cfa: $rsp 16 +
STACK CFI cfc7 .cfa: $rsp 8 +
STACK CFI cfd0 .cfa: $rsp 48 +
STACK CFI INIT d090 41 .cfa: $rsp 8 + .ra: .cfa -8 + ^
STACK CFI d091 $rbx: .cfa -16 + ^ .cfa: $rsp 16 +
STACK CFI d0d0 .cfa: $rsp 8 +
STACK CFI INIT d0e0 2b7 .cfa: $rsp 8 + .ra: .cfa -8 + ^
STACK CFI d0e2 $r15: .cfa -16 + ^ .cfa: $rsp 16 +
STACK CFI d0e4 $r14: .cfa -24 + ^ .cfa: $rsp 24 +
STACK CFI d0e6 $r13: .cfa -32 + ^ .cfa: $rsp 32 +
STACK CFI d0e8 $r12: .cfa -40 + ^ .cfa: $rsp 40 +
STACK CFI d0ed $rbp: .cfa -48 + ^ .cfa: $rsp 48 +
STACK CFI d0ee $rbx: .cfa -56 + ^ .cfa: $rsp 56 +
STACK CFI d0f5 .cfa: $rsp 128 +
STACK CFI d207 .cfa: $rsp 56 +
STACK CFI d208 .cfa: $rsp 48 +
STACK CFI d209 .cfa: $rsp 40 +
STACK CFI d20b .cfa: $rsp 32 +
STACK CFI d20d .cfa: $rsp 24 +
STACK CFI d20f .cfa: $rsp 16 +
STACK CFI d211 .cfa: $rsp 8 +
STACK CFI d218 .cfa: $rsp 128 +
STACK CFI INIT d3a0 349 .cfa: $rsp 8 + .ra: .cfa -8 + ^
STACK CFI d3a2 $r15: .cfa -16 + ^ .cfa: $rsp 16 +
STACK CFI d3a4 $r14: .cfa -24 + ^ .cfa: $rsp 24 +
STACK CFI d3a6 $r13: .cfa -32 + ^ .cfa: $rsp 32 +
STACK CFI d3a8 $r12: .cfa -40 + ^ .cfa: $rsp 40 +
STACK CFI d3a9 $rbp: .cfa -48 + ^ .cfa: $rsp 48 +
STACK CFI d3aa $rbx: .cfa -56 + ^ .cfa: $rsp 56 +
STACK CFI d3b1 .cfa: $rsp 160 +
STACK CFI d528 .cfa: $rsp 56 +
STACK CFI d529 .cfa: $rsp 48 +
STACK CFI d52a .cfa: $rsp 40 +
STACK CFI d52c .cfa: $rsp 32 +
STACK CFI d52e .cfa: $rsp 24 +
STACK CFI d530 .cfa: $rsp 16 +
STACK CFI d532 .cfa: $rsp 8 +
STACK CFI d538 .cfa: $rsp 160 +
STACK CFI INIT d6f0 188 .cfa: $rsp 8 + .ra: .cfa -8 + ^
STACK CFI d6f2 $r12: .cfa -16 + ^ .cfa: $rsp 16 +
STACK CFI d6f3 $rbp: .cfa -24 + ^ .cfa: $rsp 24 +
STACK CFI d6f4 $rbx: .cfa -32 + ^ .cfa: $rsp 32 +
STACK CFI d6f8 .cfa: $rsp 64 +
STACK CFI d739 .cfa: $rsp 32 +
STACK CFI d73a .cfa: $rsp 24 +
STACK CFI d73b .cfa: $rsp 16 +
STACK CFI d73d .cfa: $rsp 8 +
STACK CFI d740 .cfa: $rsp 64 +
STACK CFI d75b .cfa: $rsp 72 +
STACK CFI d775 .cfa: $rsp 80 +
STACK CFI d77f .cfa: $rsp 88 +
STACK CFI d786 .cfa: $rsp 96 +
STACK CFI d787 .cfa: $rsp 104 +
STACK CFI d792 .cfa: $rsp 112 +
STACK CFI d79b .cfa: $rsp 120 +
STACK CFI d7a2 .cfa: $rsp 128 +
STACK CFI d7a3 .cfa: $rsp 136 +
STACK CFI d7ae .cfa: $rsp 144 +
STACK CFI d7b7 .cfa: $rsp 152 +
STACK CFI d7c0 .cfa: $rsp 160 +
STACK CFI d7cb .cfa: $rsp 64 +
STACK CFI INIT d880 47 .cfa: $rsp 8 + .ra: .cfa -8 + ^
STACK CFI d881 $rbx: .cfa -16 + ^ .cfa: $rsp 16 +
STACK CFI d8c6 .cfa: $rsp 8 +
STACK CFI INIT d8d0 64 .cfa: $rsp 8 + .ra: .cfa -8 + ^
STACK CFI d8d1 $rbx: .cfa -16 + ^ .cfa: $rsp 16 +
STACK CFI d933 .cfa: $rsp 8 +
STACK CFI INIT d940 19 .cfa: $rsp 8 + .ra: .cfa -8 + ^
STACK CFI d944 .cfa: $rsp 16 +
STACK CFI d958 .cfa: $rsp 8 +
STACK CFI INIT d960 6 .cfa: $rsp 8 + .ra: .cfa -8 + ^
STACK CFI INIT d970 a7 .cfa: $rsp 8 + .ra: .cfa -8 + ^
STACK CFI d971 $rbx: .cfa -16 + ^ .cfa: $rsp 16 +
STACK CFI da16 .cfa: $rsp 8 +
STACK CFI INIT da20 7c2 .cfa: $rsp 8 + .ra: .cfa -8 + ^
STACK CFI da22 $r12: .cfa -16 + ^ .cfa: $rsp 16 +
STACK CFI da23 $rbp: .cfa -24 + ^ .cfa: $rsp 24 +
STACK CFI da24 $rbx: .cfa -32 + ^ .cfa: $rsp 32 +
STACK CFI da28 .cfa: $rsp 96 +
STACK CFI da9a .cfa: $rsp 32 +
STACK CFI da9b .cfa: $rsp 24 +
STACK CFI da9c .cfa: $rsp 16 +
STACK CFI da9e .cfa: $rsp 8 +
STACK CFI daa0 .cfa: $rsp 96 +
STACK CFI dd96 .cfa: $rsp 104 +
STACK CFI dd9e .cfa: $rsp 112 +
STACK CFI dda6 .cfa: $rsp 120 +
STACK CFI ddae .cfa: $rsp 128 +
STACK CFI ddc6 .cfa: $rsp 96 +
STACK CFI de1e .cfa: $rsp 104 +
STACK CFI de26 .cfa: $rsp 112 +
STACK CFI de2e .cfa: $rsp 120 +
STACK CFI de36 .cfa: $rsp 128 +
STACK CFI de4e .cfa: $rsp 96 +
STACK CFI INIT e1f0 28 .cfa: $rsp 8 + .ra: .cfa -8 + ^
STACK CFI e1f1 $rbx: .cfa -16 + ^ .cfa: $rsp 16 +
STACK CFI e217 .cfa: $rsp 8 +
STACK CFI INIT e220 162 .cfa: $rsp 8 + .ra: .cfa -8 + ^
STACK CFI e222 $r13: .cfa -16 + ^ .cfa: $rsp 16 +
STACK CFI e224 $r12: .cfa -24 + ^ .cfa: $rsp 24 +
STACK CFI e228 $rbp: .cfa -32 + ^ .cfa: $rsp 32 +
STACK CFI e229 $rbx: .cfa -40 + ^ .cfa: $rsp 40 +
STACK CFI e230 .cfa: $rsp 64 +
STACK CFI e283 .cfa: $rsp 40 +
STACK CFI e284 .cfa: $rsp 32 +
STACK CFI e285 .cfa: $rsp 24 +
STACK CFI e287 .cfa: $rsp 16 +
STACK CFI e289 .cfa: $rsp 8 +
STACK CFI e290 .cfa: $rsp 64 +
STACK CFI INIT e390 162 .cfa: $rsp 8 + .ra: .cfa -8 + ^
STACK CFI e392 $r13: .cfa -16 + ^ .cfa: $rsp 16 +
STACK CFI e394 $r12: .cfa -24 + ^ .cfa: $rsp 24 +
STACK CFI e398 $rbp: .cfa -32 + ^ .cfa: $rsp 32 +
STACK CFI e399 $rbx: .cfa -40 + ^ .cfa: $rsp 40 +
STACK CFI e3a0 .cfa: $rsp 64 +
STACK CFI e3f3 .cfa: $rsp 40 +
STACK CFI e3f4 .cfa: $rsp 32 +
STACK CFI e3f5 .cfa: $rsp 24 +
STACK CFI e3f7 .cfa: $rsp 16 +
STACK CFI e3f9 .cfa: $rsp 8 +
STACK CFI e400 .cfa: $rsp 64 +
STACK CFI INIT e500 140 .cfa: $rsp 8 + .ra: .cfa -8 + ^
STACK CFI e501 $rbp: .cfa -16 + ^ .cfa: $rsp 16 +
STACK CFI e502 $rbx: .cfa -24 + ^ .cfa: $rsp 24 +
STACK CFI e506 .cfa: $rsp 48 +
STACK CFI e575 .cfa: $rsp 24 +
STACK CFI e576 .cfa: $rsp 16 +
STACK CFI e577 .cfa: $rsp 8 +
STACK CFI e580 .cfa: $rsp 48 +
STACK CFI INIT e640 29 .cfa: $rsp 8 + .ra: .cfa -8 + ^
STACK CFI e641 $rbx: .cfa -16 + ^ .cfa: $rsp 16 +
STACK CFI e668 .cfa: $rsp 8 +
STACK CFI INIT e670 16 .cfa: $rsp 8 + .ra: .cfa -8 + ^
STACK CFI INIT e690 1c .cfa: $rsp 8 + .ra: .cfa -8 + ^
STACK CFI INIT e6b0 149 .cfa: $rsp 8 + .ra: .cfa -8 + ^
STACK CFI e6b1 $rbp: .cfa -16 + ^ .cfa: $rsp 16 +
STACK CFI e6b2 $rbx: .cfa -24 + ^ .cfa: $rsp 24 +
STACK CFI e6b6 .cfa: $rsp 48 +
STACK CFI e725 .cfa: $rsp 24 +
STACK CFI e726 .cfa: $rsp 16 +
STACK CFI e727 .cfa: $rsp 8 +
STACK CFI e730 .cfa: $rsp 48 +
STACK CFI INIT e800 5c .cfa: $rsp 8 + .ra: .cfa -8 + ^
STACK CFI e801 $rbx: .cfa -16 + ^ .cfa: $rsp 16 +
STACK CFI e85b .cfa: $rsp 8 +
STACK CFI INIT e860 12c .cfa: $rsp 8 + .ra: .cfa -8 + ^
STACK CFI e862 $r13: .cfa -16 + ^ .cfa: $rsp 16 +
STACK CFI e864 $r12: .cfa -24 + ^ .cfa: $rsp 24 +
STACK CFI e865 $rbp: .cfa -32 + ^ .cfa: $rsp 32 +
STACK CFI e866 $rbx: .cfa -40 + ^ .cfa: $rsp 40 +
STACK CFI e86a .cfa: $rsp 64 +
STACK CFI e8b1 .cfa: $rsp 40 +
STACK CFI e8b2 .cfa: $rsp 32 +
STACK CFI e8b3 .cfa: $rsp 24 +
STACK CFI e8b5 .cfa: $rsp 16 +
STACK CFI e8b7 .cfa: $rsp 8 +
STACK CFI e8c0 .cfa: $rsp 64 +
STACK CFI INIT e990 116 .cfa: $rsp 8 + .ra: .cfa -8 + ^
STACK CFI e992 $r12: .cfa -16 + ^ .cfa: $rsp 16 +
STACK CFI e993 $rbp: .cfa -24 + ^ .cfa: $rsp 24 +
STACK CFI e994 $rbx: .cfa -32 + ^ .cfa: $rsp 32 +
STACK CFI e998 .cfa: $rsp 48 +
STACK CFI ea07 .cfa: $rsp 32 +
STACK CFI ea08 .cfa: $rsp 24 +
STACK CFI ea09 .cfa: $rsp 16 +
STACK CFI ea0b .cfa: $rsp 8 +
STACK CFI ea10 .cfa: $rsp 48 +
STACK CFI INIT eab0 41 .cfa: $rsp 8 + .ra: .cfa -8 + ^
STACK CFI eab1 $rbx: .cfa -16 + ^ .cfa: $rsp 16 +
STACK CFI eaf0 .cfa: $rsp 8 +
STACK CFI INIT eb00 104 .cfa: $rsp 8 + .ra: .cfa -8 + ^
STACK CFI eb01 $rbp: .cfa -16 + ^ .cfa: $rsp 16 +
STACK CFI eb02 $rbx: .cfa -24 + ^ .cfa: $rsp 24 +
STACK CFI eb06 .cfa: $rsp 48 +
STACK CFI eb71 .cfa: $rsp 24 +
STACK CFI eb72 .cfa: $rsp 16 +
STACK CFI eb73 .cfa: $rsp 8 +
STACK CFI eb78 .cfa: $rsp 48 +
STACK CFI INIT ec10 28 .cfa: $rsp 8 + .ra: .cfa -8 + ^
STACK CFI ec11 $rbx: .cfa -16 + ^ .cfa: $rsp 16 +
STACK CFI ec37 .cfa: $rsp 8 +
STACK CFI INIT ec40 188 .cfa: $rsp 8 + .ra: .cfa -8 + ^
STACK CFI ec42 $r13: .cfa -16 + ^ .cfa: $rsp 16 +
STACK CFI ec44 $r12: .cfa -24 + ^ .cfa: $rsp 24 +
STACK CFI ec45 $rbp: .cfa -32 + ^ .cfa: $rsp 32 +
STACK CFI ec46 $rbx: .cfa -40 + ^ .cfa: $rsp 40 +
STACK CFI ec4a .cfa: $rsp 112 +
STACK CFI ed3e .cfa: $rsp 40 +
STACK CFI ed3f .cfa: $rsp 32 +
STACK CFI ed40 .cfa: $rsp 24 +
STACK CFI ed42 .cfa: $rsp 16 +
STACK CFI ed44 .cfa: $rsp 8 +
STACK CFI ed45 .cfa: $rsp 112 +
STACK CFI INIT edd0 12c .cfa: $rsp 8 + .ra: .cfa -8 + ^
STACK CFI edd2 $r13: .cfa -16 + ^ .cfa: $rsp 16 +
STACK CFI edd4 $r12: .cfa -24 + ^ .cfa: $rsp 24 +
STACK CFI edd5 $rbp: .cfa -32 + ^ .cfa: $rsp 32 +
STACK CFI edd6 $rbx: .cfa -40 + ^ .cfa: $rsp 40 +
STACK CFI edda .cfa: $rsp 64 +
STACK CFI ee22 .cfa: $rsp 40 +
STACK CFI ee23 .cfa: $rsp 32 +
STACK CFI ee24 .cfa: $rsp 24 +
STACK CFI ee26 .cfa: $rsp 16 +
STACK CFI ee28 .cfa: $rsp 8 +
STACK CFI ee30 .cfa: $rsp 64 +
STACK CFI INIT ef00 d0 .cfa: $rsp 8 + .ra: .cfa -8 + ^
STACK CFI ef01 $rbp: .cfa -16 + ^ .cfa: $rsp 16 +
STACK CFI ef02 $rbx: .cfa -24 + ^ .cfa: $rsp 24 +
STACK CFI ef06 .cfa: $rsp 48 +
STACK CFI efb5 .cfa: $rsp 24 +
STACK CFI efb6 .cfa: $rsp 16 +
STACK CFI efb7 .cfa: $rsp 8 +
STACK CFI efb8 .cfa: $rsp 48 +
STACK CFI INIT efd0 d7 .cfa: $rsp 8 + .ra: .cfa -8 + ^
STACK CFI efd1 $rbx: .cfa -16 + ^ .cfa: $rsp 16 +
STACK CFI f0a6 .cfa: $rsp 8 +
STACK CFI INIT f0b0 2f1 .cfa: $rsp 8 + .ra: .cfa -8 + ^
STACK CFI f0b2 $r15: .cfa -16 + ^ .cfa: $rsp 16 +
STACK CFI f0b4 $r14: .cfa -24 + ^ .cfa: $rsp 24 +
STACK CFI f0b6 $r13: .cfa -32 + ^ .cfa: $rsp 32 +
STACK CFI f0b8 $r12: .cfa -40 + ^ .cfa: $rsp 40 +
STACK CFI f0b9 $rbp: .cfa -48 + ^ .cfa: $rsp 48 +
STACK CFI f0ba $rbx: .cfa -56 + ^ .cfa: $rsp 56 +
STACK CFI f0be .cfa: $rsp 128 +
STACK CFI f130 .cfa: $rsp 56 +
STACK CFI f131 .cfa: $rsp 48 +
STACK CFI f132 .cfa: $rsp 40 +
STACK CFI f134 .cfa: $rsp 32 +
STACK CFI f136 .cfa: $rsp 24 +
STACK CFI f138 .cfa: $rsp 16 +
STACK CFI f13a .cfa: $rsp 8 +
STACK CFI f140 .cfa: $rsp 128 +
STACK CFI INIT f3b0 ac .cfa: $rsp 8 + .ra: .cfa -8 + ^
STACK CFI f3b2 $r13: .cfa -16 + ^ .cfa: $rsp 16 +
STACK CFI f3b4 $r12: .cfa -24 + ^ .cfa: $rsp 24 +
STACK CFI f3b8 $rbp: .cfa -32 + ^ .cfa: $rsp 32 +
STACK CFI f3b9 $rbx: .cfa -40 + ^ .cfa: $rsp 40 +
STACK CFI f3c7 .cfa: $rsp 48 +
STACK CFI f455 .cfa: $rsp 40 +
STACK CFI f456 .cfa: $rsp 32 +
STACK CFI f457 .cfa: $rsp 24 +
STACK CFI f459 .cfa: $rsp 16 +
STACK CFI f45b .cfa: $rsp 8 +
STACK CFI INIT f460 95 .cfa: $rsp 8 + .ra: .cfa -8 + ^
STACK CFI f461 $rbp: .cfa -16 + ^ .cfa: $rsp 16 +
STACK CFI f462 $rbx: .cfa -24 + ^ .cfa: $rsp 24 +
STACK CFI f470 .cfa: $rsp 32 +
STACK CFI f4f2 .cfa: $rsp 24 +
STACK CFI f4f3 .cfa: $rsp 16 +
STACK CFI f4f4 .cfa: $rsp 8 +
STACK CFI INIT f500 2bf .cfa: $rsp 8 + .ra: .cfa -8 + ^
STACK CFI f502 $r13: .cfa -16 + ^ .cfa: $rsp 16 +
STACK CFI f504 $r12: .cfa -24 + ^ .cfa: $rsp 24 +
STACK CFI f505 $rbp: .cfa -32 + ^ .cfa: $rsp 32 +
STACK CFI f506 $rbx: .cfa -40 + ^ .cfa: $rsp 40 +
STACK CFI f50a .cfa: $rsp 112 +
STACK CFI f57c .cfa: $rsp 40 +
STACK CFI f57d .cfa: $rsp 32 +
STACK CFI f57e .cfa: $rsp 24 +
STACK CFI f580 .cfa: $rsp 16 +
STACK CFI f582 .cfa: $rsp 8 +
STACK CFI f588 .cfa: $rsp 112 +
STACK CFI INIT f7c0 12c .cfa: $rsp 8 + .ra: .cfa -8 + ^
STACK CFI f7c2 $r13: .cfa -16 + ^ .cfa: $rsp 16 +
STACK CFI f7c4 $r12: .cfa -24 + ^ .cfa: $rsp 24 +
STACK CFI f7c5 $rbp: .cfa -32 + ^ .cfa: $rsp 32 +
STACK CFI f7c6 $rbx: .cfa -40 + ^ .cfa: $rsp 40 +
STACK CFI f7ca .cfa: $rsp 64 +
STACK CFI f811 .cfa: $rsp 40 +
STACK CFI f812 .cfa: $rsp 32 +
STACK CFI f813 .cfa: $rsp 24 +
STACK CFI f815 .cfa: $rsp 16 +
STACK CFI f817 .cfa: $rsp 8 +
STACK CFI f820 .cfa: $rsp 64 +
STACK CFI INIT f8f0 1fa .cfa: $rsp 8 + .ra: .cfa -8 + ^
STACK CFI f8f2 $r13: .cfa -16 + ^ .cfa: $rsp 16 +
STACK CFI f8f4 $r12: .cfa -24 + ^ .cfa: $rsp 24 +
STACK CFI f8f5 $rbp: .cfa -32 + ^ .cfa: $rsp 32 +
STACK CFI f8f6 $rbx: .cfa -40 + ^ .cfa: $rsp 40 +
STACK CFI f8fd .cfa: $rsp 112 +
STACK CFI fa96 .cfa: $rsp 40 +
STACK CFI fa97 .cfa: $rsp 32 +
STACK CFI fa98 .cfa: $rsp 24 +
STACK CFI fa9a .cfa: $rsp 16 +
STACK CFI fa9c .cfa: $rsp 8 +
STACK CFI faa0 .cfa: $rsp 112 +
STACK CFI INIT faf0 203 .cfa: $rsp 8 + .ra: .cfa -8 + ^
STACK CFI faf2 $r12: .cfa -16 + ^ .cfa: $rsp 16 +
STACK CFI faf3 $rbp: .cfa -24 + ^ .cfa: $rsp 24 +
STACK CFI faf6 $rbx: .cfa -32 + ^ .cfa: $rsp 32 +
STACK CFI fafd .cfa: $rsp 48 +
STACK CFI fbc8 .cfa: $rsp 32 +
STACK CFI fbc9 .cfa: $rsp 24 +
STACK CFI fbca .cfa: $rsp 16 +
STACK CFI fbcc .cfa: $rsp 8 +
STACK CFI fbd0 .cfa: $rsp 48 +
STACK CFI INIT fd00 170 .cfa: $rsp 8 + .ra: .cfa -8 + ^
STACK CFI fd02 $r12: .cfa -16 + ^ .cfa: $rsp 16 +
STACK CFI fd03 $rbp: .cfa -24 + ^ .cfa: $rsp 24 +
STACK CFI fd04 $rbx: .cfa -32 + ^ .cfa: $rsp 32 +
STACK CFI fd08 .cfa: $rsp 48 +
STACK CFI fdb5 .cfa: $rsp 32 +
STACK CFI fdb6 .cfa: $rsp 24 +
STACK CFI fdb7 .cfa: $rsp 16 +
STACK CFI fdb9 .cfa: $rsp 8 +
STACK CFI fdc0 .cfa: $rsp 48 +
STACK CFI INIT fe70 350 .cfa: $rsp 8 + .ra: .cfa -8 + ^
STACK CFI fe72 $r15: .cfa -16 + ^ .cfa: $rsp 16 +
STACK CFI fe74 $r14: .cfa -24 + ^ .cfa: $rsp 24 +
STACK CFI fe76 $r13: .cfa -32 + ^ .cfa: $rsp 32 +
STACK CFI fe78 $r12: .cfa -40 + ^ .cfa: $rsp 40 +
STACK CFI fe79 $rbp: .cfa -48 + ^ .cfa: $rsp 48 +
STACK CFI fe7a $rbx: .cfa -56 + ^ .cfa: $rsp 56 +
STACK CFI fe84 .cfa: $rsp 208 +
STACK CFI 10054 .cfa: $rsp 56 +
STACK CFI 10055 .cfa: $rsp 48 +
STACK CFI 10056 .cfa: $rsp 40 +
STACK CFI 10058 .cfa: $rsp 32 +
STACK CFI 1005a .cfa: $rsp 24 +
STACK CFI 1005c .cfa: $rsp 16 +
STACK CFI 1005e .cfa: $rsp 8 +
STACK CFI 10060 .cfa: $rsp 208 +
STACK CFI INIT 101c0 262 .cfa: $rsp 8 + .ra: .cfa -8 + ^
STACK CFI 101c2 $r12: .cfa -16 + ^ .cfa: $rsp 16 +
STACK CFI 101c3 $rbp: .cfa -24 + ^ .cfa: $rsp 24 +
STACK CFI 101c7 $rbx: .cfa -32 + ^ .cfa: $rsp 32 +
STACK CFI 101ce .cfa: $rsp 48 +
STACK CFI 102db .cfa: $rsp 32 +
STACK CFI 102dc .cfa: $rsp 24 +
STACK CFI 102dd .cfa: $rsp 16 +
STACK CFI 102df .cfa: $rsp 8 +
STACK CFI 102e0 .cfa: $rsp 48 +
STACK CFI INIT 10430 264 .cfa: $rsp 8 + .ra: .cfa -8 + ^
STACK CFI 10432 $r14: .cfa -16 + ^ .cfa: $rsp 16 +
STACK CFI 10434 $r13: .cfa -24 + ^ .cfa: $rsp 24 +
STACK CFI 1043a $r12: .cfa -32 + ^ .cfa: $rsp 32 +
STACK CFI 1043b $rbp: .cfa -40 + ^ .cfa: $rsp 40 +
STACK CFI 10441 $rbx: .cfa -48 + ^ .cfa: $rsp 48 +
STACK CFI 10448 .cfa: $rsp 144 +
STACK CFI 104b6 .cfa: $rsp 48 +
STACK CFI 104b7 .cfa: $rsp 40 +
STACK CFI 104b8 .cfa: $rsp 32 +
STACK CFI 104ba .cfa: $rsp 24 +
STACK CFI 104bc .cfa: $rsp 16 +
STACK CFI 104be .cfa: $rsp 8 +
STACK CFI 104c0 .cfa: $rsp 144 +
STACK CFI INIT 106a0 36d .cfa: $rsp 8 + .ra: .cfa -8 + ^
STACK CFI 106a2 $r14: .cfa -16 + ^ .cfa: $rsp 16 +
STACK CFI 106a4 $r13: .cfa -24 + ^ .cfa: $rsp 24 +
STACK CFI 106a6 $r12: .cfa -32 + ^ .cfa: $rsp 32 +
STACK CFI 106a7 $rbp: .cfa -40 + ^ .cfa: $rsp 40 +
STACK CFI 106a8 $rbx: .cfa -48 + ^ .cfa: $rsp 48 +
STACK CFI 106af .cfa: $rsp 144 +
STACK CFI 107d2 .cfa: $rsp 48 +
STACK CFI 107d3 .cfa: $rsp 40 +
STACK CFI 107d4 .cfa: $rsp 32 +
STACK CFI 107d6 .cfa: $rsp 24 +
STACK CFI 107d8 .cfa: $rsp 16 +
STACK CFI 107da .cfa: $rsp 8 +
STACK CFI 107e0 .cfa: $rsp 144 +
STACK CFI INIT 10a10 15f .cfa: $rsp 8 + .ra: .cfa -8 + ^
STACK CFI 10a12 $r13: .cfa -16 + ^ .cfa: $rsp 16 +
STACK CFI 10a14 $r12: .cfa -24 + ^ .cfa: $rsp 24 +
STACK CFI 10a15 $rbp: .cfa -32 + ^ .cfa: $rsp 32 +
STACK CFI 10a16 $rbx: .cfa -40 + ^ .cfa: $rsp 40 +
STACK CFI 10a1d .cfa: $rsp 112 +
STACK CFI 10a71 .cfa: $rsp 40 +
STACK CFI 10a72 .cfa: $rsp 32 +
STACK CFI 10a73 .cfa: $rsp 24 +
STACK CFI 10a75 .cfa: $rsp 16 +
STACK CFI 10a77 .cfa: $rsp 8 +
STACK CFI 10a80 .cfa: $rsp 112 +
STACK CFI INIT 10b70 3c7 .cfa: $rsp 8 + .ra: .cfa -8 + ^
STACK CFI 10b72 $r15: .cfa -16 + ^ .cfa: $rsp 16 +
STACK CFI 10b74 $r14: .cfa -24 + ^ .cfa: $rsp 24 +
STACK CFI 10b76 $r13: .cfa -32 + ^ .cfa: $rsp 32 +
STACK CFI 10b78 $r12: .cfa -40 + ^ .cfa: $rsp 40 +
STACK CFI 10b79 $rbp: .cfa -48 + ^ .cfa: $rsp 48 +
STACK CFI 10b7a $rbx: .cfa -56 + ^ .cfa: $rsp 56 +
STACK CFI 10b81 .cfa: $rsp 144 +
STACK CFI 10c12 .cfa: $rsp 56 +
STACK CFI 10c13 .cfa: $rsp 48 +
STACK CFI 10c14 .cfa: $rsp 40 +
STACK CFI 10c16 .cfa: $rsp 32 +
STACK CFI 10c18 .cfa: $rsp 24 +
STACK CFI 10c1a .cfa: $rsp 16 +
STACK CFI 10c1c .cfa: $rsp 8 +
STACK CFI 10c20 .cfa: $rsp 144 +
STACK CFI INIT 10f40 4e .cfa: $rsp 8 + .ra: .cfa -8 + ^
STACK CFI 10f44 .cfa: $rsp 32 +
STACK CFI 10f7c .cfa: $rsp 8 +
STACK CFI 10f80 .cfa: $rsp 32 +
STACK CFI INIT 10f90 17d .cfa: $rsp 8 + .ra: .cfa -8 + ^
STACK CFI 10f92 $r12: .cfa -16 + ^ .cfa: $rsp 16 +
STACK CFI 10f93 $rbp: .cfa -24 + ^ .cfa: $rsp 24 +
STACK CFI 10f97 $rbx: .cfa -32 + ^ .cfa: $rsp 32 +
STACK CFI 1100c .cfa: $rsp 24 +
STACK CFI 1100d .cfa: $rsp 16 +
STACK CFI 1100f .cfa: $rsp 8 +
STACK CFI 11018 .cfa: $rsp 32 +
STACK CFI 11019 .cfa: $rsp 24 +
STACK CFI 1101f .cfa: $rsp 16 +
STACK CFI 11021 .cfa: $rsp 8 +
STACK CFI 11028 .cfa: $rsp 32 +
STACK CFI INIT 11110 2210 .cfa: $rsp 8 + .ra: .cfa -8 + ^
STACK CFI 11112 $r13: .cfa -16 + ^ .cfa: $rsp 16 +
STACK CFI 11114 $r12: .cfa -24 + ^ .cfa: $rsp 24 +
STACK CFI 11115 $rbp: .cfa -32 + ^ .cfa: $rsp 32 +
STACK CFI 11116 $rbx: .cfa -40 + ^ .cfa: $rsp 40 +
STACK CFI 1111f .cfa: $rsp 128 +
STACK CFI 1138a .cfa: $rsp 40 +
STACK CFI 1138b .cfa: $rsp 32 +
STACK CFI 1138c .cfa: $rsp 24 +
STACK CFI 1138e .cfa: $rsp 16 +
STACK CFI 11390 .cfa: $rsp 8 +
STACK CFI 11398 .cfa: $rsp 128 +
STACK CFI INIT 13320 1da .cfa: $rsp 8 + .ra: .cfa -8 + ^
STACK CFI 13322 $r12: .cfa -16 + ^ .cfa: $rsp 16 +
STACK CFI 13323 $rbp: .cfa -24 + ^ .cfa: $rsp 24 +
STACK CFI 13324 $rbx: .cfa -32 + ^ .cfa: $rsp 32 +
STACK CFI 13328 .cfa: $rsp 48 +
STACK CFI 13369 .cfa: $rsp 32 +
STACK CFI 1336a .cfa: $rsp 24 +
STACK CFI 1336b .cfa: $rsp 16 +
STACK CFI 1336d .cfa: $rsp 8 +
STACK CFI 13370 .cfa: $rsp 48 +
STACK CFI INIT 13500 1e7 .cfa: $rsp 8 + .ra: .cfa -8 + ^
STACK CFI 13502 $r12: .cfa -16 + ^ .cfa: $rsp 16 +
STACK CFI 13503 $rbp: .cfa -24 + ^ .cfa: $rsp 24 +
STACK CFI 13504 $rbx: .cfa -32 + ^ .cfa: $rsp 32 +
STACK CFI 13508 .cfa: $rsp 48 +
STACK CFI 1354c .cfa: $rsp 32 +
STACK CFI 1354d .cfa: $rsp 24 +
STACK CFI 1354e .cfa: $rsp 16 +
STACK CFI 13550 .cfa: $rsp 8 +
STACK CFI 13558 .cfa: $rsp 48 +
STACK CFI INIT 136f0 1e3 .cfa: $rsp 8 + .ra: .cfa -8 + ^
STACK CFI 136f2 $r13: .cfa -16 + ^ .cfa: $rsp 16 +
STACK CFI 136f4 $r12: .cfa -24 + ^ .cfa: $rsp 24 +
STACK CFI 136f5 $rbp: .cfa -32 + ^ .cfa: $rsp 32 +
STACK CFI 136f6 $rbx: .cfa -40 + ^ .cfa: $rsp 40 +
STACK CFI 136fa .cfa: $rsp 64 +
STACK CFI 13769 .cfa: $rsp 40 +
STACK CFI 1376a .cfa: $rsp 32 +
STACK CFI 1376b .cfa: $rsp 24 +
STACK CFI 1376d .cfa: $rsp 16 +
STACK CFI 1376f .cfa: $rsp 8 +
STACK CFI 13770 .cfa: $rsp 64 +
STACK CFI INIT 138e0 f3 .cfa: $rsp 8 + .ra: .cfa -8 + ^
STACK CFI 138e2 $r12: .cfa -16 + ^ .cfa: $rsp 16 +
STACK CFI 138e3 $rbp: .cfa -24 + ^ .cfa: $rsp 24 +
STACK CFI 138e4 $rbx: .cfa -32 + ^ .cfa: $rsp 32 +
STACK CFI 138eb .cfa: $rsp 48 +
STACK CFI 139b6 .cfa: $rsp 32 +
STACK CFI 139b7 .cfa: $rsp 24 +
STACK CFI 139b8 .cfa: $rsp 16 +
STACK CFI 139ba .cfa: $rsp 8 +
STACK CFI 139bb .cfa: $rsp 48 +
STACK CFI INIT 139e0 7d .cfa: $rsp 8 + .ra: .cfa -8 + ^
STACK CFI 139e1 $rbp: .cfa -16 + ^ .cfa: $rsp 16 +
STACK CFI 139e2 $rbx: .cfa -24 + ^ .cfa: $rsp 24 +
STACK CFI 139e9 .cfa: $rsp 32 +
STACK CFI 13a5a .cfa: $rsp 24 +
STACK CFI 13a5b .cfa: $rsp 16 +
STACK CFI 13a5c .cfa: $rsp 8 +
STACK CFI INIT 13a60 37f .cfa: $rsp 8 + .ra: .cfa -8 + ^
STACK CFI 13a62 $r14: .cfa -16 + ^ .cfa: $rsp 16 +
STACK CFI 13a64 $r13: .cfa -24 + ^ .cfa: $rsp 24 +
STACK CFI 13a66 $r12: .cfa -32 + ^ .cfa: $rsp 32 +
STACK CFI 13a67 $rbp: .cfa -40 + ^ .cfa: $rsp 40 +
STACK CFI 13a6b $rbx: .cfa -48 + ^ .cfa: $rsp 48 +
STACK CFI 13a72 .cfa: $rsp 144 +
STACK CFI 13b5e .cfa: $rsp 48 +
STACK CFI 13b5f .cfa: $rsp 40 +
STACK CFI 13b60 .cfa: $rsp 32 +
STACK CFI 13b62 .cfa: $rsp 24 +
STACK CFI 13b64 .cfa: $rsp 16 +
STACK CFI 13b66 .cfa: $rsp 8 +
STACK CFI 13b70 .cfa: $rsp 144 +
STACK CFI INIT 13de0 2d8 .cfa: $rsp 8 + .ra: .cfa -8 + ^
STACK CFI 13de2 $r13: .cfa -16 + ^ .cfa: $rsp 16 +
STACK CFI 13de4 $r12: .cfa -24 + ^ .cfa: $rsp 24 +
STACK CFI 13de5 $rbp: .cfa -32 + ^ .cfa: $rsp 32 +
STACK CFI 13de6 $rbx: .cfa -40 + ^ .cfa: $rsp 40 +
STACK CFI 13dea .cfa: $rsp 80 +
STACK CFI 13e60 .cfa: $rsp 40 +
STACK CFI 13e61 .cfa: $rsp 32 +
STACK CFI 13e62 .cfa: $rsp 24 +
STACK CFI 13e64 .cfa: $rsp 16 +
STACK CFI 13e66 .cfa: $rsp 8 +
STACK CFI 13e70 .cfa: $rsp 80 +
STACK CFI INIT 140c0 2e6 .cfa: $rsp 8 + .ra: .cfa -8 + ^
STACK CFI 140c2 $r14: .cfa -16 + ^ .cfa: $rsp 16 +
STACK CFI 140c4 $r13: .cfa -24 + ^ .cfa: $rsp 24 +
STACK CFI 140c9 $r12: .cfa -32 + ^ .cfa: $rsp 32 +
STACK CFI 140ca $rbp: .cfa -40 + ^ .cfa: $rsp 40 +
STACK CFI 140ce $rbx: .cfa -48 + ^ .cfa: $rsp 48 +
STACK CFI 140d4 .cfa: $rsp 64 +
STACK CFI 141c3 .cfa: $rsp 48 +
STACK CFI 141c4 .cfa: $rsp 40 +
STACK CFI 141c5 .cfa: $rsp 32 +
STACK CFI 141c7 .cfa: $rsp 24 +
STACK CFI 141c9 .cfa: $rsp 16 +
STACK CFI 141cb .cfa: $rsp 8 +
STACK CFI 141d0 .cfa: $rsp 64 +
STACK CFI INIT 1f850 32 .cfa: $rsp 8 + .ra: .cfa -8 + ^
STACK CFI 1f851 $rbx: .cfa -16 + ^ .cfa: $rsp 16 +
STACK CFI 1f873 .cfa: $rsp 8 +
STACK CFI 1f880 .cfa: $rsp 16 +
STACK CFI 1f881 .cfa: $rsp 8 +
STACK CFI INIT 143b0 72b .cfa: $rsp 8 + .ra: .cfa -8 + ^
STACK CFI 143b2 $r15: .cfa -16 + ^ .cfa: $rsp 16 +
STACK CFI 143b4 $r14: .cfa -24 + ^ .cfa: $rsp 24 +
STACK CFI 143b6 $r13: .cfa -32 + ^ .cfa: $rsp 32 +
STACK CFI 143b8 $r12: .cfa -40 + ^ .cfa: $rsp 40 +
STACK CFI 143b9 $rbp: .cfa -48 + ^ .cfa: $rsp 48 +
STACK CFI 143ba $rbx: .cfa -56 + ^ .cfa: $rsp 56 +
STACK CFI 143c1 .cfa: $rsp 176 +
STACK CFI 1483d .cfa: $rsp 56 +
STACK CFI 1483e .cfa: $rsp 48 +
STACK CFI 1483f .cfa: $rsp 40 +
STACK CFI 14841 .cfa: $rsp 32 +
STACK CFI 14843 .cfa: $rsp 24 +
STACK CFI 14845 .cfa: $rsp 16 +
STACK CFI 14847 .cfa: $rsp 8 +
STACK CFI 14850 .cfa: $rsp 176 +
STACK CFI INIT 14ae0 40a .cfa: $rsp 8 + .ra: .cfa -8 + ^
STACK CFI 14ae2 $r14: .cfa -16 + ^ .cfa: $rsp 16 +
STACK CFI 14ae4 $r13: .cfa -24 + ^ .cfa: $rsp 24 +
STACK CFI 14ae6 $r12: .cfa -32 + ^ .cfa: $rsp 32 +
STACK CFI 14ae7 $rbp: .cfa -40 + ^ .cfa: $rsp 40 +
STACK CFI 14ae8 $rbx: .cfa -48 + ^ .cfa: $rsp 48 +
STACK CFI 14aec .cfa: $rsp 112 +
STACK CFI 14c0f .cfa: $rsp 48 +
STACK CFI 14c10 .cfa: $rsp 40 +
STACK CFI 14c11 .cfa: $rsp 32 +
STACK CFI 14c13 .cfa: $rsp 24 +
STACK CFI 14c15 .cfa: $rsp 16 +
STACK CFI 14c17 .cfa: $rsp 8 +
STACK CFI 14c20 .cfa: $rsp 112 +
STACK CFI INIT 14ef0 112 .cfa: $rsp 8 + .ra: .cfa -8 + ^
STACK CFI 14ef1 $rbp: .cfa -16 + ^ .cfa: $rsp 16 +
STACK CFI 14ef2 $rbx: .cfa -24 + ^ .cfa: $rsp 24 +
STACK CFI 14ef6 .cfa: $rsp 48 +
STACK CFI 14f34 .cfa: $rsp 24 +
STACK CFI 14f35 .cfa: $rsp 16 +
STACK CFI 14f36 .cfa: $rsp 8 +
STACK CFI 14f40 .cfa: $rsp 48 +
STACK CFI INIT 15010 316 .cfa: $rsp 8 + .ra: .cfa -8 + ^
STACK CFI 15012 $r12: .cfa -16 + ^ .cfa: $rsp 16 +
STACK CFI 15013 $rbp: .cfa -24 + ^ .cfa: $rsp 24 +
STACK CFI 15014 $rbx: .cfa -32 + ^ .cfa: $rsp 32 +
STACK CFI 15018 .cfa: $rsp 48 +
STACK CFI 15087 .cfa: $rsp 32 +
STACK CFI 15088 .cfa: $rsp 24 +
STACK CFI 15089 .cfa: $rsp 16 +
STACK CFI 1508b .cfa: $rsp 8 +
STACK CFI 15090 .cfa: $rsp 48 +
STACK CFI INIT 15330 102 .cfa: $rsp 8 + .ra: .cfa -8 + ^
STACK CFI 15331 $rbp: .cfa -16 + ^ .cfa: $rsp 16 +
STACK CFI 15332 $rbx: .cfa -24 + ^ .cfa: $rsp 24 +
STACK CFI 15336 .cfa: $rsp 48 +
STACK CFI 153a6 .cfa: $rsp 24 +
STACK CFI 153a7 .cfa: $rsp 16 +
STACK CFI 153a8 .cfa: $rsp 8 +
STACK CFI 153b0 .cfa: $rsp 48 +
STACK CFI INIT 15440 4a3 .cfa: $rsp 8 + .ra: .cfa -8 + ^
STACK CFI 15442 $r15: .cfa -16 + ^ .cfa: $rsp 16 +
STACK CFI 15444 $r14: .cfa -24 + ^ .cfa: $rsp 24 +
STACK CFI 15446 $r13: .cfa -32 + ^ .cfa: $rsp 32 +
STACK CFI 15448 $r12: .cfa -40 + ^ .cfa: $rsp 40 +
STACK CFI 15449 $rbp: .cfa -48 + ^ .cfa: $rsp 48 +
STACK CFI 1544a $rbx: .cfa -56 + ^ .cfa: $rsp 56 +
STACK CFI 15454 .cfa: $rsp 208 +
STACK CFI 15606 .cfa: $rsp 56 +
STACK CFI 15607 .cfa: $rsp 48 +
STACK CFI 15608 .cfa: $rsp 40 +
STACK CFI 1560a .cfa: $rsp 32 +
STACK CFI 1560c .cfa: $rsp 24 +
STACK CFI 1560e .cfa: $rsp 16 +
STACK CFI 15610 .cfa: $rsp 8 +
STACK CFI 15618 .cfa: $rsp 208 +
STACK CFI INIT 158f0 9 .cfa: $rsp 8 + .ra: .cfa -8 + ^
STACK CFI INIT 15900 168 .cfa: $rsp 8 + .ra: .cfa -8 + ^
STACK CFI 15902 $r13: .cfa -16 + ^ .cfa: $rsp 16 +
STACK CFI 15904 $r12: .cfa -24 + ^ .cfa: $rsp 24 +
STACK CFI 15905 $rbp: .cfa -32 + ^ .cfa: $rsp 32 +
STACK CFI 15906 $rbx: .cfa -40 + ^ .cfa: $rsp 40 +
STACK CFI 1590d .cfa: $rsp 96 +
STACK CFI 15a33 .cfa: $rsp 40 +
STACK CFI 15a34 .cfa: $rsp 32 +
STACK CFI 15a35 .cfa: $rsp 24 +
STACK CFI 15a37 .cfa: $rsp 16 +
STACK CFI 15a39 .cfa: $rsp 8 +
STACK CFI 15a3a .cfa: $rsp 96 +
STACK CFI INIT 15a70 200 .cfa: $rsp 8 + .ra: .cfa -8 + ^
STACK CFI 15a72 $r13: .cfa -16 + ^ .cfa: $rsp 16 +
STACK CFI 15a74 $r12: .cfa -24 + ^ .cfa: $rsp 24 +
STACK CFI 15a75 $rbp: .cfa -32 + ^ .cfa: $rsp 32 +
STACK CFI 15a76 $rbx: .cfa -40 + ^ .cfa: $rsp 40 +
STACK CFI 15a7a .cfa: $rsp 64 +
STACK CFI 15b2a .cfa: $rsp 40 +
STACK CFI 15b2b .cfa: $rsp 32 +
STACK CFI 15b2c .cfa: $rsp 24 +
STACK CFI 15b2e .cfa: $rsp 16 +
STACK CFI 15b30 .cfa: $rsp 8 +
STACK CFI 15b38 .cfa: $rsp 64 +
STACK CFI INIT 15c70 69b .cfa: $rsp 8 + .ra: .cfa -8 + ^
STACK CFI 15c72 $r14: .cfa -16 + ^ .cfa: $rsp 16 +
STACK CFI 15c74 $r13: .cfa -24 + ^ .cfa: $rsp 24 +
STACK CFI 15c76 $r12: .cfa -32 + ^ .cfa: $rsp 32 +
STACK CFI 15c77 $rbp: .cfa -40 + ^ .cfa: $rsp 40 +
STACK CFI 15c7a $rbx: .cfa -48 + ^ .cfa: $rsp 48 +
STACK CFI 15c81 .cfa: $rsp 64 +
STACK CFI 15f04 .cfa: $rsp 48 +
STACK CFI 15f05 .cfa: $rsp 40 +
STACK CFI 15f06 .cfa: $rsp 32 +
STACK CFI 15f08 .cfa: $rsp 24 +
STACK CFI 15f0a .cfa: $rsp 16 +
STACK CFI 15f0c .cfa: $rsp 8 +
STACK CFI 15f10 .cfa: $rsp 64 +
STACK CFI INIT 1f890 2a .cfa: $rsp 8 + .ra: .cfa -8 + ^
STACK CFI 1f891 $rbx: .cfa -16 + ^ .cfa: $rsp 16 +
STACK CFI 1f8af .cfa: $rsp 8 +
STACK CFI 1f8b8 .cfa: $rsp 16 +
STACK CFI 1f8b9 .cfa: $rsp 8 +
STACK CFI INIT 16310 359 .cfa: $rsp 8 + .ra: .cfa -8 + ^
STACK CFI 16312 $r13: .cfa -16 + ^ .cfa: $rsp 16 +
STACK CFI 16314 $r12: .cfa -24 + ^ .cfa: $rsp 24 +
STACK CFI 16315 $rbp: .cfa -32 + ^ .cfa: $rsp 32 +
STACK CFI 16316 $rbx: .cfa -40 + ^ .cfa: $rsp 40 +
STACK CFI 1631a .cfa: $rsp 80 +
STACK CFI 1635b .cfa: $rsp 40 +
STACK CFI 1635c .cfa: $rsp 32 +
STACK CFI 1635d .cfa: $rsp 24 +
STACK CFI 1635f .cfa: $rsp 16 +
STACK CFI 16361 .cfa: $rsp 8 +
STACK CFI 16368 .cfa: $rsp 80 +
STACK CFI INIT 16670 25a .cfa: $rsp 8 + .ra: .cfa -8 + ^
STACK CFI 16672 $r15: .cfa -16 + ^ .cfa: $rsp 16 +
STACK CFI 16674 $r14: .cfa -24 + ^ .cfa: $rsp 24 +
STACK CFI 16676 $r13: .cfa -32 + ^ .cfa: $rsp 32 +
STACK CFI 16678 $r12: .cfa -40 + ^ .cfa: $rsp 40 +
STACK CFI 16679 $rbp: .cfa -48 + ^ .cfa: $rsp 48 +
STACK CFI 1667a $rbx: .cfa -56 + ^ .cfa: $rsp 56 +
STACK CFI 1667e .cfa: $rsp 80 +
STACK CFI 166ed .cfa: $rsp 56 +
STACK CFI 166ee .cfa: $rsp 48 +
STACK CFI 166ef .cfa: $rsp 40 +
STACK CFI 166f1 .cfa: $rsp 32 +
STACK CFI 166f3 .cfa: $rsp 24 +
STACK CFI 166f5 .cfa: $rsp 16 +
STACK CFI 166f7 .cfa: $rsp 8 +
STACK CFI 16700 .cfa: $rsp 80 +
STACK CFI INIT 168d0 9 .cfa: $rsp 8 + .ra: .cfa -8 + ^
STACK CFI INIT 168e0 578 .cfa: $rsp 8 + .ra: .cfa -8 + ^
STACK CFI 168e2 $r14: .cfa -16 + ^ .cfa: $rsp 16 +
STACK CFI 168e4 $r13: .cfa -24 + ^ .cfa: $rsp 24 +
STACK CFI 168e6 $r12: .cfa -32 + ^ .cfa: $rsp 32 +
STACK CFI 168e7 $rbp: .cfa -40 + ^ .cfa: $rsp 40 +
STACK CFI 168e8 $rbx: .cfa -48 + ^ .cfa: $rsp 48 +
STACK CFI 168ec .cfa: $rsp 80 +
STACK CFI 1693e .cfa: $rsp 48 +
STACK CFI 1693f .cfa: $rsp 40 +
STACK CFI 16940 .cfa: $rsp 32 +
STACK CFI 16942 .cfa: $rsp 24 +
STACK CFI 16944 .cfa: $rsp 16 +
STACK CFI 16946 .cfa: $rsp 8 +
STACK CFI 16950 .cfa: $rsp 80 +
STACK CFI INIT 16e60 483 .cfa: $rsp 8 + .ra: .cfa -8 + ^
STACK CFI 16e62 $r15: .cfa -16 + ^ .cfa: $rsp 16 +
STACK CFI 16e64 $r14: .cfa -24 + ^ .cfa: $rsp 24 +
STACK CFI 16e66 $r13: .cfa -32 + ^ .cfa: $rsp 32 +
STACK CFI 16e68 $r12: .cfa -40 + ^ .cfa: $rsp 40 +
STACK CFI 16e69 $rbp: .cfa -48 + ^ .cfa: $rsp 48 +
STACK CFI 16e6a $rbx: .cfa -56 + ^ .cfa: $rsp 56 +
STACK CFI 16e6e .cfa: $rsp 96 +
STACK CFI 16ec0 .cfa: $rsp 56 +
STACK CFI 16ec1 .cfa: $rsp 48 +
STACK CFI 16ec2 .cfa: $rsp 40 +
STACK CFI 16ec4 .cfa: $rsp 32 +
STACK CFI 16ec6 .cfa: $rsp 24 +
STACK CFI 16ec8 .cfa: $rsp 16 +
STACK CFI 16eca .cfa: $rsp 8 +
STACK CFI 16ed0 .cfa: $rsp 96 +
STACK CFI INIT 172f0 1cf .cfa: $rsp 8 + .ra: .cfa -8 + ^
STACK CFI 172f1 $rbp: .cfa -16 + ^ .cfa: $rsp 16 +
STACK CFI 172f2 $rbx: .cfa -24 + ^ .cfa: $rsp 24 +
STACK CFI 172f6 .cfa: $rsp 48 +
STACK CFI 1736a .cfa: $rsp 24 +
STACK CFI 1736b .cfa: $rsp 16 +
STACK CFI 1736c .cfa: $rsp 8 +
STACK CFI 17370 .cfa: $rsp 48 +
STACK CFI INIT 174c0 72a .cfa: $rsp 8 + .ra: .cfa -8 + ^
STACK CFI 174c2 $r14: .cfa -16 + ^ .cfa: $rsp 16 +
STACK CFI 174c4 $r13: .cfa -24 + ^ .cfa: $rsp 24 +
STACK CFI 174c6 $r12: .cfa -32 + ^ .cfa: $rsp 32 +
STACK CFI 174c7 $rbp: .cfa -40 + ^ .cfa: $rsp 40 +
STACK CFI 174c8 $rbx: .cfa -48 + ^ .cfa: $rsp 48 +
STACK CFI 174cc .cfa: $rsp 112 +
STACK CFI 1753e .cfa: $rsp 48 +
STACK CFI 1753f .cfa: $rsp 40 +
STACK CFI 17540 .cfa: $rsp 32 +
STACK CFI 17542 .cfa: $rsp 24 +
STACK CFI 17544 .cfa: $rsp 16 +
STACK CFI 17546 .cfa: $rsp 8 +
STACK CFI 17550 .cfa: $rsp 112 +
STACK CFI INIT 17bf0 10b .cfa: $rsp 8 + .ra: .cfa -8 + ^
STACK CFI 17bf2 $r12: .cfa -16 + ^ .cfa: $rsp 16 +
STACK CFI 17bf3 $rbp: .cfa -24 + ^ .cfa: $rsp 24 +
STACK CFI 17bf4 $rbx: .cfa -32 + ^ .cfa: $rsp 32 +
STACK CFI 17bf8 .cfa: $rsp 48 +
STACK CFI 17c67 .cfa: $rsp 32 +
STACK CFI 17c68 .cfa: $rsp 24 +
STACK CFI 17c69 .cfa: $rsp 16 +
STACK CFI 17c6b .cfa: $rsp 8 +
STACK CFI 17c70 .cfa: $rsp 48 +
STACK CFI INIT 1f8c0 31b .cfa: $rsp 8 + .ra: .cfa -8 + ^
STACK CFI 1f8c2 $r15: .cfa -16 + ^ .cfa: $rsp 16 +
STACK CFI 1f8c4 $r14: .cfa -24 + ^ .cfa: $rsp 24 +
STACK CFI 1f8c9 $r13: .cfa -32 + ^ .cfa: $rsp 32 +
STACK CFI 1f8cb $r12: .cfa -40 + ^ .cfa: $rsp 40 +
STACK CFI 1f8cf $rbp: .cfa -48 + ^ .cfa: $rsp 48 +
STACK CFI 1f8d0 $rbx: .cfa -56 + ^ .cfa: $rsp 56 +
STACK CFI 1f8da .cfa: $rsp 192 +
STACK CFI 1fa7e .cfa: $rsp 56 +
STACK CFI 1fa7f .cfa: $rsp 48 +
STACK CFI 1fa80 .cfa: $rsp 40 +
STACK CFI 1fa82 .cfa: $rsp 32 +
STACK CFI 1fa84 .cfa: $rsp 24 +
STACK CFI 1fa86 .cfa: $rsp 16 +
STACK CFI 1fa88 .cfa: $rsp 8 +
STACK CFI 1fa90 .cfa: $rsp 192 +
STACK CFI INIT 17d00 5 .cfa: $rsp 8 + .ra: .cfa -8 + ^
STACK CFI INIT 17d10 6 .cfa: $rsp 8 + .ra: .cfa -8 + ^
STACK CFI INIT 1fbe0 32b .cfa: $rsp 8 + .ra: .cfa -8 + ^
STACK CFI 1fbe2 $r15: .cfa -16 + ^ .cfa: $rsp 16 +
STACK CFI 1fbe4 $r14: .cfa -24 + ^ .cfa: $rsp 24 +
STACK CFI 1fbe9 $r13: .cfa -32 + ^ .cfa: $rsp 32 +
STACK CFI 1fbeb $r12: .cfa -40 + ^ .cfa: $rsp 40 +
STACK CFI 1fbef $rbp: .cfa -48 + ^ .cfa: $rsp 48 +
STACK CFI 1fbf0 $rbx: .cfa -56 + ^ .cfa: $rsp 56 +
STACK CFI 1fbfa .cfa: $rsp 192 +
STACK CFI 1fda0 .cfa: $rsp 56 +
STACK CFI 1fda1 .cfa: $rsp 48 +
STACK CFI 1fda2 .cfa: $rsp 40 +
STACK CFI 1fda4 .cfa: $rsp 32 +
STACK CFI 1fda6 .cfa: $rsp 24 +
STACK CFI 1fda8 .cfa: $rsp 16 +
STACK CFI 1fdaa .cfa: $rsp 8 +
STACK CFI 1fdb0 .cfa: $rsp 192 +
STACK CFI INIT 17d20 5 .cfa: $rsp 8 + .ra: .cfa -8 + ^
STACK CFI INIT 17d30 6 .cfa: $rsp 8 + .ra: .cfa -8 + ^
STACK CFI INIT 1ff10 32b .cfa: $rsp 8 + .ra: .cfa -8 + ^
STACK CFI 1ff12 $r15: .cfa -16 + ^ .cfa: $rsp 16 +
STACK CFI 1ff14 $r14: .cfa -24 + ^ .cfa: $rsp 24 +
STACK CFI 1ff19 $r13: .cfa -32 + ^ .cfa: $rsp 32 +
STACK CFI 1ff1b $r12: .cfa -40 + ^ .cfa: $rsp 40 +
STACK CFI 1ff1f $rbp: .cfa -48 + ^ .cfa: $rsp 48 +
STACK CFI 1ff20 $rbx: .cfa -56 + ^ .cfa: $rsp 56 +
STACK CFI 1ff2a .cfa: $rsp 192 +
STACK CFI 200d1 .cfa: $rsp 56 +
STACK CFI 200d2 .cfa: $rsp 48 +
STACK CFI 200d3 .cfa: $rsp 40 +
STACK CFI 200d5 .cfa: $rsp 32 +
STACK CFI 200d7 .cfa: $rsp 24 +
STACK CFI 200d9 .cfa: $rsp 16 +
STACK CFI 200db .cfa: $rsp 8 +
STACK CFI 200e0 .cfa: $rsp 192 +
STACK CFI INIT 17d40 5 .cfa: $rsp 8 + .ra: .cfa -8 + ^
STACK CFI INIT 17d50 6 .cfa: $rsp 8 + .ra: .cfa -8 + ^
STACK CFI INIT 20240 33b .cfa: $rsp 8 + .ra: .cfa -8 + ^
STACK CFI 20242 $r15: .cfa -16 + ^ .cfa: $rsp 16 +
STACK CFI 20244 $r14: .cfa -24 + ^ .cfa: $rsp 24 +
STACK CFI 20249 $r13: .cfa -32 + ^ .cfa: $rsp 32 +
STACK CFI 2024b $r12: .cfa -40 + ^ .cfa: $rsp 40 +
STACK CFI 2024f $rbp: .cfa -48 + ^ .cfa: $rsp 48 +
STACK CFI 20250 $rbx: .cfa -56 + ^ .cfa: $rsp 56 +
STACK CFI 2025a .cfa: $rsp 192 +
STACK CFI 20401 .cfa: $rsp 56 +
STACK CFI 20402 .cfa: $rsp 48 +
STACK CFI 20403 .cfa: $rsp 40 +
STACK CFI 20405 .cfa: $rsp 32 +
STACK CFI 20407 .cfa: $rsp 24 +
STACK CFI 20409 .cfa: $rsp 16 +
STACK CFI 2040b .cfa: $rsp 8 +
STACK CFI 20410 .cfa: $rsp 192 +
STACK CFI INIT 17d60 5 .cfa: $rsp 8 + .ra: .cfa -8 + ^
STACK CFI INIT 17d70 6 .cfa: $rsp 8 + .ra: .cfa -8 + ^
STACK CFI INIT 20580 152 .cfa: $rsp 8 + .ra: .cfa -8 + ^
STACK CFI 20582 $r15: .cfa -16 + ^ .cfa: $rsp 16 +
STACK CFI 20584 $r14: .cfa -24 + ^ .cfa: $rsp 24 +
STACK CFI 20589 $r13: .cfa -32 + ^ .cfa: $rsp 32 +
STACK CFI 2058b $r12: .cfa -40 + ^ .cfa: $rsp 40 +
STACK CFI 2058f $rbp: .cfa -48 + ^ .cfa: $rsp 48 +
STACK CFI 20590 $rbx: .cfa -56 + ^ .cfa: $rsp 56 +
STACK CFI 205a0 .cfa: $rsp 96 +
STACK CFI 2064b .cfa: $rsp 56 +
STACK CFI 2064c .cfa: $rsp 48 +
STACK CFI 2064d .cfa: $rsp 40 +
STACK CFI 2064f .cfa: $rsp 32 +
STACK CFI 20651 .cfa: $rsp 24 +
STACK CFI 20653 .cfa: $rsp 16 +
STACK CFI 20655 .cfa: $rsp 8 +
STACK CFI 20660 .cfa: $rsp 96 +
STACK CFI INIT 17d80 17f .cfa: $rsp 8 + .ra: .cfa -8 + ^
STACK CFI 17d82 $r12: .cfa -16 + ^ .cfa: $rsp 16 +
STACK CFI 17d83 $rbp: .cfa -24 + ^ .cfa: $rsp 24 +
STACK CFI 17d84 $rbx: .cfa -32 + ^ .cfa: $rsp 32 +
STACK CFI 17d88 .cfa: $rsp 112 +
STACK CFI 17dea .cfa: $rsp 32 +
STACK CFI 17deb .cfa: $rsp 24 +
STACK CFI 17dec .cfa: $rsp 16 +
STACK CFI 17dee .cfa: $rsp 8 +
STACK CFI 17df0 .cfa: $rsp 112 +
STACK CFI INIT 17f00 19 .cfa: $rsp 8 + .ra: .cfa -8 + ^
STACK CFI 17f04 .cfa: $rsp 16 +
STACK CFI 17f18 .cfa: $rsp 8 +
STACK CFI INIT 17f20 6 .cfa: $rsp 8 + .ra: .cfa -8 + ^
STACK CFI INIT 17f30 17f .cfa: $rsp 8 + .ra: .cfa -8 + ^
STACK CFI 17f32 $r12: .cfa -16 + ^ .cfa: $rsp 16 +
STACK CFI 17f33 $rbp: .cfa -24 + ^ .cfa: $rsp 24 +
STACK CFI 17f34 $rbx: .cfa -32 + ^ .cfa: $rsp 32 +
STACK CFI 17f38 .cfa: $rsp 112 +
STACK CFI 17f99 .cfa: $rsp 32 +
STACK CFI 17f9a .cfa: $rsp 24 +
STACK CFI 17f9b .cfa: $rsp 16 +
STACK CFI 17f9d .cfa: $rsp 8 +
STACK CFI 17fa0 .cfa: $rsp 112 +
STACK CFI INIT 180b0 17f .cfa: $rsp 8 + .ra: .cfa -8 + ^
STACK CFI 180b2 $r12: .cfa -16 + ^ .cfa: $rsp 16 +
STACK CFI 180b3 $rbp: .cfa -24 + ^ .cfa: $rsp 24 +
STACK CFI 180b4 $rbx: .cfa -32 + ^ .cfa: $rsp 32 +
STACK CFI 180b8 .cfa: $rsp 112 +
STACK CFI 1811a .cfa: $rsp 32 +
STACK CFI 1811b .cfa: $rsp 24 +
STACK CFI 1811c .cfa: $rsp 16 +
STACK CFI 1811e .cfa: $rsp 8 +
STACK CFI 18120 .cfa: $rsp 112 +
STACK CFI INIT 18230 19 .cfa: $rsp 8 + .ra: .cfa -8 + ^
STACK CFI 18234 .cfa: $rsp 16 +
STACK CFI 18248 .cfa: $rsp 8 +
STACK CFI INIT 18250 6 .cfa: $rsp 8 + .ra: .cfa -8 + ^
STACK CFI INIT 18260 17f .cfa: $rsp 8 + .ra: .cfa -8 + ^
STACK CFI 18262 $r12: .cfa -16 + ^ .cfa: $rsp 16 +
STACK CFI 18263 $rbp: .cfa -24 + ^ .cfa: $rsp 24 +
STACK CFI 18264 $rbx: .cfa -32 + ^ .cfa: $rsp 32 +
STACK CFI 18268 .cfa: $rsp 112 +
STACK CFI 182c9 .cfa: $rsp 32 +
STACK CFI 182ca .cfa: $rsp 24 +
STACK CFI 182cb .cfa: $rsp 16 +
STACK CFI 182cd .cfa: $rsp 8 +
STACK CFI 182d0 .cfa: $rsp 112 +
STACK CFI INIT 206e0 1ac .cfa: $rsp 8 + .ra: .cfa -8 + ^
STACK CFI 206e2 $r15: .cfa -16 + ^ .cfa: $rsp 16 +
STACK CFI 206e4 $r14: .cfa -24 + ^ .cfa: $rsp 24 +
STACK CFI 206e9 $r13: .cfa -32 + ^ .cfa: $rsp 32 +
STACK CFI 206eb $r12: .cfa -40 + ^ .cfa: $rsp 40 +
STACK CFI 206ef $rbp: .cfa -48 + ^ .cfa: $rsp 48 +
STACK CFI 206f0 $rbx: .cfa -56 + ^ .cfa: $rsp 56 +
STACK CFI 206ff .cfa: $rsp 96 +
STACK CFI 20790 .cfa: $rsp 56 +
STACK CFI 20791 .cfa: $rsp 48 +
STACK CFI 20792 .cfa: $rsp 40 +
STACK CFI 20794 .cfa: $rsp 32 +
STACK CFI 20796 .cfa: $rsp 24 +
STACK CFI 20798 .cfa: $rsp 16 +
STACK CFI 2079a .cfa: $rsp 8 +
STACK CFI 207a0 .cfa: $rsp 96 +
STACK CFI INIT 183e0 1ad .cfa: $rsp 8 + .ra: .cfa -8 + ^
STACK CFI 183e2 $r13: .cfa -16 + ^ .cfa: $rsp 16 +
STACK CFI 183e4 $r12: .cfa -24 + ^ .cfa: $rsp 24 +
STACK CFI 183e5 $rbp: .cfa -32 + ^ .cfa: $rsp 32 +
STACK CFI 183e6 $rbx: .cfa -40 + ^ .cfa: $rsp 40 +
STACK CFI 183ea .cfa: $rsp 80 +
STACK CFI 18451 .cfa: $rsp 40 +
STACK CFI 18452 .cfa: $rsp 32 +
STACK CFI 18453 .cfa: $rsp 24 +
STACK CFI 18455 .cfa: $rsp 16 +
STACK CFI 18457 .cfa: $rsp 8 +
STACK CFI 18460 .cfa: $rsp 80 +
STACK CFI INIT 18590 19 .cfa: $rsp 8 + .ra: .cfa -8 + ^
STACK CFI 18594 .cfa: $rsp 16 +
STACK CFI 185a8 .cfa: $rsp 8 +
STACK CFI INIT 185b0 6 .cfa: $rsp 8 + .ra: .cfa -8 + ^
STACK CFI INIT 185c0 1ad .cfa: $rsp 8 + .ra: .cfa -8 + ^
STACK CFI 185c2 $r13: .cfa -16 + ^ .cfa: $rsp 16 +
STACK CFI 185c4 $r12: .cfa -24 + ^ .cfa: $rsp 24 +
STACK CFI 185c5 $rbp: .cfa -32 + ^ .cfa: $rsp 32 +
STACK CFI 185c6 $rbx: .cfa -40 + ^ .cfa: $rsp 40 +
STACK CFI 185ca .cfa: $rsp 80 +
STACK CFI 18631 .cfa: $rsp 40 +
STACK CFI 18632 .cfa: $rsp 32 +
STACK CFI 18633 .cfa: $rsp 24 +
STACK CFI 18635 .cfa: $rsp 16 +
STACK CFI 18637 .cfa: $rsp 8 +
STACK CFI 18640 .cfa: $rsp 80 +
STACK CFI INIT 18770 19 .cfa: $rsp 8 + .ra: .cfa -8 + ^
STACK CFI 18774 .cfa: $rsp 16 +
STACK CFI 18788 .cfa: $rsp 8 +
STACK CFI INIT 18790 6 .cfa: $rsp 8 + .ra: .cfa -8 + ^
STACK CFI INIT 20890 55 .cfa: $rsp 8 + .ra: .cfa -8 + ^
STACK CFI 20892 $r12: .cfa -16 + ^ .cfa: $rsp 16 +
STACK CFI 20893 $rbp: .cfa -24 + ^ .cfa: $rsp 24 +
STACK CFI 20894 $rbx: .cfa -32 + ^ .cfa: $rsp 32 +
STACK CFI 208cf .cfa: $rsp 24 +
STACK CFI 208d0 .cfa: $rsp 16 +
STACK CFI 208d2 .cfa: $rsp 8 +
STACK CFI 208e0 .cfa: $rsp 32 +
STACK CFI 208e1 .cfa: $rsp 24 +
STACK CFI 208e2 .cfa: $rsp 16 +
STACK CFI 208e4 .cfa: $rsp 8 +
STACK CFI INIT 208f0 33f .cfa: $rsp 8 + .ra: .cfa -8 + ^
STACK CFI 208f2 $r13: .cfa -16 + ^ .cfa: $rsp 16 +
STACK CFI 208f4 $r12: .cfa -24 + ^ .cfa: $rsp 24 +
STACK CFI 208f8 $rbp: .cfa -32 + ^ .cfa: $rsp 32 +
STACK CFI 208f9 $rbx: .cfa -40 + ^ .cfa: $rsp 40 +
STACK CFI 20900 .cfa: $rsp 80 +
STACK CFI 20a08 .cfa: $rsp 40 +
STACK CFI 20a09 .cfa: $rsp 32 +
STACK CFI 20a0a .cfa: $rsp 24 +
STACK CFI 20a0c .cfa: $rsp 16 +
STACK CFI 20a0e .cfa: $rsp 8 +
STACK CFI 20a10 .cfa: $rsp 80 +
STACK CFI INIT 187a0 36 .cfa: $rsp 8 + .ra: .cfa -8 + ^
STACK CFI 187a4 .cfa: $rsp 32 +
STACK CFI 187d0 .cfa: $rsp 8 +
STACK CFI 187d1 .cfa: $rsp 32 +
STACK CFI INIT 20c30 33f .cfa: $rsp 8 + .ra: .cfa -8 + ^
STACK CFI 20c32 $r13: .cfa -16 + ^ .cfa: $rsp 16 +
STACK CFI 20c34 $r12: .cfa -24 + ^ .cfa: $rsp 24 +
STACK CFI 20c38 $rbp: .cfa -32 + ^ .cfa: $rsp 32 +
STACK CFI 20c39 $rbx: .cfa -40 + ^ .cfa: $rsp 40 +
STACK CFI 20c40 .cfa: $rsp 80 +
STACK CFI 20d48 .cfa: $rsp 40 +
STACK CFI 20d49 .cfa: $rsp 32 +
STACK CFI 20d4a .cfa: $rsp 24 +
STACK CFI 20d4c .cfa: $rsp 16 +
STACK CFI 20d4e .cfa: $rsp 8 +
STACK CFI 20d50 .cfa: $rsp 80 +
STACK CFI INIT 187e0 36 .cfa: $rsp 8 + .ra: .cfa -8 + ^
STACK CFI 187e4 .cfa: $rsp 32 +
STACK CFI 18810 .cfa: $rsp 8 +
STACK CFI 18811 .cfa: $rsp 32 +
STACK CFI INIT 20f70 33f .cfa: $rsp 8 + .ra: .cfa -8 + ^
STACK CFI 20f72 $r13: .cfa -16 + ^ .cfa: $rsp 16 +
STACK CFI 20f74 $r12: .cfa -24 + ^ .cfa: $rsp 24 +
STACK CFI 20f78 $rbp: .cfa -32 + ^ .cfa: $rsp 32 +
STACK CFI 20f79 $rbx: .cfa -40 + ^ .cfa: $rsp 40 +
STACK CFI 20f80 .cfa: $rsp 80 +
STACK CFI 21088 .cfa: $rsp 40 +
STACK CFI 21089 .cfa: $rsp 32 +
STACK CFI 2108a .cfa: $rsp 24 +
STACK CFI 2108c .cfa: $rsp 16 +
STACK CFI 2108e .cfa: $rsp 8 +
STACK CFI 21090 .cfa: $rsp 80 +
STACK CFI INIT 18820 36 .cfa: $rsp 8 + .ra: .cfa -8 + ^
STACK CFI 18824 .cfa: $rsp 32 +
STACK CFI 18850 .cfa: $rsp 8 +
STACK CFI 18851 .cfa: $rsp 32 +
STACK CFI INIT 212b0 33f .cfa: $rsp 8 + .ra: .cfa -8 + ^
STACK CFI 212b2 $r13: .cfa -16 + ^ .cfa: $rsp 16 +
STACK CFI 212b4 $r12: .cfa -24 + ^ .cfa: $rsp 24 +
STACK CFI 212b8 $rbp: .cfa -32 + ^ .cfa: $rsp 32 +
STACK CFI 212b9 $rbx: .cfa -40 + ^ .cfa: $rsp 40 +
STACK CFI 212c0 .cfa: $rsp 80 +
STACK CFI 213c8 .cfa: $rsp 40 +
STACK CFI 213c9 .cfa: $rsp 32 +
STACK CFI 213ca .cfa: $rsp 24 +
STACK CFI 213cc .cfa: $rsp 16 +
STACK CFI 213ce .cfa: $rsp 8 +
STACK CFI 213d0 .cfa: $rsp 80 +
STACK CFI INIT 18860 36 .cfa: $rsp 8 + .ra: .cfa -8 + ^
STACK CFI 18864 .cfa: $rsp 32 +
STACK CFI 18890 .cfa: $rsp 8 +
STACK CFI 18891 .cfa: $rsp 32 +
STACK CFI INIT 215f0 33f .cfa: $rsp 8 + .ra: .cfa -8 + ^
STACK CFI 215f2 $r13: .cfa -16 + ^ .cfa: $rsp 16 +
STACK CFI 215f4 $r12: .cfa -24 + ^ .cfa: $rsp 24 +
STACK CFI 215f8 $rbp: .cfa -32 + ^ .cfa: $rsp 32 +
STACK CFI 215f9 $rbx: .cfa -40 + ^ .cfa: $rsp 40 +
STACK CFI 21600 .cfa: $rsp 80 +
STACK CFI 21708 .cfa: $rsp 40 +
STACK CFI 21709 .cfa: $rsp 32 +
STACK CFI 2170a .cfa: $rsp 24 +
STACK CFI 2170c .cfa: $rsp 16 +
STACK CFI 2170e .cfa: $rsp 8 +
STACK CFI 21710 .cfa: $rsp 80 +
STACK CFI INIT 188a0 36 .cfa: $rsp 8 + .ra: .cfa -8 + ^
STACK CFI 188a4 .cfa: $rsp 32 +
STACK CFI 188d0 .cfa: $rsp 8 +
STACK CFI 188d1 .cfa: $rsp 32 +
STACK CFI INIT 21930 3a .cfa: $rsp 8 + .ra: .cfa -8 + ^
STACK CFI 21937 $r12: .cfa -16 + ^ .cfa: $rsp 16 +
STACK CFI 2193b $rbp: .cfa -24 + ^ .cfa: $rsp 24 +
STACK CFI 2193c $rbx: .cfa -32 + ^ .cfa: $rsp 32 +
STACK CFI 21960 .cfa: $rsp 24 +
STACK CFI 21961 .cfa: $rsp 16 +
STACK CFI 21963 .cfa: $rsp 8 +
STACK CFI 21968 $r12: $r12 $rbp: $rbp $rbx: $rbx
STACK CFI INIT 188e0 b3 .cfa: $rsp 8 + .ra: .cfa -8 + ^
STACK CFI 188e2 $r13: .cfa -16 + ^ .cfa: $rsp 16 +
STACK CFI 188e4 $r12: .cfa -24 + ^ .cfa: $rsp 24 +
STACK CFI 188e5 $rbp: .cfa -32 + ^ .cfa: $rsp 32 +
STACK CFI 188e6 $rbx: .cfa -40 + ^ .cfa: $rsp 40 +
STACK CFI 188ed .cfa: $rsp 48 +
STACK CFI 18984 .cfa: $rsp 40 +
STACK CFI 18989 .cfa: $rsp 32 +
STACK CFI 1898a .cfa: $rsp 24 +
STACK CFI 1898c .cfa: $rsp 16 +
STACK CFI 1898e .cfa: $rsp 8 +
STACK CFI INIT 189a0 17 .cfa: $rsp 8 + .ra: .cfa -8 + ^
STACK CFI 189a1 $rbx: .cfa -16 + ^ .cfa: $rsp 16 +
STACK CFI 189b2 .cfa: $rsp 8 +
STACK CFI INIT 21970 3a .cfa: $rsp 8 + .ra: .cfa -8 + ^
STACK CFI 21977 $r12: .cfa -16 + ^ .cfa: $rsp 16 +
STACK CFI 2197b $rbp: .cfa -24 + ^ .cfa: $rsp 24 +
STACK CFI 2197c $rbx: .cfa -32 + ^ .cfa: $rsp 32 +
STACK CFI 219a0 .cfa: $rsp 24 +
STACK CFI 219a1 .cfa: $rsp 16 +
STACK CFI 219a3 .cfa: $rsp 8 +
STACK CFI 219a8 $r12: $r12 $rbp: $rbp $rbx: $rbx
STACK CFI INIT 189c0 dd .cfa: $rsp 8 + .ra: .cfa -8 + ^
STACK CFI 189c9 $r12: .cfa -16 + ^ .cfa: $rsp 16 +
STACK CFI 189ca $rbp: .cfa -24 + ^ .cfa: $rsp 24 +
STACK CFI 189cb $rbx: .cfa -32 + ^ .cfa: $rsp 32 +
STACK CFI 18a83 .cfa: $rsp 24 +
STACK CFI 18a8c .cfa: $rsp 16 +
STACK CFI 18a8e .cfa: $rsp 8 +
STACK CFI 18a98 .cfa: $rsp 32 +
STACK CFI 18a99 .cfa: $rsp 24 +
STACK CFI 18a9a .cfa: $rsp 16 +
STACK CFI 18a9c .cfa: $rsp 8 +
STACK CFI INIT 18aa0 9 .cfa: $rsp 8 + .ra: .cfa -8 + ^
STACK CFI INIT 18ab0 17 .cfa: $rsp 8 + .ra: .cfa -8 + ^
STACK CFI 18ab1 $rbx: .cfa -16 + ^ .cfa: $rsp 16 +
STACK CFI 18ac2 .cfa: $rsp 8 +
STACK CFI INIT 18ad0 6 .cfa: $rsp 8 + .ra: .cfa -8 + ^
STACK CFI INIT 18ae0 e5 .cfa: $rsp 8 + .ra: .cfa -8 + ^
STACK CFI 18ae2 $r12: .cfa -16 + ^ .cfa: $rsp 16 +
STACK CFI 18aea $rbp: .cfa -24 + ^ .cfa: $rsp 24 +
STACK CFI 18aeb $rbx: .cfa -32 + ^ .cfa: $rsp 32 +
STACK CFI 18bb0 .cfa: $rsp 24 +
STACK CFI 18bb9 .cfa: $rsp 16 +
STACK CFI 18bbb .cfa: $rsp 8 +
STACK CFI 18bc0 .cfa: $rsp 32 +
STACK CFI 18bc1 .cfa: $rsp 24 +
STACK CFI 18bc2 .cfa: $rsp 16 +
STACK CFI 18bc4 .cfa: $rsp 8 +
STACK CFI INIT 18bd0 17 .cfa: $rsp 8 + .ra: .cfa -8 + ^
STACK CFI 18bd1 $rbx: .cfa -16 + ^ .cfa: $rsp 16 +
STACK CFI 18be2 .cfa: $rsp 8 +
STACK CFI INIT 18bf0 a5 .cfa: $rsp 8 + .ra: .cfa -8 + ^
STACK CFI 18bf9 $r12: .cfa -16 + ^ .cfa: $rsp 16 +
STACK CFI 18bfa $rbp: .cfa -24 + ^ .cfa: $rsp 24 +
STACK CFI 18bfb $rbx: .cfa -32 + ^ .cfa: $rsp 32 +
STACK CFI 18c80 .cfa: $rsp 24 +
STACK CFI 18c89 .cfa: $rsp 16 +
STACK CFI 18c8b .cfa: $rsp 8 +
STACK CFI 18c90 .cfa: $rsp 32 +
STACK CFI 18c91 .cfa: $rsp 24 +
STACK CFI 18c92 .cfa: $rsp 16 +
STACK CFI 18c94 .cfa: $rsp 8 +
STACK CFI INIT 18ca0 9 .cfa: $rsp 8 + .ra: .cfa -8 + ^
STACK CFI INIT 18cb0 17 .cfa: $rsp 8 + .ra: .cfa -8 + ^
STACK CFI 18cb1 $rbx: .cfa -16 + ^ .cfa: $rsp 16 +
STACK CFI 18cc2 .cfa: $rsp 8 +
STACK CFI INIT 18cd0 6 .cfa: $rsp 8 + .ra: .cfa -8 + ^
STACK CFI INIT 18ce0 95 .cfa: $rsp 8 + .ra: .cfa -8 + ^
STACK CFI 18ce2 $r12: .cfa -16 + ^ .cfa: $rsp 16 +
STACK CFI 18cea $rbp: .cfa -24 + ^ .cfa: $rsp 24 +
STACK CFI 18ceb $rbx: .cfa -32 + ^ .cfa: $rsp 32 +
STACK CFI 18d60 .cfa: $rsp 24 +
STACK CFI 18d69 .cfa: $rsp 16 +
STACK CFI 18d6b .cfa: $rsp 8 +
STACK CFI 18d70 .cfa: $rsp 32 +
STACK CFI 18d71 .cfa: $rsp 24 +
STACK CFI 18d72 .cfa: $rsp 16 +
STACK CFI 18d74 .cfa: $rsp 8 +
STACK CFI INIT 18d80 17 .cfa: $rsp 8 + .ra: .cfa -8 + ^
STACK CFI 18d81 $rbx: .cfa -16 + ^ .cfa: $rsp 16 +
STACK CFI 18d92 .cfa: $rsp 8 +
STACK CFI INIT 219b0 62 .cfa: $rsp 8 + .ra: .cfa -8 + ^
STACK CFI 219b7 $r12: .cfa -16 + ^ .cfa: $rsp 16 +
STACK CFI 219bb $rbp: .cfa -24 + ^ .cfa: $rsp 24 +
STACK CFI 219bc $rbx: .cfa -32 + ^ .cfa: $rsp 32 +
STACK CFI 21a04 .cfa: $rsp 24 +
STACK CFI 21a05 .cfa: $rsp 16 +
STACK CFI 21a07 .cfa: $rsp 8 +
STACK CFI 21a10 $r12: $r12 $rbp: $rbp $rbx: $rbx
STACK CFI INIT 21a20 16f .cfa: $rsp 8 + .ra: .cfa -8 + ^
STACK CFI 21a22 $r15: .cfa -16 + ^ .cfa: $rsp 16 +
STACK CFI 21a24 $r14: .cfa -24 + ^ .cfa: $rsp 24 +
STACK CFI 21a29 $r13: .cfa -32 + ^ .cfa: $rsp 32 +
STACK CFI 21a2b $r12: .cfa -40 + ^ .cfa: $rsp 40 +
STACK CFI 21a33 $rbp: .cfa -48 + ^ .cfa: $rsp 48 +
STACK CFI 21a34 $rbx: .cfa -56 + ^ .cfa: $rsp 56 +
STACK CFI 21a38 .cfa: $rsp 64 +
STACK CFI 21b6f .cfa: $rsp 56 +
STACK CFI 21b70 .cfa: $rsp 48 +
STACK CFI 21b71 .cfa: $rsp 40 +
STACK CFI 21b73 .cfa: $rsp 32 +
STACK CFI 21b75 .cfa: $rsp 24 +
STACK CFI 21b77 .cfa: $rsp 16 +
STACK CFI 21b79 .cfa: $rsp 8 +
STACK CFI 21b80 .cfa: $rsp 64 +
STACK CFI 21b84 .cfa: $rsp 56 +
STACK CFI 21b85 .cfa: $rsp 48 +
STACK CFI 21b86 .cfa: $rsp 40 +
STACK CFI 21b88 .cfa: $rsp 32 +
STACK CFI 21b8a .cfa: $rsp 24 +
STACK CFI 21b8c .cfa: $rsp 16 +
STACK CFI 21b8e .cfa: $rsp 8 +
STACK CFI INIT 21b90 16b .cfa: $rsp 8 + .ra: .cfa -8 + ^
STACK CFI 21b92 $r15: .cfa -16 + ^ .cfa: $rsp 16 +
STACK CFI 21b94 $r14: .cfa -24 + ^ .cfa: $rsp 24 +
STACK CFI 21b99 $r13: .cfa -32 + ^ .cfa: $rsp 32 +
STACK CFI 21b9b $r12: .cfa -40 + ^ .cfa: $rsp 40 +
STACK CFI 21ba3 $rbp: .cfa -48 + ^ .cfa: $rsp 48 +
STACK CFI 21ba4 $rbx: .cfa -56 + ^ .cfa: $rsp 56 +
STACK CFI 21ba8 .cfa: $rsp 64 +
STACK CFI 21ce4 .cfa: $rsp 56 +
STACK CFI 21ced .cfa: $rsp 48 +
STACK CFI 21cee .cfa: $rsp 40 +
STACK CFI 21cf0 .cfa: $rsp 32 +
STACK CFI 21cf2 .cfa: $rsp 24 +
STACK CFI 21cf4 .cfa: $rsp 16 +
STACK CFI 21cf6 .cfa: $rsp 8 +
STACK CFI INIT 21d00 12e .cfa: $rsp 8 + .ra: .cfa -8 + ^
STACK CFI 21d02 $r15: .cfa -16 + ^ .cfa: $rsp 16 +
STACK CFI 21d04 $r14: .cfa -24 + ^ .cfa: $rsp 24 +
STACK CFI 21d09 $r13: .cfa -32 + ^ .cfa: $rsp 32 +
STACK CFI 21d0b $r12: .cfa -40 + ^ .cfa: $rsp 40 +
STACK CFI 21d0f $rbp: .cfa -48 + ^ .cfa: $rsp 48 +
STACK CFI 21d10 $rbx: .cfa -56 + ^ .cfa: $rsp 56 +
STACK CFI 21d17 .cfa: $rsp 80 +
STACK CFI 21ddc .cfa: $rsp 56 +
STACK CFI 21ddd .cfa: $rsp 48 +
STACK CFI 21dde .cfa: $rsp 40 +
STACK CFI 21de0 .cfa: $rsp 32 +
STACK CFI 21de2 .cfa: $rsp 24 +
STACK CFI 21de4 .cfa: $rsp 16 +
STACK CFI 21de6 .cfa: $rsp 8 +
STACK CFI 21df0 .cfa: $rsp 80 +
STACK CFI INIT 21e30 13e .cfa: $rsp 8 + .ra: .cfa -8 + ^
STACK CFI 21e32 $r15: .cfa -16 + ^ .cfa: $rsp 16 +
STACK CFI 21e34 $r14: .cfa -24 + ^ .cfa: $rsp 24 +
STACK CFI 21e36 $r13: .cfa -32 + ^ .cfa: $rsp 32 +
STACK CFI 21e38 $r12: .cfa -40 + ^ .cfa: $rsp 40 +
STACK CFI 21e3c $rbp: .cfa -48 + ^ .cfa: $rsp 48 +
STACK CFI 21e3d $rbx: .cfa -56 + ^ .cfa: $rsp 56 +
STACK CFI 21e51 .cfa: $rsp 80 +
STACK CFI 21f24 .cfa: $rsp 56 +
STACK CFI 21f25 .cfa: $rsp 48 +
STACK CFI 21f26 .cfa: $rsp 40 +
STACK CFI 21f28 .cfa: $rsp 32 +
STACK CFI 21f2a .cfa: $rsp 24 +
STACK CFI 21f2c .cfa: $rsp 16 +
STACK CFI 21f2e .cfa: $rsp 8 +
STACK CFI 21f30 .cfa: $rsp 80 +
STACK CFI INIT 21f70 418 .cfa: $rsp 8 + .ra: .cfa -8 + ^
STACK CFI 21f72 $r15: .cfa -16 + ^ .cfa: $rsp 16 +
STACK CFI 21f74 $r14: .cfa -24 + ^ .cfa: $rsp 24 +
STACK CFI 21f80 $r13: .cfa -32 + ^ .cfa: $rsp 32 +
STACK CFI 21f82 $r12: .cfa -40 + ^ .cfa: $rsp 40 +
STACK CFI 21f86 $rbp: .cfa -48 + ^ .cfa: $rsp 48 +
STACK CFI 21f87 $rbx: .cfa -56 + ^ .cfa: $rsp 56 +
STACK CFI 21f91 .cfa: $rsp 96 +
STACK CFI 2228e .cfa: $rsp 56 +
STACK CFI 2228f .cfa: $rsp 48 +
STACK CFI 22290 .cfa: $rsp 40 +
STACK CFI 22292 .cfa: $rsp 32 +
STACK CFI 22294 .cfa: $rsp 24 +
STACK CFI 22296 .cfa: $rsp 16 +
STACK CFI 22298 .cfa: $rsp 8 +
STACK CFI 22299 .cfa: $rsp 96 +
STACK CFI INIT 22390 4a .cfa: $rsp 8 + .ra: .cfa -8 + ^
STACK CFI 22397 $r12: .cfa -16 + ^ .cfa: $rsp 16 +
STACK CFI 2239b $rbp: .cfa -24 + ^ .cfa: $rsp 24 +
STACK CFI 2239c $rbx: .cfa -32 + ^ .cfa: $rsp 32 +
STACK CFI 223cf .cfa: $rsp 24 +
STACK CFI 223d0 .cfa: $rsp 16 +
STACK CFI 223d2 .cfa: $rsp 8 +
STACK CFI 223d8 $r12: $r12 $rbp: $rbp $rbx: $rbx
STACK CFI INIT 18da0 f6 .cfa: $rsp 8 + .ra: .cfa -8 + ^
STACK CFI 18da1 $rbp: .cfa -16 + ^ .cfa: $rsp 16 +
STACK CFI 18da2 $rbx: .cfa -24 + ^ .cfa: $rsp 24 +
STACK CFI 18da9 .cfa: $rsp 48 +
STACK CFI 18e8e .cfa: $rsp 24 +
STACK CFI 18e8f .cfa: $rsp 16 +
STACK CFI 18e90 .cfa: $rsp 8 +
STACK CFI 18e91 .cfa: $rsp 48 +
STACK CFI INIT 18ea0 17 .cfa: $rsp 8 + .ra: .cfa -8 + ^
STACK CFI 18ea1 $rbx: .cfa -16 + ^ .cfa: $rsp 16 +
STACK CFI 18eb2 .cfa: $rsp 8 +
STACK CFI INIT 223e0 28a .cfa: $rsp 8 + .ra: .cfa -8 + ^
STACK CFI 223e2 $r15: .cfa -16 + ^ .cfa: $rsp 16 +
STACK CFI 223e4 $r14: .cfa -24 + ^ .cfa: $rsp 24 +
STACK CFI 223e9 $r13: .cfa -32 + ^ .cfa: $rsp 32 +
STACK CFI 223eb $r12: .cfa -40 + ^ .cfa: $rsp 40 +
STACK CFI 223ef $rbp: .cfa -48 + ^ .cfa: $rsp 48 +
STACK CFI 223f0 $rbx: .cfa -56 + ^ .cfa: $rsp 56 +
STACK CFI 223fa .cfa: $rsp 80 +
STACK CFI 225f4 .cfa: $rsp 56 +
STACK CFI 225f5 .cfa: $rsp 48 +
STACK CFI 225f6 .cfa: $rsp 40 +
STACK CFI 225f8 .cfa: $rsp 32 +
STACK CFI 225fa .cfa: $rsp 24 +
STACK CFI 225fc .cfa: $rsp 16 +
STACK CFI 225fe .cfa: $rsp 8 +
STACK CFI 22600 .cfa: $rsp 80 +
STACK CFI INIT 18ec0 393 .cfa: $rsp 8 + .ra: .cfa -8 + ^
STACK CFI 18ec2 $r15: .cfa -16 + ^ .cfa: $rsp 16 +
STACK CFI 18ec4 $r14: .cfa -24 + ^ .cfa: $rsp 24 +
STACK CFI 18ec9 $r13: .cfa -32 + ^ .cfa: $rsp 32 +
STACK CFI 18ecb $r12: .cfa -40 + ^ .cfa: $rsp 40 +
STACK CFI 18ecc $rbp: .cfa -48 + ^ .cfa: $rsp 48 +
STACK CFI 18ecd $rbx: .cfa -56 + ^ .cfa: $rsp 56 +
STACK CFI 18ed7 .cfa: $rsp 144 +
STACK CFI 18f91 .cfa: $rsp 56 +
STACK CFI 18f92 .cfa: $rsp 48 +
STACK CFI 18f93 .cfa: $rsp 40 +
STACK CFI 18f95 .cfa: $rsp 32 +
STACK CFI 18f97 .cfa: $rsp 24 +
STACK CFI 18f99 .cfa: $rsp 16 +
STACK CFI 18f9b .cfa: $rsp 8 +
STACK CFI 18fa0 .cfa: $rsp 144 +
STACK CFI INIT 22670 316 .cfa: $rsp 8 + .ra: .cfa -8 + ^
STACK CFI 22672 $r15: .cfa -16 + ^ .cfa: $rsp 16 +
STACK CFI 22674 $r14: .cfa -24 + ^ .cfa: $rsp 24 +
STACK CFI 22676 $r13: .cfa -32 + ^ .cfa: $rsp 32 +
STACK CFI 22678 $r12: .cfa -40 + ^ .cfa: $rsp 40 +
STACK CFI 22679 $rbp: .cfa -48 + ^ .cfa: $rsp 48 +
STACK CFI 2267a $rbx: .cfa -56 + ^ .cfa: $rsp 56 +
STACK CFI 22681 .cfa: $rsp 112 +
STACK CFI 2280a .cfa: $rsp 56 +
STACK CFI 22810 .cfa: $rsp 48 +
STACK CFI 22811 .cfa: $rsp 40 +
STACK CFI 22813 .cfa: $rsp 32 +
STACK CFI 22815 .cfa: $rsp 24 +
STACK CFI 22817 .cfa: $rsp 16 +
STACK CFI 22819 .cfa: $rsp 8 +
STACK CFI 22820 .cfa: $rsp 112 +
STACK CFI 228d8 .cfa: $rsp 56 +
STACK CFI 228dc .cfa: $rsp 48 +
STACK CFI 228dd .cfa: $rsp 40 +
STACK CFI 228df .cfa: $rsp 32 +
STACK CFI 228e1 .cfa: $rsp 24 +
STACK CFI 228e3 .cfa: $rsp 16 +
STACK CFI 228e5 .cfa: $rsp 8 +
STACK CFI 228f0 .cfa: $rsp 112 +
STACK CFI INIT 19260 71e .cfa: $rsp 8 + .ra: .cfa -8 + ^
STACK CFI 19262 $r15: .cfa -16 + ^ .cfa: $rsp 16 +
STACK CFI 19264 $r14: .cfa -24 + ^ .cfa: $rsp 24 +
STACK CFI 19266 $r13: .cfa -32 + ^ .cfa: $rsp 32 +
STACK CFI 19268 $r12: .cfa -40 + ^ .cfa: $rsp 40 +
STACK CFI 1926c $rbp: .cfa -48 + ^ .cfa: $rsp 48 +
STACK CFI 1926d $rbx: .cfa -56 + ^ .cfa: $rsp 56 +
STACK CFI 1927d .cfa: $rsp 304 +
STACK CFI 19334 .cfa: $rsp 56 +
STACK CFI 19335 .cfa: $rsp 48 +
STACK CFI 19336 .cfa: $rsp 40 +
STACK CFI 19338 .cfa: $rsp 32 +
STACK CFI 1933a .cfa: $rsp 24 +
STACK CFI 1933c .cfa: $rsp 16 +
STACK CFI 1933e .cfa: $rsp 8 +
STACK CFI 19340 .cfa: $rsp 304 +
STACK CFI INIT 22990 12e .cfa: $rsp 8 + .ra: .cfa -8 + ^
STACK CFI 22992 $r15: .cfa -16 + ^ .cfa: $rsp 16 +
STACK CFI 22994 $r14: .cfa -24 + ^ .cfa: $rsp 24 +
STACK CFI 22999 $r13: .cfa -32 + ^ .cfa: $rsp 32 +
STACK CFI 2299b $r12: .cfa -40 + ^ .cfa: $rsp 40 +
STACK CFI 2299f $rbp: .cfa -48 + ^ .cfa: $rsp 48 +
STACK CFI 229a0 $rbx: .cfa -56 + ^ .cfa: $rsp 56 +
STACK CFI 229a7 .cfa: $rsp 80 +
STACK CFI 22a6d .cfa: $rsp 56 +
STACK CFI 22a6e .cfa: $rsp 48 +
STACK CFI 22a6f .cfa: $rsp 40 +
STACK CFI 22a71 .cfa: $rsp 32 +
STACK CFI 22a73 .cfa: $rsp 24 +
STACK CFI 22a75 .cfa: $rsp 16 +
STACK CFI 22a77 .cfa: $rsp 8 +
STACK CFI 22a80 .cfa: $rsp 80 +
STACK CFI INIT 19980 647 .cfa: $rsp 8 + .ra: .cfa -8 + ^
STACK CFI 19982 $r15: .cfa -16 + ^ .cfa: $rsp 16 +
STACK CFI 19984 $r14: .cfa -24 + ^ .cfa: $rsp 24 +
STACK CFI 19986 $r13: .cfa -32 + ^ .cfa: $rsp 32 +
STACK CFI 19988 $r12: .cfa -40 + ^ .cfa: $rsp 40 +
STACK CFI 1998c $rbp: .cfa -48 + ^ .cfa: $rsp 48 +
STACK CFI 1998d $rbx: .cfa -56 + ^ .cfa: $rsp 56 +
STACK CFI 19997 .cfa: $rsp 192 +
STACK CFI 19ae0 .cfa: $rsp 56 +
STACK CFI 19ae1 .cfa: $rsp 48 +
STACK CFI 19ae2 .cfa: $rsp 40 +
STACK CFI 19ae4 .cfa: $rsp 32 +
STACK CFI 19ae6 .cfa: $rsp 24 +
STACK CFI 19ae8 .cfa: $rsp 16 +
STACK CFI 19aea .cfa: $rsp 8 +
STACK CFI 19af0 .cfa: $rsp 192 +
STACK CFI INIT 22ac0 33f .cfa: $rsp 8 + .ra: .cfa -8 + ^
STACK CFI 22ac2 $r13: .cfa -16 + ^ .cfa: $rsp 16 +
STACK CFI 22ac4 $r12: .cfa -24 + ^ .cfa: $rsp 24 +
STACK CFI 22ac8 $rbp: .cfa -32 + ^ .cfa: $rsp 32 +
STACK CFI 22ac9 $rbx: .cfa -40 + ^ .cfa: $rsp 40 +
STACK CFI 22ad0 .cfa: $rsp 80 +
STACK CFI 22bd8 .cfa: $rsp 40 +
STACK CFI 22bd9 .cfa: $rsp 32 +
STACK CFI 22bda .cfa: $rsp 24 +
STACK CFI 22bdc .cfa: $rsp 16 +
STACK CFI 22bde .cfa: $rsp 8 +
STACK CFI 22be0 .cfa: $rsp 80 +
STACK CFI INIT 19fd0 36 .cfa: $rsp 8 + .ra: .cfa -8 + ^
STACK CFI 19fd4 .cfa: $rsp 32 +
STACK CFI 1a000 .cfa: $rsp 8 +
STACK CFI 1a001 .cfa: $rsp 32 +
STACK CFI INIT 22e00 89 .cfa: $rsp 8 + .ra: .cfa -8 + ^
STACK CFI 22e01 $rbp: .cfa -16 + ^ .cfa: $rsp 16 +
STACK CFI 22e02 $rbx: .cfa -24 + ^ .cfa: $rsp 24 +
STACK CFI 22e06 .cfa: $rsp 32 +
STACK CFI 22e5a .cfa: $rsp 24 +
STACK CFI 22e5b .cfa: $rsp 16 +
STACK CFI 22e5c .cfa: $rsp 8 +
STACK CFI 22e60 .cfa: $rsp 32 +
STACK CFI INIT 22e90 e0 .cfa: $rsp 8 + .ra: .cfa -8 + ^
STACK CFI 22e92 $r13: .cfa -16 + ^ .cfa: $rsp 16 +
STACK CFI 22e98 $r12: .cfa -24 + ^ .cfa: $rsp 24 +
STACK CFI 22e99 $rbp: .cfa -32 + ^ .cfa: $rsp 32 +
STACK CFI 22e9a $rbx: .cfa -40 + ^ .cfa: $rsp 40 +
STACK CFI 22ea4 .cfa: $rsp 48 +
STACK CFI 22ee8 .cfa: $rsp 40 +
STACK CFI 22ee9 .cfa: $rsp 32 +
STACK CFI 22eea .cfa: $rsp 24 +
STACK CFI 22eec .cfa: $rsp 16 +
STACK CFI 22eee .cfa: $rsp 8 +
STACK CFI 22ef0 .cfa: $rsp 48 +
STACK CFI 22f3e .cfa: $rsp 40 +
STACK CFI 22f45 .cfa: $rsp 32 +
STACK CFI 22f46 .cfa: $rsp 24 +
STACK CFI 22f48 .cfa: $rsp 16 +
STACK CFI 22f4a .cfa: $rsp 8 +
STACK CFI 22f50 .cfa: $rsp 48 +
STACK CFI 22f54 .cfa: $rsp 40 +
STACK CFI 22f5a .cfa: $rsp 32 +
STACK CFI 22f5b .cfa: $rsp 24 +
STACK CFI 22f5d .cfa: $rsp 16 +
STACK CFI 22f5f .cfa: $rsp 8 +
STACK CFI 22f60 .cfa: $rsp 48 +
STACK CFI 22f64 .cfa: $rsp 40 +
STACK CFI 22f6a .cfa: $rsp 32 +
STACK CFI 22f6b .cfa: $rsp 24 +
STACK CFI 22f6d .cfa: $rsp 16 +
STACK CFI 22f6f .cfa: $rsp 8 +
STACK CFI INIT 1a010 a5 .cfa: $rsp 8 + .ra: .cfa -8 + ^
STACK CFI 1a012 $r13: .cfa -16 + ^ .cfa: $rsp 16 +
STACK CFI 1a014 $r12: .cfa -24 + ^ .cfa: $rsp 24 +
STACK CFI 1a018 $rbp: .cfa -32 + ^ .cfa: $rsp 32 +
STACK CFI 1a019 $rbx: .cfa -40 + ^ .cfa: $rsp 40 +
STACK CFI 1a028 .cfa: $rsp 64 +
STACK CFI 1a074 .cfa: $rsp 40 +
STACK CFI 1a078 .cfa: $rsp 32 +
STACK CFI 1a079 .cfa: $rsp 24 +
STACK CFI 1a07b .cfa: $rsp 16 +
STACK CFI 1a07d .cfa: $rsp 8 +
STACK CFI 1a080 .cfa: $rsp 64 +
STACK CFI 1a0ae .cfa: $rsp 40 +
STACK CFI 1a0af .cfa: $rsp 32 +
STACK CFI 1a0b0 .cfa: $rsp 24 +
STACK CFI 1a0b2 .cfa: $rsp 16 +
STACK CFI 1a0b4 .cfa: $rsp 8 +
STACK CFI INIT 1a0c0 9a .cfa: $rsp 8 + .ra: .cfa -8 + ^
STACK CFI 1a0c4 .cfa: $rsp 48 +
STACK CFI 1a147 .cfa: $rsp 8 +
STACK CFI 1a150 .cfa: $rsp 48 +
STACK CFI INIT 1a160 934 .cfa: $rsp 8 + .ra: .cfa -8 + ^
STACK CFI 1a162 $r15: .cfa -16 + ^ .cfa: $rsp 16 +
STACK CFI 1a164 $r14: .cfa -24 + ^ .cfa: $rsp 24 +
STACK CFI 1a169 $r13: .cfa -32 + ^ .cfa: $rsp 32 +
STACK CFI 1a16b $r12: .cfa -40 + ^ .cfa: $rsp 40 +
STACK CFI 1a16c $rbp: .cfa -48 + ^ .cfa: $rsp 48 +
STACK CFI 1a16d $rbx: .cfa -56 + ^ .cfa: $rsp 56 +
STACK CFI 1a17b .cfa: $rsp 256 +
STACK CFI 1a2f3 .cfa: $rsp 56 +
STACK CFI 1a2f4 .cfa: $rsp 48 +
STACK CFI 1a2f5 .cfa: $rsp 40 +
STACK CFI 1a2f7 .cfa: $rsp 32 +
STACK CFI 1a2f9 .cfa: $rsp 24 +
STACK CFI 1a2fb .cfa: $rsp 16 +
STACK CFI 1a2fd .cfa: $rsp 8 +
STACK CFI 1a300 .cfa: $rsp 256 +
STACK CFI INIT 22f70 33f .cfa: $rsp 8 + .ra: .cfa -8 + ^
STACK CFI 22f72 $r13: .cfa -16 + ^ .cfa: $rsp 16 +
STACK CFI 22f74 $r12: .cfa -24 + ^ .cfa: $rsp 24 +
STACK CFI 22f78 $rbp: .cfa -32 + ^ .cfa: $rsp 32 +
STACK CFI 22f79 $rbx: .cfa -40 + ^ .cfa: $rsp 40 +
STACK CFI 22f80 .cfa: $rsp 80 +
STACK CFI 23088 .cfa: $rsp 40 +
STACK CFI 23089 .cfa: $rsp 32 +
STACK CFI 2308a .cfa: $rsp 24 +
STACK CFI 2308c .cfa: $rsp 16 +
STACK CFI 2308e .cfa: $rsp 8 +
STACK CFI 23090 .cfa: $rsp 80 +
STACK CFI INIT 1aaa0 36 .cfa: $rsp 8 + .ra: .cfa -8 + ^
STACK CFI 1aaa4 .cfa: $rsp 32 +
STACK CFI 1aad0 .cfa: $rsp 8 +
STACK CFI 1aad1 .cfa: $rsp 32 +
STACK CFI INIT 232b0 11f .cfa: $rsp 8 + .ra: .cfa -8 + ^
STACK CFI 232b2 $r15: .cfa -16 + ^ .cfa: $rsp 16 +
STACK CFI 232b4 $r14: .cfa -24 + ^ .cfa: $rsp 24 +
STACK CFI 232ba $r13: .cfa -32 + ^ .cfa: $rsp 32 +
STACK CFI 232bc $r12: .cfa -40 + ^ .cfa: $rsp 40 +
STACK CFI 232c0 $rbp: .cfa -48 + ^ .cfa: $rsp 48 +
STACK CFI 232c1 $rbx: .cfa -56 + ^ .cfa: $rsp 56 +
STACK CFI 232c8 .cfa: $rsp 64 +
STACK CFI 23318 .cfa: $rsp 56 +
STACK CFI 2331e .cfa: $rsp 48 +
STACK CFI 2331f .cfa: $rsp 40 +
STACK CFI 23321 .cfa: $rsp 32 +
STACK CFI 23323 .cfa: $rsp 24 +
STACK CFI 23325 .cfa: $rsp 16 +
STACK CFI 23327 .cfa: $rsp 8 +
STACK CFI 23330 .cfa: $rsp 64 +
STACK CFI 2339b .cfa: $rsp 56 +
STACK CFI 233a4 .cfa: $rsp 48 +
STACK CFI 233a5 .cfa: $rsp 40 +
STACK CFI 233a7 .cfa: $rsp 32 +
STACK CFI 233a9 .cfa: $rsp 24 +
STACK CFI 233ab .cfa: $rsp 16 +
STACK CFI 233ad .cfa: $rsp 8 +
STACK CFI 233b0 .cfa: $rsp 64 +
STACK CFI INIT 233d0 4bb .cfa: $rsp 8 + .ra: .cfa -8 + ^
STACK CFI 233d2 $r15: .cfa -16 + ^ .cfa: $rsp 16 +
STACK CFI 233d4 $r14: .cfa -24 + ^ .cfa: $rsp 24 +
STACK CFI 233d6 $r13: .cfa -32 + ^ .cfa: $rsp 32 +
STACK CFI 233d8 $r12: .cfa -40 + ^ .cfa: $rsp 40 +
STACK CFI 233dc $rbp: .cfa -48 + ^ .cfa: $rsp 48 +
STACK CFI 233dd $rbx: .cfa -56 + ^ .cfa: $rsp 56 +
STACK CFI 233e4 .cfa: $rsp 304 +
STACK CFI 2367f .cfa: $rsp 56 +
STACK CFI 23680 .cfa: $rsp 48 +
STACK CFI 23681 .cfa: $rsp 40 +
STACK CFI 23683 .cfa: $rsp 32 +
STACK CFI 23685 .cfa: $rsp 24 +
STACK CFI 23687 .cfa: $rsp 16 +
STACK CFI 23689 .cfa: $rsp 8 +
STACK CFI 23690 .cfa: $rsp 304 +
STACK CFI INIT 1aae0 397 .cfa: $rsp 8 + .ra: .cfa -8 + ^
STACK CFI 1aae2 $r15: .cfa -16 + ^ .cfa: $rsp 16 +
STACK CFI 1aae4 $r14: .cfa -24 + ^ .cfa: $rsp 24 +
STACK CFI 1aae9 $r13: .cfa -32 + ^ .cfa: $rsp 32 +
STACK CFI 1aaeb $r12: .cfa -40 + ^ .cfa: $rsp 40 +
STACK CFI 1aaef $rbp: .cfa -48 + ^ .cfa: $rsp 48 +
STACK CFI 1aaf0 $rbx: .cfa -56 + ^ .cfa: $rsp 56 +
STACK CFI 1aafa .cfa: $rsp 224 +
STACK CFI 1ab91 .cfa: $rsp 56 +
STACK CFI 1ab92 .cfa: $rsp 48 +
STACK CFI 1ab93 .cfa: $rsp 40 +
STACK CFI 1ab95 .cfa: $rsp 32 +
STACK CFI 1ab97 .cfa: $rsp 24 +
STACK CFI 1ab99 .cfa: $rsp 16 +
STACK CFI 1ab9b .cfa: $rsp 8 +
STACK CFI 1aba0 .cfa: $rsp 224 +
STACK CFI INIT 1ae80 110b .cfa: $rsp 8 + .ra: .cfa -8 + ^
STACK CFI 1ae82 $r15: .cfa -16 + ^ .cfa: $rsp 16 +
STACK CFI 1ae84 $r14: .cfa -24 + ^ .cfa: $rsp 24 +
STACK CFI 1ae86 $r13: .cfa -32 + ^ .cfa: $rsp 32 +
STACK CFI 1ae88 $r12: .cfa -40 + ^ .cfa: $rsp 40 +
STACK CFI 1ae8c $rbp: .cfa -48 + ^ .cfa: $rsp 48 +
STACK CFI 1ae8d $rbx: .cfa -56 + ^ .cfa: $rsp 56 +
STACK CFI 1ae97 .cfa: $rsp 464 +
STACK CFI 1b013 .cfa: $rsp 56 +
STACK CFI 1b014 .cfa: $rsp 48 +
STACK CFI 1b015 .cfa: $rsp 40 +
STACK CFI 1b017 .cfa: $rsp 32 +
STACK CFI 1b019 .cfa: $rsp 24 +
STACK CFI 1b01b .cfa: $rsp 16 +
STACK CFI 1b01d .cfa: $rsp 8 +
STACK CFI 1b020 .cfa: $rsp 464 +
STACK CFI INIT 23890 33f .cfa: $rsp 8 + .ra: .cfa -8 + ^
STACK CFI 23892 $r13: .cfa -16 + ^ .cfa: $rsp 16 +
STACK CFI 23894 $r12: .cfa -24 + ^ .cfa: $rsp 24 +
STACK CFI 23898 $rbp: .cfa -32 + ^ .cfa: $rsp 32 +
STACK CFI 23899 $rbx: .cfa -40 + ^ .cfa: $rsp 40 +
STACK CFI 238a0 .cfa: $rsp 80 +
STACK CFI 239a8 .cfa: $rsp 40 +
STACK CFI 239a9 .cfa: $rsp 32 +
STACK CFI 239aa .cfa: $rsp 24 +
STACK CFI 239ac .cfa: $rsp 16 +
STACK CFI 239ae .cfa: $rsp 8 +
STACK CFI 239b0 .cfa: $rsp 80 +
STACK CFI INIT 1bf90 36 .cfa: $rsp 8 + .ra: .cfa -8 + ^
STACK CFI 1bf94 .cfa: $rsp 32 +
STACK CFI 1bfc0 .cfa: $rsp 8 +
STACK CFI 1bfc1 .cfa: $rsp 32 +
STACK CFI INIT 1bfd0 b1e .cfa: $rsp 8 + .ra: .cfa -8 + ^
STACK CFI 1bfd2 $r15: .cfa -16 + ^ .cfa: $rsp 16 +
STACK CFI 1bfd4 $r14: .cfa -24 + ^ .cfa: $rsp 24 +
STACK CFI 1bfd6 $r13: .cfa -32 + ^ .cfa: $rsp 32 +
STACK CFI 1bfd8 $r12: .cfa -40 + ^ .cfa: $rsp 40 +
STACK CFI 1bfdc $rbp: .cfa -48 + ^ .cfa: $rsp 48 +
STACK CFI 1bfdd $rbx: .cfa -56 + ^ .cfa: $rsp 56 +
STACK CFI 1bfe7 .cfa: $rsp 272 +
STACK CFI 1c190 .cfa: $rsp 56 +
STACK CFI 1c191 .cfa: $rsp 48 +
STACK CFI 1c192 .cfa: $rsp 40 +
STACK CFI 1c194 .cfa: $rsp 32 +
STACK CFI 1c196 .cfa: $rsp 24 +
STACK CFI 1c198 .cfa: $rsp 16 +
STACK CFI 1c19a .cfa: $rsp 8 +
STACK CFI 1c1a0 .cfa: $rsp 272 +
STACK CFI INIT 23bd0 33f .cfa: $rsp 8 + .ra: .cfa -8 + ^
STACK CFI 23bd2 $r13: .cfa -16 + ^ .cfa: $rsp 16 +
STACK CFI 23bd4 $r12: .cfa -24 + ^ .cfa: $rsp 24 +
STACK CFI 23bd8 $rbp: .cfa -32 + ^ .cfa: $rsp 32 +
STACK CFI 23bd9 $rbx: .cfa -40 + ^ .cfa: $rsp 40 +
STACK CFI 23be0 .cfa: $rsp 80 +
STACK CFI 23ce8 .cfa: $rsp 40 +
STACK CFI 23ce9 .cfa: $rsp 32 +
STACK CFI 23cea .cfa: $rsp 24 +
STACK CFI 23cec .cfa: $rsp 16 +
STACK CFI 23cee .cfa: $rsp 8 +
STACK CFI 23cf0 .cfa: $rsp 80 +
STACK CFI INIT 1caf0 36 .cfa: $rsp 8 + .ra: .cfa -8 + ^
STACK CFI 1caf4 .cfa: $rsp 32 +
STACK CFI 1cb20 .cfa: $rsp 8 +
STACK CFI 1cb21 .cfa: $rsp 32 +
STACK CFI INIT 1cb30 823 .cfa: $rsp 8 + .ra: .cfa -8 + ^
STACK CFI 1cb32 $r15: .cfa -16 + ^ .cfa: $rsp 16 +
STACK CFI 1cb34 $r14: .cfa -24 + ^ .cfa: $rsp 24 +
STACK CFI 1cb36 $r13: .cfa -32 + ^ .cfa: $rsp 32 +
STACK CFI 1cb38 $r12: .cfa -40 + ^ .cfa: $rsp 40 +
STACK CFI 1cb3c $rbp: .cfa -48 + ^ .cfa: $rsp 48 +
STACK CFI 1cb3d $rbx: .cfa -56 + ^ .cfa: $rsp 56 +
STACK CFI 1cb47 .cfa: $rsp 208 +
STACK CFI 1cc6c .cfa: $rsp 56 +
STACK CFI 1cc6d .cfa: $rsp 48 +
STACK CFI 1cc6e .cfa: $rsp 40 +
STACK CFI 1cc70 .cfa: $rsp 32 +
STACK CFI 1cc72 .cfa: $rsp 24 +
STACK CFI 1cc74 .cfa: $rsp 16 +
STACK CFI 1cc76 .cfa: $rsp 8 +
STACK CFI 1cc80 .cfa: $rsp 208 +
STACK CFI INIT 23f10 33f .cfa: $rsp 8 + .ra: .cfa -8 + ^
STACK CFI 23f12 $r13: .cfa -16 + ^ .cfa: $rsp 16 +
STACK CFI 23f14 $r12: .cfa -24 + ^ .cfa: $rsp 24 +
STACK CFI 23f18 $rbp: .cfa -32 + ^ .cfa: $rsp 32 +
STACK CFI 23f19 $rbx: .cfa -40 + ^ .cfa: $rsp 40 +
STACK CFI 23f20 .cfa: $rsp 80 +
STACK CFI 24028 .cfa: $rsp 40 +
STACK CFI 24029 .cfa: $rsp 32 +
STACK CFI 2402a .cfa: $rsp 24 +
STACK CFI 2402c .cfa: $rsp 16 +
STACK CFI 2402e .cfa: $rsp 8 +
STACK CFI 24030 .cfa: $rsp 80 +
STACK CFI INIT 1d360 36 .cfa: $rsp 8 + .ra: .cfa -8 + ^
STACK CFI 1d364 .cfa: $rsp 32 +
STACK CFI 1d390 .cfa: $rsp 8 +
STACK CFI 1d391 .cfa: $rsp 32 +
STACK CFI INIT 1d3a0 832 .cfa: $rsp 8 + .ra: .cfa -8 + ^
STACK CFI 1d3a2 $r15: .cfa -16 + ^ .cfa: $rsp 16 +
STACK CFI 1d3a4 $r14: .cfa -24 + ^ .cfa: $rsp 24 +
STACK CFI 1d3a9 $r13: .cfa -32 + ^ .cfa: $rsp 32 +
STACK CFI 1d3ab $r12: .cfa -40 + ^ .cfa: $rsp 40 +
STACK CFI 1d3ac $rbp: .cfa -48 + ^ .cfa: $rsp 48 +
STACK CFI 1d3ad $rbx: .cfa -56 + ^ .cfa: $rsp 56 +
STACK CFI 1d3b7 .cfa: $rsp 304 +
STACK CFI 1d508 .cfa: $rsp 56 +
STACK CFI 1d509 .cfa: $rsp 48 +
STACK CFI 1d50a .cfa: $rsp 40 +
STACK CFI 1d50c .cfa: $rsp 32 +
STACK CFI 1d50e .cfa: $rsp 24 +
STACK CFI 1d510 .cfa: $rsp 16 +
STACK CFI 1d512 .cfa: $rsp 8 +
STACK CFI 1d518 .cfa: $rsp 304 +
STACK CFI INIT 24250 33f .cfa: $rsp 8 + .ra: .cfa -8 + ^
STACK CFI 24252 $r13: .cfa -16 + ^ .cfa: $rsp 16 +
STACK CFI 24254 $r12: .cfa -24 + ^ .cfa: $rsp 24 +
STACK CFI 24258 $rbp: .cfa -32 + ^ .cfa: $rsp 32 +
STACK CFI 24259 $rbx: .cfa -40 + ^ .cfa: $rsp 40 +
STACK CFI 24260 .cfa: $rsp 80 +
STACK CFI 24368 .cfa: $rsp 40 +
STACK CFI 24369 .cfa: $rsp 32 +
STACK CFI 2436a .cfa: $rsp 24 +
STACK CFI 2436c .cfa: $rsp 16 +
STACK CFI 2436e .cfa: $rsp 8 +
STACK CFI 24370 .cfa: $rsp 80 +
STACK CFI INIT 1dbe0 36 .cfa: $rsp 8 + .ra: .cfa -8 + ^
STACK CFI 1dbe4 .cfa: $rsp 32 +
STACK CFI 1dc10 .cfa: $rsp 8 +
STACK CFI 1dc11 .cfa: $rsp 32 +
STACK CFI INIT 24590 89 .cfa: $rsp 8 + .ra: .cfa -8 + ^
STACK CFI 24591 $rbp: .cfa -16 + ^ .cfa: $rsp 16 +
STACK CFI 24592 $rbx: .cfa -24 + ^ .cfa: $rsp 24 +
STACK CFI 24596 .cfa: $rsp 32 +
STACK CFI 245ea .cfa: $rsp 24 +
STACK CFI 245eb .cfa: $rsp 16 +
STACK CFI 245ec .cfa: $rsp 8 +
STACK CFI 245f0 .cfa: $rsp 32 +
STACK CFI INIT 24620 e0 .cfa: $rsp 8 + .ra: .cfa -8 + ^
STACK CFI 24622 $r13: .cfa -16 + ^ .cfa: $rsp 16 +
STACK CFI 24628 $r12: .cfa -24 + ^ .cfa: $rsp 24 +
STACK CFI 24629 $rbp: .cfa -32 + ^ .cfa: $rsp 32 +
STACK CFI 2462a $rbx: .cfa -40 + ^ .cfa: $rsp 40 +
STACK CFI 24634 .cfa: $rsp 48 +
STACK CFI 24678 .cfa: $rsp 40 +
STACK CFI 24679 .cfa: $rsp 32 +
STACK CFI 2467a .cfa: $rsp 24 +
STACK CFI 2467c .cfa: $rsp 16 +
STACK CFI 2467e .cfa: $rsp 8 +
STACK CFI 24680 .cfa: $rsp 48 +
STACK CFI 246ce .cfa: $rsp 40 +
STACK CFI 246d5 .cfa: $rsp 32 +
STACK CFI 246d6 .cfa: $rsp 24 +
STACK CFI 246d8 .cfa: $rsp 16 +
STACK CFI 246da .cfa: $rsp 8 +
STACK CFI 246e0 .cfa: $rsp 48 +
STACK CFI 246e4 .cfa: $rsp 40 +
STACK CFI 246ea .cfa: $rsp 32 +
STACK CFI 246eb .cfa: $rsp 24 +
STACK CFI 246ed .cfa: $rsp 16 +
STACK CFI 246ef .cfa: $rsp 8 +
STACK CFI 246f0 .cfa: $rsp 48 +
STACK CFI 246f4 .cfa: $rsp 40 +
STACK CFI 246fa .cfa: $rsp 32 +
STACK CFI 246fb .cfa: $rsp 24 +
STACK CFI 246fd .cfa: $rsp 16 +
STACK CFI 246ff .cfa: $rsp 8 +
STACK CFI INIT 1dc20 9c2 .cfa: $rsp 8 + .ra: .cfa -8 + ^
STACK CFI 1dc22 $r15: .cfa -16 + ^ .cfa: $rsp 16 +
STACK CFI 1dc24 $r14: .cfa -24 + ^ .cfa: $rsp 24 +
STACK CFI 1dc26 $r13: .cfa -32 + ^ .cfa: $rsp 32 +
STACK CFI 1dc28 $r12: .cfa -40 + ^ .cfa: $rsp 40 +
STACK CFI 1dc29 $rbp: .cfa -48 + ^ .cfa: $rsp 48 +
STACK CFI 1dc2a $rbx: .cfa -56 + ^ .cfa: $rsp 56 +
STACK CFI 1dc34 .cfa: $rsp 224 +
STACK CFI 1dd15 .cfa: $rsp 56 +
STACK CFI 1dd16 .cfa: $rsp 48 +
STACK CFI 1dd17 .cfa: $rsp 40 +
STACK CFI 1dd19 .cfa: $rsp 32 +
STACK CFI 1dd1b .cfa: $rsp 24 +
STACK CFI 1dd1d .cfa: $rsp 16 +
STACK CFI 1dd1f .cfa: $rsp 8 +
STACK CFI 1dd20 .cfa: $rsp 224 +
STACK CFI INIT 24700 1f6 .cfa: $rsp 8 + .ra: .cfa -8 + ^
STACK CFI 24702 $r15: .cfa -16 + ^ .cfa: $rsp 16 +
STACK CFI 24704 $r14: .cfa -24 + ^ .cfa: $rsp 24 +
STACK CFI 24709 $r13: .cfa -32 + ^ .cfa: $rsp 32 +
STACK CFI 2470b $r12: .cfa -40 + ^ .cfa: $rsp 40 +
STACK CFI 24711 $rbp: .cfa -48 + ^ .cfa: $rsp 48 +
STACK CFI 24712 $rbx: .cfa -56 + ^ .cfa: $rsp 56 +
STACK CFI 2471c .cfa: $rsp 80 +
STACK CFI 24815 .cfa: $rsp 56 +
STACK CFI 24819 .cfa: $rsp 48 +
STACK CFI 2481a .cfa: $rsp 40 +
STACK CFI 2481c .cfa: $rsp 32 +
STACK CFI 2481e .cfa: $rsp 24 +
STACK CFI 24820 .cfa: $rsp 16 +
STACK CFI 24822 .cfa: $rsp 8 +
STACK CFI 24828 .cfa: $rsp 80 +
STACK CFI INIT 24900 3ec .cfa: $rsp 8 + .ra: .cfa -8 + ^
STACK CFI 24902 $r15: .cfa -16 + ^ .cfa: $rsp 16 +
STACK CFI 24904 $r14: .cfa -24 + ^ .cfa: $rsp 24 +
STACK CFI 24909 $r13: .cfa -32 + ^ .cfa: $rsp 32 +
STACK CFI 2490b $r12: .cfa -40 + ^ .cfa: $rsp 40 +
STACK CFI 24916 $rbp: .cfa -48 + ^ .cfa: $rsp 48 +
STACK CFI 24917 $rbx: .cfa -56 + ^ .cfa: $rsp 56 +
STACK CFI 24924 .cfa: $rsp 80 +
STACK CFI 24c49 .cfa: $rsp 56 +
STACK CFI 24c4a .cfa: $rsp 48 +
STACK CFI 24c4b .cfa: $rsp 40 +
STACK CFI 24c4d .cfa: $rsp 32 +
STACK CFI 24c4f .cfa: $rsp 24 +
STACK CFI 24c51 .cfa: $rsp 16 +
STACK CFI 24c53 .cfa: $rsp 8 +
STACK CFI 24c58 .cfa: $rsp 80 +
STACK CFI INIT 1e5f0 ac6 .cfa: $rsp 8 + .ra: .cfa -8 + ^
STACK CFI 1e5f2 $r15: .cfa -16 + ^ .cfa: $rsp 16 +
STACK CFI 1e5f4 $r14: .cfa -24 + ^ .cfa: $rsp 24 +
STACK CFI 1e5f6 $r13: .cfa -32 + ^ .cfa: $rsp 32 +
STACK CFI 1e5f8 $r12: .cfa -40 + ^ .cfa: $rsp 40 +
STACK CFI 1e5f9 $rbp: .cfa -48 + ^ .cfa: $rsp 48 +
STACK CFI 1e5fa $rbx: .cfa -56 + ^ .cfa: $rsp 56 +
STACK CFI 1e601 .cfa: $rsp 256 +
STACK CFI 1e6c0 .cfa: $rsp 56 +
STACK CFI 1e6c1 .cfa: $rsp 48 +
STACK CFI 1e6c2 .cfa: $rsp 40 +
STACK CFI 1e6c4 .cfa: $rsp 32 +
STACK CFI 1e6c6 .cfa: $rsp 24 +
STACK CFI 1e6c8 .cfa: $rsp 16 +
STACK CFI 1e6ca .cfa: $rsp 8 +
STACK CFI 1e6d0 .cfa: $rsp 256 +
STACK CFI INIT 24cf0 33f .cfa: $rsp 8 + .ra: .cfa -8 + ^
STACK CFI 24cf2 $r13: .cfa -16 + ^ .cfa: $rsp 16 +
STACK CFI 24cf4 $r12: .cfa -24 + ^ .cfa: $rsp 24 +
STACK CFI 24cf8 $rbp: .cfa -32 + ^ .cfa: $rsp 32 +
STACK CFI 24cf9 $rbx: .cfa -40 + ^ .cfa: $rsp 40 +
STACK CFI 24d00 .cfa: $rsp 80 +
STACK CFI 24e08 .cfa: $rsp 40 +
STACK CFI 24e09 .cfa: $rsp 32 +
STACK CFI 24e0a .cfa: $rsp 24 +
STACK CFI 24e0c .cfa: $rsp 16 +
STACK CFI 24e0e .cfa: $rsp 8 +
STACK CFI 24e10 .cfa: $rsp 80 +
STACK CFI INIT 1f0c0 36 .cfa: $rsp 8 + .ra: .cfa -8 + ^
STACK CFI 1f0c4 .cfa: $rsp 32 +
STACK CFI 1f0f0 .cfa: $rsp 8 +
STACK CFI 1f0f1 .cfa: $rsp 32 +
STACK CFI INIT 4b20 2e .cfa: $rsp 8 + .ra: .cfa -8 + ^
STACK CFI 4b2b .cfa: $rsp 16 +
STACK CFI 4b49 .cfa: $rsp 8 +
STACK CFI INIT 25030 1a4 .cfa: $rsp 8 + .ra: .cfa -8 + ^
STACK CFI 25032 $r12: .cfa -16 + ^ .cfa: $rsp 16 +
STACK CFI 25033 $rbp: .cfa -24 + ^ .cfa: $rsp 24 +
STACK CFI 25037 $rbx: .cfa -32 + ^ .cfa: $rsp 32 +
STACK CFI 2504d .cfa: $rsp 48 +
STACK CFI 2511e .cfa: $rsp 32 +
STACK CFI 2511f .cfa: $rsp 24 +
STACK CFI 25120 .cfa: $rsp 16 +
STACK CFI 25122 .cfa: $rsp 8 +
STACK CFI 25128 .cfa: $rsp 48 +
STACK CFI INIT 251e0 c8 .cfa: $rsp 8 + .ra: .cfa -8 + ^
STACK CFI 251e2 $r12: .cfa -16 + ^ .cfa: $rsp 16 +
STACK CFI 251e3 $rbp: .cfa -24 + ^ .cfa: $rsp 24 +
STACK CFI 251e7 $rbx: .cfa -32 + ^ .cfa: $rsp 32 +
STACK CFI 251ee .cfa: $rsp 48 +
STACK CFI 25254 .cfa: $rsp 32 +
STACK CFI 25255 .cfa: $rsp 24 +
STACK CFI 25256 .cfa: $rsp 16 +
STACK CFI 25258 .cfa: $rsp 8 +
STACK CFI 25260 .cfa: $rsp 48 +
STACK CFI INIT 25b30 32 .cfa: $rsp 8 + .ra: .cfa -8 + ^
STACK CFI 25b31 $rbx: .cfa -16 + ^ .cfa: $rsp 16 +
STACK CFI 25b54 .cfa: $rsp 8 +
STACK CFI 25b60 .cfa: $rsp 16 +
STACK CFI 25b61 .cfa: $rsp 8 +
STACK CFI INIT 25b70 4d3 .cfa: $rsp 8 + .ra: .cfa -8 + ^
STACK CFI 25b72 $r15: .cfa -16 + ^ .cfa: $rsp 16 +
STACK CFI 25b74 $r14: .cfa -24 + ^ .cfa: $rsp 24 +
STACK CFI 25b79 $r13: .cfa -32 + ^ .cfa: $rsp 32 +
STACK CFI 25b7b $r12: .cfa -40 + ^ .cfa: $rsp 40 +
STACK CFI 25b86 $rbp: .cfa -48 + ^ .cfa: $rsp 48 +
STACK CFI 25b87 $rbx: .cfa -56 + ^ .cfa: $rsp 56 +
STACK CFI 25b97 .cfa: $rsp 80 +
STACK CFI 25fb3 .cfa: $rsp 56 +
STACK CFI 25fb4 .cfa: $rsp 48 +
STACK CFI 25fb5 .cfa: $rsp 40 +
STACK CFI 25fb7 .cfa: $rsp 32 +
STACK CFI 25fb9 .cfa: $rsp 24 +
STACK CFI 25fbb .cfa: $rsp 16 +
STACK CFI 25fbd .cfa: $rsp 8 +
STACK CFI 25fc0 .cfa: $rsp 80 +
STACK CFI INIT 252b0 871 .cfa: $rsp 8 + .ra: .cfa -8 + ^
STACK CFI 252b2 $r15: .cfa -16 + ^ .cfa: $rsp 16 +
STACK CFI 252b4 $r14: .cfa -24 + ^ .cfa: $rsp 24 +
STACK CFI 252bd $r13: .cfa -32 + ^ .cfa: $rsp 32 +
STACK CFI 252bf $r12: .cfa -40 + ^ .cfa: $rsp 40 +
STACK CFI 252c3 $rbp: .cfa -48 + ^ .cfa: $rsp 48 +
STACK CFI 252c4 $rbx: .cfa -56 + ^ .cfa: $rsp 56 +
STACK CFI 252cb .cfa: $rsp 352 +
STACK CFI 256c3 .cfa: $rsp 360 +
STACK CFI 256c4 .cfa: $rsp 368 +
STACK CFI 256cc .cfa: $rsp 376 +
STACK CFI 256d1 .cfa: $rsp 384 +
STACK CFI 256e1 .cfa: $rsp 352 +
STACK CFI 2594a .cfa: $rsp 56 +
STACK CFI 2594b .cfa: $rsp 48 +
STACK CFI 2594c .cfa: $rsp 40 +
STACK CFI 2594e .cfa: $rsp 32 +
STACK CFI 25950 .cfa: $rsp 24 +
STACK CFI 25952 .cfa: $rsp 16 +
STACK CFI 25954 .cfa: $rsp 8 +
STACK CFI 25958 .cfa: $rsp 352 +
STACK CFI INIT 4b50 2e .cfa: $rsp 8 + .ra: .cfa -8 + ^
STACK CFI 4b5b .cfa: $rsp 16 +
STACK CFI 4b79 .cfa: $rsp 8 +
STACK CFI INIT 26050 65 .cfa: $rsp 8 + .ra: .cfa -8 + ^
STACK CFI 26052 $r15: .cfa -16 + ^ .cfa: $rsp 16 +
STACK CFI 26054 $r14: .cfa -24 + ^ .cfa: $rsp 24 +
STACK CFI 26059 $r13: .cfa -32 + ^ .cfa: $rsp 32 +
STACK CFI 2605b $r12: .cfa -40 + ^ .cfa: $rsp 40 +
STACK CFI 26063 $rbp: .cfa -48 + ^ .cfa: $rsp 48 +
STACK CFI 2606b $rbx: .cfa -56 + ^ .cfa: $rsp 56 +
STACK CFI 26078 .cfa: $rsp 64 +
STACK CFI 260aa .cfa: $rsp 56 +
STACK CFI 260ab .cfa: $rsp 48 +
STACK CFI 260ac .cfa: $rsp 40 +
STACK CFI 260ae .cfa: $rsp 32 +
STACK CFI 260b0 .cfa: $rsp 24 +
STACK CFI 260b2 .cfa: $rsp 16 +
STACK CFI 260b4 .cfa: $rsp 8 +
STACK CFI INIT 260c0 2 .cfa: $rsp 8 + .ra: .cfa -8 + ^
