MODULE Linux x86_64 7850EF412B4E6C686BA66C90193BE3FD0 minidump_stackwalk
INFO CODE_ID 41EF50784E2B686C6BA66C90193BE3FD1ED5B491
PUBLIC 80b8 0 _init
PUBLIC 88d0 0 google_breakpad::linked_ptr<google_breakpad::CodeModule const>::depart() [clone .part.12]
PUBLIC 88e0 0 google_breakpad::linked_ptr<google_breakpad::WindowsFrameInfo>::depart() [clone .part.106]
PUBLIC 890c 0 google_breakpad::linked_ptr<google_breakpad::SourceLineResolverBase::PublicSymbol>::depart() [clone .part.107]
PUBLIC 8936 0 google_breakpad::linked_ptr<google_breakpad::BasicSourceLineResolver::Function>::depart() [clone .part.197]
PUBLIC 8970 0 _GLOBAL__sub_I_minidump_stackwalk.cc
PUBLIC 89a0 0 main
PUBLIC 8c20 0 _GLOBAL__sub_I_basic_code_modules.cc
PUBLIC 8c50 0 _GLOBAL__sub_I_basic_source_line_resolver.cc
PUBLIC 8c80 0 _GLOBAL__sub_I_cfi_frame_info.cc
PUBLIC 8cb0 0 _GLOBAL__sub_I_dump_context.cc
PUBLIC 8ce0 0 _GLOBAL__sub_I_exploitability.cc
PUBLIC 8d10 0 _GLOBAL__sub_I_exploitability_linux.cc
PUBLIC 8d40 0 _GLOBAL__sub_I_exploitability_win.cc
PUBLIC 8d70 0 _GLOBAL__sub_I_logging.cc
PUBLIC 8da0 0 _GLOBAL__sub_I_minidump.cc
PUBLIC 8dd0 0 _GLOBAL__sub_I_minidump_processor.cc
PUBLIC 8e00 0 _GLOBAL__sub_I_process_state.cc
PUBLIC 8e30 0 _GLOBAL__sub_I_proc_maps_linux.cc
PUBLIC 8e60 0 _GLOBAL__sub_I_simple_symbol_supplier.cc
PUBLIC 8e90 0 _GLOBAL__sub_I_source_line_resolver_base.cc
PUBLIC 8ec0 0 _GLOBAL__sub_I_stack_frame_symbolizer.cc
PUBLIC 8ef0 0 _GLOBAL__sub_I_stackwalk_common.cc
PUBLIC 8f20 0 _GLOBAL__sub_I_stackwalker.cc
PUBLIC 8f50 0 _GLOBAL__sub_I_stackwalker_address_list.cc
PUBLIC 8f80 0 _GLOBAL__sub_I_stackwalker_amd64.cc
PUBLIC 8fb0 0 _GLOBAL__sub_I_stackwalker_sparc.cc
PUBLIC 8fe0 0 _GLOBAL__sub_I_stackwalker_x86.cc
PUBLIC 9010 0 _GLOBAL__sub_I_stackwalker_arm.cc
PUBLIC 9040 0 _GLOBAL__sub_I_stackwalker_arm64.cc
PUBLIC 9070 0 _GLOBAL__sub_I_stackwalker_mips.cc
PUBLIC 90a0 0 _GLOBAL__sub_I_stackwalker_ppc.cc
PUBLIC 90d0 0 _GLOBAL__sub_I_stackwalker_ppc64.cc
PUBLIC 9100 0 _start
PUBLIC 9130 0 deregister_tm_clones
PUBLIC 9170 0 register_tm_clones
PUBLIC 91c0 0 __do_global_dtors_aux
PUBLIC 9200 0 frame_dummy
PUBLIC 9210 0 void std::__cxx11::basic_string<char, std::char_traits<char>, std::allocator<char> >::_M_construct<char const*>(char const*, char const*, std::forward_iterator_tag) [clone .isra.43]
PUBLIC 92e0 0 std::__cxx11::basic_string<char, std::char_traits<char>, std::allocator<char> >::basic_string(char const*, std::allocator<char> const&) [clone .isra.45]
PUBLIC 9320 0 Usage(int, char const**, bool) [clone .constprop.86]
PUBLIC 9410 0 (anonymous namespace)::PrintMinidumpProcess((anonymous namespace)::Options const&)
PUBLIC 9b40 0 google_breakpad::BasicSourceLineResolver::~BasicSourceLineResolver()
PUBLIC 9b60 0 google_breakpad::BasicSourceLineResolver::~BasicSourceLineResolver()
PUBLIC 9b90 0 std::vector<std::__cxx11::basic_string<char, std::char_traits<char>, std::allocator<char> >, std::allocator<std::__cxx11::basic_string<char, std::char_traits<char>, std::allocator<char> > > >::~vector()
PUBLIC 9bf0 0 std::_Rb_tree<std::__cxx11::basic_string<char, std::char_traits<char>, std::allocator<char> >, std::pair<std::__cxx11::basic_string<char, std::char_traits<char>, std::allocator<char> > const, char*>, std::_Select1st<std::pair<std::__cxx11::basic_string<char, std::char_traits<char>, std::allocator<char> > const, char*> >, std::less<std::__cxx11::basic_string<char, std::char_traits<char>, std::allocator<char> > >, std::allocator<std::pair<std::__cxx11::basic_string<char, std::char_traits<char>, std::allocator<char> > const, char*> > >::_M_erase(std::_Rb_tree_node<std::pair<std::__cxx11::basic_string<char, std::char_traits<char>, std::allocator<char> > const, char*> >*)
PUBLIC 9c50 0 google_breakpad::SimpleSymbolSupplier::SimpleSymbolSupplier(std::vector<std::__cxx11::basic_string<char, std::char_traits<char>, std::allocator<char> >, std::allocator<std::__cxx11::basic_string<char, std::char_traits<char>, std::allocator<char> > > > const&)
PUBLIC 9da0 0 void std::vector<std::__cxx11::basic_string<char, std::char_traits<char>, std::allocator<char> >, std::allocator<std::__cxx11::basic_string<char, std::char_traits<char>, std::allocator<char> > > >::_M_realloc_insert<std::__cxx11::basic_string<char, std::char_traits<char>, std::allocator<char> > >(__gnu_cxx::__normal_iterator<std::__cxx11::basic_string<char, std::char_traits<char>, std::allocator<char> >*, std::vector<std::__cxx11::basic_string<char, std::char_traits<char>, std::allocator<char> >, std::allocator<std::__cxx11::basic_string<char, std::char_traits<char>, std::allocator<char> > > > >, std::__cxx11::basic_string<char, std::char_traits<char>, std::allocator<char> >&&)
PUBLIC a020 0 void std::__cxx11::basic_string<char, std::char_traits<char>, std::allocator<char> >::_M_construct<char const*>(char const*, char const*, std::forward_iterator_tag) [clone .isra.14]
PUBLIC a0f0 0 google_breakpad::BaseName(std::__cxx11::basic_string<char, std::char_traits<char>, std::allocator<char> > const&)
PUBLIC a150 0 google_breakpad::DirName(std::__cxx11::basic_string<char, std::char_traits<char>, std::allocator<char> > const&)
PUBLIC a1b0 0 google_breakpad::BasicCodeModules::module_count() const [clone .localalias.75]
PUBLIC a1c0 0 google_breakpad::BasicCodeModules::GetMainModule() const
PUBLIC a1d0 0 google_breakpad::BasicCodeModules::GetModuleAtIndex(unsigned int) const
PUBLIC a1e0 0 google_breakpad::BasicCodeModules::IsModuleShrinkEnabled() const [clone .localalias.77]
PUBLIC a1f0 0 google_breakpad::BasicCodeModules::GetShrunkRangeModules() const
PUBLIC a2f0 0 google_breakpad::BasicCodeModules::GetModuleAtSequence(unsigned int) const
PUBLIC a5e0 0 google_breakpad::BasicCodeModules::BasicCodeModules()
PUBLIC a640 0 google_breakpad::BasicCodeModules::GetModuleForAddress(unsigned long) const
PUBLIC a7e0 0 google_breakpad::BasicCodeModules::~BasicCodeModules()
PUBLIC a870 0 google_breakpad::BasicCodeModules::~BasicCodeModules()
PUBLIC a890 0 google_breakpad::BasicCodeModules::BasicCodeModules(google_breakpad::CodeModules const*)
PUBLIC b170 0 google_breakpad::BasicCodeModules::Copy() const
PUBLIC b1c0 0 google_breakpad::RangeMap<unsigned long, google_breakpad::linked_ptr<google_breakpad::CodeModule const> >::RetrieveRange(unsigned long const&, google_breakpad::linked_ptr<google_breakpad::CodeModule const>*, unsigned long*, unsigned long*, unsigned long*) const
PUBLIC b470 0 std::_Rb_tree<unsigned long, std::pair<unsigned long const, google_breakpad::RangeMap<unsigned long, google_breakpad::linked_ptr<google_breakpad::CodeModule const> >::Range>, std::_Select1st<std::pair<unsigned long const, google_breakpad::RangeMap<unsigned long, google_breakpad::linked_ptr<google_breakpad::CodeModule const> >::Range> >, std::less<unsigned long>, std::allocator<std::pair<unsigned long const, google_breakpad::RangeMap<unsigned long, google_breakpad::linked_ptr<google_breakpad::CodeModule const> >::Range> > >::_M_erase(std::_Rb_tree_node<std::pair<unsigned long const, google_breakpad::RangeMap<unsigned long, google_breakpad::linked_ptr<google_breakpad::CodeModule const> >::Range> >*)
PUBLIC b4f0 0 void std::vector<google_breakpad::linked_ptr<google_breakpad::CodeModule const>, std::allocator<google_breakpad::linked_ptr<google_breakpad::CodeModule const> > >::_M_realloc_insert<google_breakpad::linked_ptr<google_breakpad::CodeModule const> >(__gnu_cxx::__normal_iterator<google_breakpad::linked_ptr<google_breakpad::CodeModule const>*, std::vector<google_breakpad::linked_ptr<google_breakpad::CodeModule const>, std::allocator<google_breakpad::linked_ptr<google_breakpad::CodeModule const> > > >, google_breakpad::linked_ptr<google_breakpad::CodeModule const>&&)
PUBLIC b7a0 0 std::pair<std::_Rb_tree_iterator<std::pair<unsigned long const, google_breakpad::RangeMap<unsigned long, google_breakpad::linked_ptr<google_breakpad::CodeModule const> >::Range> >, bool> std::_Rb_tree<unsigned long, std::pair<unsigned long const, google_breakpad::RangeMap<unsigned long, google_breakpad::linked_ptr<google_breakpad::CodeModule const> >::Range>, std::_Select1st<std::pair<unsigned long const, google_breakpad::RangeMap<unsigned long, google_breakpad::linked_ptr<google_breakpad::CodeModule const> >::Range> >, std::less<unsigned long>, std::allocator<std::pair<unsigned long const, google_breakpad::RangeMap<unsigned long, google_breakpad::linked_ptr<google_breakpad::CodeModule const> >::Range> > >::_M_insert_unique<std::pair<unsigned long const, google_breakpad::RangeMap<unsigned long, google_breakpad::linked_ptr<google_breakpad::CodeModule const> >::Range> >(std::pair<unsigned long const, google_breakpad::RangeMap<unsigned long, google_breakpad::linked_ptr<google_breakpad::CodeModule const> >::Range>&&)
PUBLIC b920 0 google_breakpad::RangeMap<unsigned long, google_breakpad::linked_ptr<google_breakpad::CodeModule const> >::StoreRangeInternal(unsigned long const&, unsigned long const&, unsigned long const&, google_breakpad::linked_ptr<google_breakpad::CodeModule const> const&)
PUBLIC c2a0 0 void std::__cxx11::basic_string<char, std::char_traits<char>, std::allocator<char> >::_M_construct<char const*>(char const*, char const*, std::forward_iterator_tag) [clone .isra.110]
PUBLIC c370 0 google_breakpad::BasicSourceLineResolver::BasicSourceLineResolver()
PUBLIC c3b0 0 google_breakpad::BasicSourceLineResolver::Module::LogParseError(std::__cxx11::basic_string<char, std::char_traits<char>, std::allocator<char> > const&, int, int*)
PUBLIC c4d0 0 google_breakpad::SymbolParseHelper::IsValidAfterNumber(char*)
PUBLIC c500 0 google_breakpad::SymbolParseHelper::ParseFile(char*, long*, char**)
PUBLIC c5f0 0 google_breakpad::SymbolParseHelper::ParseLine(char*, unsigned long*, unsigned long*, long*, long*)
PUBLIC c7c0 0 google_breakpad::BasicSourceLineResolver::Module::ParseLine(char*)
PUBLIC c850 0 google_breakpad::(anonymous namespace)::TokenizeWithOptionalField(char*, char const*, char const*, int, std::vector<char*, std::allocator<char*> >*) [clone .constprop.292]
PUBLIC c9b0 0 google_breakpad::SymbolParseHelper::ParsePublicSymbol(char*, bool*, unsigned long*, long*, char**)
PUBLIC cb40 0 google_breakpad::SymbolParseHelper::ParseFunction(char*, bool*, unsigned long*, unsigned long*, long*, char**)
PUBLIC cd00 0 google_breakpad::BasicSourceLineResolver::Module::ParseFunction(char*)
PUBLIC ce70 0 google_breakpad::BasicSourceLineResolver::Module::LookupAddress(google_breakpad::StackFrame*) const
PUBLIC d280 0 google_breakpad::BasicSourceLineResolver::Module::FindWindowsFrameInfo(google_breakpad::StackFrame const*) const
PUBLIC d6b0 0 google_breakpad::BasicSourceLineResolver::Module::FindCFIFrameInfo(google_breakpad::StackFrame const*) const
PUBLIC d8d0 0 google_breakpad::BasicSourceLineResolver::Module::ParseFile(char*)
PUBLIC da40 0 google_breakpad::BasicSourceLineResolver::Module::ParsePublicSymbol(char*)
PUBLIC dc60 0 google_breakpad::BasicSourceLineResolver::Module::ParseCFIFrameInfo(char*)
PUBLIC df40 0 google_breakpad::BasicSourceLineResolver::Module::ParseStackInfo(char*)
PUBLIC e4d0 0 google_breakpad::BasicSourceLineResolver::Module::LoadMapFromMemory(char*, unsigned long)
PUBLIC ebe0 0 google_breakpad::BasicSourceLineResolver::Module::IsCorrupt() const
PUBLIC ebf0 0 google_breakpad::BasicModuleFactory::~BasicModuleFactory()
PUBLIC ec00 0 google_breakpad::BasicModuleFactory::~BasicModuleFactory()
PUBLIC ec10 0 std::_Rb_tree_iterator<std::pair<unsigned long const, google_breakpad::ContainedRangeMap<unsigned long, google_breakpad::linked_ptr<google_breakpad::WindowsFrameInfo> >*> > std::_Rb_tree<unsigned long, std::pair<unsigned long const, google_breakpad::ContainedRangeMap<unsigned long, google_breakpad::linked_ptr<google_breakpad::WindowsFrameInfo> >*>, std::_Select1st<std::pair<unsigned long const, google_breakpad::ContainedRangeMap<unsigned long, google_breakpad::linked_ptr<google_breakpad::WindowsFrameInfo> >*> >, std::less<unsigned long>, std::allocator<std::pair<unsigned long const, google_breakpad::ContainedRangeMap<unsigned long, google_breakpad::linked_ptr<google_breakpad::WindowsFrameInfo> >*> > >::_M_insert_<std::pair<unsigned long const, google_breakpad::ContainedRangeMap<unsigned long, google_breakpad::linked_ptr<google_breakpad::WindowsFrameInfo> >*>&, std::_Rb_tree<unsigned long, std::pair<unsigned long const, google_breakpad::ContainedRangeMap<unsigned long, google_breakpad::linked_ptr<google_breakpad::WindowsFrameInfo> >*>, std::_Select1st<std::pair<unsigned long const, google_breakpad::ContainedRangeMap<unsigned long, google_breakpad::linked_ptr<google_breakpad::WindowsFrameInfo> >*> >, std::less<unsigned long>, std::allocator<std::pair<unsigned long const, google_breakpad::ContainedRangeMap<unsigned long, google_breakpad::linked_ptr<google_breakpad::WindowsFrameInfo> >*> > >::_Alloc_node>(std::_Rb_tree_node_base*, std::_Rb_tree_node_base*, std::pair<unsigned long const, google_breakpad::ContainedRangeMap<unsigned long, google_breakpad::linked_ptr<google_breakpad::WindowsFrameInfo> >*>&, std::_Rb_tree<unsigned long, std::pair<unsigned long const, google_breakpad::ContainedRangeMap<unsigned long, google_breakpad::linked_ptr<google_breakpad::WindowsFrameInfo> >*>, std::_Select1st<std::pair<unsigned long const, google_breakpad::ContainedRangeMap<unsigned long, google_breakpad::linked_ptr<google_breakpad::WindowsFrameInfo> >*> >, std::less<unsigned long>, std::allocator<std::pair<unsigned long const, google_breakpad::ContainedRangeMap<unsigned long, google_breakpad::linked_ptr<google_breakpad::WindowsFrameInfo> >*> > >::_Alloc_node&) [clone .isra.263]
PUBLIC ec90 0 google_breakpad::BasicModuleFactory::CreateModule(std::__cxx11::basic_string<char, std::char_traits<char>, std::allocator<char> > const&) const
PUBLIC ee30 0 google_breakpad::RangeMap<unsigned long, google_breakpad::linked_ptr<google_breakpad::SourceLineResolverBase::Line> >::RetrieveRange(unsigned long const&, google_breakpad::linked_ptr<google_breakpad::SourceLineResolverBase::Line>*, unsigned long*, unsigned long*, unsigned long*) const
PUBLIC f0c0 0 google_breakpad::AddressMap<unsigned long, google_breakpad::linked_ptr<google_breakpad::SourceLineResolverBase::PublicSymbol> >::Retrieve(unsigned long const&, google_breakpad::linked_ptr<google_breakpad::SourceLineResolverBase::PublicSymbol>*, unsigned long*) const
PUBLIC f280 0 google_breakpad::ContainedRangeMap<unsigned long, google_breakpad::linked_ptr<google_breakpad::WindowsFrameInfo> >::RetrieveRange(unsigned long const&, google_breakpad::linked_ptr<google_breakpad::WindowsFrameInfo>*) const
PUBLIC f450 0 google_breakpad::RangeMap<unsigned long, std::__cxx11::basic_string<char, std::char_traits<char>, std::allocator<char> > >::RetrieveRange(unsigned long const&, std::__cxx11::basic_string<char, std::char_traits<char>, std::allocator<char> >*, unsigned long*, unsigned long*, unsigned long*) const
PUBLIC f6c0 0 std::_Rb_tree<unsigned long, std::pair<unsigned long const, google_breakpad::RangeMap<unsigned long, google_breakpad::linked_ptr<google_breakpad::SourceLineResolverBase::Line> >::Range>, std::_Select1st<std::pair<unsigned long const, google_breakpad::RangeMap<unsigned long, google_breakpad::linked_ptr<google_breakpad::SourceLineResolverBase::Line> >::Range> >, std::less<unsigned long>, std::allocator<std::pair<unsigned long const, google_breakpad::RangeMap<unsigned long, google_breakpad::linked_ptr<google_breakpad::SourceLineResolverBase::Line> >::Range> > >::_M_erase(std::_Rb_tree_node<std::pair<unsigned long const, google_breakpad::RangeMap<unsigned long, google_breakpad::linked_ptr<google_breakpad::SourceLineResolverBase::Line> >::Range> >*)
PUBLIC f740 0 std::_Rb_tree<int, std::pair<int const, std::__cxx11::basic_string<char, std::char_traits<char>, std::allocator<char> > >, std::_Select1st<std::pair<int const, std::__cxx11::basic_string<char, std::char_traits<char>, std::allocator<char> > > >, std::less<int>, std::allocator<std::pair<int const, std::__cxx11::basic_string<char, std::char_traits<char>, std::allocator<char> > > > >::_M_erase(std::_Rb_tree_node<std::pair<int const, std::__cxx11::basic_string<char, std::char_traits<char>, std::allocator<char> > > >*)
PUBLIC f7a0 0 std::_Rb_tree<unsigned long, std::pair<unsigned long const, google_breakpad::RangeMap<unsigned long, google_breakpad::linked_ptr<google_breakpad::BasicSourceLineResolver::Function> >::Range>, std::_Select1st<std::pair<unsigned long const, google_breakpad::RangeMap<unsigned long, google_breakpad::linked_ptr<google_breakpad::BasicSourceLineResolver::Function> >::Range> >, std::less<unsigned long>, std::allocator<std::pair<unsigned long const, google_breakpad::RangeMap<unsigned long, google_breakpad::linked_ptr<google_breakpad::BasicSourceLineResolver::Function> >::Range> > >::_M_erase(std::_Rb_tree_node<std::pair<unsigned long const, google_breakpad::RangeMap<unsigned long, google_breakpad::linked_ptr<google_breakpad::BasicSourceLineResolver::Function> >::Range> >*)
PUBLIC f860 0 std::_Rb_tree<unsigned long, std::pair<unsigned long const, google_breakpad::linked_ptr<google_breakpad::SourceLineResolverBase::PublicSymbol> >, std::_Select1st<std::pair<unsigned long const, google_breakpad::linked_ptr<google_breakpad::SourceLineResolverBase::PublicSymbol> > >, std::less<unsigned long>, std::allocator<std::pair<unsigned long const, google_breakpad::linked_ptr<google_breakpad::SourceLineResolverBase::PublicSymbol> > > >::_M_erase(std::_Rb_tree_node<std::pair<unsigned long const, google_breakpad::linked_ptr<google_breakpad::SourceLineResolverBase::PublicSymbol> > >*)
PUBLIC f910 0 std::_Rb_tree<unsigned long, std::pair<unsigned long const, google_breakpad::RangeMap<unsigned long, std::__cxx11::basic_string<char, std::char_traits<char>, std::allocator<char> > >::Range>, std::_Select1st<std::pair<unsigned long const, google_breakpad::RangeMap<unsigned long, std::__cxx11::basic_string<char, std::char_traits<char>, std::allocator<char> > >::Range> >, std::less<unsigned long>, std::allocator<std::pair<unsigned long const, google_breakpad::RangeMap<unsigned long, std::__cxx11::basic_string<char, std::char_traits<char>, std::allocator<char> > >::Range> > >::_M_erase(std::_Rb_tree_node<std::pair<unsigned long const, google_breakpad::RangeMap<unsigned long, std::__cxx11::basic_string<char, std::char_traits<char>, std::allocator<char> > >::Range> >*)
PUBLIC f970 0 std::_Rb_tree<unsigned long, std::pair<unsigned long const, std::__cxx11::basic_string<char, std::char_traits<char>, std::allocator<char> > >, std::_Select1st<std::pair<unsigned long const, std::__cxx11::basic_string<char, std::char_traits<char>, std::allocator<char> > > >, std::less<unsigned long>, std::allocator<std::pair<unsigned long const, std::__cxx11::basic_string<char, std::char_traits<char>, std::allocator<char> > > > >::_M_erase(std::_Rb_tree_node<std::pair<unsigned long const, std::__cxx11::basic_string<char, std::char_traits<char>, std::allocator<char> > > >*)
PUBLIC f9d0 0 void std::vector<char*, std::allocator<char*> >::_M_realloc_insert<char* const&>(__gnu_cxx::__normal_iterator<char**, std::vector<char*, std::allocator<char*> > >, char* const&)
PUBLIC fb00 0 google_breakpad::linked_ptr<google_breakpad::SourceLineResolverBase::Line>::depart()
PUBLIC fb40 0 google_breakpad::RangeMap<unsigned long, google_breakpad::linked_ptr<google_breakpad::BasicSourceLineResolver::Function> >::RetrieveRange(unsigned long const&, google_breakpad::linked_ptr<google_breakpad::BasicSourceLineResolver::Function>*, unsigned long*, unsigned long*, unsigned long*) const
PUBLIC fe50 0 google_breakpad::RangeMap<unsigned long, google_breakpad::linked_ptr<google_breakpad::BasicSourceLineResolver::Function> >::RetrieveNearestRange(unsigned long const&, google_breakpad::linked_ptr<google_breakpad::BasicSourceLineResolver::Function>*, unsigned long*, unsigned long*, unsigned long*) const
PUBLIC 10160 0 std::_Rb_tree<std::__cxx11::basic_string<char, std::char_traits<char>, std::allocator<char> >, std::pair<std::__cxx11::basic_string<char, std::char_traits<char>, std::allocator<char> > const, std::__cxx11::basic_string<char, std::char_traits<char>, std::allocator<char> > >, std::_Select1st<std::pair<std::__cxx11::basic_string<char, std::char_traits<char>, std::allocator<char> > const, std::__cxx11::basic_string<char, std::char_traits<char>, std::allocator<char> > > >, std::less<std::__cxx11::basic_string<char, std::char_traits<char>, std::allocator<char> > >, std::allocator<std::pair<std::__cxx11::basic_string<char, std::char_traits<char>, std::allocator<char> > const, std::__cxx11::basic_string<char, std::char_traits<char>, std::allocator<char> > > > >::_M_erase(std::_Rb_tree_node<std::pair<std::__cxx11::basic_string<char, std::char_traits<char>, std::allocator<char> > const, std::__cxx11::basic_string<char, std::char_traits<char>, std::allocator<char> > > >*)
PUBLIC 101d0 0 std::pair<std::_Rb_tree_iterator<std::pair<int const, std::__cxx11::basic_string<char, std::char_traits<char>, std::allocator<char> > > >, bool> std::_Rb_tree<int, std::pair<int const, std::__cxx11::basic_string<char, std::char_traits<char>, std::allocator<char> > >, std::_Select1st<std::pair<int const, std::__cxx11::basic_string<char, std::char_traits<char>, std::allocator<char> > > >, std::less<int>, std::allocator<std::pair<int const, std::__cxx11::basic_string<char, std::char_traits<char>, std::allocator<char> > > > >::_M_emplace_unique<std::pair<long, std::__cxx11::basic_string<char, std::char_traits<char>, std::allocator<char> > > >(std::pair<long, std::__cxx11::basic_string<char, std::char_traits<char>, std::allocator<char> > >&&)
PUBLIC 10320 0 std::pair<std::_Rb_tree_iterator<std::pair<unsigned long const, google_breakpad::linked_ptr<google_breakpad::SourceLineResolverBase::PublicSymbol> > >, bool> std::_Rb_tree<unsigned long, std::pair<unsigned long const, google_breakpad::linked_ptr<google_breakpad::SourceLineResolverBase::PublicSymbol> >, std::_Select1st<std::pair<unsigned long const, google_breakpad::linked_ptr<google_breakpad::SourceLineResolverBase::PublicSymbol> > >, std::less<unsigned long>, std::allocator<std::pair<unsigned long const, google_breakpad::linked_ptr<google_breakpad::SourceLineResolverBase::PublicSymbol> > > >::_M_insert_unique<std::pair<unsigned long const, google_breakpad::linked_ptr<google_breakpad::SourceLineResolverBase::PublicSymbol> > >(std::pair<unsigned long const, google_breakpad::linked_ptr<google_breakpad::SourceLineResolverBase::PublicSymbol> >&&)
PUBLIC 10490 0 google_breakpad::AddressMap<unsigned long, google_breakpad::linked_ptr<google_breakpad::SourceLineResolverBase::PublicSymbol> >::Store(unsigned long const&, google_breakpad::linked_ptr<google_breakpad::SourceLineResolverBase::PublicSymbol> const&)
PUBLIC 106e0 0 std::_Rb_tree<unsigned long, std::pair<unsigned long const, google_breakpad::ContainedRangeMap<unsigned long, google_breakpad::linked_ptr<google_breakpad::WindowsFrameInfo> >*>, std::_Select1st<std::pair<unsigned long const, google_breakpad::ContainedRangeMap<unsigned long, google_breakpad::linked_ptr<google_breakpad::WindowsFrameInfo> >*> >, std::less<unsigned long>, std::allocator<std::pair<unsigned long const, google_breakpad::ContainedRangeMap<unsigned long, google_breakpad::linked_ptr<google_breakpad::WindowsFrameInfo> >*> > >::_M_erase(std::_Rb_tree_node<std::pair<unsigned long const, google_breakpad::ContainedRangeMap<unsigned long, google_breakpad::linked_ptr<google_breakpad::WindowsFrameInfo> >*> >*)
PUBLIC 10720 0 google_breakpad::ContainedRangeMap<unsigned long, google_breakpad::linked_ptr<google_breakpad::WindowsFrameInfo> >::~ContainedRangeMap()
PUBLIC 10820 0 google_breakpad::BasicSourceLineResolver::Module::~Module()
PUBLIC 108d0 0 google_breakpad::BasicSourceLineResolver::Module::~Module()
PUBLIC 10990 0 std::pair<std::_Rb_tree_iterator<std::pair<unsigned long const, google_breakpad::RangeMap<unsigned long, google_breakpad::linked_ptr<google_breakpad::BasicSourceLineResolver::Function> >::Range> >, bool> std::_Rb_tree<unsigned long, std::pair<unsigned long const, google_breakpad::RangeMap<unsigned long, google_breakpad::linked_ptr<google_breakpad::BasicSourceLineResolver::Function> >::Range>, std::_Select1st<std::pair<unsigned long const, google_breakpad::RangeMap<unsigned long, google_breakpad::linked_ptr<google_breakpad::BasicSourceLineResolver::Function> >::Range> >, std::less<unsigned long>, std::allocator<std::pair<unsigned long const, google_breakpad::RangeMap<unsigned long, google_breakpad::linked_ptr<google_breakpad::BasicSourceLineResolver::Function> >::Range> > >::_M_insert_unique<std::pair<unsigned long const, google_breakpad::RangeMap<unsigned long, google_breakpad::linked_ptr<google_breakpad::BasicSourceLineResolver::Function> >::Range> >(std::pair<unsigned long const, google_breakpad::RangeMap<unsigned long, google_breakpad::linked_ptr<google_breakpad::BasicSourceLineResolver::Function> >::Range>&&)
PUBLIC 10b10 0 google_breakpad::RangeMap<unsigned long, google_breakpad::linked_ptr<google_breakpad::BasicSourceLineResolver::Function> >::StoreRangeInternal(unsigned long const&, unsigned long const&, unsigned long const&, google_breakpad::linked_ptr<google_breakpad::BasicSourceLineResolver::Function> const&)
PUBLIC 114d0 0 std::pair<std::_Rb_tree_iterator<std::pair<unsigned long const, google_breakpad::RangeMap<unsigned long, google_breakpad::linked_ptr<google_breakpad::SourceLineResolverBase::Line> >::Range> >, bool> std::_Rb_tree<unsigned long, std::pair<unsigned long const, google_breakpad::RangeMap<unsigned long, google_breakpad::linked_ptr<google_breakpad::SourceLineResolverBase::Line> >::Range>, std::_Select1st<std::pair<unsigned long const, google_breakpad::RangeMap<unsigned long, google_breakpad::linked_ptr<google_breakpad::SourceLineResolverBase::Line> >::Range> >, std::less<unsigned long>, std::allocator<std::pair<unsigned long const, google_breakpad::RangeMap<unsigned long, google_breakpad::linked_ptr<google_breakpad::SourceLineResolverBase::Line> >::Range> > >::_M_insert_unique<std::pair<unsigned long const, google_breakpad::RangeMap<unsigned long, google_breakpad::linked_ptr<google_breakpad::SourceLineResolverBase::Line> >::Range> >(std::pair<unsigned long const, google_breakpad::RangeMap<unsigned long, google_breakpad::linked_ptr<google_breakpad::SourceLineResolverBase::Line> >::Range>&&)
PUBLIC 11650 0 google_breakpad::RangeMap<unsigned long, google_breakpad::linked_ptr<google_breakpad::SourceLineResolverBase::Line> >::StoreRangeInternal(unsigned long const&, unsigned long const&, unsigned long const&, google_breakpad::linked_ptr<google_breakpad::SourceLineResolverBase::Line> const&)
PUBLIC 11f00 0 std::_Rb_tree<unsigned long, std::pair<unsigned long const, google_breakpad::ContainedRangeMap<unsigned long, google_breakpad::linked_ptr<google_breakpad::WindowsFrameInfo> >*>, std::_Select1st<std::pair<unsigned long const, google_breakpad::ContainedRangeMap<unsigned long, google_breakpad::linked_ptr<google_breakpad::WindowsFrameInfo> >*> >, std::less<unsigned long>, std::allocator<std::pair<unsigned long const, google_breakpad::ContainedRangeMap<unsigned long, google_breakpad::linked_ptr<google_breakpad::WindowsFrameInfo> >*> > >::_M_get_insert_unique_pos(unsigned long const&)
PUBLIC 11f90 0 std::pair<std::_Rb_tree_iterator<std::pair<unsigned long const, google_breakpad::RangeMap<unsigned long, std::__cxx11::basic_string<char, std::char_traits<char>, std::allocator<char> > >::Range> >, bool> std::_Rb_tree<unsigned long, std::pair<unsigned long const, google_breakpad::RangeMap<unsigned long, std::__cxx11::basic_string<char, std::char_traits<char>, std::allocator<char> > >::Range>, std::_Select1st<std::pair<unsigned long const, google_breakpad::RangeMap<unsigned long, std::__cxx11::basic_string<char, std::char_traits<char>, std::allocator<char> > >::Range> >, std::less<unsigned long>, std::allocator<std::pair<unsigned long const, google_breakpad::RangeMap<unsigned long, std::__cxx11::basic_string<char, std::char_traits<char>, std::allocator<char> > >::Range> > >::_M_insert_unique<std::pair<unsigned long const, google_breakpad::RangeMap<unsigned long, std::__cxx11::basic_string<char, std::char_traits<char>, std::allocator<char> > >::Range> >(std::pair<unsigned long const, google_breakpad::RangeMap<unsigned long, std::__cxx11::basic_string<char, std::char_traits<char>, std::allocator<char> > >::Range>&&)
PUBLIC 12100 0 google_breakpad::RangeMap<unsigned long, std::__cxx11::basic_string<char, std::char_traits<char>, std::allocator<char> > >::StoreRangeInternal(unsigned long const&, unsigned long const&, unsigned long const&, std::__cxx11::basic_string<char, std::char_traits<char>, std::allocator<char> > const&)
PUBLIC 12830 0 std::_Rb_tree<unsigned long, std::pair<unsigned long const, std::__cxx11::basic_string<char, std::char_traits<char>, std::allocator<char> > >, std::_Select1st<std::pair<unsigned long const, std::__cxx11::basic_string<char, std::char_traits<char>, std::allocator<char> > > >, std::less<unsigned long>, std::allocator<std::pair<unsigned long const, std::__cxx11::basic_string<char, std::char_traits<char>, std::allocator<char> > > > >::_M_get_insert_unique_pos(unsigned long const&)
PUBLIC 128c0 0 std::_Rb_tree<unsigned long, std::pair<unsigned long const, std::__cxx11::basic_string<char, std::char_traits<char>, std::allocator<char> > >, std::_Select1st<std::pair<unsigned long const, std::__cxx11::basic_string<char, std::char_traits<char>, std::allocator<char> > > >, std::less<unsigned long>, std::allocator<std::pair<unsigned long const, std::__cxx11::basic_string<char, std::char_traits<char>, std::allocator<char> > > > >::_M_get_insert_hint_unique_pos(std::_Rb_tree_const_iterator<std::pair<unsigned long const, std::__cxx11::basic_string<char, std::char_traits<char>, std::allocator<char> > > >, unsigned long const&)
PUBLIC 129b0 0 std::_Rb_tree<unsigned long, std::pair<unsigned long const, google_breakpad::ContainedRangeMap<unsigned long, google_breakpad::linked_ptr<google_breakpad::WindowsFrameInfo> >*>, std::_Select1st<std::pair<unsigned long const, google_breakpad::ContainedRangeMap<unsigned long, google_breakpad::linked_ptr<google_breakpad::WindowsFrameInfo> >*> >, std::less<unsigned long>, std::allocator<std::pair<unsigned long const, google_breakpad::ContainedRangeMap<unsigned long, google_breakpad::linked_ptr<google_breakpad::WindowsFrameInfo> >*> > >::_M_get_insert_hint_unique_pos(std::_Rb_tree_const_iterator<std::pair<unsigned long const, google_breakpad::ContainedRangeMap<unsigned long, google_breakpad::linked_ptr<google_breakpad::WindowsFrameInfo> >*> >, unsigned long const&)
PUBLIC 12aa0 0 google_breakpad::ContainedRangeMap<unsigned long, google_breakpad::linked_ptr<google_breakpad::WindowsFrameInfo> >::StoreRange(unsigned long const&, unsigned long const&, google_breakpad::linked_ptr<google_breakpad::WindowsFrameInfo> const&)
PUBLIC 12e60 0 google_breakpad::CallStack::Clear()
PUBLIC 12ef0 0 google_breakpad::CallStack::~CallStack()
PUBLIC 12f20 0 google_breakpad::StackFrame::ReturnAddress() const
PUBLIC 12f30 0 google_breakpad::StackFrame::~StackFrame()
PUBLIC 12f80 0 google_breakpad::StackFrame::~StackFrame()
PUBLIC 12fd0 0 google_breakpad::CFIFrameInfoParseHandler::CFARule(std::__cxx11::basic_string<char, std::char_traits<char>, std::allocator<char> > const&)
PUBLIC 12fe0 0 google_breakpad::CFIFrameInfoParseHandler::RARule(std::__cxx11::basic_string<char, std::char_traits<char>, std::allocator<char> > const&)
PUBLIC 12ff0 0 void std::__cxx11::basic_string<char, std::char_traits<char>, std::allocator<char> >::_M_construct<char const*>(char const*, char const*, std::forward_iterator_tag) [clone .isra.54]
PUBLIC 130c0 0 google_breakpad::CFIRuleParser::Report()
PUBLIC 13150 0 google_breakpad::CFIRuleParser::Parse(std::__cxx11::basic_string<char, std::char_traits<char>, std::allocator<char> > const&)
PUBLIC 133a0 0 google_breakpad::CFIFrameInfo::Serialize[abi:cxx11]() const
PUBLIC 139a0 0 google_breakpad::CFIFrameInfoParseHandler::RegisterRule(std::__cxx11::basic_string<char, std::char_traits<char>, std::allocator<char> > const&, std::__cxx11::basic_string<char, std::char_traits<char>, std::allocator<char> > const&)
PUBLIC 13c30 0 google_breakpad::CFIFrameInfoParseHandler::~CFIFrameInfoParseHandler()
PUBLIC 13c40 0 google_breakpad::CFIFrameInfoParseHandler::~CFIFrameInfoParseHandler()
PUBLIC 13c50 0 std::vector<std::__cxx11::basic_string<char, std::char_traits<char>, std::allocator<char> >, std::allocator<std::__cxx11::basic_string<char, std::char_traits<char>, std::allocator<char> > > >::clear()
PUBLIC 13ca0 0 std::__cxx11::basic_stringbuf<char, std::char_traits<char>, std::allocator<char> >::~basic_stringbuf()
PUBLIC 13ce0 0 std::__cxx11::basic_stringbuf<char, std::char_traits<char>, std::allocator<char> >::~basic_stringbuf()
PUBLIC 13d30 0 std::_Rb_tree<std::__cxx11::basic_string<char, std::char_traits<char>, std::allocator<char> >, std::pair<std::__cxx11::basic_string<char, std::char_traits<char>, std::allocator<char> > const, unsigned int>, std::_Select1st<std::pair<std::__cxx11::basic_string<char, std::char_traits<char>, std::allocator<char> > const, unsigned int> >, std::less<std::__cxx11::basic_string<char, std::char_traits<char>, std::allocator<char> > >, std::allocator<std::pair<std::__cxx11::basic_string<char, std::char_traits<char>, std::allocator<char> > const, unsigned int> > >::_M_erase(std::_Rb_tree_node<std::pair<std::__cxx11::basic_string<char, std::char_traits<char>, std::allocator<char> > const, unsigned int> >*)
PUBLIC 13d90 0 std::_Rb_tree<std::__cxx11::basic_string<char, std::char_traits<char>, std::allocator<char> >, std::pair<std::__cxx11::basic_string<char, std::char_traits<char>, std::allocator<char> > const, unsigned long>, std::_Select1st<std::pair<std::__cxx11::basic_string<char, std::char_traits<char>, std::allocator<char> > const, unsigned long> >, std::less<std::__cxx11::basic_string<char, std::char_traits<char>, std::allocator<char> > >, std::allocator<std::pair<std::__cxx11::basic_string<char, std::char_traits<char>, std::allocator<char> > const, unsigned long> > >::_M_erase(std::_Rb_tree_node<std::pair<std::__cxx11::basic_string<char, std::char_traits<char>, std::allocator<char> > const, unsigned long> >*)
PUBLIC 13df0 0 std::_Rb_tree<std::__cxx11::basic_string<char, std::char_traits<char>, std::allocator<char> >, std::pair<std::__cxx11::basic_string<char, std::char_traits<char>, std::allocator<char> > const, std::__cxx11::basic_string<char, std::char_traits<char>, std::allocator<char> > >, std::_Select1st<std::pair<std::__cxx11::basic_string<char, std::char_traits<char>, std::allocator<char> > const, std::__cxx11::basic_string<char, std::char_traits<char>, std::allocator<char> > > >, std::less<std::__cxx11::basic_string<char, std::char_traits<char>, std::allocator<char> > >, std::allocator<std::pair<std::__cxx11::basic_string<char, std::char_traits<char>, std::allocator<char> > const, std::__cxx11::basic_string<char, std::char_traits<char>, std::allocator<char> > > > >::_M_get_insert_unique_pos(std::__cxx11::basic_string<char, std::char_traits<char>, std::allocator<char> > const&)
PUBLIC 13f80 0 std::_Rb_tree<std::__cxx11::basic_string<char, std::char_traits<char>, std::allocator<char> >, std::pair<std::__cxx11::basic_string<char, std::char_traits<char>, std::allocator<char> > const, std::__cxx11::basic_string<char, std::char_traits<char>, std::allocator<char> > >, std::_Select1st<std::pair<std::__cxx11::basic_string<char, std::char_traits<char>, std::allocator<char> > const, std::__cxx11::basic_string<char, std::char_traits<char>, std::allocator<char> > > >, std::less<std::__cxx11::basic_string<char, std::char_traits<char>, std::allocator<char> > >, std::allocator<std::pair<std::__cxx11::basic_string<char, std::char_traits<char>, std::allocator<char> > const, std::__cxx11::basic_string<char, std::char_traits<char>, std::allocator<char> > > > >::_M_get_insert_hint_unique_pos(std::_Rb_tree_const_iterator<std::pair<std::__cxx11::basic_string<char, std::char_traits<char>, std::allocator<char> > const, std::__cxx11::basic_string<char, std::char_traits<char>, std::allocator<char> > > >, std::__cxx11::basic_string<char, std::char_traits<char>, std::allocator<char> > const&)
PUBLIC 14240 0 std::_Rb_tree_node<std::pair<std::__cxx11::basic_string<char, std::char_traits<char>, std::allocator<char> > const, unsigned int> >* std::_Rb_tree<std::__cxx11::basic_string<char, std::char_traits<char>, std::allocator<char> >, std::pair<std::__cxx11::basic_string<char, std::char_traits<char>, std::allocator<char> > const, unsigned int>, std::_Select1st<std::pair<std::__cxx11::basic_string<char, std::char_traits<char>, std::allocator<char> > const, unsigned int> >, std::less<std::__cxx11::basic_string<char, std::char_traits<char>, std::allocator<char> > >, std::allocator<std::pair<std::__cxx11::basic_string<char, std::char_traits<char>, std::allocator<char> > const, unsigned int> > >::_M_copy<std::_Rb_tree<std::__cxx11::basic_string<char, std::char_traits<char>, std::allocator<char> >, std::pair<std::__cxx11::basic_string<char, std::char_traits<char>, std::allocator<char> > const, unsigned int>, std::_Select1st<std::pair<std::__cxx11::basic_string<char, std::char_traits<char>, std::allocator<char> > const, unsigned int> >, std::less<std::__cxx11::basic_string<char, std::char_traits<char>, std::allocator<char> > >, std::allocator<std::pair<std::__cxx11::basic_string<char, std::char_traits<char>, std::allocator<char> > const, unsigned int> > >::_Reuse_or_alloc_node>(std::_Rb_tree_node<std::pair<std::__cxx11::basic_string<char, std::char_traits<char>, std::allocator<char> > const, unsigned int> > const*, std::_Rb_tree_node_base*, std::_Rb_tree<std::__cxx11::basic_string<char, std::char_traits<char>, std::allocator<char> >, std::pair<std::__cxx11::basic_string<char, std::char_traits<char>, std::allocator<char> > const, unsigned int>, std::_Select1st<std::pair<std::__cxx11::basic_string<char, std::char_traits<char>, std::allocator<char> > const, unsigned int> >, std::less<std::__cxx11::basic_string<char, std::char_traits<char>, std::allocator<char> > >, std::allocator<std::pair<std::__cxx11::basic_string<char, std::char_traits<char>, std::allocator<char> > const, unsigned int> > >::_Reuse_or_alloc_node&)
PUBLIC 145e0 0 std::_Rb_tree<std::__cxx11::basic_string<char, std::char_traits<char>, std::allocator<char> >, std::pair<std::__cxx11::basic_string<char, std::char_traits<char>, std::allocator<char> > const, unsigned int>, std::_Select1st<std::pair<std::__cxx11::basic_string<char, std::char_traits<char>, std::allocator<char> > const, unsigned int> >, std::less<std::__cxx11::basic_string<char, std::char_traits<char>, std::allocator<char> > >, std::allocator<std::pair<std::__cxx11::basic_string<char, std::char_traits<char>, std::allocator<char> > const, unsigned int> > >::operator=(std::_Rb_tree<std::__cxx11::basic_string<char, std::char_traits<char>, std::allocator<char> >, std::pair<std::__cxx11::basic_string<char, std::char_traits<char>, std::allocator<char> > const, unsigned int>, std::_Select1st<std::pair<std::__cxx11::basic_string<char, std::char_traits<char>, std::allocator<char> > const, unsigned int> >, std::less<std::__cxx11::basic_string<char, std::char_traits<char>, std::allocator<char> > >, std::allocator<std::pair<std::__cxx11::basic_string<char, std::char_traits<char>, std::allocator<char> > const, unsigned int> > > const&)
PUBLIC 14720 0 google_breakpad::PostfixEvaluator<unsigned int>::PopValueOrIdentifier(unsigned int*, std::__cxx11::basic_string<char, std::char_traits<char>, std::allocator<char> >*)
PUBLIC 14b40 0 google_breakpad::PostfixEvaluator<unsigned int>::PopValue(unsigned int*)
PUBLIC 14d90 0 std::_Rb_tree<std::__cxx11::basic_string<char, std::char_traits<char>, std::allocator<char> >, std::pair<std::__cxx11::basic_string<char, std::char_traits<char>, std::allocator<char> > const, unsigned int>, std::_Select1st<std::pair<std::__cxx11::basic_string<char, std::char_traits<char>, std::allocator<char> > const, unsigned int> >, std::less<std::__cxx11::basic_string<char, std::char_traits<char>, std::allocator<char> > >, std::allocator<std::pair<std::__cxx11::basic_string<char, std::char_traits<char>, std::allocator<char> > const, unsigned int> > >::_M_insert_node(std::_Rb_tree_node_base*, std::_Rb_tree_node_base*, std::_Rb_tree_node<std::pair<std::__cxx11::basic_string<char, std::char_traits<char>, std::allocator<char> > const, unsigned int> >*)
PUBLIC 14e50 0 std::_Rb_tree_node<std::pair<std::__cxx11::basic_string<char, std::char_traits<char>, std::allocator<char> > const, unsigned long> >* std::_Rb_tree<std::__cxx11::basic_string<char, std::char_traits<char>, std::allocator<char> >, std::pair<std::__cxx11::basic_string<char, std::char_traits<char>, std::allocator<char> > const, unsigned long>, std::_Select1st<std::pair<std::__cxx11::basic_string<char, std::char_traits<char>, std::allocator<char> > const, unsigned long> >, std::less<std::__cxx11::basic_string<char, std::char_traits<char>, std::allocator<char> > >, std::allocator<std::pair<std::__cxx11::basic_string<char, std::char_traits<char>, std::allocator<char> > const, unsigned long> > >::_M_copy<std::_Rb_tree<std::__cxx11::basic_string<char, std::char_traits<char>, std::allocator<char> >, std::pair<std::__cxx11::basic_string<char, std::char_traits<char>, std::allocator<char> > const, unsigned long>, std::_Select1st<std::pair<std::__cxx11::basic_string<char, std::char_traits<char>, std::allocator<char> > const, unsigned long> >, std::less<std::__cxx11::basic_string<char, std::char_traits<char>, std::allocator<char> > >, std::allocator<std::pair<std::__cxx11::basic_string<char, std::char_traits<char>, std::allocator<char> > const, unsigned long> > >::_Reuse_or_alloc_node>(std::_Rb_tree_node<std::pair<std::__cxx11::basic_string<char, std::char_traits<char>, std::allocator<char> > const, unsigned long> > const*, std::_Rb_tree_node_base*, std::_Rb_tree<std::__cxx11::basic_string<char, std::char_traits<char>, std::allocator<char> >, std::pair<std::__cxx11::basic_string<char, std::char_traits<char>, std::allocator<char> > const, unsigned long>, std::_Select1st<std::pair<std::__cxx11::basic_string<char, std::char_traits<char>, std::allocator<char> > const, unsigned long> >, std::less<std::__cxx11::basic_string<char, std::char_traits<char>, std::allocator<char> > >, std::allocator<std::pair<std::__cxx11::basic_string<char, std::char_traits<char>, std::allocator<char> > const, unsigned long> > >::_Reuse_or_alloc_node&)
PUBLIC 15200 0 std::_Rb_tree<std::__cxx11::basic_string<char, std::char_traits<char>, std::allocator<char> >, std::pair<std::__cxx11::basic_string<char, std::char_traits<char>, std::allocator<char> > const, unsigned long>, std::_Select1st<std::pair<std::__cxx11::basic_string<char, std::char_traits<char>, std::allocator<char> > const, unsigned long> >, std::less<std::__cxx11::basic_string<char, std::char_traits<char>, std::allocator<char> > >, std::allocator<std::pair<std::__cxx11::basic_string<char, std::char_traits<char>, std::allocator<char> > const, unsigned long> > >::operator=(std::_Rb_tree<std::__cxx11::basic_string<char, std::char_traits<char>, std::allocator<char> >, std::pair<std::__cxx11::basic_string<char, std::char_traits<char>, std::allocator<char> > const, unsigned long>, std::_Select1st<std::pair<std::__cxx11::basic_string<char, std::char_traits<char>, std::allocator<char> > const, unsigned long> >, std::less<std::__cxx11::basic_string<char, std::char_traits<char>, std::allocator<char> > >, std::allocator<std::pair<std::__cxx11::basic_string<char, std::char_traits<char>, std::allocator<char> > const, unsigned long> > > const&)
PUBLIC 15340 0 google_breakpad::PostfixEvaluator<unsigned long>::PopValueOrIdentifier(unsigned long*, std::__cxx11::basic_string<char, std::char_traits<char>, std::allocator<char> >*)
PUBLIC 15770 0 google_breakpad::PostfixEvaluator<unsigned long>::PopValue(unsigned long*)
PUBLIC 159c0 0 std::_Rb_tree<std::__cxx11::basic_string<char, std::char_traits<char>, std::allocator<char> >, std::pair<std::__cxx11::basic_string<char, std::char_traits<char>, std::allocator<char> > const, unsigned long>, std::_Select1st<std::pair<std::__cxx11::basic_string<char, std::char_traits<char>, std::allocator<char> > const, unsigned long> >, std::less<std::__cxx11::basic_string<char, std::char_traits<char>, std::allocator<char> > >, std::allocator<std::pair<std::__cxx11::basic_string<char, std::char_traits<char>, std::allocator<char> > const, unsigned long> > >::_M_insert_node(std::_Rb_tree_node_base*, std::_Rb_tree_node_base*, std::_Rb_tree_node<std::pair<std::__cxx11::basic_string<char, std::char_traits<char>, std::allocator<char> > const, unsigned long> >*)
PUBLIC 15a80 0 std::_Rb_tree<std::__cxx11::basic_string<char, std::char_traits<char>, std::allocator<char> >, std::pair<std::__cxx11::basic_string<char, std::char_traits<char>, std::allocator<char> > const, unsigned int>, std::_Select1st<std::pair<std::__cxx11::basic_string<char, std::char_traits<char>, std::allocator<char> > const, unsigned int> >, std::less<std::__cxx11::basic_string<char, std::char_traits<char>, std::allocator<char> > >, std::allocator<std::pair<std::__cxx11::basic_string<char, std::char_traits<char>, std::allocator<char> > const, unsigned int> > >::_M_get_insert_unique_pos(std::__cxx11::basic_string<char, std::char_traits<char>, std::allocator<char> > const&)
PUBLIC 15c10 0 std::_Rb_tree<std::__cxx11::basic_string<char, std::char_traits<char>, std::allocator<char> >, std::pair<std::__cxx11::basic_string<char, std::char_traits<char>, std::allocator<char> > const, unsigned int>, std::_Select1st<std::pair<std::__cxx11::basic_string<char, std::char_traits<char>, std::allocator<char> > const, unsigned int> >, std::less<std::__cxx11::basic_string<char, std::char_traits<char>, std::allocator<char> > >, std::allocator<std::pair<std::__cxx11::basic_string<char, std::char_traits<char>, std::allocator<char> > const, unsigned int> > >::_M_get_insert_hint_unique_pos(std::_Rb_tree_const_iterator<std::pair<std::__cxx11::basic_string<char, std::char_traits<char>, std::allocator<char> > const, unsigned int> >, std::__cxx11::basic_string<char, std::char_traits<char>, std::allocator<char> > const&)
PUBLIC 15ed0 0 std::map<std::__cxx11::basic_string<char, std::char_traits<char>, std::allocator<char> >, unsigned int, std::less<std::__cxx11::basic_string<char, std::char_traits<char>, std::allocator<char> > >, std::allocator<std::pair<std::__cxx11::basic_string<char, std::char_traits<char>, std::allocator<char> > const, unsigned int> > >::operator[](std::__cxx11::basic_string<char, std::char_traits<char>, std::allocator<char> > const&)
PUBLIC 16090 0 std::_Rb_tree<std::__cxx11::basic_string<char, std::char_traits<char>, std::allocator<char> >, std::pair<std::__cxx11::basic_string<char, std::char_traits<char>, std::allocator<char> > const, unsigned long>, std::_Select1st<std::pair<std::__cxx11::basic_string<char, std::char_traits<char>, std::allocator<char> > const, unsigned long> >, std::less<std::__cxx11::basic_string<char, std::char_traits<char>, std::allocator<char> > >, std::allocator<std::pair<std::__cxx11::basic_string<char, std::char_traits<char>, std::allocator<char> > const, unsigned long> > >::_M_get_insert_unique_pos(std::__cxx11::basic_string<char, std::char_traits<char>, std::allocator<char> > const&)
PUBLIC 16220 0 std::_Rb_tree<std::__cxx11::basic_string<char, std::char_traits<char>, std::allocator<char> >, std::pair<std::__cxx11::basic_string<char, std::char_traits<char>, std::allocator<char> > const, unsigned long>, std::_Select1st<std::pair<std::__cxx11::basic_string<char, std::char_traits<char>, std::allocator<char> > const, unsigned long> >, std::less<std::__cxx11::basic_string<char, std::char_traits<char>, std::allocator<char> > >, std::allocator<std::pair<std::__cxx11::basic_string<char, std::char_traits<char>, std::allocator<char> > const, unsigned long> > >::_M_get_insert_hint_unique_pos(std::_Rb_tree_const_iterator<std::pair<std::__cxx11::basic_string<char, std::char_traits<char>, std::allocator<char> > const, unsigned long> >, std::__cxx11::basic_string<char, std::char_traits<char>, std::allocator<char> > const&)
PUBLIC 164e0 0 std::map<std::__cxx11::basic_string<char, std::char_traits<char>, std::allocator<char> >, unsigned long, std::less<std::__cxx11::basic_string<char, std::char_traits<char>, std::allocator<char> > >, std::allocator<std::pair<std::__cxx11::basic_string<char, std::char_traits<char>, std::allocator<char> > const, unsigned long> > >::operator[](std::__cxx11::basic_string<char, std::char_traits<char>, std::allocator<char> > const&)
PUBLIC 166a0 0 void std::vector<std::__cxx11::basic_string<char, std::char_traits<char>, std::allocator<char> >, std::allocator<std::__cxx11::basic_string<char, std::char_traits<char>, std::allocator<char> > > >::_M_realloc_insert<std::__cxx11::basic_string<char, std::char_traits<char>, std::allocator<char> > const&>(__gnu_cxx::__normal_iterator<std::__cxx11::basic_string<char, std::char_traits<char>, std::allocator<char> >*, std::vector<std::__cxx11::basic_string<char, std::char_traits<char>, std::allocator<char> >, std::allocator<std::__cxx11::basic_string<char, std::char_traits<char>, std::allocator<char> > > > >, std::__cxx11::basic_string<char, std::char_traits<char>, std::allocator<char> > const&)
PUBLIC 16930 0 std::vector<std::__cxx11::basic_string<char, std::char_traits<char>, std::allocator<char> >, std::allocator<std::__cxx11::basic_string<char, std::char_traits<char>, std::allocator<char> > > >::push_back(std::__cxx11::basic_string<char, std::char_traits<char>, std::allocator<char> > const&)
PUBLIC 16980 0 void std::vector<std::__cxx11::basic_string<char, std::char_traits<char>, std::allocator<char> >, std::allocator<std::__cxx11::basic_string<char, std::char_traits<char>, std::allocator<char> > > >::emplace_back<std::__cxx11::basic_string<char, std::char_traits<char>, std::allocator<char> > >(std::__cxx11::basic_string<char, std::char_traits<char>, std::allocator<char> >&&)
PUBLIC 16a00 0 google_breakpad::PostfixEvaluator<unsigned int>::PushValue(unsigned int const&)
PUBLIC 16f30 0 google_breakpad::PostfixEvaluator<unsigned long>::PushValue(unsigned long const&)
PUBLIC 17460 0 std::_Rb_tree<std::__cxx11::basic_string<char, std::char_traits<char>, std::allocator<char> >, std::pair<std::__cxx11::basic_string<char, std::char_traits<char>, std::allocator<char> > const, bool>, std::_Select1st<std::pair<std::__cxx11::basic_string<char, std::char_traits<char>, std::allocator<char> > const, bool> >, std::less<std::__cxx11::basic_string<char, std::char_traits<char>, std::allocator<char> > >, std::allocator<std::pair<std::__cxx11::basic_string<char, std::char_traits<char>, std::allocator<char> > const, bool> > >::_M_get_insert_unique_pos(std::__cxx11::basic_string<char, std::char_traits<char>, std::allocator<char> > const&)
PUBLIC 175f0 0 std::_Rb_tree<std::__cxx11::basic_string<char, std::char_traits<char>, std::allocator<char> >, std::pair<std::__cxx11::basic_string<char, std::char_traits<char>, std::allocator<char> > const, bool>, std::_Select1st<std::pair<std::__cxx11::basic_string<char, std::char_traits<char>, std::allocator<char> > const, bool> >, std::less<std::__cxx11::basic_string<char, std::char_traits<char>, std::allocator<char> > >, std::allocator<std::pair<std::__cxx11::basic_string<char, std::char_traits<char>, std::allocator<char> > const, bool> > >::_M_get_insert_hint_unique_pos(std::_Rb_tree_const_iterator<std::pair<std::__cxx11::basic_string<char, std::char_traits<char>, std::allocator<char> > const, bool> >, std::__cxx11::basic_string<char, std::char_traits<char>, std::allocator<char> > const&)
PUBLIC 178b0 0 std::map<std::__cxx11::basic_string<char, std::char_traits<char>, std::allocator<char> >, bool, std::less<std::__cxx11::basic_string<char, std::char_traits<char>, std::allocator<char> > >, std::allocator<std::pair<std::__cxx11::basic_string<char, std::char_traits<char>, std::allocator<char> > const, bool> > >::operator[](std::__cxx11::basic_string<char, std::char_traits<char>, std::allocator<char> > const&)
PUBLIC 17af0 0 google_breakpad::PostfixEvaluator<unsigned int>::EvaluateToken(std::__cxx11::basic_string<char, std::char_traits<char>, std::allocator<char> > const&, std::__cxx11::basic_string<char, std::char_traits<char>, std::allocator<char> > const&, std::map<std::__cxx11::basic_string<char, std::char_traits<char>, std::allocator<char> >, bool, std::less<std::__cxx11::basic_string<char, std::char_traits<char>, std::allocator<char> > >, std::allocator<std::pair<std::__cxx11::basic_string<char, std::char_traits<char>, std::allocator<char> > const, bool> > >*)
PUBLIC 18200 0 google_breakpad::PostfixEvaluator<unsigned int>::EvaluateInternal(std::__cxx11::basic_string<char, std::char_traits<char>, std::allocator<char> > const&, std::map<std::__cxx11::basic_string<char, std::char_traits<char>, std::allocator<char> >, bool, std::less<std::__cxx11::basic_string<char, std::char_traits<char>, std::allocator<char> > >, std::allocator<std::pair<std::__cxx11::basic_string<char, std::char_traits<char>, std::allocator<char> > const, bool> > >*)
PUBLIC 186c0 0 google_breakpad::PostfixEvaluator<unsigned int>::EvaluateForValue(std::__cxx11::basic_string<char, std::char_traits<char>, std::allocator<char> > const&, unsigned int*)
PUBLIC 18820 0 bool google_breakpad::CFIFrameInfo::FindCallerRegs<unsigned int>(google_breakpad::CFIFrameInfo::RegisterValueMap<unsigned int> const&, google_breakpad::MemoryRegion const&, google_breakpad::CFIFrameInfo::RegisterValueMap<unsigned int>*) const
PUBLIC 194f0 0 google_breakpad::PostfixEvaluator<unsigned long>::EvaluateToken(std::__cxx11::basic_string<char, std::char_traits<char>, std::allocator<char> > const&, std::__cxx11::basic_string<char, std::char_traits<char>, std::allocator<char> > const&, std::map<std::__cxx11::basic_string<char, std::char_traits<char>, std::allocator<char> >, bool, std::less<std::__cxx11::basic_string<char, std::char_traits<char>, std::allocator<char> > >, std::allocator<std::pair<std::__cxx11::basic_string<char, std::char_traits<char>, std::allocator<char> > const, bool> > >*)
PUBLIC 19c10 0 google_breakpad::PostfixEvaluator<unsigned long>::EvaluateInternal(std::__cxx11::basic_string<char, std::char_traits<char>, std::allocator<char> > const&, std::map<std::__cxx11::basic_string<char, std::char_traits<char>, std::allocator<char> >, bool, std::less<std::__cxx11::basic_string<char, std::char_traits<char>, std::allocator<char> > >, std::allocator<std::pair<std::__cxx11::basic_string<char, std::char_traits<char>, std::allocator<char> > const, bool> > >*)
PUBLIC 1a0d0 0 google_breakpad::PostfixEvaluator<unsigned long>::EvaluateForValue(std::__cxx11::basic_string<char, std::char_traits<char>, std::allocator<char> > const&, unsigned long*)
PUBLIC 1a230 0 bool google_breakpad::CFIFrameInfo::FindCallerRegs<unsigned long>(google_breakpad::CFIFrameInfo::RegisterValueMap<unsigned long> const&, google_breakpad::MemoryRegion const&, google_breakpad::CFIFrameInfo::RegisterValueMap<unsigned long>*) const
PUBLIC 1af10 0 google_breakpad::ConvertOldARM64Context(MDRawContextARM64_Old const&, MDRawContextARM64*)
PUBLIC 1b030 0 google_breakpad::DisassemblerX86::DisassemblerX86(unsigned char const*, unsigned int, unsigned int)
PUBLIC 1b070 0 google_breakpad::DisassemblerX86::~DisassemblerX86()
PUBLIC 1b0a0 0 google_breakpad::DisassemblerX86::NextInstruction()
PUBLIC 1b550 0 google_breakpad::DisassemblerX86::setBadRead()
PUBLIC 1b5c0 0 google_breakpad::DisassemblerX86::setBadWrite()
PUBLIC 1b630 0 google_breakpad::DumpContext::DumpContext()
PUBLIC 1b660 0 google_breakpad::DumpContext::GetContextCPU() const
PUBLIC 1b670 0 google_breakpad::DumpContext::GetContextFlags() const
PUBLIC 1b680 0 google_breakpad::DumpContext::GetContextX86() const
PUBLIC 1b720 0 google_breakpad::DumpContext::GetContextPPC() const
PUBLIC 1b7c0 0 google_breakpad::DumpContext::GetContextPPC64() const
PUBLIC 1b860 0 google_breakpad::DumpContext::GetContextAMD64() const
PUBLIC 1b900 0 google_breakpad::DumpContext::GetContextSPARC() const
PUBLIC 1b9a0 0 google_breakpad::DumpContext::GetContextARM() const
PUBLIC 1ba40 0 google_breakpad::DumpContext::GetContextARM64() const
PUBLIC 1bae0 0 google_breakpad::DumpContext::GetContextMIPS() const
PUBLIC 1bb90 0 google_breakpad::DumpContext::GetInstructionPointer(unsigned long*) const
PUBLIC 1be20 0 google_breakpad::DumpContext::GetStackPointer(unsigned long*) const
PUBLIC 1c0b0 0 google_breakpad::DumpContext::SetContextFlags(unsigned int)
PUBLIC 1c0c0 0 google_breakpad::DumpContext::SetContextX86(MDRawContextX86*)
PUBLIC 1c0d0 0 google_breakpad::DumpContext::SetContextPPC(MDRawContextPPC*)
PUBLIC 1c0e0 0 google_breakpad::DumpContext::SetContextPPC64(MDRawContextPPC64*)
PUBLIC 1c0f0 0 google_breakpad::DumpContext::SetContextAMD64(MDRawContextAMD64*)
PUBLIC 1c100 0 google_breakpad::DumpContext::SetContextSPARC(MDRawContextSPARC*)
PUBLIC 1c110 0 google_breakpad::DumpContext::SetContextARM(MDRawContextARM*)
PUBLIC 1c120 0 google_breakpad::DumpContext::SetContextARM64(MDRawContextARM64*)
PUBLIC 1c130 0 google_breakpad::DumpContext::SetContextMIPS(MDRawContextMIPS*)
PUBLIC 1c140 0 google_breakpad::DumpContext::FreeContext()
PUBLIC 1c260 0 google_breakpad::DumpContext::~DumpContext()
PUBLIC 1c280 0 google_breakpad::DumpContext::~DumpContext()
PUBLIC 1c2a0 0 google_breakpad::DumpContext::Print()
PUBLIC 1d410 0 google_breakpad::DumpObject::DumpObject()
PUBLIC 1d420 0 google_breakpad::Exploitability::Exploitability(google_breakpad::Minidump*, google_breakpad::ProcessState*)
PUBLIC 1d440 0 google_breakpad::Exploitability::CheckExploitability()
PUBLIC 1d450 0 google_breakpad::Exploitability::ExploitabilityForPlatform(google_breakpad::Minidump*, google_breakpad::ProcessState*, bool)
PUBLIC 1d5c0 0 google_breakpad::Exploitability::ExploitabilityForPlatform(google_breakpad::Minidump*, google_breakpad::ProcessState*)
PUBLIC 1d5d0 0 google_breakpad::Exploitability::AddressIsAscii(unsigned long)
PUBLIC 1d600 0 void std::__cxx11::basic_string<char, std::char_traits<char>, std::allocator<char> >::_M_construct<char const*>(char const*, char const*, std::forward_iterator_tag) [clone .isra.36]
PUBLIC 1d6d0 0 google_breakpad::ExploitabilityLinux::ExploitabilityLinux(google_breakpad::Minidump*, google_breakpad::ProcessState*)
PUBLIC 1d6f0 0 google_breakpad::ExploitabilityLinux::ExploitabilityLinux(google_breakpad::Minidump*, google_breakpad::ProcessState*, bool)
PUBLIC 1d720 0 google_breakpad::ExploitabilityLinux::CalculateAddress(std::__cxx11::basic_string<char, std::char_traits<char>, std::allocator<char> > const&, google_breakpad::DumpContext const&, unsigned long*)
PUBLIC 1df80 0 google_breakpad::ExploitabilityLinux::DisassembleBytes(std::__cxx11::basic_string<char, std::char_traits<char>, std::allocator<char> > const&, unsigned char const*, unsigned int, char*)
PUBLIC 1e290 0 google_breakpad::ExploitabilityLinux::StackPointerOffStack(unsigned long)
PUBLIC 1e430 0 google_breakpad::ExploitabilityLinux::ExecutableStackOrHeap()
PUBLIC 1e6a0 0 google_breakpad::ExploitabilityLinux::InstructionPointerInCode(unsigned long)
PUBLIC 1e6e0 0 google_breakpad::ExploitabilityLinux::BenignCrashTrigger(MDRawExceptionStream const*)
PUBLIC 1e730 0 google_breakpad::ExploitabilityLinux::GetObjdumpInstructionLine(char const*, std::__cxx11::basic_string<char, std::char_traits<char>, std::allocator<char> >*)
PUBLIC 1ecb0 0 google_breakpad::ExploitabilityLinux::TokenizeObjdumpInstruction(std::__cxx11::basic_string<char, std::char_traits<char>, std::allocator<char> > const&, std::__cxx11::basic_string<char, std::char_traits<char>, std::allocator<char> >*, std::__cxx11::basic_string<char, std::char_traits<char>, std::allocator<char> >*, std::__cxx11::basic_string<char, std::char_traits<char>, std::allocator<char> >*)
PUBLIC 1fe20 0 google_breakpad::ExploitabilityLinux::EndedOnIllegalWrite(unsigned long)
PUBLIC 204f0 0 google_breakpad::ExploitabilityLinux::CheckPlatformExploitability()
PUBLIC 20830 0 std::ctype<char>::do_widen(char) const
PUBLIC 20840 0 google_breakpad::ExploitabilityLinux::~ExploitabilityLinux()
PUBLIC 20850 0 google_breakpad::ExploitabilityLinux::~ExploitabilityLinux()
PUBLIC 20860 0 google_breakpad::ExploitabilityWin::CheckPlatformExploitability()
PUBLIC 20f00 0 google_breakpad::ExploitabilityWin::ExploitabilityWin(google_breakpad::Minidump*, google_breakpad::ProcessState*)
PUBLIC 20f20 0 google_breakpad::ExploitabilityWin::~ExploitabilityWin()
PUBLIC 20f30 0 google_breakpad::ExploitabilityWin::~ExploitabilityWin()
PUBLIC 20f40 0 google_breakpad::LogStream::LogStream(std::ostream&, google_breakpad::LogStream::Severity, char const*, int)
PUBLIC 21220 0 google_breakpad::LogStream::~LogStream()
PUBLIC 21290 0 google_breakpad::HexString[abi:cxx11](unsigned int)
PUBLIC 21370 0 google_breakpad::HexString[abi:cxx11](unsigned long)
PUBLIC 21480 0 google_breakpad::HexString[abi:cxx11](int)
PUBLIC 21590 0 google_breakpad::ErrnoString(std::__cxx11::basic_string<char, std::char_traits<char>, std::allocator<char> >*)
PUBLIC 215d0 0 google_breakpad::(anonymous namespace)::Swap(unsigned long*)
PUBLIC 215e0 0 google_breakpad::MinidumpThread::~MinidumpThread()
PUBLIC 21620 0 google_breakpad::MinidumpUnloadedModule::shrink_down_delta() const
PUBLIC 21630 0 google_breakpad::MinidumpUnloadedModule::SetShrinkDownDelta(unsigned long)
PUBLIC 21640 0 google_breakpad::MinidumpModuleList::GetShrunkRangeModules() const
PUBLIC 21660 0 non-virtual thunk to google_breakpad::MinidumpUnloadedModuleList::GetShrunkRangeModules() const
PUBLIC 21670 0 non-virtual thunk to google_breakpad::MinidumpModuleList::GetShrunkRangeModules() const
PUBLIC 21680 0 google_breakpad::MinidumpModuleList::IsModuleShrinkEnabled() const
PUBLIC 21690 0 non-virtual thunk to google_breakpad::MinidumpModuleList::IsModuleShrinkEnabled() const
PUBLIC 216a0 0 google_breakpad::MinidumpException::~MinidumpException()
PUBLIC 216d0 0 covariant return thunk to google_breakpad::MinidumpUnloadedModuleList::GetMainModule() const
PUBLIC 216e0 0 google_breakpad::MinidumpUnloadedModuleList::IsModuleShrinkEnabled() const
PUBLIC 216f0 0 non-virtual thunk to google_breakpad::MinidumpUnloadedModuleList::IsModuleShrinkEnabled() const
PUBLIC 21700 0 google_breakpad::get_stream_name(unsigned int)
PUBLIC 21990 0 google_breakpad::MinidumpThread::~MinidumpThread()
PUBLIC 219b0 0 google_breakpad::MinidumpException::~MinidumpException()
PUBLIC 219d0 0 google_breakpad::MinidumpContext::~MinidumpContext()
PUBLIC 219f0 0 google_breakpad::MinidumpContext::~MinidumpContext()
PUBLIC 21a10 0 google_breakpad::MinidumpUnloadedModule::Copy() const
PUBLIC 21b90 0 non-virtual thunk to google_breakpad::MinidumpUnloadedModule::Copy() const
PUBLIC 21ba0 0 google_breakpad::MinidumpAssertion::~MinidumpAssertion()
PUBLIC 21c10 0 google_breakpad::MinidumpAssertion::~MinidumpAssertion()
PUBLIC 21c30 0 google_breakpad::MinidumpSystemInfo::~MinidumpSystemInfo()
PUBLIC 21cb0 0 google_breakpad::MinidumpSystemInfo::~MinidumpSystemInfo()
PUBLIC 21cd0 0 google_breakpad::MinidumpUnloadedModule::~MinidumpUnloadedModule()
PUBLIC 21d20 0 non-virtual thunk to google_breakpad::MinidumpUnloadedModule::~MinidumpUnloadedModule()
PUBLIC 21d30 0 google_breakpad::MinidumpUnloadedModule::~MinidumpUnloadedModule()
PUBLIC 21d50 0 non-virtual thunk to google_breakpad::MinidumpUnloadedModule::~MinidumpUnloadedModule()
PUBLIC 21d60 0 google_breakpad::MinidumpMemoryRegion::~MinidumpMemoryRegion()
PUBLIC 21db0 0 non-virtual thunk to google_breakpad::MinidumpMemoryRegion::~MinidumpMemoryRegion()
PUBLIC 21dc0 0 google_breakpad::MinidumpMemoryRegion::~MinidumpMemoryRegion()
PUBLIC 21de0 0 non-virtual thunk to google_breakpad::MinidumpMemoryRegion::~MinidumpMemoryRegion()
PUBLIC 21df0 0 google_breakpad::MinidumpModule::~MinidumpModule()
PUBLIC 21ea0 0 non-virtual thunk to google_breakpad::MinidumpModule::~MinidumpModule()
PUBLIC 21eb0 0 google_breakpad::MinidumpModule::~MinidumpModule()
PUBLIC 21ed0 0 non-virtual thunk to google_breakpad::MinidumpModule::~MinidumpModule()
PUBLIC 21ee0 0 google_breakpad::MinidumpModuleList::Copy() const
PUBLIC 21f30 0 non-virtual thunk to google_breakpad::MinidumpModuleList::Copy() const
PUBLIC 21f40 0 google_breakpad::MinidumpUnloadedModuleList::Copy() const
PUBLIC 21f90 0 non-virtual thunk to google_breakpad::MinidumpUnloadedModuleList::Copy() const
PUBLIC 21fa0 0 google_breakpad::(anonymous namespace)::PrintValueOrInvalid(bool, google_breakpad::(anonymous namespace)::NumberFormat, unsigned int) [clone .part.2]
PUBLIC 21fb0 0 google_breakpad::MinidumpLinuxMapsList::~MinidumpLinuxMapsList()
PUBLIC 22040 0 google_breakpad::MinidumpLinuxMapsList::~MinidumpLinuxMapsList()
PUBLIC 22060 0 covariant return thunk to google_breakpad::MinidumpUnloadedModuleList::GetMainModule() const
PUBLIC 22070 0 non-virtual thunk to google_breakpad::MinidumpModule::shrink_down_delta() const
PUBLIC 22080 0 non-virtual thunk to google_breakpad::MinidumpModule::SetShrinkDownDelta(unsigned long)
PUBLIC 22090 0 non-virtual thunk to google_breakpad::MinidumpUnloadedModule::shrink_down_delta() const
PUBLIC 220a0 0 non-virtual thunk to google_breakpad::MinidumpUnloadedModule::SetShrinkDownDelta(unsigned long)
PUBLIC 220b0 0 void std::__cxx11::basic_string<char, std::char_traits<char>, std::allocator<char> >::_M_construct<char const*>(char const*, char const*, std::forward_iterator_tag) [clone .isra.143]
PUBLIC 22180 0 google_breakpad::MinidumpUnloadedModule::debug_file[abi:cxx11]() const
PUBLIC 221a0 0 non-virtual thunk to google_breakpad::MinidumpUnloadedModule::version[abi:cxx11]() const
PUBLIC 221b0 0 non-virtual thunk to google_breakpad::MinidumpUnloadedModule::debug_identifier[abi:cxx11]() const
PUBLIC 221c0 0 non-virtual thunk to google_breakpad::MinidumpUnloadedModule::debug_file[abi:cxx11]() const
PUBLIC 221d0 0 google_breakpad::(anonymous namespace)::MDGUIDToString(MDGUID const&)
PUBLIC 222c0 0 google_breakpad::guid_and_age_to_debug_id(MDGUID const&, unsigned int)
PUBLIC 223b0 0 google_breakpad::(anonymous namespace)::TimeTToUTCString(long)
PUBLIC 22490 0 google_breakpad::MinidumpUnloadedModule::code_file[abi:cxx11]() const
PUBLIC 22560 0 non-virtual thunk to google_breakpad::MinidumpUnloadedModule::code_file[abi:cxx11]() const
PUBLIC 22570 0 google_breakpad::MinidumpModule::code_file[abi:cxx11]() const
PUBLIC 22640 0 non-virtual thunk to google_breakpad::MinidumpModule::code_file[abi:cxx11]() const
PUBLIC 22650 0 google_breakpad::MinidumpThread::GetStartOfStackMemoryRange() const
PUBLIC 226f0 0 google_breakpad::MinidumpMemoryRegion::GetSize() const
PUBLIC 22790 0 non-virtual thunk to google_breakpad::MinidumpMemoryRegion::GetSize() const
PUBLIC 227a0 0 google_breakpad::MinidumpMemoryRegion::GetBase() const
PUBLIC 22850 0 non-virtual thunk to google_breakpad::MinidumpMemoryRegion::GetBase() const
PUBLIC 22860 0 google_breakpad::MinidumpThread::GetThreadID(unsigned int*) const
PUBLIC 22970 0 google_breakpad::MinidumpModuleList::GetMainModule() const
PUBLIC 22a10 0 google_breakpad::MinidumpThread::GetMemory()
PUBLIC 22ab0 0 google_breakpad::MinidumpModule::version[abi:cxx11]() const
PUBLIC 22d30 0 non-virtual thunk to google_breakpad::MinidumpModule::version[abi:cxx11]() const
PUBLIC 22d40 0 google_breakpad::MinidumpThreadList::GetThreadAtIndex(unsigned int) const
PUBLIC 22e70 0 google_breakpad::MinidumpUnloadedModuleList::GetModuleAtIndex(unsigned int) const
PUBLIC 22fa0 0 google_breakpad::MinidumpModuleList::GetModuleAtIndex(unsigned int) const
PUBLIC 230d0 0 google_breakpad::MinidumpModule::Copy() const
PUBLIC 23250 0 non-virtual thunk to google_breakpad::MinidumpModule::Copy() const
PUBLIC 23260 0 google_breakpad::MinidumpUnloadedModule::code_identifier[abi:cxx11]() const
PUBLIC 23650 0 non-virtual thunk to google_breakpad::MinidumpUnloadedModule::code_identifier[abi:cxx11]() const
PUBLIC 23660 0 google_breakpad::MinidumpModule::code_identifier[abi:cxx11]() const
PUBLIC 23b80 0 non-virtual thunk to google_breakpad::MinidumpModule::code_identifier[abi:cxx11]() const
PUBLIC 23b90 0 google_breakpad::MinidumpModule::debug_identifier[abi:cxx11]() const
PUBLIC 240c0 0 non-virtual thunk to google_breakpad::MinidumpModule::debug_identifier[abi:cxx11]() const
PUBLIC 240d0 0 google_breakpad::MinidumpObject::MinidumpObject(google_breakpad::Minidump*)
PUBLIC 24100 0 google_breakpad::MinidumpStream::MinidumpStream(google_breakpad::Minidump*)
PUBLIC 24120 0 google_breakpad::MinidumpContext::MinidumpContext(google_breakpad::Minidump*)
PUBLIC 24150 0 google_breakpad::MinidumpContext::CheckAgainstSystemInfo(unsigned int)
PUBLIC 24500 0 google_breakpad::MinidumpMemoryRegion::MinidumpMemoryRegion(google_breakpad::Minidump*)
PUBLIC 24570 0 google_breakpad::MinidumpMemoryRegion::SetDescriptor(MDMemoryDescriptor*)
PUBLIC 24590 0 google_breakpad::MinidumpMemoryRegion::FreeMemory()
PUBLIC 245d0 0 google_breakpad::MinidumpMemoryRegion::SetPrintMode(bool, unsigned int)
PUBLIC 24690 0 google_breakpad::MinidumpThread::MinidumpThread(google_breakpad::Minidump*)
PUBLIC 246d0 0 google_breakpad::MinidumpThread::Print()
PUBLIC 248e0 0 google_breakpad::MinidumpThreadList::MinidumpThreadList(google_breakpad::Minidump*)
PUBLIC 24930 0 google_breakpad::MinidumpThreadList::Print()
PUBLIC 24a40 0 google_breakpad::MinidumpModule::MinidumpModule(google_breakpad::Minidump*)
PUBLIC 24ab0 0 covariant return thunk to google_breakpad::MinidumpModuleList::GetMainModule() const
PUBLIC 24ad0 0 covariant return thunk to google_breakpad::MinidumpModuleList::GetMainModule() const
PUBLIC 24ae0 0 covariant return thunk to google_breakpad::MinidumpModuleList::GetModuleAtIndex(unsigned int) const
PUBLIC 24b00 0 covariant return thunk to google_breakpad::MinidumpModuleList::GetModuleAtIndex(unsigned int) const
PUBLIC 24b10 0 google_breakpad::MinidumpMemoryList::MinidumpMemoryList(google_breakpad::Minidump*)
PUBLIC 24b80 0 google_breakpad::MinidumpMemoryList::GetMemoryRegionAtIndex(unsigned int)
PUBLIC 24cb0 0 google_breakpad::MinidumpMemoryList::Print()
PUBLIC 24e60 0 google_breakpad::MinidumpException::MinidumpException(google_breakpad::Minidump*)
PUBLIC 24ea0 0 google_breakpad::MinidumpException::GetThreadID(unsigned int*) const
PUBLIC 24fb0 0 google_breakpad::MinidumpAssertion::MinidumpAssertion(google_breakpad::Minidump*)
PUBLIC 25040 0 google_breakpad::MinidumpAssertion::Print()
PUBLIC 25180 0 google_breakpad::MinidumpSystemInfo::MinidumpSystemInfo(google_breakpad::Minidump*)
PUBLIC 251d0 0 google_breakpad::MinidumpSystemInfo::GetOS[abi:cxx11]()
PUBLIC 25490 0 google_breakpad::MinidumpSystemInfo::GetCPU[abi:cxx11]()
PUBLIC 257e0 0 google_breakpad::MinidumpSystemInfo::GetCPUVendor[abi:cxx11]()
PUBLIC 25970 0 google_breakpad::MinidumpUnloadedModule::MinidumpUnloadedModule(google_breakpad::Minidump*)
PUBLIC 259c0 0 google_breakpad::MinidumpUnloadedModuleList::MinidumpUnloadedModuleList(google_breakpad::Minidump*)
PUBLIC 25a30 0 covariant return thunk to google_breakpad::MinidumpUnloadedModuleList::GetModuleAtIndex(unsigned int) const
PUBLIC 25a50 0 covariant return thunk to google_breakpad::MinidumpUnloadedModuleList::GetModuleAtIndex(unsigned int) const
PUBLIC 25a60 0 google_breakpad::MinidumpMiscInfo::MinidumpMiscInfo(google_breakpad::Minidump*)
PUBLIC 25b10 0 google_breakpad::MinidumpMiscInfo::Print()
PUBLIC 262e0 0 google_breakpad::MinidumpBreakpadInfo::MinidumpBreakpadInfo(google_breakpad::Minidump*)
PUBLIC 26310 0 google_breakpad::MinidumpBreakpadInfo::GetDumpThreadID(unsigned int*) const
PUBLIC 26480 0 google_breakpad::MinidumpBreakpadInfo::GetRequestingThreadID(unsigned int*) const
PUBLIC 265f0 0 google_breakpad::MinidumpBreakpadInfo::Print()
PUBLIC 26730 0 google_breakpad::MinidumpMemoryInfo::MinidumpMemoryInfo(google_breakpad::Minidump*)
PUBLIC 26760 0 google_breakpad::MinidumpMemoryInfo::IsExecutable() const
PUBLIC 26780 0 google_breakpad::MinidumpMemoryInfo::IsWritable() const
PUBLIC 267a0 0 google_breakpad::MinidumpMemoryInfo::Print()
PUBLIC 268f0 0 google_breakpad::MinidumpMemoryInfoList::MinidumpMemoryInfoList(google_breakpad::Minidump*)
PUBLIC 26950 0 google_breakpad::MinidumpMemoryInfoList::GetMemoryInfoAtIndex(unsigned int) const
PUBLIC 26a80 0 google_breakpad::MinidumpMemoryInfoList::Print()
PUBLIC 26ba0 0 google_breakpad::MinidumpLinuxMaps::MinidumpLinuxMaps(google_breakpad::Minidump*)
PUBLIC 26bf0 0 google_breakpad::MinidumpLinuxMaps::Print() const
PUBLIC 26d00 0 google_breakpad::MinidumpLinuxMapsList::MinidumpLinuxMapsList(google_breakpad::Minidump*)
PUBLIC 26d30 0 google_breakpad::MinidumpLinuxMapsList::GetLinuxMapsForAddress(unsigned long) const
PUBLIC 26ec0 0 google_breakpad::MinidumpLinuxMapsList::GetLinuxMapsAtIndex(unsigned int) const
PUBLIC 26ff0 0 google_breakpad::MinidumpLinuxMapsList::Print() const
PUBLIC 270c0 0 google_breakpad::MinidumpCrashpadInfo::MinidumpCrashpadInfo(google_breakpad::Minidump*)
PUBLIC 271a0 0 google_breakpad::MinidumpCrashpadInfo::Print()
PUBLIC 274a0 0 google_breakpad::Minidump::Minidump(std::__cxx11::basic_string<char, std::char_traits<char>, std::allocator<char> > const&, bool, unsigned int)
PUBLIC 27550 0 google_breakpad::Minidump::Minidump(std::istream&)
PUBLIC 275f0 0 google_breakpad::Minidump::Print()
PUBLIC 278b0 0 google_breakpad::Minidump::GetDirectoryEntryAtIndex(unsigned int) const
PUBLIC 279e0 0 google_breakpad::Minidump::ReadBytes(void*, unsigned long)
PUBLIC 27be0 0 google_breakpad::MinidumpException::Read(unsigned int)
PUBLIC 27df0 0 google_breakpad::MinidumpBreakpadInfo::Read(unsigned int)
PUBLIC 27f60 0 google_breakpad::MinidumpThread::Read()
PUBLIC 282b0 0 google_breakpad::MinidumpSystemInfo::Read(unsigned int)
PUBLIC 28520 0 google_breakpad::MinidumpMemoryInfo::Read()
PUBLIC 28790 0 google_breakpad::MinidumpModule::Read()
PUBLIC 28b00 0 google_breakpad::Minidump::SeekSet(long)
PUBLIC 28c60 0 google_breakpad::Minidump::Open()
PUBLIC 29030 0 google_breakpad::Minidump::Tell()
PUBLIC 29080 0 google_breakpad::Minidump::GetContextCPUFlagsFromSystemInfo(unsigned int*)
PUBLIC 29200 0 google_breakpad::MinidumpContext::Read(unsigned int)
PUBLIC 2b410 0 google_breakpad::MinidumpThread::GetContext()
PUBLIC 2b5f0 0 google_breakpad::MinidumpException::GetContext()
PUBLIC 2b7e0 0 google_breakpad::MinidumpException::Print()
PUBLIC 2b9d0 0 google_breakpad::Minidump::IsAndroid()
PUBLIC 2bad0 0 google_breakpad::MinidumpModuleList::MinidumpModuleList(google_breakpad::Minidump*)
PUBLIC 2bb50 0 google_breakpad::MinidumpUnloadedModule::Read(unsigned int)
PUBLIC 2bed0 0 google_breakpad::Minidump::ReadUTF8String(long, std::__cxx11::basic_string<char, std::char_traits<char>, std::allocator<char> >*)
PUBLIC 2c1b0 0 google_breakpad::Minidump::SeekToStreamType(unsigned int, unsigned int*)
PUBLIC 2c4a0 0 google_breakpad::(anonymous namespace)::UTF16ToUTF8(std::vector<unsigned short, std::allocator<unsigned short> > const&, bool)
PUBLIC 2cbd0 0 google_breakpad::Minidump::ReadString[abi:cxx11](long)
PUBLIC 2cfe0 0 google_breakpad::MinidumpSystemInfo::GetCSDVersion[abi:cxx11]()
PUBLIC 2d100 0 google_breakpad::MinidumpSystemInfo::Print()
PUBLIC 2d420 0 google_breakpad::MinidumpUnloadedModule::ReadAuxiliaryData()
PUBLIC 2d530 0 google_breakpad::MinidumpModule::debug_file[abi:cxx11]() const
PUBLIC 2d9e0 0 non-virtual thunk to google_breakpad::MinidumpModule::debug_file[abi:cxx11]() const
PUBLIC 2d9f0 0 google_breakpad::(anonymous namespace)::ConvertUTF16BufferToUTF8String(unsigned short const*, unsigned long, std::__cxx11::basic_string<char, std::char_traits<char>, std::allocator<char> >*, bool)
PUBLIC 2db60 0 google_breakpad::MinidumpAssertion::Read(unsigned int)
PUBLIC 2dd60 0 google_breakpad::MinidumpMiscInfo::Read(unsigned int)
PUBLIC 2e400 0 google_breakpad::MinidumpMemoryRegion::GetMemory() const
PUBLIC 2e760 0 google_breakpad::MinidumpMemoryRegion::Print() const
PUBLIC 2e9c0 0 non-virtual thunk to google_breakpad::MinidumpMemoryRegion::Print() const
PUBLIC 2e9d0 0 google_breakpad::MinidumpModule::GetCVRecord(unsigned int*)
PUBLIC 2ef50 0 google_breakpad::MinidumpModule::GetMiscRecord(unsigned int*)
PUBLIC 2f3e0 0 google_breakpad::MinidumpModule::ReadAuxiliaryData()
PUBLIC 2f5b0 0 google_breakpad::MinidumpModule::Print()
PUBLIC 2fce0 0 google_breakpad::MinidumpModuleList::Print()
PUBLIC 2fdf0 0 google_breakpad::MinidumpMemoryRegion::GetMemoryAtAddress(unsigned long, unsigned char*) const
PUBLIC 2fe00 0 non-virtual thunk to google_breakpad::MinidumpMemoryRegion::GetMemoryAtAddress(unsigned long, unsigned char*) const
PUBLIC 2fe10 0 google_breakpad::MinidumpMemoryRegion::GetMemoryAtAddress(unsigned long, unsigned short*) const
PUBLIC 2fe20 0 non-virtual thunk to google_breakpad::MinidumpMemoryRegion::GetMemoryAtAddress(unsigned long, unsigned short*) const
PUBLIC 2fe30 0 google_breakpad::MinidumpMemoryRegion::GetMemoryAtAddress(unsigned long, unsigned int*) const
PUBLIC 2fe40 0 non-virtual thunk to google_breakpad::MinidumpMemoryRegion::GetMemoryAtAddress(unsigned long, unsigned int*) const
PUBLIC 2fe50 0 google_breakpad::MinidumpMemoryRegion::GetMemoryAtAddress(unsigned long, unsigned long*) const
PUBLIC 2fe60 0 non-virtual thunk to google_breakpad::MinidumpMemoryRegion::GetMemoryAtAddress(unsigned long, unsigned long*) const
PUBLIC 2fe70 0 google_breakpad::MinidumpModuleList::GetModuleForAddress(unsigned long) const
PUBLIC 2fff0 0 covariant return thunk to google_breakpad::MinidumpModuleList::GetModuleForAddress(unsigned long) const
PUBLIC 30010 0 covariant return thunk to google_breakpad::MinidumpModuleList::GetModuleForAddress(unsigned long) const
PUBLIC 30020 0 google_breakpad::MinidumpMemoryList::GetMemoryRegionForAddress(unsigned long)
PUBLIC 301a0 0 google_breakpad::MinidumpUnloadedModuleList::GetModuleForAddress(unsigned long) const
PUBLIC 30320 0 covariant return thunk to google_breakpad::MinidumpUnloadedModuleList::GetModuleForAddress(unsigned long) const
PUBLIC 30340 0 covariant return thunk to google_breakpad::MinidumpUnloadedModuleList::GetModuleForAddress(unsigned long) const
PUBLIC 30350 0 google_breakpad::MinidumpMemoryInfoList::GetMemoryInfoForAddress(unsigned long) const
PUBLIC 304d0 0 google_breakpad::MinidumpModuleList::GetModuleAtSequence(unsigned int) const
PUBLIC 30680 0 covariant return thunk to google_breakpad::MinidumpModuleList::GetModuleAtSequence(unsigned int) const
PUBLIC 306a0 0 covariant return thunk to google_breakpad::MinidumpModuleList::GetModuleAtSequence(unsigned int) const
PUBLIC 306b0 0 google_breakpad::MinidumpUnloadedModuleList::GetModuleAtSequence(unsigned int) const
PUBLIC 30860 0 covariant return thunk to google_breakpad::MinidumpUnloadedModuleList::GetModuleAtSequence(unsigned int) const
PUBLIC 30880 0 covariant return thunk to google_breakpad::MinidumpUnloadedModuleList::GetModuleAtSequence(unsigned int) const
PUBLIC 30890 0 google_breakpad::Minidump::GetException()
PUBLIC 308d0 0 google_breakpad::Minidump::GetAssertion()
PUBLIC 30910 0 google_breakpad::Minidump::GetSystemInfo()
PUBLIC 30950 0 google_breakpad::Minidump::GetMiscInfo()
PUBLIC 30990 0 google_breakpad::Minidump::GetBreakpadInfo()
PUBLIC 309d0 0 google_breakpad::MinidumpThreadList::~MinidumpThreadList()
PUBLIC 30a90 0 google_breakpad::MinidumpThreadList::~MinidumpThreadList()
PUBLIC 30ab0 0 google_breakpad::MinidumpModuleList::~MinidumpModuleList()
PUBLIC 30b90 0 non-virtual thunk to google_breakpad::MinidumpModuleList::~MinidumpModuleList()
PUBLIC 30ba0 0 google_breakpad::MinidumpModuleList::~MinidumpModuleList()
PUBLIC 30bc0 0 non-virtual thunk to google_breakpad::MinidumpModuleList::~MinidumpModuleList()
PUBLIC 30bd0 0 google_breakpad::MinidumpMemoryList::~MinidumpMemoryList()
PUBLIC 30cc0 0 google_breakpad::MinidumpMemoryList::~MinidumpMemoryList()
PUBLIC 30ce0 0 google_breakpad::MinidumpUnloadedModuleList::~MinidumpUnloadedModuleList()
PUBLIC 30d90 0 non-virtual thunk to google_breakpad::MinidumpUnloadedModuleList::~MinidumpUnloadedModuleList()
PUBLIC 30da0 0 google_breakpad::MinidumpUnloadedModuleList::~MinidumpUnloadedModuleList()
PUBLIC 30dc0 0 non-virtual thunk to google_breakpad::MinidumpUnloadedModuleList::~MinidumpUnloadedModuleList()
PUBLIC 30dd0 0 google_breakpad::MinidumpMemoryInfoList::~MinidumpMemoryInfoList()
PUBLIC 30e70 0 google_breakpad::MinidumpMemoryInfoList::~MinidumpMemoryInfoList()
PUBLIC 30e90 0 google_breakpad::Minidump::~Minidump()
PUBLIC 30f90 0 google_breakpad::Minidump::~Minidump()
PUBLIC 30fb0 0 google_breakpad::Minidump::ReadStringList(long, std::vector<std::__cxx11::basic_string<char, std::char_traits<char>, std::allocator<char> >, std::allocator<std::__cxx11::basic_string<char, std::char_traits<char>, std::allocator<char> > > >*)
PUBLIC 31350 0 google_breakpad::Minidump::ReadSimpleStringDictionary(long, std::map<std::__cxx11::basic_string<char, std::char_traits<char>, std::allocator<char> >, std::__cxx11::basic_string<char, std::char_traits<char>, std::allocator<char> >, std::less<std::__cxx11::basic_string<char, std::char_traits<char>, std::allocator<char> > >, std::allocator<std::pair<std::__cxx11::basic_string<char, std::char_traits<char>, std::allocator<char> > const, std::__cxx11::basic_string<char, std::char_traits<char>, std::allocator<char> > > > >*)
PUBLIC 31a70 0 google_breakpad::MinidumpLinuxMapsList::Read(unsigned int)
PUBLIC 320c0 0 google_breakpad::Minidump::GetLinuxMapsList()
PUBLIC 32100 0 std::_Rb_tree_iterator<std::pair<unsigned int const, google_breakpad::MinidumpThread*> > std::_Rb_tree<unsigned int, std::pair<unsigned int const, google_breakpad::MinidumpThread*>, std::_Select1st<std::pair<unsigned int const, google_breakpad::MinidumpThread*> >, std::less<unsigned int>, std::allocator<std::pair<unsigned int const, google_breakpad::MinidumpThread*> > >::_M_emplace_hint_unique<std::piecewise_construct_t const&, std::tuple<unsigned int const&>, std::tuple<> >(std::_Rb_tree_const_iterator<std::pair<unsigned int const, google_breakpad::MinidumpThread*> >, std::piecewise_construct_t const&, std::tuple<unsigned int const&>&&, std::tuple<>&&) [clone .isra.385]
PUBLIC 321b0 0 google_breakpad::MinidumpThreadList::GetThreadByID(unsigned int)
PUBLIC 32250 0 google_breakpad::MinidumpThreadList::Read(unsigned int)
PUBLIC 32b90 0 google_breakpad::Minidump::GetThreadList()
PUBLIC 32bd0 0 google_breakpad::MinidumpModuleList::StoreRange(google_breakpad::MinidumpModule const&, unsigned long, unsigned int, unsigned int, bool)
PUBLIC 32f70 0 google_breakpad::MinidumpModuleList::Read(unsigned int)
PUBLIC 34080 0 google_breakpad::Minidump::GetModuleList()
PUBLIC 340c0 0 google_breakpad::MinidumpMemoryList::Read(unsigned int)
PUBLIC 34be0 0 google_breakpad::Minidump::GetMemoryList()
PUBLIC 34c20 0 google_breakpad::MinidumpUnloadedModuleList::Read(unsigned int)
PUBLIC 35450 0 google_breakpad::Minidump::GetUnloadedModuleList()
PUBLIC 35490 0 google_breakpad::MinidumpMemoryInfoList::Read(unsigned int)
PUBLIC 35cd0 0 google_breakpad::Minidump::GetMemoryInfoList()
PUBLIC 35d10 0 google_breakpad::Minidump::Read()
PUBLIC 366e0 0 google_breakpad::MinidumpCrashpadInfo::Read(unsigned int)
PUBLIC 371b0 0 google_breakpad::Minidump::GetCrashpadInfo()
PUBLIC 371f0 0 google_breakpad::MinidumpObject::~MinidumpObject()
PUBLIC 37200 0 google_breakpad::MinidumpThreadList::thread_count() const
PUBLIC 37210 0 google_breakpad::MinidumpModule::base_address() const
PUBLIC 37230 0 non-virtual thunk to google_breakpad::MinidumpModule::base_address() const
PUBLIC 37250 0 google_breakpad::MinidumpModule::size() const
PUBLIC 37260 0 non-virtual thunk to google_breakpad::MinidumpModule::size() const
PUBLIC 37270 0 google_breakpad::MinidumpModule::is_unloaded() const
PUBLIC 37280 0 non-virtual thunk to google_breakpad::MinidumpModule::is_unloaded() const
PUBLIC 37290 0 google_breakpad::MinidumpModuleList::module_count() const
PUBLIC 372a0 0 non-virtual thunk to google_breakpad::MinidumpModuleList::module_count() const
PUBLIC 372b0 0 google_breakpad::MinidumpUnloadedModule::base_address() const
PUBLIC 372c0 0 non-virtual thunk to google_breakpad::MinidumpUnloadedModule::base_address() const
PUBLIC 372d0 0 google_breakpad::MinidumpUnloadedModule::size() const
PUBLIC 372e0 0 non-virtual thunk to google_breakpad::MinidumpUnloadedModule::size() const
PUBLIC 372f0 0 google_breakpad::MinidumpUnloadedModule::is_unloaded() const
PUBLIC 37300 0 non-virtual thunk to google_breakpad::MinidumpUnloadedModule::is_unloaded() const
PUBLIC 37310 0 google_breakpad::MinidumpUnloadedModuleList::module_count() const
PUBLIC 37320 0 non-virtual thunk to google_breakpad::MinidumpUnloadedModuleList::module_count() const
PUBLIC 37330 0 google_breakpad::Minidump::header() const
PUBLIC 37350 0 google_breakpad::BasicCodeModule::base_address() const
PUBLIC 37360 0 google_breakpad::BasicCodeModule::size() const
PUBLIC 37370 0 google_breakpad::BasicCodeModule::shrink_down_delta() const
PUBLIC 37380 0 google_breakpad::BasicCodeModule::SetShrinkDownDelta(unsigned long)
PUBLIC 37390 0 google_breakpad::BasicCodeModule::is_unloaded() const
PUBLIC 373a0 0 google_breakpad::MinidumpBreakpadInfo::~MinidumpBreakpadInfo()
PUBLIC 373b0 0 google_breakpad::MinidumpMemoryInfo::~MinidumpMemoryInfo()
PUBLIC 373c0 0 google_breakpad::MinidumpObject::~MinidumpObject()
PUBLIC 373d0 0 google_breakpad::MinidumpMemoryInfo::~MinidumpMemoryInfo()
PUBLIC 373e0 0 google_breakpad::MinidumpBreakpadInfo::~MinidumpBreakpadInfo()
PUBLIC 373f0 0 google_breakpad::BasicCodeModule::~BasicCodeModule()
PUBLIC 37480 0 google_breakpad::MinidumpLinuxMaps::~MinidumpLinuxMaps()
PUBLIC 374d0 0 google_breakpad::MinidumpMiscInfo::~MinidumpMiscInfo()
PUBLIC 37550 0 google_breakpad::BasicCodeModule::code_file[abi:cxx11]() const
PUBLIC 37580 0 google_breakpad::BasicCodeModule::code_identifier[abi:cxx11]() const
PUBLIC 375b0 0 google_breakpad::BasicCodeModule::debug_file[abi:cxx11]() const
PUBLIC 375e0 0 google_breakpad::BasicCodeModule::debug_identifier[abi:cxx11]() const
PUBLIC 37610 0 google_breakpad::BasicCodeModule::version[abi:cxx11]() const
PUBLIC 37640 0 google_breakpad::Minidump::path[abi:cxx11]() const
PUBLIC 37670 0 google_breakpad::MinidumpLinuxMaps::~MinidumpLinuxMaps()
PUBLIC 376c0 0 google_breakpad::MinidumpMiscInfo::~MinidumpMiscInfo()
PUBLIC 37740 0 google_breakpad::BasicCodeModule::~BasicCodeModule()
PUBLIC 377d0 0 google_breakpad::BasicCodeModule::Copy() const
PUBLIC 37940 0 google_breakpad::scoped_ptr<std::__cxx11::basic_string<char, std::char_traits<char>, std::allocator<char> > >::~scoped_ptr()
PUBLIC 37980 0 google_breakpad::scoped_ptr<std::vector<unsigned char, std::allocator<unsigned char> > >::~scoped_ptr()
PUBLIC 379b0 0 bool google_breakpad::MinidumpMemoryRegion::GetMemoryAtAddressInternal<unsigned char>(unsigned long, unsigned char*) const
PUBLIC 37cd0 0 bool google_breakpad::MinidumpMemoryRegion::GetMemoryAtAddressInternal<unsigned short>(unsigned long, unsigned short*) const
PUBLIC 38000 0 bool google_breakpad::MinidumpMemoryRegion::GetMemoryAtAddressInternal<unsigned int>(unsigned long, unsigned int*) const
PUBLIC 38330 0 bool google_breakpad::MinidumpMemoryRegion::GetMemoryAtAddressInternal<unsigned long>(unsigned long, unsigned long*) const
PUBLIC 38670 0 google_breakpad::RangeMap<unsigned long, unsigned int>::RetrieveRange(unsigned long const&, unsigned int*, unsigned long*, unsigned long*, unsigned long*) const
PUBLIC 387d0 0 google_breakpad::RangeMap<unsigned long, unsigned int>::RetrieveRangeAtIndex(int, unsigned int*, unsigned long*, unsigned long*, unsigned long*) const
PUBLIC 38980 0 google_breakpad::MinidumpException* google_breakpad::Minidump::GetStream<google_breakpad::MinidumpException>(google_breakpad::MinidumpException**)
PUBLIC 38cc0 0 google_breakpad::MinidumpAssertion* google_breakpad::Minidump::GetStream<google_breakpad::MinidumpAssertion>(google_breakpad::MinidumpAssertion**)
PUBLIC 39000 0 google_breakpad::MinidumpSystemInfo* google_breakpad::Minidump::GetStream<google_breakpad::MinidumpSystemInfo>(google_breakpad::MinidumpSystemInfo**)
PUBLIC 39340 0 google_breakpad::MinidumpMiscInfo* google_breakpad::Minidump::GetStream<google_breakpad::MinidumpMiscInfo>(google_breakpad::MinidumpMiscInfo**)
PUBLIC 39680 0 google_breakpad::MinidumpBreakpadInfo* google_breakpad::Minidump::GetStream<google_breakpad::MinidumpBreakpadInfo>(google_breakpad::MinidumpBreakpadInfo**)
PUBLIC 399c0 0 std::_Rb_tree<unsigned int, std::pair<unsigned int const, google_breakpad::MinidumpThread*>, std::_Select1st<std::pair<unsigned int const, google_breakpad::MinidumpThread*> >, std::less<unsigned int>, std::allocator<std::pair<unsigned int const, google_breakpad::MinidumpThread*> > >::_M_erase(std::_Rb_tree_node<std::pair<unsigned int const, google_breakpad::MinidumpThread*> >*)
PUBLIC 39a00 0 std::_Rb_tree<unsigned long, std::pair<unsigned long const, google_breakpad::RangeMap<unsigned long, unsigned int>::Range>, std::_Select1st<std::pair<unsigned long const, google_breakpad::RangeMap<unsigned long, unsigned int>::Range> >, std::less<unsigned long>, std::allocator<std::pair<unsigned long const, google_breakpad::RangeMap<unsigned long, unsigned int>::Range> > >::_M_erase(std::_Rb_tree_node<std::pair<unsigned long const, google_breakpad::RangeMap<unsigned long, unsigned int>::Range> >*)
PUBLIC 39a40 0 google_breakpad::MinidumpCrashpadInfo::~MinidumpCrashpadInfo()
PUBLIC 39bb0 0 google_breakpad::MinidumpCrashpadInfo::~MinidumpCrashpadInfo()
PUBLIC 39d20 0 void std::vector<unsigned int, std::allocator<unsigned int> >::_M_realloc_insert<unsigned int const&>(__gnu_cxx::__normal_iterator<unsigned int*, std::vector<unsigned int, std::allocator<unsigned int> > >, unsigned int const&)
PUBLIC 39e50 0 void std::vector<MDRawModuleCrashpadInfo, std::allocator<MDRawModuleCrashpadInfo> >::_M_realloc_insert<MDRawModuleCrashpadInfo const&>(__gnu_cxx::__normal_iterator<MDRawModuleCrashpadInfo*, std::vector<MDRawModuleCrashpadInfo, std::allocator<MDRawModuleCrashpadInfo> > >, MDRawModuleCrashpadInfo const&)
PUBLIC 39f90 0 void std::vector<std::vector<std::__cxx11::basic_string<char, std::char_traits<char>, std::allocator<char> >, std::allocator<std::__cxx11::basic_string<char, std::char_traits<char>, std::allocator<char> > > >, std::allocator<std::vector<std::__cxx11::basic_string<char, std::char_traits<char>, std::allocator<char> >, std::allocator<std::__cxx11::basic_string<char, std::char_traits<char>, std::allocator<char> > > > > >::_M_realloc_insert<std::vector<std::__cxx11::basic_string<char, std::char_traits<char>, std::allocator<char> >, std::allocator<std::__cxx11::basic_string<char, std::char_traits<char>, std::allocator<char> > > > const&>(__gnu_cxx::__normal_iterator<std::vector<std::__cxx11::basic_string<char, std::char_traits<char>, std::allocator<char> >, std::allocator<std::__cxx11::basic_string<char, std::char_traits<char>, std::allocator<char> > > >*, std::vector<std::vector<std::__cxx11::basic_string<char, std::char_traits<char>, std::allocator<char> >, std::allocator<std::__cxx11::basic_string<char, std::char_traits<char>, std::allocator<char> > > >, std::allocator<std::vector<std::__cxx11::basic_string<char, std::char_traits<char>, std::allocator<char> >, std::allocator<std::__cxx11::basic_string<char, std::char_traits<char>, std::allocator<char> > > > > > >, std::vector<std::__cxx11::basic_string<char, std::char_traits<char>, std::allocator<char> >, std::allocator<std::__cxx11::basic_string<char, std::char_traits<char>, std::allocator<char> > > > const&)
PUBLIC 3a3b0 0 std::_Rb_tree<unsigned int, std::pair<unsigned int const, google_breakpad::Minidump::MinidumpStreamInfo>, std::_Select1st<std::pair<unsigned int const, google_breakpad::Minidump::MinidumpStreamInfo> >, std::less<unsigned int>, std::allocator<std::pair<unsigned int const, google_breakpad::Minidump::MinidumpStreamInfo> > >::_M_erase(std::_Rb_tree_node<std::pair<unsigned int const, google_breakpad::Minidump::MinidumpStreamInfo> >*)
PUBLIC 3a400 0 std::pair<std::_Rb_tree_iterator<std::pair<std::__cxx11::basic_string<char, std::char_traits<char>, std::allocator<char> > const, std::__cxx11::basic_string<char, std::char_traits<char>, std::allocator<char> > > >, bool> std::_Rb_tree<std::__cxx11::basic_string<char, std::char_traits<char>, std::allocator<char> >, std::pair<std::__cxx11::basic_string<char, std::char_traits<char>, std::allocator<char> > const, std::__cxx11::basic_string<char, std::char_traits<char>, std::allocator<char> > >, std::_Select1st<std::pair<std::__cxx11::basic_string<char, std::char_traits<char>, std::allocator<char> > const, std::__cxx11::basic_string<char, std::char_traits<char>, std::allocator<char> > > >, std::less<std::__cxx11::basic_string<char, std::char_traits<char>, std::allocator<char> > >, std::allocator<std::pair<std::__cxx11::basic_string<char, std::char_traits<char>, std::allocator<char> > const, std::__cxx11::basic_string<char, std::char_traits<char>, std::allocator<char> > > > >::_M_emplace_unique<std::pair<std::__cxx11::basic_string<char, std::char_traits<char>, std::allocator<char> >, std::__cxx11::basic_string<char, std::char_traits<char>, std::allocator<char> > > >(std::pair<std::__cxx11::basic_string<char, std::char_traits<char>, std::allocator<char> >, std::__cxx11::basic_string<char, std::char_traits<char>, std::allocator<char> > >&&)
PUBLIC 3a720 0 void std::vector<google_breakpad::MinidumpLinuxMaps*, std::allocator<google_breakpad::MinidumpLinuxMaps*> >::_M_realloc_insert<google_breakpad::MinidumpLinuxMaps*>(__gnu_cxx::__normal_iterator<google_breakpad::MinidumpLinuxMaps**, std::vector<google_breakpad::MinidumpLinuxMaps*, std::allocator<google_breakpad::MinidumpLinuxMaps*> > >, google_breakpad::MinidumpLinuxMaps*&&)
PUBLIC 3a850 0 google_breakpad::MinidumpLinuxMapsList* google_breakpad::Minidump::GetStream<google_breakpad::MinidumpLinuxMapsList>(google_breakpad::MinidumpLinuxMapsList**)
PUBLIC 3ab90 0 std::_Rb_tree<unsigned int, std::pair<unsigned int const, google_breakpad::MinidumpThread*>, std::_Select1st<std::pair<unsigned int const, google_breakpad::MinidumpThread*> >, std::less<unsigned int>, std::allocator<std::pair<unsigned int const, google_breakpad::MinidumpThread*> > >::_M_get_insert_unique_pos(unsigned int const&)
PUBLIC 3ac20 0 std::_Rb_tree<unsigned int, std::pair<unsigned int const, google_breakpad::MinidumpThread*>, std::_Select1st<std::pair<unsigned int const, google_breakpad::MinidumpThread*> >, std::less<unsigned int>, std::allocator<std::pair<unsigned int const, google_breakpad::MinidumpThread*> > >::_M_get_insert_hint_unique_pos(std::_Rb_tree_const_iterator<std::pair<unsigned int const, google_breakpad::MinidumpThread*> >, unsigned int const&)
PUBLIC 3ad00 0 google_breakpad::MinidumpThreadList* google_breakpad::Minidump::GetStream<google_breakpad::MinidumpThreadList>(google_breakpad::MinidumpThreadList**)
PUBLIC 3b040 0 std::pair<std::_Rb_tree_iterator<std::pair<unsigned long const, google_breakpad::RangeMap<unsigned long, unsigned int>::Range> >, bool> std::_Rb_tree<unsigned long, std::pair<unsigned long const, google_breakpad::RangeMap<unsigned long, unsigned int>::Range>, std::_Select1st<std::pair<unsigned long const, google_breakpad::RangeMap<unsigned long, unsigned int>::Range> >, std::less<unsigned long>, std::allocator<std::pair<unsigned long const, google_breakpad::RangeMap<unsigned long, unsigned int>::Range> > >::_M_insert_unique<std::pair<unsigned long const, google_breakpad::RangeMap<unsigned long, unsigned int>::Range> >(std::pair<unsigned long const, google_breakpad::RangeMap<unsigned long, unsigned int>::Range>&&)
PUBLIC 3b160 0 google_breakpad::RangeMap<unsigned long, unsigned int>::StoreRangeInternal(unsigned long const&, unsigned long const&, unsigned long const&, unsigned int const&)
PUBLIC 3b620 0 google_breakpad::MinidumpModuleList* google_breakpad::Minidump::GetStream<google_breakpad::MinidumpModuleList>(google_breakpad::MinidumpModuleList**)
PUBLIC 3b960 0 google_breakpad::MinidumpMemoryList* google_breakpad::Minidump::GetStream<google_breakpad::MinidumpMemoryList>(google_breakpad::MinidumpMemoryList**)
PUBLIC 3bca0 0 google_breakpad::MinidumpUnloadedModuleList* google_breakpad::Minidump::GetStream<google_breakpad::MinidumpUnloadedModuleList>(google_breakpad::MinidumpUnloadedModuleList**)
PUBLIC 3bfe0 0 google_breakpad::MinidumpMemoryInfoList* google_breakpad::Minidump::GetStream<google_breakpad::MinidumpMemoryInfoList>(google_breakpad::MinidumpMemoryInfoList**)
PUBLIC 3c320 0 std::_Rb_tree<unsigned int, std::pair<unsigned int const, google_breakpad::Minidump::MinidumpStreamInfo>, std::_Select1st<std::pair<unsigned int const, google_breakpad::Minidump::MinidumpStreamInfo> >, std::less<unsigned int>, std::allocator<std::pair<unsigned int const, google_breakpad::Minidump::MinidumpStreamInfo> > >::_M_get_insert_unique_pos(unsigned int const&)
PUBLIC 3c3b0 0 std::_Rb_tree<unsigned int, std::pair<unsigned int const, google_breakpad::Minidump::MinidumpStreamInfo>, std::_Select1st<std::pair<unsigned int const, google_breakpad::Minidump::MinidumpStreamInfo> >, std::less<unsigned int>, std::allocator<std::pair<unsigned int const, google_breakpad::Minidump::MinidumpStreamInfo> > >::_M_get_insert_hint_unique_pos(std::_Rb_tree_const_iterator<std::pair<unsigned int const, google_breakpad::Minidump::MinidumpStreamInfo> >, unsigned int const&)
PUBLIC 3c490 0 std::_Rb_tree_node<std::pair<std::__cxx11::basic_string<char, std::char_traits<char>, std::allocator<char> > const, std::__cxx11::basic_string<char, std::char_traits<char>, std::allocator<char> > > >* std::_Rb_tree<std::__cxx11::basic_string<char, std::char_traits<char>, std::allocator<char> >, std::pair<std::__cxx11::basic_string<char, std::char_traits<char>, std::allocator<char> > const, std::__cxx11::basic_string<char, std::char_traits<char>, std::allocator<char> > >, std::_Select1st<std::pair<std::__cxx11::basic_string<char, std::char_traits<char>, std::allocator<char> > const, std::__cxx11::basic_string<char, std::char_traits<char>, std::allocator<char> > > >, std::less<std::__cxx11::basic_string<char, std::char_traits<char>, std::allocator<char> > >, std::allocator<std::pair<std::__cxx11::basic_string<char, std::char_traits<char>, std::allocator<char> > const, std::__cxx11::basic_string<char, std::char_traits<char>, std::allocator<char> > > > >::_M_copy<std::_Rb_tree<std::__cxx11::basic_string<char, std::char_traits<char>, std::allocator<char> >, std::pair<std::__cxx11::basic_string<char, std::char_traits<char>, std::allocator<char> > const, std::__cxx11::basic_string<char, std::char_traits<char>, std::allocator<char> > >, std::_Select1st<std::pair<std::__cxx11::basic_string<char, std::char_traits<char>, std::allocator<char> > const, std::__cxx11::basic_string<char, std::char_traits<char>, std::allocator<char> > > >, std::less<std::__cxx11::basic_string<char, std::char_traits<char>, std::allocator<char> > >, std::allocator<std::pair<std::__cxx11::basic_string<char, std::char_traits<char>, std::allocator<char> > const, std::__cxx11::basic_string<char, std::char_traits<char>, std::allocator<char> > > > >::_Alloc_node>(std::_Rb_tree_node<std::pair<std::__cxx11::basic_string<char, std::char_traits<char>, std::allocator<char> > const, std::__cxx11::basic_string<char, std::char_traits<char>, std::allocator<char> > > > const*, std::_Rb_tree_node_base*, std::_Rb_tree<std::__cxx11::basic_string<char, std::char_traits<char>, std::allocator<char> >, std::pair<std::__cxx11::basic_string<char, std::char_traits<char>, std::allocator<char> > const, std::__cxx11::basic_string<char, std::char_traits<char>, std::allocator<char> > >, std::_Select1st<std::pair<std::__cxx11::basic_string<char, std::char_traits<char>, std::allocator<char> > const, std::__cxx11::basic_string<char, std::char_traits<char>, std::allocator<char> > > >, std::less<std::__cxx11::basic_string<char, std::char_traits<char>, std::allocator<char> > >, std::allocator<std::pair<std::__cxx11::basic_string<char, std::char_traits<char>, std::allocator<char> > const, std::__cxx11::basic_string<char, std::char_traits<char>, std::allocator<char> > > > >::_Alloc_node&)
PUBLIC 3c690 0 void std::vector<std::map<std::__cxx11::basic_string<char, std::char_traits<char>, std::allocator<char> >, std::__cxx11::basic_string<char, std::char_traits<char>, std::allocator<char> >, std::less<std::__cxx11::basic_string<char, std::char_traits<char>, std::allocator<char> > >, std::allocator<std::pair<std::__cxx11::basic_string<char, std::char_traits<char>, std::allocator<char> > const, std::__cxx11::basic_string<char, std::char_traits<char>, std::allocator<char> > > > >, std::allocator<std::map<std::__cxx11::basic_string<char, std::char_traits<char>, std::allocator<char> >, std::__cxx11::basic_string<char, std::char_traits<char>, std::allocator<char> >, std::less<std::__cxx11::basic_string<char, std::char_traits<char>, std::allocator<char> > >, std::allocator<std::pair<std::__cxx11::basic_string<char, std::char_traits<char>, std::allocator<char> > const, std::__cxx11::basic_string<char, std::char_traits<char>, std::allocator<char> > > > > > >::_M_realloc_insert<std::map<std::__cxx11::basic_string<char, std::char_traits<char>, std::allocator<char> >, std::__cxx11::basic_string<char, std::char_traits<char>, std::allocator<char> >, std::less<std::__cxx11::basic_string<char, std::char_traits<char>, std::allocator<char> > >, std::allocator<std::pair<std::__cxx11::basic_string<char, std::char_traits<char>, std::allocator<char> > const, std::__cxx11::basic_string<char, std::char_traits<char>, std::allocator<char> > > > > const&>(__gnu_cxx::__normal_iterator<std::map<std::__cxx11::basic_string<char, std::char_traits<char>, std::allocator<char> >, std::__cxx11::basic_string<char, std::char_traits<char>, std::allocator<char> >, std::less<std::__cxx11::basic_string<char, std::char_traits<char>, std::allocator<char> > >, std::allocator<std::pair<std::__cxx11::basic_string<char, std::char_traits<char>, std::allocator<char> > const, std::__cxx11::basic_string<char, std::char_traits<char>, std::allocator<char> > > > >*, std::vector<std::map<std::__cxx11::basic_string<char, std::char_traits<char>, std::allocator<char> >, std::__cxx11::basic_string<char, std::char_traits<char>, std::allocator<char> >, std::less<std::__cxx11::basic_string<char, std::char_traits<char>, std::allocator<char> > >, std::allocator<std::pair<std::__cxx11::basic_string<char, std::char_traits<char>, std::allocator<char> > const, std::__cxx11::basic_string<char, std::char_traits<char>, std::allocator<char> > > > >, std::allocator<std::map<std::__cxx11::basic_string<char, std::char_traits<char>, std::allocator<char> >, std::__cxx11::basic_string<char, std::char_traits<char>, std::allocator<char> >, std::less<std::__cxx11::basic_string<char, std::char_traits<char>, std::allocator<char> > >, std::allocator<std::pair<std::__cxx11::basic_string<char, std::char_traits<char>, std::allocator<char> > const, std::__cxx11::basic_string<char, std::char_traits<char>, std::allocator<char> > > > > > > >, std::map<std::__cxx11::basic_string<char, std::char_traits<char>, std::allocator<char> >, std::__cxx11::basic_string<char, std::char_traits<char>, std::allocator<char> >, std::less<std::__cxx11::basic_string<char, std::char_traits<char>, std::allocator<char> > >, std::allocator<std::pair<std::__cxx11::basic_string<char, std::char_traits<char>, std::allocator<char> > const, std::__cxx11::basic_string<char, std::char_traits<char>, std::allocator<char> > > > > const&)
PUBLIC 3ca80 0 google_breakpad::MinidumpCrashpadInfo* google_breakpad::Minidump::GetStream<google_breakpad::MinidumpCrashpadInfo>(google_breakpad::MinidumpCrashpadInfo**)
PUBLIC 3cdc0 0 void std::__cxx11::basic_string<char, std::char_traits<char>, std::allocator<char> >::_M_construct<char const*>(char const*, char const*, std::forward_iterator_tag) [clone .isra.55]
PUBLIC 3ce90 0 google_breakpad::GetARMCpuInfo(MDRawSystemInfo const*, std::__cxx11::basic_string<char, std::char_traits<char>, std::allocator<char> >*)
PUBLIC 3d4e0 0 google_breakpad::MinidumpProcessor::MinidumpProcessor(google_breakpad::SymbolSupplier*, google_breakpad::SourceLineResolverInterface*)
PUBLIC 3d540 0 google_breakpad::MinidumpProcessor::MinidumpProcessor(google_breakpad::SymbolSupplier*, google_breakpad::SourceLineResolverInterface*, bool)
PUBLIC 3d5a0 0 google_breakpad::MinidumpProcessor::MinidumpProcessor(google_breakpad::StackFrameSymbolizer*, bool)
PUBLIC 3d5b0 0 google_breakpad::MinidumpProcessor::GetCPUInfo(google_breakpad::Minidump*, google_breakpad::SystemInfo*)
PUBLIC 3d980 0 google_breakpad::MinidumpProcessor::GetOSInfo(google_breakpad::Minidump*, google_breakpad::SystemInfo*)
PUBLIC 3de50 0 google_breakpad::MinidumpProcessor::GetProcessCreateTime(google_breakpad::Minidump*, unsigned int*)
PUBLIC 3de90 0 google_breakpad::MinidumpProcessor::GetCrashReason[abi:cxx11](google_breakpad::Minidump*, unsigned long*)
PUBLIC 40550 0 google_breakpad::MinidumpProcessor::GetAssertion[abi:cxx11](google_breakpad::Minidump*)
PUBLIC 40bb0 0 google_breakpad::MinidumpProcessor::~MinidumpProcessor()
PUBLIC 40c20 0 google_breakpad::MinidumpProcessor::Process(google_breakpad::Minidump*, google_breakpad::ProcessState*)
PUBLIC 42810 0 google_breakpad::MinidumpProcessor::Process(std::__cxx11::basic_string<char, std::char_traits<char>, std::allocator<char> > const&, google_breakpad::ProcessState*)
PUBLIC 42a00 0 std::__cxx11::basic_string<char, std::char_traits<char>, std::allocator<char> > std::operator+<char, std::char_traits<char>, std::allocator<char> >(char const*, std::__cxx11::basic_string<char, std::char_traits<char>, std::allocator<char> > const&)
PUBLIC 42ab0 0 std::_Rb_tree<std::__cxx11::basic_string<char, std::char_traits<char>, std::allocator<char> >, std::__cxx11::basic_string<char, std::char_traits<char>, std::allocator<char> >, std::_Identity<std::__cxx11::basic_string<char, std::char_traits<char>, std::allocator<char> > >, std::less<std::__cxx11::basic_string<char, std::char_traits<char>, std::allocator<char> > >, std::allocator<std::__cxx11::basic_string<char, std::char_traits<char>, std::allocator<char> > > >::_M_erase(std::_Rb_tree_node<std::__cxx11::basic_string<char, std::char_traits<char>, std::allocator<char> > >*)
PUBLIC 42b10 0 google_breakpad::StackFrameSymbolizer::~StackFrameSymbolizer()
PUBLIC 42b30 0 google_breakpad::StackFrameSymbolizer::~StackFrameSymbolizer()
PUBLIC 42b60 0 google_breakpad::StackFrameSymbolizer::Reset()
PUBLIC 42b90 0 void std::vector<google_breakpad::CallStack*, std::allocator<google_breakpad::CallStack*> >::_M_realloc_insert<google_breakpad::CallStack*>(__gnu_cxx::__normal_iterator<google_breakpad::CallStack**, std::vector<google_breakpad::CallStack*, std::allocator<google_breakpad::CallStack*> > >, google_breakpad::CallStack*&&)
PUBLIC 42cc0 0 void std::vector<google_breakpad::MemoryRegion*, std::allocator<google_breakpad::MemoryRegion*> >::_M_realloc_insert<google_breakpad::MemoryRegion*>(__gnu_cxx::__normal_iterator<google_breakpad::MemoryRegion**, std::vector<google_breakpad::MemoryRegion*, std::allocator<google_breakpad::MemoryRegion*> > >, google_breakpad::MemoryRegion*&&)
PUBLIC 42df0 0 google_breakpad::PathnameStripper::File(std::__cxx11::basic_string<char, std::char_traits<char>, std::allocator<char> > const&)
PUBLIC 42fa0 0 google_breakpad::ProcessState::Clear()
PUBLIC 43130 0 google_breakpad::ProcessState::~ProcessState()
PUBLIC 432f0 0 void std::__cxx11::basic_string<char, std::char_traits<char>, std::allocator<char> >::_M_construct<char const*>(char const*, char const*, std::forward_iterator_tag) [clone .isra.34]
PUBLIC 433c0 0 google_breakpad::ParseProcMaps(std::__cxx11::basic_string<char, std::char_traits<char>, std::allocator<char> > const&, std::vector<google_breakpad::MappedMemoryRegion, std::allocator<google_breakpad::MappedMemoryRegion> >*)
PUBLIC 43c40 0 google_breakpad::MappedMemoryRegion::~MappedMemoryRegion()
PUBLIC 43c80 0 void std::vector<google_breakpad::MappedMemoryRegion, std::allocator<google_breakpad::MappedMemoryRegion> >::_M_realloc_insert<google_breakpad::MappedMemoryRegion const&>(__gnu_cxx::__normal_iterator<google_breakpad::MappedMemoryRegion*, std::vector<google_breakpad::MappedMemoryRegion, std::allocator<google_breakpad::MappedMemoryRegion> > >, google_breakpad::MappedMemoryRegion const&)
PUBLIC 44160 0 void std::__cxx11::basic_string<char, std::char_traits<char>, std::allocator<char> >::_M_construct<char const*>(char const*, char const*, std::forward_iterator_tag) [clone .isra.36]
PUBLIC 44230 0 google_breakpad::SimpleSymbolSupplier::GetSymbolFile(google_breakpad::CodeModule const*, google_breakpad::SystemInfo const*, std::__cxx11::basic_string<char, std::char_traits<char>, std::allocator<char> >*, std::__cxx11::basic_string<char, std::char_traits<char>, std::allocator<char> >*)
PUBLIC 44510 0 google_breakpad::SimpleSymbolSupplier::FreeSymbolData(google_breakpad::CodeModule const*)
PUBLIC 44800 0 google_breakpad::SimpleSymbolSupplier::GetSymbolFileAtPathFromRoot(google_breakpad::CodeModule const*, google_breakpad::SystemInfo const*, std::__cxx11::basic_string<char, std::char_traits<char>, std::allocator<char> > const&, std::__cxx11::basic_string<char, std::char_traits<char>, std::allocator<char> >*)
PUBLIC 450f0 0 google_breakpad::SimpleSymbolSupplier::GetSymbolFile(google_breakpad::CodeModule const*, google_breakpad::SystemInfo const*, std::__cxx11::basic_string<char, std::char_traits<char>, std::allocator<char> >*)
PUBLIC 45210 0 google_breakpad::SimpleSymbolSupplier::GetCStringSymbolData(google_breakpad::CodeModule const*, google_breakpad::SystemInfo const*, std::__cxx11::basic_string<char, std::char_traits<char>, std::allocator<char> >*, char**, unsigned long*)
PUBLIC 453d0 0 google_breakpad::SimpleSymbolSupplier::~SimpleSymbolSupplier()
PUBLIC 45440 0 google_breakpad::SimpleSymbolSupplier::~SimpleSymbolSupplier()
PUBLIC 454c0 0 std::pair<std::_Rb_tree_iterator<std::pair<std::__cxx11::basic_string<char, std::char_traits<char>, std::allocator<char> > const, char*> >, bool> std::_Rb_tree<std::__cxx11::basic_string<char, std::char_traits<char>, std::allocator<char> >, std::pair<std::__cxx11::basic_string<char, std::char_traits<char>, std::allocator<char> > const, char*>, std::_Select1st<std::pair<std::__cxx11::basic_string<char, std::char_traits<char>, std::allocator<char> > const, char*> >, std::less<std::__cxx11::basic_string<char, std::char_traits<char>, std::allocator<char> > >, std::allocator<std::pair<std::__cxx11::basic_string<char, std::char_traits<char>, std::allocator<char> > const, char*> > >::_M_emplace_unique<std::pair<std::__cxx11::basic_string<char, std::char_traits<char>, std::allocator<char> >, char*> >(std::pair<std::__cxx11::basic_string<char, std::char_traits<char>, std::allocator<char> >, char*>&&)
PUBLIC 45780 0 google_breakpad::SourceLineResolverBase::ShouldDeleteMemoryBufferAfterLoadModule()
PUBLIC 45790 0 google_breakpad::SourceLineResolverBase::Module::ParseCFIRuleSet(std::__cxx11::basic_string<char, std::char_traits<char>, std::allocator<char> > const&, google_breakpad::CFIFrameInfo*) const
PUBLIC 45880 0 google_breakpad::SourceLineResolverBase::SourceLineResolverBase(google_breakpad::ModuleFactory*)
PUBLIC 45940 0 google_breakpad::SourceLineResolverBase::ReadSymbolFile(std::__cxx11::basic_string<char, std::char_traits<char>, std::allocator<char> > const&, char**, unsigned long*)
PUBLIC 45e30 0 google_breakpad::SourceLineResolverBase::CompareString::operator()(std::__cxx11::basic_string<char, std::char_traits<char>, std::allocator<char> > const&, std::__cxx11::basic_string<char, std::char_traits<char>, std::allocator<char> > const&) const
PUBLIC 45e50 0 google_breakpad::SourceLineResolverBase::IsModuleCorrupt(google_breakpad::CodeModule const*)
PUBLIC 45f50 0 google_breakpad::SourceLineResolverBase::~SourceLineResolverBase()
PUBLIC 460a0 0 google_breakpad::SourceLineResolverBase::~SourceLineResolverBase()
PUBLIC 460c0 0 google_breakpad::SourceLineResolverBase::HasModule(google_breakpad::CodeModule const*)
PUBLIC 46170 0 google_breakpad::SourceLineResolverBase::FillSourceLineInfo(google_breakpad::StackFrame*)
PUBLIC 46230 0 google_breakpad::SourceLineResolverBase::FindWindowsFrameInfo(google_breakpad::StackFrame const*)
PUBLIC 462f0 0 google_breakpad::SourceLineResolverBase::FindCFIFrameInfo(google_breakpad::StackFrame const*)
PUBLIC 463b0 0 google_breakpad::SourceLineResolverBase::LoadModule(google_breakpad::CodeModule const*, std::__cxx11::basic_string<char, std::char_traits<char>, std::allocator<char> > const&)
PUBLIC 46770 0 google_breakpad::SourceLineResolverBase::LoadModuleUsingMapBuffer(google_breakpad::CodeModule const*, std::__cxx11::basic_string<char, std::char_traits<char>, std::allocator<char> > const&)
PUBLIC 46a30 0 google_breakpad::SourceLineResolverBase::LoadModuleUsingMemoryBuffer(google_breakpad::CodeModule const*, char*, unsigned long)
PUBLIC 46e50 0 google_breakpad::SourceLineResolverBase::UnloadModule(google_breakpad::CodeModule const*)
PUBLIC 47040 0 std::_Rb_tree<std::__cxx11::basic_string<char, std::char_traits<char>, std::allocator<char> >, std::pair<std::__cxx11::basic_string<char, std::char_traits<char>, std::allocator<char> > const, google_breakpad::SourceLineResolverBase::Module*>, std::_Select1st<std::pair<std::__cxx11::basic_string<char, std::char_traits<char>, std::allocator<char> > const, google_breakpad::SourceLineResolverBase::Module*> >, google_breakpad::SourceLineResolverBase::CompareString, std::allocator<std::pair<std::__cxx11::basic_string<char, std::char_traits<char>, std::allocator<char> > const, google_breakpad::SourceLineResolverBase::Module*> > >::_M_erase(std::_Rb_tree_node<std::pair<std::__cxx11::basic_string<char, std::char_traits<char>, std::allocator<char> > const, google_breakpad::SourceLineResolverBase::Module*> >*)
PUBLIC 470a0 0 std::_Rb_tree<std::__cxx11::basic_string<char, std::char_traits<char>, std::allocator<char> >, std::__cxx11::basic_string<char, std::char_traits<char>, std::allocator<char> >, std::_Identity<std::__cxx11::basic_string<char, std::char_traits<char>, std::allocator<char> > >, google_breakpad::SourceLineResolverBase::CompareString, std::allocator<std::__cxx11::basic_string<char, std::char_traits<char>, std::allocator<char> > > >::_M_erase(std::_Rb_tree_node<std::__cxx11::basic_string<char, std::char_traits<char>, std::allocator<char> > >*)
PUBLIC 47100 0 std::_Rb_tree<std::__cxx11::basic_string<char, std::char_traits<char>, std::allocator<char> >, std::pair<std::__cxx11::basic_string<char, std::char_traits<char>, std::allocator<char> > const, char*>, std::_Select1st<std::pair<std::__cxx11::basic_string<char, std::char_traits<char>, std::allocator<char> > const, char*> >, google_breakpad::SourceLineResolverBase::CompareString, std::allocator<std::pair<std::__cxx11::basic_string<char, std::char_traits<char>, std::allocator<char> > const, char*> > >::_M_erase(std::_Rb_tree_node<std::pair<std::__cxx11::basic_string<char, std::char_traits<char>, std::allocator<char> > const, char*> >*)
PUBLIC 47160 0 std::_Rb_tree<std::__cxx11::basic_string<char, std::char_traits<char>, std::allocator<char> >, std::pair<std::__cxx11::basic_string<char, std::char_traits<char>, std::allocator<char> > const, google_breakpad::SourceLineResolverBase::Module*>, std::_Select1st<std::pair<std::__cxx11::basic_string<char, std::char_traits<char>, std::allocator<char> > const, google_breakpad::SourceLineResolverBase::Module*> >, google_breakpad::SourceLineResolverBase::CompareString, std::allocator<std::pair<std::__cxx11::basic_string<char, std::char_traits<char>, std::allocator<char> > const, google_breakpad::SourceLineResolverBase::Module*> > >::find(std::__cxx11::basic_string<char, std::char_traits<char>, std::allocator<char> > const&)
PUBLIC 471e0 0 std::pair<std::_Rb_tree_iterator<std::pair<std::__cxx11::basic_string<char, std::char_traits<char>, std::allocator<char> > const, char*> >, bool> std::_Rb_tree<std::__cxx11::basic_string<char, std::char_traits<char>, std::allocator<char> >, std::pair<std::__cxx11::basic_string<char, std::char_traits<char>, std::allocator<char> > const, char*>, std::_Select1st<std::pair<std::__cxx11::basic_string<char, std::char_traits<char>, std::allocator<char> > const, char*> >, google_breakpad::SourceLineResolverBase::CompareString, std::allocator<std::pair<std::__cxx11::basic_string<char, std::char_traits<char>, std::allocator<char> > const, char*> > >::_M_emplace_unique<std::pair<std::__cxx11::basic_string<char, std::char_traits<char>, std::allocator<char> >, char*> >(std::pair<std::__cxx11::basic_string<char, std::char_traits<char>, std::allocator<char> >, char*>&&)
PUBLIC 473d0 0 std::pair<std::_Rb_tree_iterator<std::pair<std::__cxx11::basic_string<char, std::char_traits<char>, std::allocator<char> > const, google_breakpad::SourceLineResolverBase::Module*> >, bool> std::_Rb_tree<std::__cxx11::basic_string<char, std::char_traits<char>, std::allocator<char> >, std::pair<std::__cxx11::basic_string<char, std::char_traits<char>, std::allocator<char> > const, google_breakpad::SourceLineResolverBase::Module*>, std::_Select1st<std::pair<std::__cxx11::basic_string<char, std::char_traits<char>, std::allocator<char> > const, google_breakpad::SourceLineResolverBase::Module*> >, google_breakpad::SourceLineResolverBase::CompareString, std::allocator<std::pair<std::__cxx11::basic_string<char, std::char_traits<char>, std::allocator<char> > const, google_breakpad::SourceLineResolverBase::Module*> > >::_M_emplace_unique<std::pair<std::__cxx11::basic_string<char, std::char_traits<char>, std::allocator<char> >, google_breakpad::SourceLineResolverBase::Module*> >(std::pair<std::__cxx11::basic_string<char, std::char_traits<char>, std::allocator<char> >, google_breakpad::SourceLineResolverBase::Module*>&&)
PUBLIC 475c0 0 std::pair<std::_Rb_tree_iterator<std::__cxx11::basic_string<char, std::char_traits<char>, std::allocator<char> > >, bool> std::_Rb_tree<std::__cxx11::basic_string<char, std::char_traits<char>, std::allocator<char> >, std::__cxx11::basic_string<char, std::char_traits<char>, std::allocator<char> >, std::_Identity<std::__cxx11::basic_string<char, std::char_traits<char>, std::allocator<char> > >, google_breakpad::SourceLineResolverBase::CompareString, std::allocator<std::__cxx11::basic_string<char, std::char_traits<char>, std::allocator<char> > > >::_M_insert_unique<std::__cxx11::basic_string<char, std::char_traits<char>, std::allocator<char> > >(std::__cxx11::basic_string<char, std::char_traits<char>, std::allocator<char> >&&)
PUBLIC 47740 0 std::_Rb_tree<std::__cxx11::basic_string<char, std::char_traits<char>, std::allocator<char> >, std::__cxx11::basic_string<char, std::char_traits<char>, std::allocator<char> >, std::_Identity<std::__cxx11::basic_string<char, std::char_traits<char>, std::allocator<char> > >, google_breakpad::SourceLineResolverBase::CompareString, std::allocator<std::__cxx11::basic_string<char, std::char_traits<char>, std::allocator<char> > > >::equal_range(std::__cxx11::basic_string<char, std::char_traits<char>, std::allocator<char> > const&)
PUBLIC 47840 0 std::_Rb_tree<std::__cxx11::basic_string<char, std::char_traits<char>, std::allocator<char> >, std::__cxx11::basic_string<char, std::char_traits<char>, std::allocator<char> >, std::_Identity<std::__cxx11::basic_string<char, std::char_traits<char>, std::allocator<char> > >, google_breakpad::SourceLineResolverBase::CompareString, std::allocator<std::__cxx11::basic_string<char, std::char_traits<char>, std::allocator<char> > > >::erase(std::__cxx11::basic_string<char, std::char_traits<char>, std::allocator<char> > const&)
PUBLIC 47920 0 google_breakpad::StackFrameSymbolizer::FindWindowsFrameInfo(google_breakpad::StackFrame const*)
PUBLIC 47940 0 google_breakpad::StackFrameSymbolizer::FindCFIFrameInfo(google_breakpad::StackFrame const*)
PUBLIC 47960 0 google_breakpad::StackFrameSymbolizer::StackFrameSymbolizer(google_breakpad::SymbolSupplier*, google_breakpad::SourceLineResolverInterface*)
PUBLIC 479a0 0 google_breakpad::StackFrameSymbolizer::FillSourceLineInfo(google_breakpad::CodeModules const*, google_breakpad::CodeModules const*, google_breakpad::SystemInfo const*, google_breakpad::StackFrame*)
PUBLIC 47e50 0 google_breakpad::StackFrameSymbolizer::HasImplementation()
PUBLIC 47e70 0 std::pair<std::_Rb_tree_iterator<std::__cxx11::basic_string<char, std::char_traits<char>, std::allocator<char> > >, bool> std::_Rb_tree<std::__cxx11::basic_string<char, std::char_traits<char>, std::allocator<char> >, std::__cxx11::basic_string<char, std::char_traits<char>, std::allocator<char> >, std::_Identity<std::__cxx11::basic_string<char, std::char_traits<char>, std::allocator<char> > >, std::less<std::__cxx11::basic_string<char, std::char_traits<char>, std::allocator<char> > >, std::allocator<std::__cxx11::basic_string<char, std::char_traits<char>, std::allocator<char> > > >::_M_insert_unique<std::__cxx11::basic_string<char, std::char_traits<char>, std::allocator<char> > >(std::__cxx11::basic_string<char, std::char_traits<char>, std::allocator<char> >&&)
PUBLIC 48110 0 google_breakpad::(anonymous namespace)::PrintRegister(char const*, unsigned int, int)
PUBLIC 48230 0 google_breakpad::(anonymous namespace)::PrintRegister64(char const*, unsigned long, int)
PUBLIC 48350 0 void std::__cxx11::basic_string<char, std::char_traits<char>, std::allocator<char> >::_M_construct<char const*>(char const*, char const*, std::forward_iterator_tag) [clone .isra.35]
PUBLIC 48420 0 google_breakpad::(anonymous namespace)::StripSeparator(std::__cxx11::basic_string<char, std::char_traits<char>, std::allocator<char> > const&)
PUBLIC 48540 0 google_breakpad::(anonymous namespace)::PrintStackMachineReadable(int, google_breakpad::CallStack const*)
PUBLIC 48900 0 google_breakpad::(anonymous namespace)::ContainsModule(std::vector<google_breakpad::CodeModule const*, std::allocator<google_breakpad::CodeModule const*> > const*, google_breakpad::CodeModule const*)
PUBLIC 48ba0 0 google_breakpad::(anonymous namespace)::PrintStack(google_breakpad::CallStack const*, std::__cxx11::basic_string<char, std::char_traits<char>, std::allocator<char> > const&, bool, google_breakpad::MemoryRegion const*, google_breakpad::CodeModules const*, google_breakpad::SourceLineResolverInterface*)
PUBLIC 4a820 0 google_breakpad::PrintProcessState(google_breakpad::ProcessState const&, bool, google_breakpad::SourceLineResolverInterface*)
PUBLIC 4bac0 0 google_breakpad::PrintProcessStateMachineReadable(google_breakpad::ProcessState const&)
PUBLIC 4c460 0 google_breakpad::Stackwalker::Stackwalker(google_breakpad::SystemInfo const*, google_breakpad::MemoryRegion*, google_breakpad::CodeModules const*, google_breakpad::StackFrameSymbolizer*)
PUBLIC 4c490 0 google_breakpad::Stackwalker::StackwalkerForCPU(google_breakpad::SystemInfo const*, google_breakpad::DumpContext*, google_breakpad::MemoryRegion*, google_breakpad::CodeModules const*, google_breakpad::CodeModules const*, google_breakpad::StackFrameSymbolizer*)
PUBLIC 4c950 0 google_breakpad::Stackwalker::TerminateWalk(unsigned long, unsigned long, unsigned long, bool) const
PUBLIC 4c980 0 google_breakpad::Stackwalker::InstructionAddressSeemsValid(unsigned long) const
PUBLIC 4cb00 0 google_breakpad::InsertSpecialAttentionModule(google_breakpad::StackFrameSymbolizer::SymbolizerResult, google_breakpad::CodeModule const*, std::vector<google_breakpad::CodeModule const*, std::allocator<google_breakpad::CodeModule const*> >*)
PUBLIC 4ccd0 0 google_breakpad::Stackwalker::Walk(google_breakpad::CallStack*, std::vector<google_breakpad::CodeModule const*, std::allocator<google_breakpad::CodeModule const*> >*, std::vector<google_breakpad::CodeModule const*, std::allocator<google_breakpad::CodeModule const*> >*)
PUBLIC 4d0a0 0 void std::vector<google_breakpad::CodeModule const*, std::allocator<google_breakpad::CodeModule const*> >::_M_realloc_insert<google_breakpad::CodeModule const* const&>(__gnu_cxx::__normal_iterator<google_breakpad::CodeModule const**, std::vector<google_breakpad::CodeModule const*, std::allocator<google_breakpad::CodeModule const*> > >, google_breakpad::CodeModule const* const&)
PUBLIC 4d1d0 0 void std::vector<google_breakpad::StackFrame*, std::allocator<google_breakpad::StackFrame*> >::_M_realloc_insert<google_breakpad::StackFrame*>(__gnu_cxx::__normal_iterator<google_breakpad::StackFrame**, std::vector<google_breakpad::StackFrame*, std::allocator<google_breakpad::StackFrame*> > >, google_breakpad::StackFrame*&&)
PUBLIC 4d300 0 google_breakpad::StackwalkerAddressList::GetContextFrame()
PUBLIC 4d3a0 0 google_breakpad::StackwalkerAddressList::GetCallerFrame(google_breakpad::CallStack const*, bool)
PUBLIC 4d4e0 0 google_breakpad::StackwalkerAddressList::StackwalkerAddressList(unsigned long const*, unsigned long, google_breakpad::CodeModules const*, google_breakpad::StackFrameSymbolizer*)
PUBLIC 4d520 0 google_breakpad::StackwalkerAddressList::~StackwalkerAddressList()
PUBLIC 4d530 0 google_breakpad::StackwalkerAddressList::~StackwalkerAddressList()
PUBLIC 4d540 0 google_breakpad::StackFrameAMD64::ReturnAddress() const
PUBLIC 4d550 0 google_breakpad::StackwalkerAMD64::GetContextFrame()
PUBLIC 4d6b0 0 google_breakpad::StackwalkerAMD64::StackwalkerAMD64(google_breakpad::SystemInfo const*, MDRawContextAMD64 const*, google_breakpad::MemoryRegion*, google_breakpad::CodeModules const*, google_breakpad::StackFrameSymbolizer*)
PUBLIC 4d700 0 google_breakpad::StackwalkerAMD64::GetCallerByFramePointerRecovery(std::vector<google_breakpad::StackFrame*, std::allocator<google_breakpad::StackFrame*> > const&)
PUBLIC 4d8a0 0 google_breakpad::StackwalkerAMD64::GetCallerByStackScan(std::vector<google_breakpad::StackFrame*, std::allocator<google_breakpad::StackFrame*> > const&)
PUBLIC 4dad0 0 google_breakpad::StackwalkerAMD64::GetCallerByCFIFrameInfo(std::vector<google_breakpad::StackFrame*, std::allocator<google_breakpad::StackFrame*> > const&, google_breakpad::CFIFrameInfo*)
PUBLIC 4dc00 0 google_breakpad::StackwalkerAMD64::GetCallerFrame(google_breakpad::CallStack const*, bool)
PUBLIC 4dec0 0 google_breakpad::StackwalkerAMD64::~StackwalkerAMD64()
PUBLIC 4ded0 0 google_breakpad::StackwalkerAMD64::~StackwalkerAMD64()
PUBLIC 4dee0 0 google_breakpad::StackFrameAMD64::~StackFrameAMD64()
PUBLIC 4df30 0 google_breakpad::StackFrameAMD64::~StackFrameAMD64()
PUBLIC 4df80 0 std::_Rb_tree<std::__cxx11::basic_string<char, std::char_traits<char>, std::allocator<char> >, std::pair<std::__cxx11::basic_string<char, std::char_traits<char>, std::allocator<char> > const, unsigned long>, std::_Select1st<std::pair<std::__cxx11::basic_string<char, std::char_traits<char>, std::allocator<char> > const, unsigned long> >, std::less<std::__cxx11::basic_string<char, std::char_traits<char>, std::allocator<char> > >, std::allocator<std::pair<std::__cxx11::basic_string<char, std::char_traits<char>, std::allocator<char> > const, unsigned long> > >::find(std::__cxx11::basic_string<char, std::char_traits<char>, std::allocator<char> > const&)
PUBLIC 4e090 0 google_breakpad::SimpleCFIWalker<unsigned long, MDRawContextAMD64>::FindCallerRegisters(google_breakpad::MemoryRegion const&, google_breakpad::CFIFrameInfo const&, MDRawContextAMD64 const&, int, MDRawContextAMD64*, int*) const
PUBLIC 4e970 0 google_breakpad::StackwalkerSPARC::GetContextFrame()
PUBLIC 4eab0 0 google_breakpad::StackwalkerSPARC::GetCallerFrame(google_breakpad::CallStack const*, bool)
PUBLIC 4ecc0 0 google_breakpad::StackwalkerSPARC::StackwalkerSPARC(google_breakpad::SystemInfo const*, MDRawContextSPARC const*, google_breakpad::MemoryRegion*, google_breakpad::CodeModules const*, google_breakpad::StackFrameSymbolizer*)
PUBLIC 4ed00 0 google_breakpad::StackwalkerSPARC::~StackwalkerSPARC()
PUBLIC 4ed10 0 google_breakpad::StackwalkerSPARC::~StackwalkerSPARC()
PUBLIC 4ed20 0 google_breakpad::StackFrameSPARC::~StackFrameSPARC()
PUBLIC 4ed70 0 google_breakpad::StackFrameSPARC::~StackFrameSPARC()
PUBLIC 4edc0 0 google_breakpad::StackFrameX86::ReturnAddress() const
PUBLIC 4edd0 0 void std::__cxx11::basic_string<char, std::char_traits<char>, std::allocator<char> >::_M_construct<char const*>(char const*, char const*, std::forward_iterator_tag) [clone .isra.48]
PUBLIC 4eea0 0 google_breakpad::StackwalkerX86::GetContextFrame()
PUBLIC 4f050 0 google_breakpad::StackwalkerX86::StackwalkerX86(google_breakpad::SystemInfo const*, MDRawContextX86 const*, google_breakpad::MemoryRegion*, google_breakpad::CodeModules const*, google_breakpad::StackFrameSymbolizer*)
PUBLIC 4f230 0 google_breakpad::StackwalkerX86::GetCallerByEBPAtBase(std::vector<google_breakpad::StackFrame*, std::allocator<google_breakpad::StackFrame*> > const&, bool)
PUBLIC 4f4f0 0 google_breakpad::StackFrameX86::~StackFrameX86()
PUBLIC 4f5e0 0 google_breakpad::StackFrameX86::~StackFrameX86()
PUBLIC 4f600 0 std::_Rb_tree_iterator<std::pair<std::__cxx11::basic_string<char, std::char_traits<char>, std::allocator<char> > const, unsigned int> > std::_Rb_tree<std::__cxx11::basic_string<char, std::char_traits<char>, std::allocator<char> >, std::pair<std::__cxx11::basic_string<char, std::char_traits<char>, std::allocator<char> > const, unsigned int>, std::_Select1st<std::pair<std::__cxx11::basic_string<char, std::char_traits<char>, std::allocator<char> > const, unsigned int> >, std::less<std::__cxx11::basic_string<char, std::char_traits<char>, std::allocator<char> > >, std::allocator<std::pair<std::__cxx11::basic_string<char, std::char_traits<char>, std::allocator<char> > const, unsigned int> > >::_M_emplace_hint_unique<std::piecewise_construct_t const&, std::tuple<std::__cxx11::basic_string<char, std::char_traits<char>, std::allocator<char> >&&>, std::tuple<> >(std::_Rb_tree_const_iterator<std::pair<std::__cxx11::basic_string<char, std::char_traits<char>, std::allocator<char> > const, unsigned int> >, std::piecewise_construct_t const&, std::tuple<std::__cxx11::basic_string<char, std::char_traits<char>, std::allocator<char> >&&>&&, std::tuple<>&&) [clone .isra.104]
PUBLIC 4f6d0 0 google_breakpad::StackwalkerX86::GetCallerByCFIFrameInfo(std::vector<google_breakpad::StackFrame*, std::allocator<google_breakpad::StackFrame*> > const&, google_breakpad::CFIFrameInfo*)
PUBLIC 4f840 0 google_breakpad::StackwalkerX86::GetCallerByWindowsFrameInfo(std::vector<google_breakpad::StackFrame*, std::allocator<google_breakpad::StackFrame*> > const&, google_breakpad::WindowsFrameInfo*, bool)
PUBLIC 52720 0 google_breakpad::StackwalkerX86::GetCallerFrame(google_breakpad::CallStack const*, bool)
PUBLIC 528e0 0 google_breakpad::StackwalkerX86::~StackwalkerX86()
PUBLIC 528f0 0 google_breakpad::StackwalkerX86::~StackwalkerX86()
PUBLIC 52900 0 std::_Rb_tree<std::__cxx11::basic_string<char, std::char_traits<char>, std::allocator<char> >, std::pair<std::__cxx11::basic_string<char, std::char_traits<char>, std::allocator<char> > const, bool>, std::_Select1st<std::pair<std::__cxx11::basic_string<char, std::char_traits<char>, std::allocator<char> > const, bool> >, std::less<std::__cxx11::basic_string<char, std::char_traits<char>, std::allocator<char> > >, std::allocator<std::pair<std::__cxx11::basic_string<char, std::char_traits<char>, std::allocator<char> > const, bool> > >::_M_erase(std::_Rb_tree_node<std::pair<std::__cxx11::basic_string<char, std::char_traits<char>, std::allocator<char> > const, bool> >*)
PUBLIC 52960 0 std::_Rb_tree<std::__cxx11::basic_string<char, std::char_traits<char>, std::allocator<char> >, std::pair<std::__cxx11::basic_string<char, std::char_traits<char>, std::allocator<char> > const, bool>, std::_Select1st<std::pair<std::__cxx11::basic_string<char, std::char_traits<char>, std::allocator<char> > const, bool> >, std::less<std::__cxx11::basic_string<char, std::char_traits<char>, std::allocator<char> > >, std::allocator<std::pair<std::__cxx11::basic_string<char, std::char_traits<char>, std::allocator<char> > const, bool> > >::find(std::__cxx11::basic_string<char, std::char_traits<char>, std::allocator<char> > const&)
PUBLIC 52a70 0 std::_Rb_tree<std::__cxx11::basic_string<char, std::char_traits<char>, std::allocator<char> >, std::pair<std::__cxx11::basic_string<char, std::char_traits<char>, std::allocator<char> > const, unsigned int>, std::_Select1st<std::pair<std::__cxx11::basic_string<char, std::char_traits<char>, std::allocator<char> > const, unsigned int> >, std::less<std::__cxx11::basic_string<char, std::char_traits<char>, std::allocator<char> > >, std::allocator<std::pair<std::__cxx11::basic_string<char, std::char_traits<char>, std::allocator<char> > const, unsigned int> > >::find(std::__cxx11::basic_string<char, std::char_traits<char>, std::allocator<char> > const&)
PUBLIC 52b80 0 std::map<std::__cxx11::basic_string<char, std::char_traits<char>, std::allocator<char> >, unsigned int, std::less<std::__cxx11::basic_string<char, std::char_traits<char>, std::allocator<char> > >, std::allocator<std::pair<std::__cxx11::basic_string<char, std::char_traits<char>, std::allocator<char> > const, unsigned int> > >::operator[](std::__cxx11::basic_string<char, std::char_traits<char>, std::allocator<char> >&&)
PUBLIC 52cd0 0 google_breakpad::SimpleCFIWalker<unsigned int, MDRawContextX86>::FindCallerRegisters(google_breakpad::MemoryRegion const&, google_breakpad::CFIFrameInfo const&, MDRawContextX86 const&, int, MDRawContextX86*, int*) const
PUBLIC 53260 0 google_breakpad::StackwalkerARM::GetContextFrame()
PUBLIC 533a0 0 google_breakpad::StackwalkerARM::StackwalkerARM(google_breakpad::SystemInfo const*, MDRawContextARM const*, int, google_breakpad::MemoryRegion*, google_breakpad::CodeModules const*, google_breakpad::StackFrameSymbolizer*)
PUBLIC 533e0 0 google_breakpad::StackwalkerARM::GetCallerByStackScan(std::vector<google_breakpad::StackFrame*, std::allocator<google_breakpad::StackFrame*> > const&)
PUBLIC 53570 0 google_breakpad::StackwalkerARM::GetCallerByFramePointer(std::vector<google_breakpad::StackFrame*, std::allocator<google_breakpad::StackFrame*> > const&)
PUBLIC 53810 0 google_breakpad::StackwalkerARM::GetCallerByCFIFrameInfo(std::vector<google_breakpad::StackFrame*, std::allocator<google_breakpad::StackFrame*> > const&, google_breakpad::CFIFrameInfo*)
PUBLIC 540c0 0 google_breakpad::StackwalkerARM::GetCallerFrame(google_breakpad::CallStack const*, bool)
PUBLIC 54370 0 google_breakpad::StackwalkerARM::~StackwalkerARM()
PUBLIC 54380 0 google_breakpad::StackwalkerARM::~StackwalkerARM()
PUBLIC 54390 0 google_breakpad::StackFrameARM::~StackFrameARM()
PUBLIC 543e0 0 google_breakpad::StackFrameARM::~StackFrameARM()
PUBLIC 54430 0 google_breakpad::StackwalkerARM64::GetContextFrame()
PUBLIC 54570 0 google_breakpad::StackwalkerARM64::StackwalkerARM64(google_breakpad::SystemInfo const*, MDRawContextARM64 const*, google_breakpad::MemoryRegion*, google_breakpad::CodeModules const*, google_breakpad::StackFrameSymbolizer*)
PUBLIC 545b0 0 google_breakpad::StackwalkerARM64::GetCallerByStackScan(std::vector<google_breakpad::StackFrame*, std::allocator<google_breakpad::StackFrame*> > const&)
PUBLIC 54740 0 google_breakpad::StackwalkerARM64::GetCallerByFramePointer(std::vector<google_breakpad::StackFrame*, std::allocator<google_breakpad::StackFrame*> > const&)
PUBLIC 549b0 0 google_breakpad::StackwalkerARM64::GetCallerByCFIFrameInfo(std::vector<google_breakpad::StackFrame*, std::allocator<google_breakpad::StackFrame*> > const&, google_breakpad::CFIFrameInfo*)
PUBLIC 55260 0 google_breakpad::StackwalkerARM64::GetCallerFrame(google_breakpad::CallStack const*, bool)
PUBLIC 554d0 0 google_breakpad::StackwalkerARM64::~StackwalkerARM64()
PUBLIC 554e0 0 google_breakpad::StackwalkerARM64::~StackwalkerARM64()
PUBLIC 554f0 0 google_breakpad::StackFrameARM64::~StackFrameARM64()
PUBLIC 55540 0 google_breakpad::StackFrameARM64::~StackFrameARM64()
PUBLIC 55590 0 google_breakpad::StackwalkerMIPS::GetContextFrame()
PUBLIC 556d0 0 google_breakpad::StackwalkerMIPS::StackwalkerMIPS(google_breakpad::SystemInfo const*, MDRawContextMIPS const*, google_breakpad::MemoryRegion*, google_breakpad::CodeModules const*, google_breakpad::StackFrameSymbolizer*)
PUBLIC 55980 0 google_breakpad::StackwalkerMIPS::GetCallerByStackScan(std::vector<google_breakpad::StackFrame*, std::allocator<google_breakpad::StackFrame*> > const&)
PUBLIC 55ec0 0 google_breakpad::StackwalkerMIPS::GetCallerByCFIFrameInfo(std::vector<google_breakpad::StackFrame*, std::allocator<google_breakpad::StackFrame*> > const&, google_breakpad::CFIFrameInfo*)
PUBLIC 58ca0 0 google_breakpad::StackwalkerMIPS::GetCallerFrame(google_breakpad::CallStack const*, bool)
PUBLIC 58ef0 0 google_breakpad::StackwalkerMIPS::~StackwalkerMIPS()
PUBLIC 58f00 0 google_breakpad::StackwalkerMIPS::~StackwalkerMIPS()
PUBLIC 58f10 0 google_breakpad::StackFrameMIPS::~StackFrameMIPS()
PUBLIC 58f60 0 google_breakpad::StackFrameMIPS::~StackFrameMIPS()
PUBLIC 58fb0 0 std::map<std::__cxx11::basic_string<char, std::char_traits<char>, std::allocator<char> >, unsigned long, std::less<std::__cxx11::basic_string<char, std::char_traits<char>, std::allocator<char> > >, std::allocator<std::pair<std::__cxx11::basic_string<char, std::char_traits<char>, std::allocator<char> > const, unsigned long> > >::operator[](std::__cxx11::basic_string<char, std::char_traits<char>, std::allocator<char> >&&)
PUBLIC 59210 0 google_breakpad::StackwalkerPPC::GetCallerFrame(google_breakpad::CallStack const*, bool)
PUBLIC 59470 0 google_breakpad::StackwalkerPPC::GetContextFrame()
PUBLIC 595f0 0 google_breakpad::StackwalkerPPC::StackwalkerPPC(google_breakpad::SystemInfo const*, MDRawContextPPC const*, google_breakpad::MemoryRegion*, google_breakpad::CodeModules const*, google_breakpad::StackFrameSymbolizer*)
PUBLIC 597b0 0 google_breakpad::StackwalkerPPC::~StackwalkerPPC()
PUBLIC 597c0 0 google_breakpad::StackwalkerPPC::~StackwalkerPPC()
PUBLIC 597d0 0 google_breakpad::StackFramePPC::~StackFramePPC()
PUBLIC 59820 0 google_breakpad::StackFramePPC::~StackFramePPC()
PUBLIC 59870 0 google_breakpad::StackwalkerPPC64::GetContextFrame()
PUBLIC 599b0 0 google_breakpad::StackwalkerPPC64::GetCallerFrame(google_breakpad::CallStack const*, bool)
PUBLIC 59be0 0 google_breakpad::StackwalkerPPC64::StackwalkerPPC64(google_breakpad::SystemInfo const*, MDRawContextPPC64 const*, google_breakpad::MemoryRegion*, google_breakpad::CodeModules const*, google_breakpad::StackFrameSymbolizer*)
PUBLIC 59c20 0 google_breakpad::StackwalkerPPC64::~StackwalkerPPC64()
PUBLIC 59c30 0 google_breakpad::StackwalkerPPC64::~StackwalkerPPC64()
PUBLIC 59c40 0 google_breakpad::StackFramePPC64::~StackFramePPC64()
PUBLIC 59c90 0 google_breakpad::StackFramePPC64::~StackFramePPC64()
PUBLIC 59ce0 0 google_breakpad::NTStatusToString[abi:cxx11](unsigned int)
PUBLIC 67f80 0 google_breakpad::StringToVector(std::__cxx11::basic_string<char, std::char_traits<char>, std::allocator<char> > const&, std::vector<char, std::allocator<char> >&)
PUBLIC 68100 0 google_breakpad::Tokenize(char*, char const*, int, std::vector<char*, std::allocator<char*> >*)
PUBLIC 682d0 0 __libc_csu_init
PUBLIC 68340 0 __libc_csu_fini
PUBLIC 68344 0 _fini
STACK CFI INIT 9100 2b .cfa: $rsp 8 + .ra: .cfa -8 + ^
STACK CFI INIT 80d0 7f0 .cfa: $rsp 16 + .ra: .cfa -8 + ^
STACK CFI 80d6 .cfa: $rsp 24 +
STACK CFI INIT 88c0 8 .cfa: $rsp 8 + .ra: .cfa -8 + ^
STACK CFI INIT 9b40 13 .cfa: $rsp 8 + .ra: .cfa -8 + ^
STACK CFI INIT 9b60 25 .cfa: $rsp 8 + .ra: .cfa -8 + ^
STACK CFI 9b68 $rbx: .cfa -16 + ^ .cfa: $rsp 16 +
STACK CFI 9b80 .cfa: $rsp 8 +
STACK CFI INIT 9210 c8 .cfa: $rsp 8 + .ra: .cfa -8 + ^
STACK CFI 9212 $r12: .cfa -16 + ^ .cfa: $rsp 16 +
STACK CFI 9213 $rbp: .cfa -24 + ^ .cfa: $rsp 24 +
STACK CFI 9217 $rbx: .cfa -32 + ^ .cfa: $rsp 32 +
STACK CFI 921e .cfa: $rsp 48 +
STACK CFI 9284 .cfa: $rsp 32 +
STACK CFI 9285 .cfa: $rsp 24 +
STACK CFI 9286 .cfa: $rsp 16 +
STACK CFI 9288 .cfa: $rsp 8 +
STACK CFI 9290 .cfa: $rsp 48 +
STACK CFI INIT 92e0 3e .cfa: $rsp 8 + .ra: .cfa -8 + ^
STACK CFI 92e1 $rbx: .cfa -16 + ^ .cfa: $rsp 16 +
STACK CFI 92f3 .cfa: $rsp 32 +
STACK CFI 9315 .cfa: $rsp 16 +
STACK CFI 9319 .cfa: $rsp 8 +
STACK CFI INIT 9320 e4 .cfa: $rsp 8 + .ra: .cfa -8 + ^
STACK CFI 9322 $r12: .cfa -16 + ^ .cfa: $rsp 16 +
STACK CFI 9323 $rbp: .cfa -24 + ^ .cfa: $rsp 24 +
STACK CFI 9327 $rbx: .cfa -32 + ^ .cfa: $rsp 32 +
STACK CFI 932b .cfa: $rsp 112 +
STACK CFI 93b9 .cfa: $rsp 32 +
STACK CFI 93ba .cfa: $rsp 24 +
STACK CFI 93bb .cfa: $rsp 16 +
STACK CFI 93bd .cfa: $rsp 8 +
STACK CFI 93be .cfa: $rsp 112 +
STACK CFI INIT 9b90 55 .cfa: $rsp 8 + .ra: .cfa -8 + ^
STACK CFI 9b92 $r12: .cfa -16 + ^ .cfa: $rsp 16 +
STACK CFI 9b93 $rbp: .cfa -24 + ^ .cfa: $rsp 24 +
STACK CFI 9b94 $rbx: .cfa -32 + ^ .cfa: $rsp 32 +
STACK CFI 9bcf .cfa: $rsp 24 +
STACK CFI 9bd0 .cfa: $rsp 16 +
STACK CFI 9bd2 .cfa: $rsp 8 +
STACK CFI 9be0 .cfa: $rsp 32 +
STACK CFI 9be1 .cfa: $rsp 24 +
STACK CFI 9be2 .cfa: $rsp 16 +
STACK CFI 9be4 .cfa: $rsp 8 +
STACK CFI INIT 9bf0 52 .cfa: $rsp 8 + .ra: .cfa -8 + ^
STACK CFI 9bf7 $r12: .cfa -16 + ^ .cfa: $rsp 16 +
STACK CFI 9bfb $rbp: .cfa -24 + ^ .cfa: $rsp 24 +
STACK CFI 9bfc $rbx: .cfa -32 + ^ .cfa: $rsp 32 +
STACK CFI 9c32 .cfa: $rsp 24 +
STACK CFI 9c33 .cfa: $rsp 16 +
STACK CFI 9c35 .cfa: $rsp 8 +
STACK CFI 9c40 $r12: $r12 $rbp: $rbp $rbx: $rbx
STACK CFI INIT 9c50 14c .cfa: $rsp 8 + .ra: .cfa -8 + ^
STACK CFI 9c59 $r14: .cfa -16 + ^ .cfa: $rsp 16 +
STACK CFI 9c5b $r13: .cfa -24 + ^ .cfa: $rsp 24 +
STACK CFI 9c5d $r12: .cfa -32 + ^ .cfa: $rsp 32 +
STACK CFI 9c61 $rbp: .cfa -40 + ^ .cfa: $rsp 40 +
STACK CFI 9c62 $rbx: .cfa -48 + ^ .cfa: $rsp 48 +
STACK CFI 9d32 .cfa: $rsp 40 +
STACK CFI 9d33 .cfa: $rsp 32 +
STACK CFI 9d35 .cfa: $rsp 24 +
STACK CFI 9d37 .cfa: $rsp 16 +
STACK CFI 9d39 .cfa: $rsp 8 +
STACK CFI 9d3a .cfa: $rsp 48 +
STACK CFI INIT 9da0 277 .cfa: $rsp 8 + .ra: .cfa -8 + ^
STACK CFI 9da2 $r15: .cfa -16 + ^ .cfa: $rsp 16 +
STACK CFI 9da4 $r14: .cfa -24 + ^ .cfa: $rsp 24 +
STACK CFI 9da9 $r13: .cfa -32 + ^ .cfa: $rsp 32 +
STACK CFI 9dab $r12: .cfa -40 + ^ .cfa: $rsp 40 +
STACK CFI 9daf $rbp: .cfa -48 + ^ .cfa: $rsp 48 +
STACK CFI 9db0 $rbx: .cfa -56 + ^ .cfa: $rsp 56 +
STACK CFI 9db7 .cfa: $rsp 80 +
STACK CFI 9fab .cfa: $rsp 56 +
STACK CFI 9fac .cfa: $rsp 48 +
STACK CFI 9fad .cfa: $rsp 40 +
STACK CFI 9faf .cfa: $rsp 32 +
STACK CFI 9fb1 .cfa: $rsp 24 +
STACK CFI 9fb3 .cfa: $rsp 16 +
STACK CFI 9fb5 .cfa: $rsp 8 +
STACK CFI 9fc0 .cfa: $rsp 80 +
STACK CFI INIT 8970 2e .cfa: $rsp 8 + .ra: .cfa -8 + ^
STACK CFI 897b .cfa: $rsp 16 +
STACK CFI 8999 .cfa: $rsp 8 +
STACK CFI INIT 9410 727 .cfa: $rsp 8 + .ra: .cfa -8 + ^
STACK CFI 9412 $r15: .cfa -16 + ^ .cfa: $rsp 16 +
STACK CFI 9414 $r14: .cfa -24 + ^ .cfa: $rsp 24 +
STACK CFI 9416 $r13: .cfa -32 + ^ .cfa: $rsp 32 +
STACK CFI 9418 $r12: .cfa -40 + ^ .cfa: $rsp 40 +
STACK CFI 9419 $rbp: .cfa -48 + ^ .cfa: $rsp 48 +
STACK CFI 941a $rbx: .cfa -56 + ^ .cfa: $rsp 56 +
STACK CFI 9424 .cfa: $rsp 784 +
STACK CFI 95d7 .cfa: $rsp 56 +
STACK CFI 95d8 .cfa: $rsp 48 +
STACK CFI 95d9 .cfa: $rsp 40 +
STACK CFI 95db .cfa: $rsp 32 +
STACK CFI 95dd .cfa: $rsp 24 +
STACK CFI 95df .cfa: $rsp 16 +
STACK CFI 95e1 .cfa: $rsp 8 +
STACK CFI 95e2 .cfa: $rsp 784 +
STACK CFI INIT 89a0 277 .cfa: $rsp 8 + .ra: .cfa -8 + ^
STACK CFI 89a2 $r15: .cfa -16 + ^ .cfa: $rsp 16 +
STACK CFI 89a4 $r14: .cfa -24 + ^ .cfa: $rsp 24 +
STACK CFI 89a6 $r13: .cfa -32 + ^ .cfa: $rsp 32 +
STACK CFI 89a8 $r12: .cfa -40 + ^ .cfa: $rsp 40 +
STACK CFI 89b0 $rbp: .cfa -48 + ^ .cfa: $rsp 48 +
STACK CFI 89b1 $rbx: .cfa -56 + ^ .cfa: $rsp 56 +
STACK CFI 89bd .cfa: $rsp 192 +
STACK CFI 8b93 .cfa: $rsp 56 +
STACK CFI 8b94 .cfa: $rsp 48 +
STACK CFI 8b95 .cfa: $rsp 40 +
STACK CFI 8b97 .cfa: $rsp 32 +
STACK CFI 8b99 .cfa: $rsp 24 +
STACK CFI 8b9b .cfa: $rsp 16 +
STACK CFI 8b9d .cfa: $rsp 8 +
STACK CFI 8b9e .cfa: $rsp 192 +
STACK CFI INIT a020 c8 .cfa: $rsp 8 + .ra: .cfa -8 + ^
STACK CFI a022 $r12: .cfa -16 + ^ .cfa: $rsp 16 +
STACK CFI a023 $rbp: .cfa -24 + ^ .cfa: $rsp 24 +
STACK CFI a027 $rbx: .cfa -32 + ^ .cfa: $rsp 32 +
STACK CFI a02e .cfa: $rsp 48 +
STACK CFI a094 .cfa: $rsp 32 +
STACK CFI a095 .cfa: $rsp 24 +
STACK CFI a096 .cfa: $rsp 16 +
STACK CFI a098 .cfa: $rsp 8 +
STACK CFI a0a0 .cfa: $rsp 48 +
STACK CFI INIT a0f0 58 .cfa: $rsp 8 + .ra: .cfa -8 + ^
STACK CFI a0f2 $r12: .cfa -16 + ^ .cfa: $rsp 16 +
STACK CFI a0f3 $rbp: .cfa -24 + ^ .cfa: $rsp 24 +
STACK CFI a0f4 $rbx: .cfa -32 + ^ .cfa: $rsp 32 +
STACK CFI a144 .cfa: $rsp 24 +
STACK CFI a145 .cfa: $rsp 16 +
STACK CFI a147 .cfa: $rsp 8 +
STACK CFI INIT a150 58 .cfa: $rsp 8 + .ra: .cfa -8 + ^
STACK CFI a152 $r12: .cfa -16 + ^ .cfa: $rsp 16 +
STACK CFI a153 $rbp: .cfa -24 + ^ .cfa: $rsp 24 +
STACK CFI a154 $rbx: .cfa -32 + ^ .cfa: $rsp 32 +
STACK CFI a1a4 .cfa: $rsp 24 +
STACK CFI a1a5 .cfa: $rsp 16 +
STACK CFI a1a7 .cfa: $rsp 8 +
STACK CFI INIT a1b0 5 .cfa: $rsp 8 + .ra: .cfa -8 + ^
STACK CFI INIT a1c0 a .cfa: $rsp 8 + .ra: .cfa -8 + ^
STACK CFI INIT a1d0 6 .cfa: $rsp 8 + .ra: .cfa -8 + ^
STACK CFI INIT a1e0 5 .cfa: $rsp 8 + .ra: .cfa -8 + ^
STACK CFI INIT 88d0 f .cfa: $rsp 8 + .ra: .cfa -8 + ^
STACK CFI INIT a1f0 fb .cfa: $rsp 8 + .ra: .cfa -8 + ^
STACK CFI a1f2 $r12: .cfa -16 + ^ .cfa: $rsp 16 +
STACK CFI a1f3 $rbp: .cfa -24 + ^ .cfa: $rsp 24 +
STACK CFI a1f7 $rbx: .cfa -32 + ^ .cfa: $rsp 32 +
STACK CFI a2d2 .cfa: $rsp 24 +
STACK CFI a2d3 .cfa: $rsp 16 +
STACK CFI a2d5 .cfa: $rsp 8 +
STACK CFI a2e0 .cfa: $rsp 32 +
STACK CFI INIT a2f0 2ed .cfa: $rsp 8 + .ra: .cfa -8 + ^
STACK CFI a2f2 $r15: .cfa -16 + ^ .cfa: $rsp 16 +
STACK CFI a2f4 $r14: .cfa -24 + ^ .cfa: $rsp 24 +
STACK CFI a2f6 $r13: .cfa -32 + ^ .cfa: $rsp 32 +
STACK CFI a2f8 $r12: .cfa -40 + ^ .cfa: $rsp 40 +
STACK CFI a2fc $rbp: .cfa -48 + ^ .cfa: $rsp 48 +
STACK CFI a2fd $rbx: .cfa -56 + ^ .cfa: $rsp 56 +
STACK CFI a304 .cfa: $rsp 128 +
STACK CFI a456 .cfa: $rsp 56 +
STACK CFI a457 .cfa: $rsp 48 +
STACK CFI a458 .cfa: $rsp 40 +
STACK CFI a45a .cfa: $rsp 32 +
STACK CFI a45c .cfa: $rsp 24 +
STACK CFI a45e .cfa: $rsp 16 +
STACK CFI a460 .cfa: $rsp 8 +
STACK CFI a468 .cfa: $rsp 128 +
STACK CFI INIT a5e0 56 .cfa: $rsp 8 + .ra: .cfa -8 + ^
STACK CFI INIT b1c0 2a3 .cfa: $rsp 8 + .ra: .cfa -8 + ^
STACK CFI b1c2 $r15: .cfa -16 + ^ .cfa: $rsp 16 +
STACK CFI b1c4 $r14: .cfa -24 + ^ .cfa: $rsp 24 +
STACK CFI b1c9 $r13: .cfa -32 + ^ .cfa: $rsp 32 +
STACK CFI b1cb $r12: .cfa -40 + ^ .cfa: $rsp 40 +
STACK CFI b1cf $rbp: .cfa -48 + ^ .cfa: $rsp 48 +
STACK CFI b1d0 $rbx: .cfa -56 + ^ .cfa: $rsp 56 +
STACK CFI b1dd .cfa: $rsp 112 +
STACK CFI b370 .cfa: $rsp 56 +
STACK CFI b371 .cfa: $rsp 48 +
STACK CFI b372 .cfa: $rsp 40 +
STACK CFI b374 .cfa: $rsp 32 +
STACK CFI b376 .cfa: $rsp 24 +
STACK CFI b378 .cfa: $rsp 16 +
STACK CFI b37a .cfa: $rsp 8 +
STACK CFI b380 .cfa: $rsp 112 +
STACK CFI INIT a640 19a .cfa: $rsp 8 + .ra: .cfa -8 + ^
STACK CFI a642 $r13: .cfa -16 + ^ .cfa: $rsp 16 +
STACK CFI a644 $r12: .cfa -24 + ^ .cfa: $rsp 24 +
STACK CFI a649 $rbp: .cfa -32 + ^ .cfa: $rsp 32 +
STACK CFI a64a $rbx: .cfa -40 + ^ .cfa: $rsp 40 +
STACK CFI a656 .cfa: $rsp 144 +
STACK CFI a6d9 .cfa: $rsp 40 +
STACK CFI a6da .cfa: $rsp 32 +
STACK CFI a6db .cfa: $rsp 24 +
STACK CFI a6dd .cfa: $rsp 16 +
STACK CFI a6df .cfa: $rsp 8 +
STACK CFI a6e0 .cfa: $rsp 144 +
STACK CFI INIT b470 7a .cfa: $rsp 8 + .ra: .cfa -8 + ^
STACK CFI b477 $r12: .cfa -16 + ^ .cfa: $rsp 16 +
STACK CFI b47b $rbp: .cfa -24 + ^ .cfa: $rsp 24 +
STACK CFI b47c $rbx: .cfa -32 + ^ .cfa: $rsp 32 +
STACK CFI b4c7 .cfa: $rsp 24 +
STACK CFI b4c8 .cfa: $rsp 16 +
STACK CFI b4ca .cfa: $rsp 8 +
STACK CFI b4d0 .cfa: $rsp 32 +
STACK CFI b4e8 $r12: $r12 $rbp: $rbp $rbx: $rbx .cfa: $rsp 8 +
STACK CFI INIT a7e0 90 .cfa: $rsp 8 + .ra: .cfa -8 + ^
STACK CFI a7e2 $r12: .cfa -16 + ^ .cfa: $rsp 16 +
STACK CFI a7ea $rbp: .cfa -24 + ^ .cfa: $rsp 24 +
STACK CFI a7eb $rbx: .cfa -32 + ^ .cfa: $rsp 32 +
STACK CFI a849 .cfa: $rsp 24 +
STACK CFI a852 .cfa: $rsp 16 +
STACK CFI a854 .cfa: $rsp 8 +
STACK CFI a860 .cfa: $rsp 32 +
STACK CFI INIT a870 17 .cfa: $rsp 8 + .ra: .cfa -8 + ^
STACK CFI a871 $rbx: .cfa -16 + ^ .cfa: $rsp 16 +
STACK CFI a882 .cfa: $rsp 8 +
STACK CFI INIT b4f0 2a9 .cfa: $rsp 8 + .ra: .cfa -8 + ^
STACK CFI b4f2 $r15: .cfa -16 + ^ .cfa: $rsp 16 +
STACK CFI b4f4 $r14: .cfa -24 + ^ .cfa: $rsp 24 +
STACK CFI b4f9 $r13: .cfa -32 + ^ .cfa: $rsp 32 +
STACK CFI b4fb $r12: .cfa -40 + ^ .cfa: $rsp 40 +
STACK CFI b4ff $rbp: .cfa -48 + ^ .cfa: $rsp 48 +
STACK CFI b500 $rbx: .cfa -56 + ^ .cfa: $rsp 56 +
STACK CFI b507 .cfa: $rsp 96 +
STACK CFI b706 .cfa: $rsp 56 +
STACK CFI b707 .cfa: $rsp 48 +
STACK CFI b708 .cfa: $rsp 40 +
STACK CFI b70a .cfa: $rsp 32 +
STACK CFI b70c .cfa: $rsp 24 +
STACK CFI b70e .cfa: $rsp 16 +
STACK CFI b710 .cfa: $rsp 8 +
STACK CFI b718 .cfa: $rsp 96 +
STACK CFI INIT b7a0 17a .cfa: $rsp 8 + .ra: .cfa -8 + ^
STACK CFI b7a2 $r15: .cfa -16 + ^ .cfa: $rsp 16 +
STACK CFI b7a4 $r14: .cfa -24 + ^ .cfa: $rsp 24 +
STACK CFI b7aa $r13: .cfa -32 + ^ .cfa: $rsp 32 +
STACK CFI b7ac $r12: .cfa -40 + ^ .cfa: $rsp 40 +
STACK CFI b7b0 $rbp: .cfa -48 + ^ .cfa: $rsp 48 +
STACK CFI b7b1 $rbx: .cfa -56 + ^ .cfa: $rsp 56 +
STACK CFI b7b8 .cfa: $rsp 64 +
STACK CFI b808 .cfa: $rsp 56 +
STACK CFI b80e .cfa: $rsp 48 +
STACK CFI b80f .cfa: $rsp 40 +
STACK CFI b811 .cfa: $rsp 32 +
STACK CFI b813 .cfa: $rsp 24 +
STACK CFI b815 .cfa: $rsp 16 +
STACK CFI b817 .cfa: $rsp 8 +
STACK CFI b820 .cfa: $rsp 64 +
STACK CFI b8cd .cfa: $rsp 56 +
STACK CFI b8d6 .cfa: $rsp 48 +
STACK CFI b8d7 .cfa: $rsp 40 +
STACK CFI b8d9 .cfa: $rsp 32 +
STACK CFI b8db .cfa: $rsp 24 +
STACK CFI b8dd .cfa: $rsp 16 +
STACK CFI b8df .cfa: $rsp 8 +
STACK CFI b8e0 .cfa: $rsp 64 +
STACK CFI INIT b920 972 .cfa: $rsp 8 + .ra: .cfa -8 + ^
STACK CFI b922 $r15: .cfa -16 + ^ .cfa: $rsp 16 +
STACK CFI b924 $r14: .cfa -24 + ^ .cfa: $rsp 24 +
STACK CFI b926 $r13: .cfa -32 + ^ .cfa: $rsp 32 +
STACK CFI b928 $r12: .cfa -40 + ^ .cfa: $rsp 40 +
STACK CFI b92c $rbp: .cfa -48 + ^ .cfa: $rsp 48 +
STACK CFI b92d $rbx: .cfa -56 + ^ .cfa: $rsp 56 +
STACK CFI b934 .cfa: $rsp 368 +
STACK CFI bbe5 .cfa: $rsp 56 +
STACK CFI bbe6 .cfa: $rsp 48 +
STACK CFI bbe7 .cfa: $rsp 40 +
STACK CFI bbe9 .cfa: $rsp 32 +
STACK CFI bbeb .cfa: $rsp 24 +
STACK CFI bbed .cfa: $rsp 16 +
STACK CFI bbef .cfa: $rsp 8 +
STACK CFI bbf0 .cfa: $rsp 368 +
STACK CFI INIT a890 8da .cfa: $rsp 8 + .ra: .cfa -8 + ^
STACK CFI a892 $r15: .cfa -16 + ^ .cfa: $rsp 16 +
STACK CFI a894 $r14: .cfa -24 + ^ .cfa: $rsp 24 +
STACK CFI a89a $r13: .cfa -32 + ^ .cfa: $rsp 32 +
STACK CFI a89c $r12: .cfa -40 + ^ .cfa: $rsp 40 +
STACK CFI a89d $rbp: .cfa -48 + ^ .cfa: $rsp 48 +
STACK CFI a89e $rbx: .cfa -56 + ^ .cfa: $rsp 56 +
STACK CFI a8a8 .cfa: $rsp 288 +
STACK CFI ab79 .cfa: $rsp 56 +
STACK CFI ab7a .cfa: $rsp 48 +
STACK CFI ab7b .cfa: $rsp 40 +
STACK CFI ab7d .cfa: $rsp 32 +
STACK CFI ab7f .cfa: $rsp 24 +
STACK CFI ab81 .cfa: $rsp 16 +
STACK CFI ab83 .cfa: $rsp 8 +
STACK CFI ab88 .cfa: $rsp 288 +
STACK CFI INIT b170 43 .cfa: $rsp 8 + .ra: .cfa -8 + ^
STACK CFI b171 $rbp: .cfa -16 + ^ .cfa: $rsp 16 +
STACK CFI b172 $rbx: .cfa -24 + ^ .cfa: $rsp 24 +
STACK CFI b17e .cfa: $rsp 32 +
STACK CFI b195 .cfa: $rsp 24 +
STACK CFI b199 .cfa: $rsp 16 +
STACK CFI b19a .cfa: $rsp 8 +
STACK CFI b19b .cfa: $rsp 32 +
STACK CFI INIT 8c20 2e .cfa: $rsp 8 + .ra: .cfa -8 + ^
STACK CFI 8c2b .cfa: $rsp 16 +
STACK CFI 8c49 .cfa: $rsp 8 +
STACK CFI INIT ebe0 8 .cfa: $rsp 8 + .ra: .cfa -8 + ^
STACK CFI INIT ebf0 2 .cfa: $rsp 8 + .ra: .cfa -8 + ^
STACK CFI INIT ec00 a .cfa: $rsp 8 + .ra: .cfa -8 + ^
STACK CFI INIT 88e0 2b .cfa: $rsp 8 + .ra: .cfa -8 + ^
STACK CFI 88e1 $rbx: .cfa -16 + ^ .cfa: $rsp 16 +
STACK CFI 8904 .cfa: $rsp 8 +
STACK CFI 8909 .cfa: $rsp 16 +
STACK CFI 890a .cfa: $rsp 8 +
STACK CFI INIT 890c 2a .cfa: $rsp 8 + .ra: .cfa -8 + ^
STACK CFI 890d $rbx: .cfa -16 + ^ .cfa: $rsp 16 +
STACK CFI 892f .cfa: $rsp 8 +
STACK CFI 8934 .cfa: $rsp 16 +
STACK CFI 8935 .cfa: $rsp 8 +
STACK CFI INIT ec10 7d .cfa: $rsp 8 + .ra: .cfa -8 + ^
STACK CFI ec12 $r15: .cfa -16 + ^ .cfa: $rsp 16 +
STACK CFI ec14 $r14: .cfa -24 + ^ .cfa: $rsp 24 +
STACK CFI ec19 $r13: .cfa -32 + ^ .cfa: $rsp 32 +
STACK CFI ec1b $r12: .cfa -40 + ^ .cfa: $rsp 40 +
STACK CFI ec20 $rbp: .cfa -48 + ^ .cfa: $rsp 48 +
STACK CFI ec21 $rbx: .cfa -56 + ^ .cfa: $rsp 56 +
STACK CFI ec31 .cfa: $rsp 64 +
STACK CFI ec66 .cfa: $rsp 56 +
STACK CFI ec6a .cfa: $rsp 48 +
STACK CFI ec6b .cfa: $rsp 40 +
STACK CFI ec6d .cfa: $rsp 32 +
STACK CFI ec6f .cfa: $rsp 24 +
STACK CFI ec71 .cfa: $rsp 16 +
STACK CFI ec73 .cfa: $rsp 8 +
STACK CFI ec78 .cfa: $rsp 64 +
STACK CFI INIT c2a0 c8 .cfa: $rsp 8 + .ra: .cfa -8 + ^
STACK CFI c2a2 $r12: .cfa -16 + ^ .cfa: $rsp 16 +
STACK CFI c2a3 $rbp: .cfa -24 + ^ .cfa: $rsp 24 +
STACK CFI c2a7 $rbx: .cfa -32 + ^ .cfa: $rsp 32 +
STACK CFI c2ae .cfa: $rsp 48 +
STACK CFI c314 .cfa: $rsp 32 +
STACK CFI c315 .cfa: $rsp 24 +
STACK CFI c316 .cfa: $rsp 16 +
STACK CFI c318 .cfa: $rsp 8 +
STACK CFI c320 .cfa: $rsp 48 +
STACK CFI INIT ec90 195 .cfa: $rsp 8 + .ra: .cfa -8 + ^
STACK CFI ec91 $rbp: .cfa -16 + ^ .cfa: $rsp 16 +
STACK CFI ec92 $rbx: .cfa -24 + ^ .cfa: $rsp 24 +
STACK CFI ec9e .cfa: $rsp 32 +
STACK CFI ee0a .cfa: $rsp 24 +
STACK CFI ee0b .cfa: $rsp 16 +
STACK CFI ee0c .cfa: $rsp 8 +
STACK CFI ee0d .cfa: $rsp 32 +
STACK CFI INIT c370 37 .cfa: $rsp 8 + .ra: .cfa -8 + ^
STACK CFI c371 $rbx: .cfa -16 + ^ .cfa: $rsp 16 +
STACK CFI c3a6 .cfa: $rsp 8 +
STACK CFI INIT c3b0 11d .cfa: $rsp 8 + .ra: .cfa -8 + ^
STACK CFI c3b2 $r13: .cfa -16 + ^ .cfa: $rsp 16 +
STACK CFI c3b4 $r12: .cfa -24 + ^ .cfa: $rsp 24 +
STACK CFI c3b5 $rbp: .cfa -32 + ^ .cfa: $rsp 32 +
STACK CFI c3b6 $rbx: .cfa -40 + ^ .cfa: $rsp 40 +
STACK CFI c3ba .cfa: $rsp 64 +
STACK CFI c46f .cfa: $rsp 40 +
STACK CFI c470 .cfa: $rsp 32 +
STACK CFI c471 .cfa: $rsp 24 +
STACK CFI c473 .cfa: $rsp 16 +
STACK CFI c475 .cfa: $rsp 8 +
STACK CFI c480 .cfa: $rsp 64 +
STACK CFI INIT c4d0 2b .cfa: $rsp 8 + .ra: .cfa -8 + ^
STACK CFI c4d9 .cfa: $rsp 16 +
STACK CFI c4f2 .cfa: $rsp 8 +
STACK CFI INIT c500 ee .cfa: $rsp 8 + .ra: .cfa -8 + ^
STACK CFI c501 $rbp: .cfa -16 + ^ .cfa: $rsp 16 +
STACK CFI c502 $rbx: .cfa -24 + ^ .cfa: $rsp 24 +
STACK CFI c517 .cfa: $rsp 80 +
STACK CFI c57c .cfa: $rsp 24 +
STACK CFI c57d .cfa: $rsp 16 +
STACK CFI c57e .cfa: $rsp 8 +
STACK CFI c580 .cfa: $rsp 80 +
STACK CFI INIT c5f0 1c8 .cfa: $rsp 8 + .ra: .cfa -8 + ^
STACK CFI c5f2 $r14: .cfa -16 + ^ .cfa: $rsp 16 +
STACK CFI c5f4 $r13: .cfa -24 + ^ .cfa: $rsp 24 +
STACK CFI c5f9 $r12: .cfa -32 + ^ .cfa: $rsp 32 +
STACK CFI c5fa $rbp: .cfa -40 + ^ .cfa: $rsp 40 +
STACK CFI c5fe $rbx: .cfa -48 + ^ .cfa: $rsp 48 +
STACK CFI c614 .cfa: $rsp 112 +
STACK CFI c67d .cfa: $rsp 48 +
STACK CFI c67e .cfa: $rsp 40 +
STACK CFI c67f .cfa: $rsp 32 +
STACK CFI c681 .cfa: $rsp 24 +
STACK CFI c683 .cfa: $rsp 16 +
STACK CFI c685 .cfa: $rsp 8 +
STACK CFI c690 .cfa: $rsp 112 +
STACK CFI INIT c7c0 81 .cfa: $rsp 8 + .ra: .cfa -8 + ^
STACK CFI c7c4 .cfa: $rsp 64 +
STACK CFI c833 .cfa: $rsp 8 +
STACK CFI c838 .cfa: $rsp 64 +
STACK CFI INIT ee30 28c .cfa: $rsp 8 + .ra: .cfa -8 + ^
STACK CFI ee32 $r15: .cfa -16 + ^ .cfa: $rsp 16 +
STACK CFI ee34 $r14: .cfa -24 + ^ .cfa: $rsp 24 +
STACK CFI ee39 $r13: .cfa -32 + ^ .cfa: $rsp 32 +
STACK CFI ee3b $r12: .cfa -40 + ^ .cfa: $rsp 40 +
STACK CFI ee3f $rbp: .cfa -48 + ^ .cfa: $rsp 48 +
STACK CFI ee40 $rbx: .cfa -56 + ^ .cfa: $rsp 56 +
STACK CFI ee4d .cfa: $rsp 112 +
STACK CFI efd0 .cfa: $rsp 56 +
STACK CFI efd1 .cfa: $rsp 48 +
STACK CFI efd2 .cfa: $rsp 40 +
STACK CFI efd4 .cfa: $rsp 32 +
STACK CFI efd6 .cfa: $rsp 24 +
STACK CFI efd8 .cfa: $rsp 16 +
STACK CFI efda .cfa: $rsp 8 +
STACK CFI efe0 .cfa: $rsp 112 +
STACK CFI INIT f0c0 1bf .cfa: $rsp 8 + .ra: .cfa -8 + ^
STACK CFI f0c2 $r14: .cfa -16 + ^ .cfa: $rsp 16 +
STACK CFI f0c4 $r13: .cfa -24 + ^ .cfa: $rsp 24 +
STACK CFI f0c9 $r12: .cfa -32 + ^ .cfa: $rsp 32 +
STACK CFI f0ca $rbp: .cfa -40 + ^ .cfa: $rsp 40 +
STACK CFI f0ce $rbx: .cfa -48 + ^ .cfa: $rsp 48 +
STACK CFI f0d8 .cfa: $rsp 64 +
STACK CFI f1cc .cfa: $rsp 48 +
STACK CFI f1cd .cfa: $rsp 40 +
STACK CFI f1ce .cfa: $rsp 32 +
STACK CFI f1d0 .cfa: $rsp 24 +
STACK CFI f1d2 .cfa: $rsp 16 +
STACK CFI f1d4 .cfa: $rsp 8 +
STACK CFI f1d8 .cfa: $rsp 64 +
STACK CFI INIT f280 1ce .cfa: $rsp 8 + .ra: .cfa -8 + ^
STACK CFI f282 $r13: .cfa -16 + ^ .cfa: $rsp 16 +
STACK CFI f284 $r12: .cfa -24 + ^ .cfa: $rsp 24 +
STACK CFI f288 $rbp: .cfa -32 + ^ .cfa: $rsp 32 +
STACK CFI f289 $rbx: .cfa -40 + ^ .cfa: $rsp 40 +
STACK CFI f293 .cfa: $rsp 64 +
STACK CFI f317 .cfa: $rsp 40 +
STACK CFI f318 .cfa: $rsp 32 +
STACK CFI f319 .cfa: $rsp 24 +
STACK CFI f31b .cfa: $rsp 16 +
STACK CFI f31d .cfa: $rsp 8 +
STACK CFI f320 .cfa: $rsp 64 +
STACK CFI INIT f450 26f .cfa: $rsp 8 + .ra: .cfa -8 + ^
STACK CFI f452 $r15: .cfa -16 + ^ .cfa: $rsp 16 +
STACK CFI f454 $r14: .cfa -24 + ^ .cfa: $rsp 24 +
STACK CFI f459 $r13: .cfa -32 + ^ .cfa: $rsp 32 +
STACK CFI f45b $r12: .cfa -40 + ^ .cfa: $rsp 40 +
STACK CFI f45f $rbp: .cfa -48 + ^ .cfa: $rsp 48 +
STACK CFI f460 $rbx: .cfa -56 + ^ .cfa: $rsp 56 +
STACK CFI f470 .cfa: $rsp 144 +
STACK CFI f4e8 .cfa: $rsp 56 +
STACK CFI f4e9 .cfa: $rsp 48 +
STACK CFI f4ea .cfa: $rsp 40 +
STACK CFI f4ec .cfa: $rsp 32 +
STACK CFI f4ee .cfa: $rsp 24 +
STACK CFI f4f0 .cfa: $rsp 16 +
STACK CFI f4f2 .cfa: $rsp 8 +
STACK CFI f4f8 .cfa: $rsp 144 +
STACK CFI INIT f6c0 72 .cfa: $rsp 8 + .ra: .cfa -8 + ^
STACK CFI f6c7 $r12: .cfa -16 + ^ .cfa: $rsp 16 +
STACK CFI f6cb $rbp: .cfa -24 + ^ .cfa: $rsp 24 +
STACK CFI f6cc $rbx: .cfa -32 + ^ .cfa: $rsp 32 +
STACK CFI f717 .cfa: $rsp 24 +
STACK CFI f718 .cfa: $rsp 16 +
STACK CFI f71a .cfa: $rsp 8 +
STACK CFI f720 .cfa: $rsp 32 +
STACK CFI f730 $r12: $r12 $rbp: $rbp $rbx: $rbx .cfa: $rsp 8 +
STACK CFI INIT 8936 37 .cfa: $rsp 8 + .ra: .cfa -8 + ^
STACK CFI 8937 $rbx: .cfa -16 + ^ .cfa: $rsp 16 +
STACK CFI 8966 .cfa: $rsp 8 +
STACK CFI 896b .cfa: $rsp 16 +
STACK CFI 896c .cfa: $rsp 8 +
STACK CFI INIT f740 52 .cfa: $rsp 8 + .ra: .cfa -8 + ^
STACK CFI f747 $r12: .cfa -16 + ^ .cfa: $rsp 16 +
STACK CFI f74b $rbp: .cfa -24 + ^ .cfa: $rsp 24 +
STACK CFI f74c $rbx: .cfa -32 + ^ .cfa: $rsp 32 +
STACK CFI f782 .cfa: $rsp 24 +
STACK CFI f783 .cfa: $rsp 16 +
STACK CFI f785 .cfa: $rsp 8 +
STACK CFI f790 $r12: $r12 $rbp: $rbp $rbx: $rbx
STACK CFI INIT f7a0 b2 .cfa: $rsp 8 + .ra: .cfa -8 + ^
STACK CFI f7ab $r13: .cfa -16 + ^ .cfa: $rsp 16 +
STACK CFI f7ad $r12: .cfa -24 + ^ .cfa: $rsp 24 +
STACK CFI f7b1 $rbp: .cfa -32 + ^ .cfa: $rsp 32 +
STACK CFI f7b2 $rbx: .cfa -40 + ^ .cfa: $rsp 40 +
STACK CFI f7b9 .cfa: $rsp 48 +
STACK CFI f802 .cfa: $rsp 40 +
STACK CFI f803 .cfa: $rsp 32 +
STACK CFI f804 .cfa: $rsp 24 +
STACK CFI f806 .cfa: $rsp 16 +
STACK CFI f808 .cfa: $rsp 8 +
STACK CFI f810 .cfa: $rsp 48 +
STACK CFI f850 $r12: $r12 $r13: $r13 $rbp: $rbp $rbx: $rbx .cfa: $rsp 8 +
STACK CFI INIT f860 a2 .cfa: $rsp 8 + .ra: .cfa -8 + ^
STACK CFI f86b $r13: .cfa -16 + ^ .cfa: $rsp 16 +
STACK CFI f86d $r12: .cfa -24 + ^ .cfa: $rsp 24 +
STACK CFI f871 $rbp: .cfa -32 + ^ .cfa: $rsp 32 +
STACK CFI f872 $rbx: .cfa -40 + ^ .cfa: $rsp 40 +
STACK CFI f879 .cfa: $rsp 48 +
STACK CFI f8c2 .cfa: $rsp 40 +
STACK CFI f8c3 .cfa: $rsp 32 +
STACK CFI f8c4 .cfa: $rsp 24 +
STACK CFI f8c6 .cfa: $rsp 16 +
STACK CFI f8c8 .cfa: $rsp 8 +
STACK CFI f8d0 .cfa: $rsp 48 +
STACK CFI f900 $r12: $r12 $r13: $r13 $rbp: $rbp $rbx: $rbx .cfa: $rsp 8 +
STACK CFI INIT f910 52 .cfa: $rsp 8 + .ra: .cfa -8 + ^
STACK CFI f917 $r12: .cfa -16 + ^ .cfa: $rsp 16 +
STACK CFI f91b $rbp: .cfa -24 + ^ .cfa: $rsp 24 +
STACK CFI f91c $rbx: .cfa -32 + ^ .cfa: $rsp 32 +
STACK CFI f952 .cfa: $rsp 24 +
STACK CFI f953 .cfa: $rsp 16 +
STACK CFI f955 .cfa: $rsp 8 +
STACK CFI f960 $r12: $r12 $rbp: $rbp $rbx: $rbx
STACK CFI INIT f970 52 .cfa: $rsp 8 + .ra: .cfa -8 + ^
STACK CFI f977 $r12: .cfa -16 + ^ .cfa: $rsp 16 +
STACK CFI f97b $rbp: .cfa -24 + ^ .cfa: $rsp 24 +
STACK CFI f97c $rbx: .cfa -32 + ^ .cfa: $rsp 32 +
STACK CFI f9b2 .cfa: $rsp 24 +
STACK CFI f9b3 .cfa: $rsp 16 +
STACK CFI f9b5 .cfa: $rsp 8 +
STACK CFI f9c0 $r12: $r12 $rbp: $rbp $rbx: $rbx
STACK CFI INIT f9d0 12e .cfa: $rsp 8 + .ra: .cfa -8 + ^
STACK CFI f9d2 $r15: .cfa -16 + ^ .cfa: $rsp 16 +
STACK CFI f9d4 $r14: .cfa -24 + ^ .cfa: $rsp 24 +
STACK CFI f9d9 $r13: .cfa -32 + ^ .cfa: $rsp 32 +
STACK CFI f9db $r12: .cfa -40 + ^ .cfa: $rsp 40 +
STACK CFI f9df $rbp: .cfa -48 + ^ .cfa: $rsp 48 +
STACK CFI f9e0 $rbx: .cfa -56 + ^ .cfa: $rsp 56 +
STACK CFI f9e7 .cfa: $rsp 80 +
STACK CFI faad .cfa: $rsp 56 +
STACK CFI faae .cfa: $rsp 48 +
STACK CFI faaf .cfa: $rsp 40 +
STACK CFI fab1 .cfa: $rsp 32 +
STACK CFI fab3 .cfa: $rsp 24 +
STACK CFI fab5 .cfa: $rsp 16 +
STACK CFI fab7 .cfa: $rsp 8 +
STACK CFI fac0 .cfa: $rsp 80 +
STACK CFI INIT c850 152 .cfa: $rsp 8 + .ra: .cfa -8 + ^
STACK CFI c852 $r12: .cfa -16 + ^ .cfa: $rsp 16 +
STACK CFI c853 $rbp: .cfa -24 + ^ .cfa: $rsp 24 +
STACK CFI c857 $rbx: .cfa -32 + ^ .cfa: $rsp 32 +
STACK CFI c861 .cfa: $rsp 64 +
STACK CFI c8b4 .cfa: $rsp 32 +
STACK CFI c8b5 .cfa: $rsp 24 +
STACK CFI c8b6 .cfa: $rsp 16 +
STACK CFI c8b8 .cfa: $rsp 8 +
STACK CFI c8c0 .cfa: $rsp 64 +
STACK CFI INIT c9b0 186 .cfa: $rsp 8 + .ra: .cfa -8 + ^
STACK CFI c9b2 $r14: .cfa -16 + ^ .cfa: $rsp 16 +
STACK CFI c9b4 $r13: .cfa -24 + ^ .cfa: $rsp 24 +
STACK CFI c9b9 $r12: .cfa -32 + ^ .cfa: $rsp 32 +
STACK CFI c9ba $rbp: .cfa -40 + ^ .cfa: $rsp 40 +
STACK CFI c9be $rbx: .cfa -48 + ^ .cfa: $rsp 48 +
STACK CFI c9d8 .cfa: $rsp 112 +
STACK CFI ca93 .cfa: $rsp 48 +
STACK CFI ca94 .cfa: $rsp 40 +
STACK CFI ca95 .cfa: $rsp 32 +
STACK CFI ca97 .cfa: $rsp 24 +
STACK CFI ca99 .cfa: $rsp 16 +
STACK CFI ca9b .cfa: $rsp 8 +
STACK CFI caa0 .cfa: $rsp 112 +
STACK CFI INIT cb40 1bd .cfa: $rsp 8 + .ra: .cfa -8 + ^
STACK CFI cb42 $r15: .cfa -16 + ^ .cfa: $rsp 16 +
STACK CFI cb44 $r14: .cfa -24 + ^ .cfa: $rsp 24 +
STACK CFI cb4a $r13: .cfa -32 + ^ .cfa: $rsp 32 +
STACK CFI cb4c $r12: .cfa -40 + ^ .cfa: $rsp 40 +
STACK CFI cb50 $rbp: .cfa -48 + ^ .cfa: $rsp 48 +
STACK CFI cb51 $rbx: .cfa -56 + ^ .cfa: $rsp 56 +
STACK CFI cb67 .cfa: $rsp 128 +
STACK CFI cc28 .cfa: $rsp 56 +
STACK CFI cc29 .cfa: $rsp 48 +
STACK CFI cc2a .cfa: $rsp 40 +
STACK CFI cc2c .cfa: $rsp 32 +
STACK CFI cc2e .cfa: $rsp 24 +
STACK CFI cc30 .cfa: $rsp 16 +
STACK CFI cc32 .cfa: $rsp 8 +
STACK CFI cc38 .cfa: $rsp 128 +
STACK CFI INIT cd00 169 .cfa: $rsp 8 + .ra: .cfa -8 + ^
STACK CFI cd02 $r15: .cfa -16 + ^ .cfa: $rsp 16 +
STACK CFI cd04 $r14: .cfa -24 + ^ .cfa: $rsp 24 +
STACK CFI cd09 $r13: .cfa -32 + ^ .cfa: $rsp 32 +
STACK CFI cd0b $r12: .cfa -40 + ^ .cfa: $rsp 40 +
STACK CFI cd0c $rbp: .cfa -48 + ^ .cfa: $rsp 48 +
STACK CFI cd0d $rbx: .cfa -56 + ^ .cfa: $rsp 56 +
STACK CFI cd11 .cfa: $rsp 160 +
STACK CFI ce1c .cfa: $rsp 56 +
STACK CFI ce1d .cfa: $rsp 48 +
STACK CFI ce1e .cfa: $rsp 40 +
STACK CFI ce20 .cfa: $rsp 32 +
STACK CFI ce22 .cfa: $rsp 24 +
STACK CFI ce24 .cfa: $rsp 16 +
STACK CFI ce26 .cfa: $rsp 8 +
STACK CFI ce30 .cfa: $rsp 160 +
STACK CFI INIT fb00 3d .cfa: $rsp 8 + .ra: .cfa -8 + ^
STACK CFI INIT fb40 310 .cfa: $rsp 8 + .ra: .cfa -8 + ^
STACK CFI fb42 $r15: .cfa -16 + ^ .cfa: $rsp 16 +
STACK CFI fb44 $r14: .cfa -24 + ^ .cfa: $rsp 24 +
STACK CFI fb49 $r13: .cfa -32 + ^ .cfa: $rsp 32 +
STACK CFI fb4b $r12: .cfa -40 + ^ .cfa: $rsp 40 +
STACK CFI fb4f $rbp: .cfa -48 + ^ .cfa: $rsp 48 +
STACK CFI fb50 $rbx: .cfa -56 + ^ .cfa: $rsp 56 +
STACK CFI fb5d .cfa: $rsp 112 +
STACK CFI fcef .cfa: $rsp 56 +
STACK CFI fcf0 .cfa: $rsp 48 +
STACK CFI fcf1 .cfa: $rsp 40 +
STACK CFI fcf3 .cfa: $rsp 32 +
STACK CFI fcf5 .cfa: $rsp 24 +
STACK CFI fcf7 .cfa: $rsp 16 +
STACK CFI fcf9 .cfa: $rsp 8 +
STACK CFI fd00 .cfa: $rsp 112 +
STACK CFI INIT fe50 309 .cfa: $rsp 8 + .ra: .cfa -8 + ^
STACK CFI fe52 $r15: .cfa -16 + ^ .cfa: $rsp 16 +
STACK CFI fe54 $r14: .cfa -24 + ^ .cfa: $rsp 24 +
STACK CFI fe59 $r13: .cfa -32 + ^ .cfa: $rsp 32 +
STACK CFI fe5b $r12: .cfa -40 + ^ .cfa: $rsp 40 +
STACK CFI fe5f $rbp: .cfa -48 + ^ .cfa: $rsp 48 +
STACK CFI fe60 $rbx: .cfa -56 + ^ .cfa: $rsp 56 +
STACK CFI fe70 .cfa: $rsp 112 +
STACK CFI 10011 .cfa: $rsp 56 +
STACK CFI 10012 .cfa: $rsp 48 +
STACK CFI 10013 .cfa: $rsp 40 +
STACK CFI 10015 .cfa: $rsp 32 +
STACK CFI 10017 .cfa: $rsp 24 +
STACK CFI 10019 .cfa: $rsp 16 +
STACK CFI 1001b .cfa: $rsp 8 +
STACK CFI 10020 .cfa: $rsp 112 +
STACK CFI INIT ce70 403 .cfa: $rsp 8 + .ra: .cfa -8 + ^
STACK CFI ce72 $r15: .cfa -16 + ^ .cfa: $rsp 16 +
STACK CFI ce74 $r14: .cfa -24 + ^ .cfa: $rsp 24 +
STACK CFI ce76 $r13: .cfa -32 + ^ .cfa: $rsp 32 +
STACK CFI ce78 $r12: .cfa -40 + ^ .cfa: $rsp 40 +
STACK CFI ce7c $rbp: .cfa -48 + ^ .cfa: $rsp 48 +
STACK CFI ce7d $rbx: .cfa -56 + ^ .cfa: $rsp 56 +
STACK CFI ce89 .cfa: $rsp 176 +
STACK CFI cfa6 .cfa: $rsp 56 +
STACK CFI cfa7 .cfa: $rsp 48 +
STACK CFI cfa8 .cfa: $rsp 40 +
STACK CFI cfaa .cfa: $rsp 32 +
STACK CFI cfac .cfa: $rsp 24 +
STACK CFI cfae .cfa: $rsp 16 +
STACK CFI cfb0 .cfa: $rsp 8 +
STACK CFI cfb8 .cfa: $rsp 176 +
STACK CFI INIT d280 430 .cfa: $rsp 8 + .ra: .cfa -8 + ^
STACK CFI d282 $r15: .cfa -16 + ^ .cfa: $rsp 16 +
STACK CFI d284 $r14: .cfa -24 + ^ .cfa: $rsp 24 +
STACK CFI d286 $r13: .cfa -32 + ^ .cfa: $rsp 32 +
STACK CFI d288 $r12: .cfa -40 + ^ .cfa: $rsp 40 +
STACK CFI d28c $rbp: .cfa -48 + ^ .cfa: $rsp 48 +
STACK CFI d28d $rbx: .cfa -56 + ^ .cfa: $rsp 56 +
STACK CFI d291 .cfa: $rsp 176 +
STACK CFI d407 .cfa: $rsp 56 +
STACK CFI d408 .cfa: $rsp 48 +
STACK CFI d409 .cfa: $rsp 40 +
STACK CFI d40b .cfa: $rsp 32 +
STACK CFI d40d .cfa: $rsp 24 +
STACK CFI d40f .cfa: $rsp 16 +
STACK CFI d411 .cfa: $rsp 8 +
STACK CFI d418 .cfa: $rsp 176 +
STACK CFI INIT 10160 62 .cfa: $rsp 8 + .ra: .cfa -8 + ^
STACK CFI 10167 $r12: .cfa -16 + ^ .cfa: $rsp 16 +
STACK CFI 1016b $rbp: .cfa -24 + ^ .cfa: $rsp 24 +
STACK CFI 1016c $rbx: .cfa -32 + ^ .cfa: $rsp 32 +
STACK CFI 101b4 .cfa: $rsp 24 +
STACK CFI 101b5 .cfa: $rsp 16 +
STACK CFI 101b7 .cfa: $rsp 8 +
STACK CFI 101c0 $r12: $r12 $rbp: $rbp $rbx: $rbx
STACK CFI INIT d6b0 214 .cfa: $rsp 8 + .ra: .cfa -8 + ^
STACK CFI d6b2 $r15: .cfa -16 + ^ .cfa: $rsp 16 +
STACK CFI d6b4 $r14: .cfa -24 + ^ .cfa: $rsp 24 +
STACK CFI d6b6 $r13: .cfa -32 + ^ .cfa: $rsp 32 +
STACK CFI d6b8 $r12: .cfa -40 + ^ .cfa: $rsp 40 +
STACK CFI d6bc $rbp: .cfa -48 + ^ .cfa: $rsp 48 +
STACK CFI d6bd $rbx: .cfa -56 + ^ .cfa: $rsp 56 +
STACK CFI d6c1 .cfa: $rsp 160 +
STACK CFI d824 .cfa: $rsp 56 +
STACK CFI d825 .cfa: $rsp 48 +
STACK CFI d826 .cfa: $rsp 40 +
STACK CFI d828 .cfa: $rsp 32 +
STACK CFI d82a .cfa: $rsp 24 +
STACK CFI d82c .cfa: $rsp 16 +
STACK CFI d82e .cfa: $rsp 8 +
STACK CFI d830 .cfa: $rsp 160 +
STACK CFI INIT 101d0 14e .cfa: $rsp 8 + .ra: .cfa -8 + ^
STACK CFI 101d2 $r14: .cfa -16 + ^ .cfa: $rsp 16 +
STACK CFI 101d4 $r13: .cfa -24 + ^ .cfa: $rsp 24 +
STACK CFI 101d6 $r12: .cfa -32 + ^ .cfa: $rsp 32 +
STACK CFI 101d7 $rbp: .cfa -40 + ^ .cfa: $rsp 40 +
STACK CFI 101db $rbx: .cfa -48 + ^ .cfa: $rsp 48 +
STACK CFI 10292 .cfa: $rsp 40 +
STACK CFI 10293 .cfa: $rsp 32 +
STACK CFI 10295 .cfa: $rsp 24 +
STACK CFI 10297 .cfa: $rsp 16 +
STACK CFI 10299 .cfa: $rsp 8 +
STACK CFI 102a0 .cfa: $rsp 48 +
STACK CFI 102c3 .cfa: $rsp 40 +
STACK CFI 102d2 .cfa: $rsp 32 +
STACK CFI 102d4 .cfa: $rsp 24 +
STACK CFI 102d6 .cfa: $rsp 16 +
STACK CFI 102d8 .cfa: $rsp 8 +
STACK CFI 102e0 .cfa: $rsp 48 +
STACK CFI INIT d8d0 163 .cfa: $rsp 8 + .ra: .cfa -8 + ^
STACK CFI d8d2 $r13: .cfa -16 + ^ .cfa: $rsp 16 +
STACK CFI d8d4 $r12: .cfa -24 + ^ .cfa: $rsp 24 +
STACK CFI d8d8 $rbp: .cfa -32 + ^ .cfa: $rsp 32 +
STACK CFI d8d9 $rbx: .cfa -40 + ^ .cfa: $rsp 40 +
STACK CFI d8e0 .cfa: $rsp 144 +
STACK CFI d91d .cfa: $rsp 40 +
STACK CFI d91e .cfa: $rsp 32 +
STACK CFI d91f .cfa: $rsp 24 +
STACK CFI d921 .cfa: $rsp 16 +
STACK CFI d923 .cfa: $rsp 8 +
STACK CFI d928 .cfa: $rsp 144 +
STACK CFI INIT 10320 16a .cfa: $rsp 8 + .ra: .cfa -8 + ^
STACK CFI 10322 $r15: .cfa -16 + ^ .cfa: $rsp 16 +
STACK CFI 10324 $r14: .cfa -24 + ^ .cfa: $rsp 24 +
STACK CFI 1032a $r13: .cfa -32 + ^ .cfa: $rsp 32 +
STACK CFI 1032c $r12: .cfa -40 + ^ .cfa: $rsp 40 +
STACK CFI 10330 $rbp: .cfa -48 + ^ .cfa: $rsp 48 +
STACK CFI 10331 $rbx: .cfa -56 + ^ .cfa: $rsp 56 +
STACK CFI 10338 .cfa: $rsp 64 +
STACK CFI 10386 .cfa: $rsp 56 +
STACK CFI 1038c .cfa: $rsp 48 +
STACK CFI 1038d .cfa: $rsp 40 +
STACK CFI 1038f .cfa: $rsp 32 +
STACK CFI 10391 .cfa: $rsp 24 +
STACK CFI 10393 .cfa: $rsp 16 +
STACK CFI 10395 .cfa: $rsp 8 +
STACK CFI 103a0 .cfa: $rsp 64 +
STACK CFI 1043d .cfa: $rsp 56 +
STACK CFI 10446 .cfa: $rsp 48 +
STACK CFI 10447 .cfa: $rsp 40 +
STACK CFI 10449 .cfa: $rsp 32 +
STACK CFI 1044b .cfa: $rsp 24 +
STACK CFI 1044d .cfa: $rsp 16 +
STACK CFI 1044f .cfa: $rsp 8 +
STACK CFI 10450 .cfa: $rsp 64 +
STACK CFI INIT 10490 244 .cfa: $rsp 8 + .ra: .cfa -8 + ^
STACK CFI 10492 $r13: .cfa -16 + ^ .cfa: $rsp 16 +
STACK CFI 10494 $r12: .cfa -24 + ^ .cfa: $rsp 24 +
STACK CFI 10495 $rbp: .cfa -32 + ^ .cfa: $rsp 32 +
STACK CFI 10496 $rbx: .cfa -40 + ^ .cfa: $rsp 40 +
STACK CFI 1049a .cfa: $rsp 128 +
STACK CFI 105a3 .cfa: $rsp 40 +
STACK CFI 105a4 .cfa: $rsp 32 +
STACK CFI 105a5 .cfa: $rsp 24 +
STACK CFI 105a7 .cfa: $rsp 16 +
STACK CFI 105a9 .cfa: $rsp 8 +
STACK CFI 105b0 .cfa: $rsp 128 +
STACK CFI INIT da40 214 .cfa: $rsp 8 + .ra: .cfa -8 + ^
STACK CFI da42 $r15: .cfa -16 + ^ .cfa: $rsp 16 +
STACK CFI da44 $r14: .cfa -24 + ^ .cfa: $rsp 24 +
STACK CFI da46 $r13: .cfa -32 + ^ .cfa: $rsp 32 +
STACK CFI da48 $r12: .cfa -40 + ^ .cfa: $rsp 40 +
STACK CFI da49 $rbp: .cfa -48 + ^ .cfa: $rsp 48 +
STACK CFI da4a $rbx: .cfa -56 + ^ .cfa: $rsp 56 +
STACK CFI da54 .cfa: $rsp 176 +
STACK CFI daa4 .cfa: $rsp 56 +
STACK CFI daa5 .cfa: $rsp 48 +
STACK CFI daa6 .cfa: $rsp 40 +
STACK CFI daa8 .cfa: $rsp 32 +
STACK CFI daaa .cfa: $rsp 24 +
STACK CFI daac .cfa: $rsp 16 +
STACK CFI daae .cfa: $rsp 8 +
STACK CFI dab0 .cfa: $rsp 176 +
STACK CFI INIT 106e0 3a .cfa: $rsp 8 + .ra: .cfa -8 + ^
STACK CFI 106e7 $r12: .cfa -16 + ^ .cfa: $rsp 16 +
STACK CFI 106eb $rbp: .cfa -24 + ^ .cfa: $rsp 24 +
STACK CFI 106ec $rbx: .cfa -32 + ^ .cfa: $rsp 32 +
STACK CFI 10710 .cfa: $rsp 24 +
STACK CFI 10711 .cfa: $rsp 16 +
STACK CFI 10713 .cfa: $rsp 8 +
STACK CFI 10718 $r12: $r12 $rbp: $rbp $rbx: $rbx
STACK CFI INIT 10720 f3 .cfa: $rsp 8 + .ra: .cfa -8 + ^
STACK CFI 10722 $r13: .cfa -16 + ^ .cfa: $rsp 16 +
STACK CFI 10724 $r12: .cfa -24 + ^ .cfa: $rsp 24 +
STACK CFI 10728 $rbp: .cfa -32 + ^ .cfa: $rsp 32 +
STACK CFI 10729 $rbx: .cfa -40 + ^ .cfa: $rsp 40 +
STACK CFI 1072d .cfa: $rsp 48 +
STACK CFI 107b2 .cfa: $rsp 40 +
STACK CFI 107b3 .cfa: $rsp 32 +
STACK CFI 107b4 .cfa: $rsp 24 +
STACK CFI 107b6 .cfa: $rsp 16 +
STACK CFI 107b8 .cfa: $rsp 8 +
STACK CFI 107c0 .cfa: $rsp 48 +
STACK CFI 10800 .cfa: $rsp 40 +
STACK CFI 10809 .cfa: $rsp 32 +
STACK CFI 1080a .cfa: $rsp 24 +
STACK CFI 1080c .cfa: $rsp 16 +
STACK CFI 1080e .cfa: $rsp 8 +
STACK CFI INIT 10820 ad .cfa: $rsp 8 + .ra: .cfa -8 + ^
STACK CFI 10829 $r12: .cfa -16 + ^ .cfa: $rsp 16 +
STACK CFI 1082a $rbp: .cfa -24 + ^ .cfa: $rsp 24 +
STACK CFI 1082b $rbx: .cfa -32 + ^ .cfa: $rsp 32 +
STACK CFI 108bc .cfa: $rsp 24 +
STACK CFI 108bd .cfa: $rsp 16 +
STACK CFI 108bf .cfa: $rsp 8 +
STACK CFI 108c8 .cfa: $rsp 32 +
STACK CFI 108c9 .cfa: $rsp 24 +
STACK CFI 108ca .cfa: $rsp 16 +
STACK CFI 108cc .cfa: $rsp 8 +
STACK CFI INIT 108d0 b1 .cfa: $rsp 8 + .ra: .cfa -8 + ^
STACK CFI 108d9 $r12: .cfa -16 + ^ .cfa: $rsp 16 +
STACK CFI 108da $rbp: .cfa -24 + ^ .cfa: $rsp 24 +
STACK CFI 108db $rbx: .cfa -32 + ^ .cfa: $rsp 32 +
STACK CFI 10971 .cfa: $rsp 24 +
STACK CFI 1097a .cfa: $rsp 16 +
STACK CFI 1097c .cfa: $rsp 8 +
STACK CFI INIT 10990 17a .cfa: $rsp 8 + .ra: .cfa -8 + ^
STACK CFI 10992 $r15: .cfa -16 + ^ .cfa: $rsp 16 +
STACK CFI 10994 $r14: .cfa -24 + ^ .cfa: $rsp 24 +
STACK CFI 1099a $r13: .cfa -32 + ^ .cfa: $rsp 32 +
STACK CFI 1099c $r12: .cfa -40 + ^ .cfa: $rsp 40 +
STACK CFI 109a0 $rbp: .cfa -48 + ^ .cfa: $rsp 48 +
STACK CFI 109a1 $rbx: .cfa -56 + ^ .cfa: $rsp 56 +
STACK CFI 109a8 .cfa: $rsp 64 +
STACK CFI 109f8 .cfa: $rsp 56 +
STACK CFI 109fe .cfa: $rsp 48 +
STACK CFI 109ff .cfa: $rsp 40 +
STACK CFI 10a01 .cfa: $rsp 32 +
STACK CFI 10a03 .cfa: $rsp 24 +
STACK CFI 10a05 .cfa: $rsp 16 +
STACK CFI 10a07 .cfa: $rsp 8 +
STACK CFI 10a10 .cfa: $rsp 64 +
STACK CFI 10abd .cfa: $rsp 56 +
STACK CFI 10ac6 .cfa: $rsp 48 +
STACK CFI 10ac7 .cfa: $rsp 40 +
STACK CFI 10ac9 .cfa: $rsp 32 +
STACK CFI 10acb .cfa: $rsp 24 +
STACK CFI 10acd .cfa: $rsp 16 +
STACK CFI 10acf .cfa: $rsp 8 +
STACK CFI 10ad0 .cfa: $rsp 64 +
STACK CFI INIT 10b10 9bf .cfa: $rsp 8 + .ra: .cfa -8 + ^
STACK CFI 10b12 $r15: .cfa -16 + ^ .cfa: $rsp 16 +
STACK CFI 10b14 $r14: .cfa -24 + ^ .cfa: $rsp 24 +
STACK CFI 10b16 $r13: .cfa -32 + ^ .cfa: $rsp 32 +
STACK CFI 10b18 $r12: .cfa -40 + ^ .cfa: $rsp 40 +
STACK CFI 10b1c $rbp: .cfa -48 + ^ .cfa: $rsp 48 +
STACK CFI 10b1d $rbx: .cfa -56 + ^ .cfa: $rsp 56 +
STACK CFI 10b24 .cfa: $rsp 368 +
STACK CFI 10dd5 .cfa: $rsp 56 +
STACK CFI 10dd6 .cfa: $rsp 48 +
STACK CFI 10dd7 .cfa: $rsp 40 +
STACK CFI 10dd9 .cfa: $rsp 32 +
STACK CFI 10ddb .cfa: $rsp 24 +
STACK CFI 10ddd .cfa: $rsp 16 +
STACK CFI 10ddf .cfa: $rsp 8 +
STACK CFI 10de0 .cfa: $rsp 368 +
STACK CFI INIT 114d0 17a .cfa: $rsp 8 + .ra: .cfa -8 + ^
STACK CFI 114d2 $r15: .cfa -16 + ^ .cfa: $rsp 16 +
STACK CFI 114d4 $r14: .cfa -24 + ^ .cfa: $rsp 24 +
STACK CFI 114da $r13: .cfa -32 + ^ .cfa: $rsp 32 +
STACK CFI 114dc $r12: .cfa -40 + ^ .cfa: $rsp 40 +
STACK CFI 114e0 $rbp: .cfa -48 + ^ .cfa: $rsp 48 +
STACK CFI 114e1 $rbx: .cfa -56 + ^ .cfa: $rsp 56 +
STACK CFI 114e8 .cfa: $rsp 64 +
STACK CFI 11538 .cfa: $rsp 56 +
STACK CFI 1153e .cfa: $rsp 48 +
STACK CFI 1153f .cfa: $rsp 40 +
STACK CFI 11541 .cfa: $rsp 32 +
STACK CFI 11543 .cfa: $rsp 24 +
STACK CFI 11545 .cfa: $rsp 16 +
STACK CFI 11547 .cfa: $rsp 8 +
STACK CFI 11550 .cfa: $rsp 64 +
STACK CFI 115fd .cfa: $rsp 56 +
STACK CFI 11606 .cfa: $rsp 48 +
STACK CFI 11607 .cfa: $rsp 40 +
STACK CFI 11609 .cfa: $rsp 32 +
STACK CFI 1160b .cfa: $rsp 24 +
STACK CFI 1160d .cfa: $rsp 16 +
STACK CFI 1160f .cfa: $rsp 8 +
STACK CFI 11610 .cfa: $rsp 64 +
STACK CFI INIT 11650 8ae .cfa: $rsp 8 + .ra: .cfa -8 + ^
STACK CFI 11652 $r15: .cfa -16 + ^ .cfa: $rsp 16 +
STACK CFI 11654 $r14: .cfa -24 + ^ .cfa: $rsp 24 +
STACK CFI 11656 $r13: .cfa -32 + ^ .cfa: $rsp 32 +
STACK CFI 11658 $r12: .cfa -40 + ^ .cfa: $rsp 40 +
STACK CFI 1165c $rbp: .cfa -48 + ^ .cfa: $rsp 48 +
STACK CFI 1165d $rbx: .cfa -56 + ^ .cfa: $rsp 56 +
STACK CFI 11664 .cfa: $rsp 368 +
STACK CFI 11915 .cfa: $rsp 56 +
STACK CFI 11916 .cfa: $rsp 48 +
STACK CFI 11917 .cfa: $rsp 40 +
STACK CFI 11919 .cfa: $rsp 32 +
STACK CFI 1191b .cfa: $rsp 24 +
STACK CFI 1191d .cfa: $rsp 16 +
STACK CFI 1191f .cfa: $rsp 8 +
STACK CFI 11920 .cfa: $rsp 368 +
STACK CFI INIT 11f00 8a .cfa: $rsp 8 + .ra: .cfa -8 + ^
STACK CFI 11f01 $rbp: .cfa -16 + ^ .cfa: $rsp 16 +
STACK CFI 11f02 $rbx: .cfa -24 + ^ .cfa: $rsp 24 +
STACK CFI 11f06 .cfa: $rsp 32 +
STACK CFI 11f5b .cfa: $rsp 24 +
STACK CFI 11f5c .cfa: $rsp 16 +
STACK CFI 11f5d .cfa: $rsp 8 +
STACK CFI 11f60 .cfa: $rsp 32 +
STACK CFI INIT 11f90 163 .cfa: $rsp 8 + .ra: .cfa -8 + ^
STACK CFI 11f92 $r15: .cfa -16 + ^ .cfa: $rsp 16 +
STACK CFI 11f94 $r14: .cfa -24 + ^ .cfa: $rsp 24 +
STACK CFI 11f99 $r13: .cfa -32 + ^ .cfa: $rsp 32 +
STACK CFI 11f9b $r12: .cfa -40 + ^ .cfa: $rsp 40 +
STACK CFI 11fa0 $rbp: .cfa -48 + ^ .cfa: $rsp 48 +
STACK CFI 11fa1 $rbx: .cfa -56 + ^ .cfa: $rsp 56 +
STACK CFI 11fa8 .cfa: $rsp 64 +
STACK CFI 11ff6 .cfa: $rsp 56 +
STACK CFI 11ffc .cfa: $rsp 48 +
STACK CFI 11ffd .cfa: $rsp 40 +
STACK CFI 11fff .cfa: $rsp 32 +
STACK CFI 12001 .cfa: $rsp 24 +
STACK CFI 12003 .cfa: $rsp 16 +
STACK CFI 12005 .cfa: $rsp 8 +
STACK CFI 12010 .cfa: $rsp 64 +
STACK CFI 1209d .cfa: $rsp 56 +
STACK CFI 120a6 .cfa: $rsp 48 +
STACK CFI 120a7 .cfa: $rsp 40 +
STACK CFI 120a9 .cfa: $rsp 32 +
STACK CFI 120ab .cfa: $rsp 24 +
STACK CFI 120ad .cfa: $rsp 16 +
STACK CFI 120af .cfa: $rsp 8 +
STACK CFI 120b0 .cfa: $rsp 64 +
STACK CFI INIT 12100 725 .cfa: $rsp 8 + .ra: .cfa -8 + ^
STACK CFI 12102 $r15: .cfa -16 + ^ .cfa: $rsp 16 +
STACK CFI 12104 $r14: .cfa -24 + ^ .cfa: $rsp 24 +
STACK CFI 12106 $r13: .cfa -32 + ^ .cfa: $rsp 32 +
STACK CFI 12108 $r12: .cfa -40 + ^ .cfa: $rsp 40 +
STACK CFI 1210c $rbp: .cfa -48 + ^ .cfa: $rsp 48 +
STACK CFI 1210d $rbx: .cfa -56 + ^ .cfa: $rsp 56 +
STACK CFI 12114 .cfa: $rsp 304 +
STACK CFI 123bb .cfa: $rsp 56 +
STACK CFI 123bc .cfa: $rsp 48 +
STACK CFI 123bd .cfa: $rsp 40 +
STACK CFI 123bf .cfa: $rsp 32 +
STACK CFI 123c1 .cfa: $rsp 24 +
STACK CFI 123c3 .cfa: $rsp 16 +
STACK CFI 123c5 .cfa: $rsp 8 +
STACK CFI 123d0 .cfa: $rsp 304 +
STACK CFI INIT 12830 8a .cfa: $rsp 8 + .ra: .cfa -8 + ^
STACK CFI 12831 $rbp: .cfa -16 + ^ .cfa: $rsp 16 +
STACK CFI 12832 $rbx: .cfa -24 + ^ .cfa: $rsp 24 +
STACK CFI 12836 .cfa: $rsp 32 +
STACK CFI 1288b .cfa: $rsp 24 +
STACK CFI 1288c .cfa: $rsp 16 +
STACK CFI 1288d .cfa: $rsp 8 +
STACK CFI 12890 .cfa: $rsp 32 +
STACK CFI INIT 128c0 f0 .cfa: $rsp 8 + .ra: .cfa -8 + ^
STACK CFI 128c2 $r13: .cfa -16 + ^ .cfa: $rsp 16 +
STACK CFI 128c8 $r12: .cfa -24 + ^ .cfa: $rsp 24 +
STACK CFI 128c9 $rbp: .cfa -32 + ^ .cfa: $rsp 32 +
STACK CFI 128ca $rbx: .cfa -40 + ^ .cfa: $rsp 40 +
STACK CFI 128d4 .cfa: $rsp 48 +
STACK CFI 12918 .cfa: $rsp 40 +
STACK CFI 12919 .cfa: $rsp 32 +
STACK CFI 1291a .cfa: $rsp 24 +
STACK CFI 1291c .cfa: $rsp 16 +
STACK CFI 1291e .cfa: $rsp 8 +
STACK CFI 12920 .cfa: $rsp 48 +
STACK CFI 12970 .cfa: $rsp 40 +
STACK CFI 12977 .cfa: $rsp 32 +
STACK CFI 12978 .cfa: $rsp 24 +
STACK CFI 1297a .cfa: $rsp 16 +
STACK CFI 1297c .cfa: $rsp 8 +
STACK CFI 12988 .cfa: $rsp 48 +
STACK CFI 1298c .cfa: $rsp 40 +
STACK CFI 12992 .cfa: $rsp 32 +
STACK CFI 12993 .cfa: $rsp 24 +
STACK CFI 12995 .cfa: $rsp 16 +
STACK CFI 12997 .cfa: $rsp 8 +
STACK CFI 129a0 .cfa: $rsp 48 +
STACK CFI 129a4 .cfa: $rsp 40 +
STACK CFI 129aa .cfa: $rsp 32 +
STACK CFI 129ab .cfa: $rsp 24 +
STACK CFI 129ad .cfa: $rsp 16 +
STACK CFI 129af .cfa: $rsp 8 +
STACK CFI INIT dc60 2d9 .cfa: $rsp 8 + .ra: .cfa -8 + ^
STACK CFI dc62 $r15: .cfa -16 + ^ .cfa: $rsp 16 +
STACK CFI dc64 $r14: .cfa -24 + ^ .cfa: $rsp 24 +
STACK CFI dc66 $r13: .cfa -32 + ^ .cfa: $rsp 32 +
STACK CFI dc68 $r12: .cfa -40 + ^ .cfa: $rsp 40 +
STACK CFI dc6c $rbp: .cfa -48 + ^ .cfa: $rsp 48 +
STACK CFI dc6d $rbx: .cfa -56 + ^ .cfa: $rsp 56 +
STACK CFI dc7b .cfa: $rsp 144 +
STACK CFI ddca .cfa: $rsp 56 +
STACK CFI ddcb .cfa: $rsp 48 +
STACK CFI ddcc .cfa: $rsp 40 +
STACK CFI ddce .cfa: $rsp 32 +
STACK CFI ddd0 .cfa: $rsp 24 +
STACK CFI ddd2 .cfa: $rsp 16 +
STACK CFI ddd4 .cfa: $rsp 8 +
STACK CFI ddd8 .cfa: $rsp 144 +
STACK CFI INIT 129b0 f0 .cfa: $rsp 8 + .ra: .cfa -8 + ^
STACK CFI 129b2 $r13: .cfa -16 + ^ .cfa: $rsp 16 +
STACK CFI 129b8 $r12: .cfa -24 + ^ .cfa: $rsp 24 +
STACK CFI 129b9 $rbp: .cfa -32 + ^ .cfa: $rsp 32 +
STACK CFI 129ba $rbx: .cfa -40 + ^ .cfa: $rsp 40 +
STACK CFI 129c4 .cfa: $rsp 48 +
STACK CFI 12a08 .cfa: $rsp 40 +
STACK CFI 12a09 .cfa: $rsp 32 +
STACK CFI 12a0a .cfa: $rsp 24 +
STACK CFI 12a0c .cfa: $rsp 16 +
STACK CFI 12a0e .cfa: $rsp 8 +
STACK CFI 12a10 .cfa: $rsp 48 +
STACK CFI 12a60 .cfa: $rsp 40 +
STACK CFI 12a67 .cfa: $rsp 32 +
STACK CFI 12a68 .cfa: $rsp 24 +
STACK CFI 12a6a .cfa: $rsp 16 +
STACK CFI 12a6c .cfa: $rsp 8 +
STACK CFI 12a78 .cfa: $rsp 48 +
STACK CFI 12a7c .cfa: $rsp 40 +
STACK CFI 12a82 .cfa: $rsp 32 +
STACK CFI 12a83 .cfa: $rsp 24 +
STACK CFI 12a85 .cfa: $rsp 16 +
STACK CFI 12a87 .cfa: $rsp 8 +
STACK CFI 12a90 .cfa: $rsp 48 +
STACK CFI 12a94 .cfa: $rsp 40 +
STACK CFI 12a9a .cfa: $rsp 32 +
STACK CFI 12a9b .cfa: $rsp 24 +
STACK CFI 12a9d .cfa: $rsp 16 +
STACK CFI 12a9f .cfa: $rsp 8 +
STACK CFI INIT 12aa0 3b4 .cfa: $rsp 8 + .ra: .cfa -8 + ^
STACK CFI 12aa2 $r15: .cfa -16 + ^ .cfa: $rsp 16 +
STACK CFI 12aa4 $r14: .cfa -24 + ^ .cfa: $rsp 24 +
STACK CFI 12aa6 $r13: .cfa -32 + ^ .cfa: $rsp 32 +
STACK CFI 12aa8 $r12: .cfa -40 + ^ .cfa: $rsp 40 +
STACK CFI 12aa9 $rbp: .cfa -48 + ^ .cfa: $rsp 48 +
STACK CFI 12aaa $rbx: .cfa -56 + ^ .cfa: $rsp 56 +
STACK CFI 12aae .cfa: $rsp 128 +
STACK CFI 12af8 .cfa: $rsp 56 +
STACK CFI 12af9 .cfa: $rsp 48 +
STACK CFI 12afa .cfa: $rsp 40 +
STACK CFI 12afc .cfa: $rsp 32 +
STACK CFI 12afe .cfa: $rsp 24 +
STACK CFI 12b00 .cfa: $rsp 16 +
STACK CFI 12b02 .cfa: $rsp 8 +
STACK CFI 12b08 .cfa: $rsp 128 +
STACK CFI INIT df40 58b .cfa: $rsp 8 + .ra: .cfa -8 + ^
STACK CFI df42 $r15: .cfa -16 + ^ .cfa: $rsp 16 +
STACK CFI df44 $r14: .cfa -24 + ^ .cfa: $rsp 24 +
STACK CFI df49 $r13: .cfa -32 + ^ .cfa: $rsp 32 +
STACK CFI df4b $r12: .cfa -40 + ^ .cfa: $rsp 40 +
STACK CFI df4c $rbp: .cfa -48 + ^ .cfa: $rsp 48 +
STACK CFI df4d $rbx: .cfa -56 + ^ .cfa: $rsp 56 +
STACK CFI df58 .cfa: $rsp 288 +
STACK CFI e00c .cfa: $rsp 56 +
STACK CFI e00d .cfa: $rsp 48 +
STACK CFI e00e .cfa: $rsp 40 +
STACK CFI e010 .cfa: $rsp 32 +
STACK CFI e012 .cfa: $rsp 24 +
STACK CFI e014 .cfa: $rsp 16 +
STACK CFI e016 .cfa: $rsp 8 +
STACK CFI e020 .cfa: $rsp 288 +
STACK CFI INIT e4d0 70c .cfa: $rsp 8 + .ra: .cfa -8 + ^
STACK CFI e4d2 $r15: .cfa -16 + ^ .cfa: $rsp 16 +
STACK CFI e4d4 $r14: .cfa -24 + ^ .cfa: $rsp 24 +
STACK CFI e4d6 $r13: .cfa -32 + ^ .cfa: $rsp 32 +
STACK CFI e4d8 $r12: .cfa -40 + ^ .cfa: $rsp 40 +
STACK CFI e4d9 $rbp: .cfa -48 + ^ .cfa: $rsp 48 +
STACK CFI e4da $rbx: .cfa -56 + ^ .cfa: $rsp 56 +
STACK CFI e4e1 .cfa: $rsp 208 +
STACK CFI e701 .cfa: $rsp 56 +
STACK CFI e702 .cfa: $rsp 48 +
STACK CFI e703 .cfa: $rsp 40 +
STACK CFI e705 .cfa: $rsp 32 +
STACK CFI e707 .cfa: $rsp 24 +
STACK CFI e709 .cfa: $rsp 16 +
STACK CFI e70b .cfa: $rsp 8 +
STACK CFI e710 .cfa: $rsp 208 +
STACK CFI INIT 8c50 2e .cfa: $rsp 8 + .ra: .cfa -8 + ^
STACK CFI 8c5b .cfa: $rsp 16 +
STACK CFI 8c79 .cfa: $rsp 8 +
STACK CFI INIT 12f20 5 .cfa: $rsp 8 + .ra: .cfa -8 + ^
STACK CFI INIT 12f30 42 .cfa: $rsp 8 + .ra: .cfa -8 + ^
STACK CFI 12f38 $rbx: .cfa -16 + ^ .cfa: $rsp 16 +
STACK CFI 12f62 .cfa: $rsp 8 +
STACK CFI 12f70 .cfa: $rsp 16 +
STACK CFI 12f71 .cfa: $rsp 8 +
STACK CFI INIT 12f80 44 .cfa: $rsp 8 + .ra: .cfa -8 + ^
STACK CFI 12f88 $rbx: .cfa -16 + ^ .cfa: $rsp 16 +
STACK CFI 12fbf .cfa: $rsp 8 +
STACK CFI INIT 12e60 8f .cfa: $rsp 8 + .ra: .cfa -8 + ^
STACK CFI 12e62 $r12: .cfa -16 + ^ .cfa: $rsp 16 +
STACK CFI 12e63 $rbp: .cfa -24 + ^ .cfa: $rsp 24 +
STACK CFI 12e67 $rbx: .cfa -32 + ^ .cfa: $rsp 32 +
STACK CFI 12ed4 .cfa: $rsp 24 +
STACK CFI 12ede .cfa: $rsp 16 +
STACK CFI 12ee0 .cfa: $rsp 8 +
STACK CFI 12ee8 .cfa: $rsp 32 +
STACK CFI INIT 12ef0 22 .cfa: $rsp 8 + .ra: .cfa -8 + ^
STACK CFI 12ef1 $rbx: .cfa -16 + ^ .cfa: $rsp 16 +
STACK CFI 12f02 .cfa: $rsp 8 +
STACK CFI 12f10 .cfa: $rsp 16 +
STACK CFI 12f11 .cfa: $rsp 8 +
STACK CFI INIT 13c30 2 .cfa: $rsp 8 + .ra: .cfa -8 + ^
STACK CFI INIT 13c40 a .cfa: $rsp 8 + .ra: .cfa -8 + ^
STACK CFI INIT 12fd0 9 .cfa: $rsp 8 + .ra: .cfa -8 + ^
STACK CFI INIT 12fe0 d .cfa: $rsp 8 + .ra: .cfa -8 + ^
STACK CFI INIT 12ff0 c8 .cfa: $rsp 8 + .ra: .cfa -8 + ^
STACK CFI 12ff2 $r12: .cfa -16 + ^ .cfa: $rsp 16 +
STACK CFI 12ff3 $rbp: .cfa -24 + ^ .cfa: $rsp 24 +
STACK CFI 12ff7 $rbx: .cfa -32 + ^ .cfa: $rsp 32 +
STACK CFI 12ffe .cfa: $rsp 48 +
STACK CFI 13064 .cfa: $rsp 32 +
STACK CFI 13065 .cfa: $rsp 24 +
STACK CFI 13066 .cfa: $rsp 16 +
STACK CFI 13068 .cfa: $rsp 8 +
STACK CFI 13070 .cfa: $rsp 48 +
STACK CFI INIT 130c0 8d .cfa: $rsp 8 + .ra: .cfa -8 + ^
STACK CFI 130da $r12: .cfa -16 + ^ .cfa: $rsp 16 +
STACK CFI 130db $rbp: .cfa -24 + ^ .cfa: $rsp 24 +
STACK CFI 130e0 $rbx: .cfa -32 + ^ .cfa: $rsp 32 +
STACK CFI 1310c .cfa: $rsp 24 +
STACK CFI 1310d .cfa: $rsp 16 +
STACK CFI 1310f .cfa: $rsp 8 +
STACK CFI 13110 .cfa: $rsp 32 +
STACK CFI INIT 13150 242 .cfa: $rsp 8 + .ra: .cfa -8 + ^
STACK CFI 13152 $r15: .cfa -16 + ^ .cfa: $rsp 16 +
STACK CFI 13154 $r14: .cfa -24 + ^ .cfa: $rsp 24 +
STACK CFI 13156 $r13: .cfa -32 + ^ .cfa: $rsp 32 +
STACK CFI 13158 $r12: .cfa -40 + ^ .cfa: $rsp 40 +
STACK CFI 1315c $rbp: .cfa -48 + ^ .cfa: $rsp 48 +
STACK CFI 1315d $rbx: .cfa -56 + ^ .cfa: $rsp 56 +
STACK CFI 13164 .cfa: $rsp 96 +
STACK CFI 1335a .cfa: $rsp 56 +
STACK CFI 1335b .cfa: $rsp 48 +
STACK CFI 1335c .cfa: $rsp 40 +
STACK CFI 1335e .cfa: $rsp 32 +
STACK CFI 13360 .cfa: $rsp 24 +
STACK CFI 13362 .cfa: $rsp 16 +
STACK CFI 13364 .cfa: $rsp 8 +
STACK CFI 13368 .cfa: $rsp 96 +
STACK CFI INIT 13c50 4a .cfa: $rsp 8 + .ra: .cfa -8 + ^
STACK CFI 13c52 $r13: .cfa -16 + ^ .cfa: $rsp 16 +
STACK CFI 13c54 $r12: .cfa -24 + ^ .cfa: $rsp 24 +
STACK CFI 13c58 $rbp: .cfa -32 + ^ .cfa: $rsp 32 +
STACK CFI 13c59 $rbx: .cfa -40 + ^ .cfa: $rsp 40 +
STACK CFI 13c5d .cfa: $rsp 48 +
STACK CFI 13c93 .cfa: $rsp 40 +
STACK CFI 13c94 .cfa: $rsp 32 +
STACK CFI 13c95 .cfa: $rsp 24 +
STACK CFI 13c97 .cfa: $rsp 16 +
STACK CFI 13c99 .cfa: $rsp 8 +
STACK CFI INIT 13ca0 3c .cfa: $rsp 8 + .ra: .cfa -8 + ^
STACK CFI 13ca8 $rbx: .cfa -16 + ^ .cfa: $rsp 16 +
STACK CFI 13cd7 .cfa: $rsp 8 +
STACK CFI INIT 133a0 5f4 .cfa: $rsp 8 + .ra: .cfa -8 + ^
STACK CFI 133a2 $r15: .cfa -16 + ^ .cfa: $rsp 16 +
STACK CFI 133a4 $r14: .cfa -24 + ^ .cfa: $rsp 24 +
STACK CFI 133a9 $r13: .cfa -32 + ^ .cfa: $rsp 32 +
STACK CFI 133ab $r12: .cfa -40 + ^ .cfa: $rsp 40 +
STACK CFI 133af $rbp: .cfa -48 + ^ .cfa: $rsp 48 +
STACK CFI 133b0 $rbx: .cfa -56 + ^ .cfa: $rsp 56 +
STACK CFI 133b7 .cfa: $rsp 528 +
STACK CFI 13732 .cfa: $rsp 56 +
STACK CFI 13733 .cfa: $rsp 48 +
STACK CFI 13734 .cfa: $rsp 40 +
STACK CFI 13736 .cfa: $rsp 32 +
STACK CFI 13738 .cfa: $rsp 24 +
STACK CFI 1373a .cfa: $rsp 16 +
STACK CFI 1373c .cfa: $rsp 8 +
STACK CFI 13740 .cfa: $rsp 528 +
STACK CFI INIT 13ce0 49 .cfa: $rsp 8 + .ra: .cfa -8 + ^
STACK CFI 13ce8 $rbx: .cfa -16 + ^ .cfa: $rsp 16 +
STACK CFI 13d24 .cfa: $rsp 8 +
STACK CFI INIT 13d30 52 .cfa: $rsp 8 + .ra: .cfa -8 + ^
STACK CFI 13d37 $r12: .cfa -16 + ^ .cfa: $rsp 16 +
STACK CFI 13d3b $rbp: .cfa -24 + ^ .cfa: $rsp 24 +
STACK CFI 13d3c $rbx: .cfa -32 + ^ .cfa: $rsp 32 +
STACK CFI 13d72 .cfa: $rsp 24 +
STACK CFI 13d73 .cfa: $rsp 16 +
STACK CFI 13d75 .cfa: $rsp 8 +
STACK CFI 13d80 $r12: $r12 $rbp: $rbp $rbx: $rbx
STACK CFI INIT 13d90 52 .cfa: $rsp 8 + .ra: .cfa -8 + ^
STACK CFI 13d97 $r12: .cfa -16 + ^ .cfa: $rsp 16 +
STACK CFI 13d9b $rbp: .cfa -24 + ^ .cfa: $rsp 24 +
STACK CFI 13d9c $rbx: .cfa -32 + ^ .cfa: $rsp 32 +
STACK CFI 13dd2 .cfa: $rsp 24 +
STACK CFI 13dd3 .cfa: $rsp 16 +
STACK CFI 13dd5 .cfa: $rsp 8 +
STACK CFI 13de0 $r12: $r12 $rbp: $rbp $rbx: $rbx
STACK CFI INIT 13df0 184 .cfa: $rsp 8 + .ra: .cfa -8 + ^
STACK CFI 13df2 $r15: .cfa -16 + ^ .cfa: $rsp 16 +
STACK CFI 13df4 $r14: .cfa -24 + ^ .cfa: $rsp 24 +
STACK CFI 13df6 $r13: .cfa -32 + ^ .cfa: $rsp 32 +
STACK CFI 13df8 $r12: .cfa -40 + ^ .cfa: $rsp 40 +
STACK CFI 13df9 $rbp: .cfa -48 + ^ .cfa: $rsp 48 +
STACK CFI 13dfa $rbx: .cfa -56 + ^ .cfa: $rsp 56 +
STACK CFI 13dfe .cfa: $rsp 80 +
STACK CFI 13eb8 .cfa: $rsp 56 +
STACK CFI 13ebe .cfa: $rsp 48 +
STACK CFI 13ebf .cfa: $rsp 40 +
STACK CFI 13ec1 .cfa: $rsp 32 +
STACK CFI 13ec3 .cfa: $rsp 24 +
STACK CFI 13ec5 .cfa: $rsp 16 +
STACK CFI 13ec7 .cfa: $rsp 8 +
STACK CFI 13ed0 .cfa: $rsp 80 +
STACK CFI 13ed4 .cfa: $rsp 56 +
STACK CFI 13eda .cfa: $rsp 48 +
STACK CFI 13edb .cfa: $rsp 40 +
STACK CFI 13edd .cfa: $rsp 32 +
STACK CFI 13edf .cfa: $rsp 24 +
STACK CFI 13ee1 .cfa: $rsp 16 +
STACK CFI 13ee3 .cfa: $rsp 8 +
STACK CFI 13ee8 .cfa: $rsp 80 +
STACK CFI 13f64 .cfa: $rsp 56 +
STACK CFI 13f6a .cfa: $rsp 48 +
STACK CFI 13f6b .cfa: $rsp 40 +
STACK CFI 13f6d .cfa: $rsp 32 +
STACK CFI 13f6f .cfa: $rsp 24 +
STACK CFI 13f71 .cfa: $rsp 16 +
STACK CFI 13f73 .cfa: $rsp 8 +
STACK CFI INIT 13f80 2b2 .cfa: $rsp 8 + .ra: .cfa -8 + ^
STACK CFI 13f82 $r15: .cfa -16 + ^ .cfa: $rsp 16 +
STACK CFI 13f88 $r14: .cfa -24 + ^ .cfa: $rsp 24 +
STACK CFI 13f8a $r13: .cfa -32 + ^ .cfa: $rsp 32 +
STACK CFI 13f8c $r12: .cfa -40 + ^ .cfa: $rsp 40 +
STACK CFI 13f90 $rbp: .cfa -48 + ^ .cfa: $rsp 48 +
STACK CFI 13f91 $rbx: .cfa -56 + ^ .cfa: $rsp 56 +
STACK CFI 13f98 .cfa: $rsp 80 +
STACK CFI 14067 .cfa: $rsp 56 +
STACK CFI 1406b .cfa: $rsp 48 +
STACK CFI 1406c .cfa: $rsp 40 +
STACK CFI 1406e .cfa: $rsp 32 +
STACK CFI 14070 .cfa: $rsp 24 +
STACK CFI 14072 .cfa: $rsp 16 +
STACK CFI 14074 .cfa: $rsp 8 +
STACK CFI 14078 .cfa: $rsp 80 +
STACK CFI 14189 .cfa: $rsp 56 +
STACK CFI 1418a .cfa: $rsp 48 +
STACK CFI 1418b .cfa: $rsp 40 +
STACK CFI 1418d .cfa: $rsp 32 +
STACK CFI 1418f .cfa: $rsp 24 +
STACK CFI 14191 .cfa: $rsp 16 +
STACK CFI 14193 .cfa: $rsp 8 +
STACK CFI 14198 .cfa: $rsp 80 +
STACK CFI 141d9 .cfa: $rsp 56 +
STACK CFI 141df .cfa: $rsp 48 +
STACK CFI 141e0 .cfa: $rsp 40 +
STACK CFI 141e2 .cfa: $rsp 32 +
STACK CFI 141e4 .cfa: $rsp 24 +
STACK CFI 141e6 .cfa: $rsp 16 +
STACK CFI 141e8 .cfa: $rsp 8 +
STACK CFI 141f0 .cfa: $rsp 80 +
STACK CFI 141f4 .cfa: $rsp 56 +
STACK CFI 141fb .cfa: $rsp 48 +
STACK CFI 141fc .cfa: $rsp 40 +
STACK CFI 141fe .cfa: $rsp 32 +
STACK CFI 14200 .cfa: $rsp 24 +
STACK CFI 14202 .cfa: $rsp 16 +
STACK CFI 14204 .cfa: $rsp 8 +
STACK CFI 14210 .cfa: $rsp 80 +
STACK CFI INIT 139a0 28b .cfa: $rsp 8 + .ra: .cfa -8 + ^
STACK CFI 139a2 $r15: .cfa -16 + ^ .cfa: $rsp 16 +
STACK CFI 139a4 $r14: .cfa -24 + ^ .cfa: $rsp 24 +
STACK CFI 139a6 $r13: .cfa -32 + ^ .cfa: $rsp 32 +
STACK CFI 139a8 $r12: .cfa -40 + ^ .cfa: $rsp 40 +
STACK CFI 139ac $rbp: .cfa -48 + ^ .cfa: $rsp 48 +
STACK CFI 139ad $rbx: .cfa -56 + ^ .cfa: $rsp 56 +
STACK CFI 139b1 .cfa: $rsp 96 +
STACK CFI 13b1c .cfa: $rsp 56 +
STACK CFI 13b21 .cfa: $rsp 48 +
STACK CFI 13b22 .cfa: $rsp 40 +
STACK CFI 13b24 .cfa: $rsp 32 +
STACK CFI 13b26 .cfa: $rsp 24 +
STACK CFI 13b28 .cfa: $rsp 16 +
STACK CFI 13b2a .cfa: $rsp 8 +
STACK CFI 13b30 .cfa: $rsp 96 +
STACK CFI INIT 14240 398 .cfa: $rsp 8 + .ra: .cfa -8 + ^
STACK CFI 14242 $r15: .cfa -16 + ^ .cfa: $rsp 16 +
STACK CFI 14244 $r14: .cfa -24 + ^ .cfa: $rsp 24 +
STACK CFI 14246 $r13: .cfa -32 + ^ .cfa: $rsp 32 +
STACK CFI 14248 $r12: .cfa -40 + ^ .cfa: $rsp 40 +
STACK CFI 1424c $rbp: .cfa -48 + ^ .cfa: $rsp 48 +
STACK CFI 1424d $rbx: .cfa -56 + ^ .cfa: $rsp 56 +
STACK CFI 14257 .cfa: $rsp 80 +
STACK CFI 14397 .cfa: $rsp 56 +
STACK CFI 1439b .cfa: $rsp 48 +
STACK CFI 1439c .cfa: $rsp 40 +
STACK CFI 1439e .cfa: $rsp 32 +
STACK CFI 143a0 .cfa: $rsp 24 +
STACK CFI 143a2 .cfa: $rsp 16 +
STACK CFI 143a4 .cfa: $rsp 8 +
STACK CFI 143a8 .cfa: $rsp 80 +
STACK CFI INIT 145e0 133 .cfa: $rsp 8 + .ra: .cfa -8 + ^
STACK CFI 145e1 $rbp: .cfa -16 + ^ .cfa: $rsp 16 +
STACK CFI 145e2 $rbx: .cfa -24 + ^ .cfa: $rsp 24 +
STACK CFI 145e9 .cfa: $rsp 64 +
STACK CFI 146d4 .cfa: $rsp 24 +
STACK CFI 146d5 .cfa: $rsp 16 +
STACK CFI 146d6 .cfa: $rsp 8 +
STACK CFI 146e0 .cfa: $rsp 64 +
STACK CFI INIT 14720 41f .cfa: $rsp 8 + .ra: .cfa -8 + ^
STACK CFI 14722 $r15: .cfa -16 + ^ .cfa: $rsp 16 +
STACK CFI 14724 $r14: .cfa -24 + ^ .cfa: $rsp 24 +
STACK CFI 14726 $r13: .cfa -32 + ^ .cfa: $rsp 32 +
STACK CFI 14728 $r12: .cfa -40 + ^ .cfa: $rsp 40 +
STACK CFI 14729 $rbp: .cfa -48 + ^ .cfa: $rsp 48 +
STACK CFI 1472a $rbx: .cfa -56 + ^ .cfa: $rsp 56 +
STACK CFI 14731 .cfa: $rsp 528 +
STACK CFI 14a21 .cfa: $rsp 56 +
STACK CFI 14a22 .cfa: $rsp 48 +
STACK CFI 14a23 .cfa: $rsp 40 +
STACK CFI 14a25 .cfa: $rsp 32 +
STACK CFI 14a27 .cfa: $rsp 24 +
STACK CFI 14a29 .cfa: $rsp 16 +
STACK CFI 14a2b .cfa: $rsp 8 +
STACK CFI 14a30 .cfa: $rsp 528 +
STACK CFI INIT 14b40 246 .cfa: $rsp 8 + .ra: .cfa -8 + ^
STACK CFI 14b42 $r15: .cfa -16 + ^ .cfa: $rsp 16 +
STACK CFI 14b44 $r14: .cfa -24 + ^ .cfa: $rsp 24 +
STACK CFI 14b49 $r13: .cfa -32 + ^ .cfa: $rsp 32 +
STACK CFI 14b4b $r12: .cfa -40 + ^ .cfa: $rsp 40 +
STACK CFI 14b4c $rbp: .cfa -48 + ^ .cfa: $rsp 48 +
STACK CFI 14b4d $rbx: .cfa -56 + ^ .cfa: $rsp 56 +
STACK CFI 14b54 .cfa: $rsp 144 +
STACK CFI 14bf2 .cfa: $rsp 56 +
STACK CFI 14bf3 .cfa: $rsp 48 +
STACK CFI 14bf4 .cfa: $rsp 40 +
STACK CFI 14bf6 .cfa: $rsp 32 +
STACK CFI 14bf8 .cfa: $rsp 24 +
STACK CFI 14bfa .cfa: $rsp 16 +
STACK CFI 14bfc .cfa: $rsp 8 +
STACK CFI 14c00 .cfa: $rsp 144 +
STACK CFI INIT 14d90 b2 .cfa: $rsp 8 + .ra: .cfa -8 + ^
STACK CFI 14d92 $r14: .cfa -16 + ^ .cfa: $rsp 16 +
STACK CFI 14d94 $r13: .cfa -24 + ^ .cfa: $rsp 24 +
STACK CFI 14d96 $r12: .cfa -32 + ^ .cfa: $rsp 32 +
STACK CFI 14d97 $rbp: .cfa -40 + ^ .cfa: $rsp 40 +
STACK CFI 14d9b $rbx: .cfa -48 + ^ .cfa: $rsp 48 +
STACK CFI 14dae .cfa: $rsp 64 +
STACK CFI 14dc7 .cfa: $rsp 48 +
STACK CFI 14dcb .cfa: $rsp 40 +
STACK CFI 14dcc .cfa: $rsp 32 +
STACK CFI 14dce .cfa: $rsp 24 +
STACK CFI 14dd0 .cfa: $rsp 16 +
STACK CFI 14dd2 .cfa: $rsp 8 +
STACK CFI 14dd8 .cfa: $rsp 64 +
STACK CFI INIT 14e50 3a8 .cfa: $rsp 8 + .ra: .cfa -8 + ^
STACK CFI 14e52 $r15: .cfa -16 + ^ .cfa: $rsp 16 +
STACK CFI 14e54 $r14: .cfa -24 + ^ .cfa: $rsp 24 +
STACK CFI 14e56 $r13: .cfa -32 + ^ .cfa: $rsp 32 +
STACK CFI 14e58 $r12: .cfa -40 + ^ .cfa: $rsp 40 +
STACK CFI 14e5c $rbp: .cfa -48 + ^ .cfa: $rsp 48 +
STACK CFI 14e5d $rbx: .cfa -56 + ^ .cfa: $rsp 56 +
STACK CFI 14e67 .cfa: $rsp 80 +
STACK CFI 14faa .cfa: $rsp 56 +
STACK CFI 14fae .cfa: $rsp 48 +
STACK CFI 14faf .cfa: $rsp 40 +
STACK CFI 14fb1 .cfa: $rsp 32 +
STACK CFI 14fb3 .cfa: $rsp 24 +
STACK CFI 14fb5 .cfa: $rsp 16 +
STACK CFI 14fb7 .cfa: $rsp 8 +
STACK CFI 14fc0 .cfa: $rsp 80 +
STACK CFI INIT 15200 133 .cfa: $rsp 8 + .ra: .cfa -8 + ^
STACK CFI 15201 $rbp: .cfa -16 + ^ .cfa: $rsp 16 +
STACK CFI 15202 $rbx: .cfa -24 + ^ .cfa: $rsp 24 +
STACK CFI 15209 .cfa: $rsp 64 +
STACK CFI 152f4 .cfa: $rsp 24 +
STACK CFI 152f5 .cfa: $rsp 16 +
STACK CFI 152f6 .cfa: $rsp 8 +
STACK CFI 15300 .cfa: $rsp 64 +
STACK CFI INIT 15340 422 .cfa: $rsp 8 + .ra: .cfa -8 + ^
STACK CFI 15342 $r15: .cfa -16 + ^ .cfa: $rsp 16 +
STACK CFI 15344 $r14: .cfa -24 + ^ .cfa: $rsp 24 +
STACK CFI 15346 $r13: .cfa -32 + ^ .cfa: $rsp 32 +
STACK CFI 15348 $r12: .cfa -40 + ^ .cfa: $rsp 40 +
STACK CFI 15349 $rbp: .cfa -48 + ^ .cfa: $rsp 48 +
STACK CFI 1534a $rbx: .cfa -56 + ^ .cfa: $rsp 56 +
STACK CFI 15351 .cfa: $rsp 528 +
STACK CFI 15642 .cfa: $rsp 56 +
STACK CFI 15643 .cfa: $rsp 48 +
STACK CFI 15644 .cfa: $rsp 40 +
STACK CFI 15646 .cfa: $rsp 32 +
STACK CFI 15648 .cfa: $rsp 24 +
STACK CFI 1564a .cfa: $rsp 16 +
STACK CFI 1564c .cfa: $rsp 8 +
STACK CFI 15650 .cfa: $rsp 528 +
STACK CFI INIT 15770 246 .cfa: $rsp 8 + .ra: .cfa -8 + ^
STACK CFI 15772 $r15: .cfa -16 + ^ .cfa: $rsp 16 +
STACK CFI 15774 $r14: .cfa -24 + ^ .cfa: $rsp 24 +
STACK CFI 15779 $r13: .cfa -32 + ^ .cfa: $rsp 32 +
STACK CFI 1577b $r12: .cfa -40 + ^ .cfa: $rsp 40 +
STACK CFI 1577c $rbp: .cfa -48 + ^ .cfa: $rsp 48 +
STACK CFI 1577d $rbx: .cfa -56 + ^ .cfa: $rsp 56 +
STACK CFI 15784 .cfa: $rsp 144 +
STACK CFI 15822 .cfa: $rsp 56 +
STACK CFI 15823 .cfa: $rsp 48 +
STACK CFI 15824 .cfa: $rsp 40 +
STACK CFI 15826 .cfa: $rsp 32 +
STACK CFI 15828 .cfa: $rsp 24 +
STACK CFI 1582a .cfa: $rsp 16 +
STACK CFI 1582c .cfa: $rsp 8 +
STACK CFI 15830 .cfa: $rsp 144 +
STACK CFI INIT 159c0 b2 .cfa: $rsp 8 + .ra: .cfa -8 + ^
STACK CFI 159c2 $r14: .cfa -16 + ^ .cfa: $rsp 16 +
STACK CFI 159c4 $r13: .cfa -24 + ^ .cfa: $rsp 24 +
STACK CFI 159c6 $r12: .cfa -32 + ^ .cfa: $rsp 32 +
STACK CFI 159c7 $rbp: .cfa -40 + ^ .cfa: $rsp 40 +
STACK CFI 159cb $rbx: .cfa -48 + ^ .cfa: $rsp 48 +
STACK CFI 159de .cfa: $rsp 64 +
STACK CFI 159f7 .cfa: $rsp 48 +
STACK CFI 159fb .cfa: $rsp 40 +
STACK CFI 159fc .cfa: $rsp 32 +
STACK CFI 159fe .cfa: $rsp 24 +
STACK CFI 15a00 .cfa: $rsp 16 +
STACK CFI 15a02 .cfa: $rsp 8 +
STACK CFI 15a08 .cfa: $rsp 64 +
STACK CFI INIT 15a80 184 .cfa: $rsp 8 + .ra: .cfa -8 + ^
STACK CFI 15a82 $r15: .cfa -16 + ^ .cfa: $rsp 16 +
STACK CFI 15a84 $r14: .cfa -24 + ^ .cfa: $rsp 24 +
STACK CFI 15a86 $r13: .cfa -32 + ^ .cfa: $rsp 32 +
STACK CFI 15a88 $r12: .cfa -40 + ^ .cfa: $rsp 40 +
STACK CFI 15a89 $rbp: .cfa -48 + ^ .cfa: $rsp 48 +
STACK CFI 15a8a $rbx: .cfa -56 + ^ .cfa: $rsp 56 +
STACK CFI 15a8e .cfa: $rsp 80 +
STACK CFI 15b48 .cfa: $rsp 56 +
STACK CFI 15b4e .cfa: $rsp 48 +
STACK CFI 15b4f .cfa: $rsp 40 +
STACK CFI 15b51 .cfa: $rsp 32 +
STACK CFI 15b53 .cfa: $rsp 24 +
STACK CFI 15b55 .cfa: $rsp 16 +
STACK CFI 15b57 .cfa: $rsp 8 +
STACK CFI 15b60 .cfa: $rsp 80 +
STACK CFI 15b64 .cfa: $rsp 56 +
STACK CFI 15b6a .cfa: $rsp 48 +
STACK CFI 15b6b .cfa: $rsp 40 +
STACK CFI 15b6d .cfa: $rsp 32 +
STACK CFI 15b6f .cfa: $rsp 24 +
STACK CFI 15b71 .cfa: $rsp 16 +
STACK CFI 15b73 .cfa: $rsp 8 +
STACK CFI 15b78 .cfa: $rsp 80 +
STACK CFI 15bf4 .cfa: $rsp 56 +
STACK CFI 15bfa .cfa: $rsp 48 +
STACK CFI 15bfb .cfa: $rsp 40 +
STACK CFI 15bfd .cfa: $rsp 32 +
STACK CFI 15bff .cfa: $rsp 24 +
STACK CFI 15c01 .cfa: $rsp 16 +
STACK CFI 15c03 .cfa: $rsp 8 +
STACK CFI INIT 15c10 2b2 .cfa: $rsp 8 + .ra: .cfa -8 + ^
STACK CFI 15c12 $r15: .cfa -16 + ^ .cfa: $rsp 16 +
STACK CFI 15c18 $r14: .cfa -24 + ^ .cfa: $rsp 24 +
STACK CFI 15c1a $r13: .cfa -32 + ^ .cfa: $rsp 32 +
STACK CFI 15c1c $r12: .cfa -40 + ^ .cfa: $rsp 40 +
STACK CFI 15c20 $rbp: .cfa -48 + ^ .cfa: $rsp 48 +
STACK CFI 15c21 $rbx: .cfa -56 + ^ .cfa: $rsp 56 +
STACK CFI 15c28 .cfa: $rsp 80 +
STACK CFI 15cf7 .cfa: $rsp 56 +
STACK CFI 15cfb .cfa: $rsp 48 +
STACK CFI 15cfc .cfa: $rsp 40 +
STACK CFI 15cfe .cfa: $rsp 32 +
STACK CFI 15d00 .cfa: $rsp 24 +
STACK CFI 15d02 .cfa: $rsp 16 +
STACK CFI 15d04 .cfa: $rsp 8 +
STACK CFI 15d08 .cfa: $rsp 80 +
STACK CFI 15e19 .cfa: $rsp 56 +
STACK CFI 15e1a .cfa: $rsp 48 +
STACK CFI 15e1b .cfa: $rsp 40 +
STACK CFI 15e1d .cfa: $rsp 32 +
STACK CFI 15e1f .cfa: $rsp 24 +
STACK CFI 15e21 .cfa: $rsp 16 +
STACK CFI 15e23 .cfa: $rsp 8 +
STACK CFI 15e28 .cfa: $rsp 80 +
STACK CFI 15e69 .cfa: $rsp 56 +
STACK CFI 15e6f .cfa: $rsp 48 +
STACK CFI 15e70 .cfa: $rsp 40 +
STACK CFI 15e72 .cfa: $rsp 32 +
STACK CFI 15e74 .cfa: $rsp 24 +
STACK CFI 15e76 .cfa: $rsp 16 +
STACK CFI 15e78 .cfa: $rsp 8 +
STACK CFI 15e80 .cfa: $rsp 80 +
STACK CFI 15e84 .cfa: $rsp 56 +
STACK CFI 15e8b .cfa: $rsp 48 +
STACK CFI 15e8c .cfa: $rsp 40 +
STACK CFI 15e8e .cfa: $rsp 32 +
STACK CFI 15e90 .cfa: $rsp 24 +
STACK CFI 15e92 .cfa: $rsp 16 +
STACK CFI 15e94 .cfa: $rsp 8 +
STACK CFI 15ea0 .cfa: $rsp 80 +
STACK CFI INIT 15ed0 1bf .cfa: $rsp 8 + .ra: .cfa -8 + ^
STACK CFI 15ed2 $r15: .cfa -16 + ^ .cfa: $rsp 16 +
STACK CFI 15ed4 $r14: .cfa -24 + ^ .cfa: $rsp 24 +
STACK CFI 15ed9 $r13: .cfa -32 + ^ .cfa: $rsp 32 +
STACK CFI 15edb $r12: .cfa -40 + ^ .cfa: $rsp 40 +
STACK CFI 15edf $rbp: .cfa -48 + ^ .cfa: $rsp 48 +
STACK CFI 15ee0 $rbx: .cfa -56 + ^ .cfa: $rsp 56 +
STACK CFI 15ee8 .cfa: $rsp 80 +
STACK CFI 16002 .cfa: $rsp 56 +
STACK CFI 16007 .cfa: $rsp 48 +
STACK CFI 16008 .cfa: $rsp 40 +
STACK CFI 1600a .cfa: $rsp 32 +
STACK CFI 1600c .cfa: $rsp 24 +
STACK CFI 1600e .cfa: $rsp 16 +
STACK CFI 16010 .cfa: $rsp 8 +
STACK CFI 16018 .cfa: $rsp 80 +
STACK CFI INIT 16090 184 .cfa: $rsp 8 + .ra: .cfa -8 + ^
STACK CFI 16092 $r15: .cfa -16 + ^ .cfa: $rsp 16 +
STACK CFI 16094 $r14: .cfa -24 + ^ .cfa: $rsp 24 +
STACK CFI 16096 $r13: .cfa -32 + ^ .cfa: $rsp 32 +
STACK CFI 16098 $r12: .cfa -40 + ^ .cfa: $rsp 40 +
STACK CFI 16099 $rbp: .cfa -48 + ^ .cfa: $rsp 48 +
STACK CFI 1609a $rbx: .cfa -56 + ^ .cfa: $rsp 56 +
STACK CFI 1609e .cfa: $rsp 80 +
STACK CFI 16158 .cfa: $rsp 56 +
STACK CFI 1615e .cfa: $rsp 48 +
STACK CFI 1615f .cfa: $rsp 40 +
STACK CFI 16161 .cfa: $rsp 32 +
STACK CFI 16163 .cfa: $rsp 24 +
STACK CFI 16165 .cfa: $rsp 16 +
STACK CFI 16167 .cfa: $rsp 8 +
STACK CFI 16170 .cfa: $rsp 80 +
STACK CFI 16174 .cfa: $rsp 56 +
STACK CFI 1617a .cfa: $rsp 48 +
STACK CFI 1617b .cfa: $rsp 40 +
STACK CFI 1617d .cfa: $rsp 32 +
STACK CFI 1617f .cfa: $rsp 24 +
STACK CFI 16181 .cfa: $rsp 16 +
STACK CFI 16183 .cfa: $rsp 8 +
STACK CFI 16188 .cfa: $rsp 80 +
STACK CFI 16204 .cfa: $rsp 56 +
STACK CFI 1620a .cfa: $rsp 48 +
STACK CFI 1620b .cfa: $rsp 40 +
STACK CFI 1620d .cfa: $rsp 32 +
STACK CFI 1620f .cfa: $rsp 24 +
STACK CFI 16211 .cfa: $rsp 16 +
STACK CFI 16213 .cfa: $rsp 8 +
STACK CFI INIT 16220 2b2 .cfa: $rsp 8 + .ra: .cfa -8 + ^
STACK CFI 16222 $r15: .cfa -16 + ^ .cfa: $rsp 16 +
STACK CFI 16228 $r14: .cfa -24 + ^ .cfa: $rsp 24 +
STACK CFI 1622a $r13: .cfa -32 + ^ .cfa: $rsp 32 +
STACK CFI 1622c $r12: .cfa -40 + ^ .cfa: $rsp 40 +
STACK CFI 16230 $rbp: .cfa -48 + ^ .cfa: $rsp 48 +
STACK CFI 16231 $rbx: .cfa -56 + ^ .cfa: $rsp 56 +
STACK CFI 16238 .cfa: $rsp 80 +
STACK CFI 16307 .cfa: $rsp 56 +
STACK CFI 1630b .cfa: $rsp 48 +
STACK CFI 1630c .cfa: $rsp 40 +
STACK CFI 1630e .cfa: $rsp 32 +
STACK CFI 16310 .cfa: $rsp 24 +
STACK CFI 16312 .cfa: $rsp 16 +
STACK CFI 16314 .cfa: $rsp 8 +
STACK CFI 16318 .cfa: $rsp 80 +
STACK CFI 16429 .cfa: $rsp 56 +
STACK CFI 1642a .cfa: $rsp 48 +
STACK CFI 1642b .cfa: $rsp 40 +
STACK CFI 1642d .cfa: $rsp 32 +
STACK CFI 1642f .cfa: $rsp 24 +
STACK CFI 16431 .cfa: $rsp 16 +
STACK CFI 16433 .cfa: $rsp 8 +
STACK CFI 16438 .cfa: $rsp 80 +
STACK CFI 16479 .cfa: $rsp 56 +
STACK CFI 1647f .cfa: $rsp 48 +
STACK CFI 16480 .cfa: $rsp 40 +
STACK CFI 16482 .cfa: $rsp 32 +
STACK CFI 16484 .cfa: $rsp 24 +
STACK CFI 16486 .cfa: $rsp 16 +
STACK CFI 16488 .cfa: $rsp 8 +
STACK CFI 16490 .cfa: $rsp 80 +
STACK CFI 16494 .cfa: $rsp 56 +
STACK CFI 1649b .cfa: $rsp 48 +
STACK CFI 1649c .cfa: $rsp 40 +
STACK CFI 1649e .cfa: $rsp 32 +
STACK CFI 164a0 .cfa: $rsp 24 +
STACK CFI 164a2 .cfa: $rsp 16 +
STACK CFI 164a4 .cfa: $rsp 8 +
STACK CFI 164b0 .cfa: $rsp 80 +
STACK CFI INIT 164e0 1bf .cfa: $rsp 8 + .ra: .cfa -8 + ^
STACK CFI 164e2 $r15: .cfa -16 + ^ .cfa: $rsp 16 +
STACK CFI 164e4 $r14: .cfa -24 + ^ .cfa: $rsp 24 +
STACK CFI 164e9 $r13: .cfa -32 + ^ .cfa: $rsp 32 +
STACK CFI 164eb $r12: .cfa -40 + ^ .cfa: $rsp 40 +
STACK CFI 164ef $rbp: .cfa -48 + ^ .cfa: $rsp 48 +
STACK CFI 164f0 $rbx: .cfa -56 + ^ .cfa: $rsp 56 +
STACK CFI 164f8 .cfa: $rsp 80 +
STACK CFI 16613 .cfa: $rsp 56 +
STACK CFI 16618 .cfa: $rsp 48 +
STACK CFI 16619 .cfa: $rsp 40 +
STACK CFI 1661b .cfa: $rsp 32 +
STACK CFI 1661d .cfa: $rsp 24 +
STACK CFI 1661f .cfa: $rsp 16 +
STACK CFI 16621 .cfa: $rsp 8 +
STACK CFI 16628 .cfa: $rsp 80 +
STACK CFI INIT 166a0 28a .cfa: $rsp 8 + .ra: .cfa -8 + ^
STACK CFI 166a2 $r15: .cfa -16 + ^ .cfa: $rsp 16 +
STACK CFI 166a4 $r14: .cfa -24 + ^ .cfa: $rsp 24 +
STACK CFI 166a9 $r13: .cfa -32 + ^ .cfa: $rsp 32 +
STACK CFI 166ab $r12: .cfa -40 + ^ .cfa: $rsp 40 +
STACK CFI 166af $rbp: .cfa -48 + ^ .cfa: $rsp 48 +
STACK CFI 166b0 $rbx: .cfa -56 + ^ .cfa: $rsp 56 +
STACK CFI 166ba .cfa: $rsp 80 +
STACK CFI 168b4 .cfa: $rsp 56 +
STACK CFI 168b5 .cfa: $rsp 48 +
STACK CFI 168b6 .cfa: $rsp 40 +
STACK CFI 168b8 .cfa: $rsp 32 +
STACK CFI 168ba .cfa: $rsp 24 +
STACK CFI 168bc .cfa: $rsp 16 +
STACK CFI 168be .cfa: $rsp 8 +
STACK CFI 168c0 .cfa: $rsp 80 +
STACK CFI INIT 16930 4b .cfa: $rsp 8 + .ra: .cfa -8 + ^
STACK CFI 1693e $rbx: .cfa -16 + ^ .cfa: $rsp 16 +
STACK CFI 1696f .cfa: $rsp 8 +
STACK CFI 16970 $rbx: $rbx
STACK CFI INIT 16980 73 .cfa: $rsp 8 + .ra: .cfa -8 + ^
STACK CFI INIT 16a00 52e .cfa: $rsp 8 + .ra: .cfa -8 + ^
STACK CFI 16a02 $r15: .cfa -16 + ^ .cfa: $rsp 16 +
STACK CFI 16a04 $r14: .cfa -24 + ^ .cfa: $rsp 24 +
STACK CFI 16a09 $r13: .cfa -32 + ^ .cfa: $rsp 32 +
STACK CFI 16a0b $r12: .cfa -40 + ^ .cfa: $rsp 40 +
STACK CFI 16a0c $rbp: .cfa -48 + ^ .cfa: $rsp 48 +
STACK CFI 16a0d $rbx: .cfa -56 + ^ .cfa: $rsp 56 +
STACK CFI 16a14 .cfa: $rsp 560 +
STACK CFI 16d30 .cfa: $rsp 56 +
STACK CFI 16d31 .cfa: $rsp 48 +
STACK CFI 16d32 .cfa: $rsp 40 +
STACK CFI 16d34 .cfa: $rsp 32 +
STACK CFI 16d36 .cfa: $rsp 24 +
STACK CFI 16d38 .cfa: $rsp 16 +
STACK CFI 16d3a .cfa: $rsp 8 +
STACK CFI 16d40 .cfa: $rsp 560 +
STACK CFI INIT 16f30 52e .cfa: $rsp 8 + .ra: .cfa -8 + ^
STACK CFI 16f32 $r15: .cfa -16 + ^ .cfa: $rsp 16 +
STACK CFI 16f34 $r14: .cfa -24 + ^ .cfa: $rsp 24 +
STACK CFI 16f39 $r13: .cfa -32 + ^ .cfa: $rsp 32 +
STACK CFI 16f3b $r12: .cfa -40 + ^ .cfa: $rsp 40 +
STACK CFI 16f3c $rbp: .cfa -48 + ^ .cfa: $rsp 48 +
STACK CFI 16f3d $rbx: .cfa -56 + ^ .cfa: $rsp 56 +
STACK CFI 16f44 .cfa: $rsp 560 +
STACK CFI 17260 .cfa: $rsp 56 +
STACK CFI 17261 .cfa: $rsp 48 +
STACK CFI 17262 .cfa: $rsp 40 +
STACK CFI 17264 .cfa: $rsp 32 +
STACK CFI 17266 .cfa: $rsp 24 +
STACK CFI 17268 .cfa: $rsp 16 +
STACK CFI 1726a .cfa: $rsp 8 +
STACK CFI 17270 .cfa: $rsp 560 +
STACK CFI INIT 17460 184 .cfa: $rsp 8 + .ra: .cfa -8 + ^
STACK CFI 17462 $r15: .cfa -16 + ^ .cfa: $rsp 16 +
STACK CFI 17464 $r14: .cfa -24 + ^ .cfa: $rsp 24 +
STACK CFI 17466 $r13: .cfa -32 + ^ .cfa: $rsp 32 +
STACK CFI 17468 $r12: .cfa -40 + ^ .cfa: $rsp 40 +
STACK CFI 17469 $rbp: .cfa -48 + ^ .cfa: $rsp 48 +
STACK CFI 1746a $rbx: .cfa -56 + ^ .cfa: $rsp 56 +
STACK CFI 1746e .cfa: $rsp 80 +
STACK CFI 17528 .cfa: $rsp 56 +
STACK CFI 1752e .cfa: $rsp 48 +
STACK CFI 1752f .cfa: $rsp 40 +
STACK CFI 17531 .cfa: $rsp 32 +
STACK CFI 17533 .cfa: $rsp 24 +
STACK CFI 17535 .cfa: $rsp 16 +
STACK CFI 17537 .cfa: $rsp 8 +
STACK CFI 17540 .cfa: $rsp 80 +
STACK CFI 17544 .cfa: $rsp 56 +
STACK CFI 1754a .cfa: $rsp 48 +
STACK CFI 1754b .cfa: $rsp 40 +
STACK CFI 1754d .cfa: $rsp 32 +
STACK CFI 1754f .cfa: $rsp 24 +
STACK CFI 17551 .cfa: $rsp 16 +
STACK CFI 17553 .cfa: $rsp 8 +
STACK CFI 17558 .cfa: $rsp 80 +
STACK CFI 175d4 .cfa: $rsp 56 +
STACK CFI 175da .cfa: $rsp 48 +
STACK CFI 175db .cfa: $rsp 40 +
STACK CFI 175dd .cfa: $rsp 32 +
STACK CFI 175df .cfa: $rsp 24 +
STACK CFI 175e1 .cfa: $rsp 16 +
STACK CFI 175e3 .cfa: $rsp 8 +
STACK CFI INIT 175f0 2b2 .cfa: $rsp 8 + .ra: .cfa -8 + ^
STACK CFI 175f2 $r15: .cfa -16 + ^ .cfa: $rsp 16 +
STACK CFI 175f8 $r14: .cfa -24 + ^ .cfa: $rsp 24 +
STACK CFI 175fa $r13: .cfa -32 + ^ .cfa: $rsp 32 +
STACK CFI 175fc $r12: .cfa -40 + ^ .cfa: $rsp 40 +
STACK CFI 17600 $rbp: .cfa -48 + ^ .cfa: $rsp 48 +
STACK CFI 17601 $rbx: .cfa -56 + ^ .cfa: $rsp 56 +
STACK CFI 17608 .cfa: $rsp 80 +
STACK CFI 176d7 .cfa: $rsp 56 +
STACK CFI 176db .cfa: $rsp 48 +
STACK CFI 176dc .cfa: $rsp 40 +
STACK CFI 176de .cfa: $rsp 32 +
STACK CFI 176e0 .cfa: $rsp 24 +
STACK CFI 176e2 .cfa: $rsp 16 +
STACK CFI 176e4 .cfa: $rsp 8 +
STACK CFI 176e8 .cfa: $rsp 80 +
STACK CFI 177f9 .cfa: $rsp 56 +
STACK CFI 177fa .cfa: $rsp 48 +
STACK CFI 177fb .cfa: $rsp 40 +
STACK CFI 177fd .cfa: $rsp 32 +
STACK CFI 177ff .cfa: $rsp 24 +
STACK CFI 17801 .cfa: $rsp 16 +
STACK CFI 17803 .cfa: $rsp 8 +
STACK CFI 17808 .cfa: $rsp 80 +
STACK CFI 17849 .cfa: $rsp 56 +
STACK CFI 1784f .cfa: $rsp 48 +
STACK CFI 17850 .cfa: $rsp 40 +
STACK CFI 17852 .cfa: $rsp 32 +
STACK CFI 17854 .cfa: $rsp 24 +
STACK CFI 17856 .cfa: $rsp 16 +
STACK CFI 17858 .cfa: $rsp 8 +
STACK CFI 17860 .cfa: $rsp 80 +
STACK CFI 17864 .cfa: $rsp 56 +
STACK CFI 1786b .cfa: $rsp 48 +
STACK CFI 1786c .cfa: $rsp 40 +
STACK CFI 1786e .cfa: $rsp 32 +
STACK CFI 17870 .cfa: $rsp 24 +
STACK CFI 17872 .cfa: $rsp 16 +
STACK CFI 17874 .cfa: $rsp 8 +
STACK CFI 17880 .cfa: $rsp 80 +
STACK CFI INIT 178b0 23b .cfa: $rsp 8 + .ra: .cfa -8 + ^
STACK CFI 178b2 $r15: .cfa -16 + ^ .cfa: $rsp 16 +
STACK CFI 178b4 $r14: .cfa -24 + ^ .cfa: $rsp 24 +
STACK CFI 178b6 $r13: .cfa -32 + ^ .cfa: $rsp 32 +
STACK CFI 178b8 $r12: .cfa -40 + ^ .cfa: $rsp 40 +
STACK CFI 178bc $rbp: .cfa -48 + ^ .cfa: $rsp 48 +
STACK CFI 178bd $rbx: .cfa -56 + ^ .cfa: $rsp 56 +
STACK CFI 178c8 .cfa: $rsp 80 +
STACK CFI 17a01 .cfa: $rsp 56 +
STACK CFI 17a06 .cfa: $rsp 48 +
STACK CFI 17a07 .cfa: $rsp 40 +
STACK CFI 17a09 .cfa: $rsp 32 +
STACK CFI 17a0b .cfa: $rsp 24 +
STACK CFI 17a0d .cfa: $rsp 16 +
STACK CFI 17a0f .cfa: $rsp 8 +
STACK CFI 17a10 .cfa: $rsp 80 +
STACK CFI INIT 17af0 705 .cfa: $rsp 8 + .ra: .cfa -8 + ^
STACK CFI 17af2 $r15: .cfa -16 + ^ .cfa: $rsp 16 +
STACK CFI 17af4 $r14: .cfa -24 + ^ .cfa: $rsp 24 +
STACK CFI 17af9 $r13: .cfa -32 + ^ .cfa: $rsp 32 +
STACK CFI 17afb $r12: .cfa -40 + ^ .cfa: $rsp 40 +
STACK CFI 17aff $rbp: .cfa -48 + ^ .cfa: $rsp 48 +
STACK CFI 17b00 $rbx: .cfa -56 + ^ .cfa: $rsp 56 +
STACK CFI 17b14 .cfa: $rsp 160 +
STACK CFI 17c0c .cfa: $rsp 56 +
STACK CFI 17c0d .cfa: $rsp 48 +
STACK CFI 17c0e .cfa: $rsp 40 +
STACK CFI 17c10 .cfa: $rsp 32 +
STACK CFI 17c12 .cfa: $rsp 24 +
STACK CFI 17c14 .cfa: $rsp 16 +
STACK CFI 17c16 .cfa: $rsp 8 +
STACK CFI 17c20 .cfa: $rsp 160 +
STACK CFI INIT 18200 4b9 .cfa: $rsp 8 + .ra: .cfa -8 + ^
STACK CFI 18202 $r15: .cfa -16 + ^ .cfa: $rsp 16 +
STACK CFI 18204 $r14: .cfa -24 + ^ .cfa: $rsp 24 +
STACK CFI 18209 $r13: .cfa -32 + ^ .cfa: $rsp 32 +
STACK CFI 1820b $r12: .cfa -40 + ^ .cfa: $rsp 40 +
STACK CFI 1820f $rbp: .cfa -48 + ^ .cfa: $rsp 48 +
STACK CFI 18210 $rbx: .cfa -56 + ^ .cfa: $rsp 56 +
STACK CFI 1821a .cfa: $rsp 544 +
STACK CFI 185b6 .cfa: $rsp 56 +
STACK CFI 185b7 .cfa: $rsp 48 +
STACK CFI 185b8 .cfa: $rsp 40 +
STACK CFI 185ba .cfa: $rsp 32 +
STACK CFI 185bc .cfa: $rsp 24 +
STACK CFI 185be .cfa: $rsp 16 +
STACK CFI 185c0 .cfa: $rsp 8 +
STACK CFI 185c8 .cfa: $rsp 544 +
STACK CFI INIT 186c0 15e .cfa: $rsp 8 + .ra: .cfa -8 + ^
STACK CFI 186c2 $r15: .cfa -16 + ^ .cfa: $rsp 16 +
STACK CFI 186c4 $r14: .cfa -24 + ^ .cfa: $rsp 24 +
STACK CFI 186c9 $r13: .cfa -32 + ^ .cfa: $rsp 32 +
STACK CFI 186cb $r12: .cfa -40 + ^ .cfa: $rsp 40 +
STACK CFI 186ce $rbp: .cfa -48 + ^ .cfa: $rsp 48 +
STACK CFI 186cf $rbx: .cfa -56 + ^ .cfa: $rsp 56 +
STACK CFI 186d9 .cfa: $rsp 80 +
STACK CFI 187d5 .cfa: $rsp 56 +
STACK CFI 187d6 .cfa: $rsp 48 +
STACK CFI 187d7 .cfa: $rsp 40 +
STACK CFI 187d9 .cfa: $rsp 32 +
STACK CFI 187db .cfa: $rsp 24 +
STACK CFI 187dd .cfa: $rsp 16 +
STACK CFI 187df .cfa: $rsp 8 +
STACK CFI 187e0 .cfa: $rsp 80 +
STACK CFI INIT 18820 cc5 .cfa: $rsp 8 + .ra: .cfa -8 + ^
STACK CFI 18822 $r15: .cfa -16 + ^ .cfa: $rsp 16 +
STACK CFI 18824 $r14: .cfa -24 + ^ .cfa: $rsp 24 +
STACK CFI 18826 $r13: .cfa -32 + ^ .cfa: $rsp 32 +
STACK CFI 18828 $r12: .cfa -40 + ^ .cfa: $rsp 40 +
STACK CFI 18829 $rbp: .cfa -48 + ^ .cfa: $rsp 48 +
STACK CFI 1882a $rbx: .cfa -56 + ^ .cfa: $rsp 56 +
STACK CFI 18831 .cfa: $rsp 304 +
STACK CFI 18882 .cfa: $rsp 56 +
STACK CFI 18883 .cfa: $rsp 48 +
STACK CFI 18884 .cfa: $rsp 40 +
STACK CFI 18886 .cfa: $rsp 32 +
STACK CFI 18888 .cfa: $rsp 24 +
STACK CFI 1888a .cfa: $rsp 16 +
STACK CFI 1888c .cfa: $rsp 8 +
STACK CFI 18890 .cfa: $rsp 304 +
STACK CFI INIT 194f0 71f .cfa: $rsp 8 + .ra: .cfa -8 + ^
STACK CFI 194f2 $r15: .cfa -16 + ^ .cfa: $rsp 16 +
STACK CFI 194f4 $r14: .cfa -24 + ^ .cfa: $rsp 24 +
STACK CFI 194f9 $r13: .cfa -32 + ^ .cfa: $rsp 32 +
STACK CFI 194fb $r12: .cfa -40 + ^ .cfa: $rsp 40 +
STACK CFI 194ff $rbp: .cfa -48 + ^ .cfa: $rsp 48 +
STACK CFI 19500 $rbx: .cfa -56 + ^ .cfa: $rsp 56 +
STACK CFI 19514 .cfa: $rsp 176 +
STACK CFI 1960f .cfa: $rsp 56 +
STACK CFI 19610 .cfa: $rsp 48 +
STACK CFI 19611 .cfa: $rsp 40 +
STACK CFI 19613 .cfa: $rsp 32 +
STACK CFI 19615 .cfa: $rsp 24 +
STACK CFI 19617 .cfa: $rsp 16 +
STACK CFI 19619 .cfa: $rsp 8 +
STACK CFI 19620 .cfa: $rsp 176 +
STACK CFI INIT 19c10 4b9 .cfa: $rsp 8 + .ra: .cfa -8 + ^
STACK CFI 19c12 $r15: .cfa -16 + ^ .cfa: $rsp 16 +
STACK CFI 19c14 $r14: .cfa -24 + ^ .cfa: $rsp 24 +
STACK CFI 19c19 $r13: .cfa -32 + ^ .cfa: $rsp 32 +
STACK CFI 19c1b $r12: .cfa -40 + ^ .cfa: $rsp 40 +
STACK CFI 19c1f $rbp: .cfa -48 + ^ .cfa: $rsp 48 +
STACK CFI 19c20 $rbx: .cfa -56 + ^ .cfa: $rsp 56 +
STACK CFI 19c2a .cfa: $rsp 544 +
STACK CFI 19fc6 .cfa: $rsp 56 +
STACK CFI 19fc7 .cfa: $rsp 48 +
STACK CFI 19fc8 .cfa: $rsp 40 +
STACK CFI 19fca .cfa: $rsp 32 +
STACK CFI 19fcc .cfa: $rsp 24 +
STACK CFI 19fce .cfa: $rsp 16 +
STACK CFI 19fd0 .cfa: $rsp 8 +
STACK CFI 19fd8 .cfa: $rsp 544 +
STACK CFI INIT 1a0d0 15e .cfa: $rsp 8 + .ra: .cfa -8 + ^
STACK CFI 1a0d2 $r15: .cfa -16 + ^ .cfa: $rsp 16 +
STACK CFI 1a0d4 $r14: .cfa -24 + ^ .cfa: $rsp 24 +
STACK CFI 1a0d9 $r13: .cfa -32 + ^ .cfa: $rsp 32 +
STACK CFI 1a0db $r12: .cfa -40 + ^ .cfa: $rsp 40 +
STACK CFI 1a0de $rbp: .cfa -48 + ^ .cfa: $rsp 48 +
STACK CFI 1a0df $rbx: .cfa -56 + ^ .cfa: $rsp 56 +
STACK CFI 1a0e9 .cfa: $rsp 80 +
STACK CFI 1a1e5 .cfa: $rsp 56 +
STACK CFI 1a1e6 .cfa: $rsp 48 +
STACK CFI 1a1e7 .cfa: $rsp 40 +
STACK CFI 1a1e9 .cfa: $rsp 32 +
STACK CFI 1a1eb .cfa: $rsp 24 +
STACK CFI 1a1ed .cfa: $rsp 16 +
STACK CFI 1a1ef .cfa: $rsp 8 +
STACK CFI 1a1f0 .cfa: $rsp 80 +
STACK CFI INIT 1a230 cd7 .cfa: $rsp 8 + .ra: .cfa -8 + ^
STACK CFI 1a232 $r15: .cfa -16 + ^ .cfa: $rsp 16 +
STACK CFI 1a234 $r14: .cfa -24 + ^ .cfa: $rsp 24 +
STACK CFI 1a236 $r13: .cfa -32 + ^ .cfa: $rsp 32 +
STACK CFI 1a238 $r12: .cfa -40 + ^ .cfa: $rsp 40 +
STACK CFI 1a239 $rbp: .cfa -48 + ^ .cfa: $rsp 48 +
STACK CFI 1a23a $rbx: .cfa -56 + ^ .cfa: $rsp 56 +
STACK CFI 1a241 .cfa: $rsp 320 +
STACK CFI 1a292 .cfa: $rsp 56 +
STACK CFI 1a293 .cfa: $rsp 48 +
STACK CFI 1a294 .cfa: $rsp 40 +
STACK CFI 1a296 .cfa: $rsp 32 +
STACK CFI 1a298 .cfa: $rsp 24 +
STACK CFI 1a29a .cfa: $rsp 16 +
STACK CFI 1a29c .cfa: $rsp 8 +
STACK CFI 1a2a0 .cfa: $rsp 320 +
STACK CFI INIT 8c80 2e .cfa: $rsp 8 + .ra: .cfa -8 + ^
STACK CFI 8c8b .cfa: $rsp 16 +
STACK CFI 8ca9 .cfa: $rsp 8 +
STACK CFI INIT 1af10 115 .cfa: $rsp 8 + .ra: .cfa -8 + ^
STACK CFI INIT 1b030 3e .cfa: $rsp 8 + .ra: .cfa -8 + ^
STACK CFI INIT 1b070 26 .cfa: $rsp 8 + .ra: .cfa -8 + ^
STACK CFI 1b084 .cfa: $rsp 16 +
STACK CFI 1b091 .cfa: $rsp 8 +
STACK CFI INIT 1b0a0 4ae .cfa: $rsp 8 + .ra: .cfa -8 + ^
STACK CFI 1b0a2 $r13: .cfa -16 + ^ .cfa: $rsp 16 +
STACK CFI 1b0a4 $r12: .cfa -24 + ^ .cfa: $rsp 24 +
STACK CFI 1b0a5 $rbp: .cfa -32 + ^ .cfa: $rsp 32 +
STACK CFI 1b0a6 $rbx: .cfa -40 + ^ .cfa: $rsp 40 +
STACK CFI 1b0ad .cfa: $rsp 48 +
STACK CFI 1b0cb .cfa: $rsp 40 +
STACK CFI 1b0ce .cfa: $rsp 32 +
STACK CFI 1b0cf .cfa: $rsp 24 +
STACK CFI 1b0d1 .cfa: $rsp 16 +
STACK CFI 1b0d3 .cfa: $rsp 8 +
STACK CFI 1b0d8 .cfa: $rsp 48 +
STACK CFI INIT 1b550 63 .cfa: $rsp 8 + .ra: .cfa -8 + ^
STACK CFI 1b551 $rbp: .cfa -16 + ^ .cfa: $rsp 16 +
STACK CFI 1b552 $rbx: .cfa -24 + ^ .cfa: $rsp 24 +
STACK CFI 1b556 .cfa: $rsp 32 +
STACK CFI 1b564 .cfa: $rsp 24 +
STACK CFI 1b567 .cfa: $rsp 16 +
STACK CFI 1b568 .cfa: $rsp 8 +
STACK CFI 1b570 .cfa: $rsp 32 +
STACK CFI INIT 1b5c0 63 .cfa: $rsp 8 + .ra: .cfa -8 + ^
STACK CFI 1b5c1 $rbp: .cfa -16 + ^ .cfa: $rsp 16 +
STACK CFI 1b5c2 $rbx: .cfa -24 + ^ .cfa: $rsp 24 +
STACK CFI 1b5c6 .cfa: $rsp 32 +
STACK CFI 1b5d4 .cfa: $rsp 24 +
STACK CFI 1b5d7 .cfa: $rsp 16 +
STACK CFI 1b5d8 .cfa: $rsp 8 +
STACK CFI 1b5e0 .cfa: $rsp 32 +
STACK CFI INIT 1b630 2c .cfa: $rsp 8 + .ra: .cfa -8 + ^
STACK CFI 1b631 $rbx: .cfa -16 + ^ .cfa: $rsp 16 +
STACK CFI 1b65b .cfa: $rsp 8 +
STACK CFI INIT 1b660 f .cfa: $rsp 8 + .ra: .cfa -8 + ^
STACK CFI INIT 1b670 4 .cfa: $rsp 8 + .ra: .cfa -8 + ^
STACK CFI INIT 1b680 9d .cfa: $rsp 8 + .ra: .cfa -8 + ^
STACK CFI 1b681 $rbp: .cfa -16 + ^ .cfa: $rsp 16 +
STACK CFI 1b682 $rbx: .cfa -24 + ^ .cfa: $rsp 24 +
STACK CFI 1b689 .cfa: $rsp 48 +
STACK CFI 1b6bd .cfa: $rsp 24 +
STACK CFI 1b6be .cfa: $rsp 16 +
STACK CFI 1b6bf .cfa: $rsp 8 +
STACK CFI 1b6c0 .cfa: $rsp 48 +
STACK CFI INIT 1b720 9d .cfa: $rsp 8 + .ra: .cfa -8 + ^
STACK CFI 1b721 $rbp: .cfa -16 + ^ .cfa: $rsp 16 +
STACK CFI 1b722 $rbx: .cfa -24 + ^ .cfa: $rsp 24 +
STACK CFI 1b729 .cfa: $rsp 48 +
STACK CFI 1b75d .cfa: $rsp 24 +
STACK CFI 1b75e .cfa: $rsp 16 +
STACK CFI 1b75f .cfa: $rsp 8 +
STACK CFI 1b760 .cfa: $rsp 48 +
STACK CFI INIT 1b7c0 9d .cfa: $rsp 8 + .ra: .cfa -8 + ^
STACK CFI 1b7c1 $rbp: .cfa -16 + ^ .cfa: $rsp 16 +
STACK CFI 1b7c2 $rbx: .cfa -24 + ^ .cfa: $rsp 24 +
STACK CFI 1b7c9 .cfa: $rsp 48 +
STACK CFI 1b7fd .cfa: $rsp 24 +
STACK CFI 1b7fe .cfa: $rsp 16 +
STACK CFI 1b7ff .cfa: $rsp 8 +
STACK CFI 1b800 .cfa: $rsp 48 +
STACK CFI INIT 1b860 9d .cfa: $rsp 8 + .ra: .cfa -8 + ^
STACK CFI 1b861 $rbp: .cfa -16 + ^ .cfa: $rsp 16 +
STACK CFI 1b862 $rbx: .cfa -24 + ^ .cfa: $rsp 24 +
STACK CFI 1b869 .cfa: $rsp 48 +
STACK CFI 1b89d .cfa: $rsp 24 +
STACK CFI 1b89e .cfa: $rsp 16 +
STACK CFI 1b89f .cfa: $rsp 8 +
STACK CFI 1b8a0 .cfa: $rsp 48 +
STACK CFI INIT 1b900 9d .cfa: $rsp 8 + .ra: .cfa -8 + ^
STACK CFI 1b901 $rbp: .cfa -16 + ^ .cfa: $rsp 16 +
STACK CFI 1b902 $rbx: .cfa -24 + ^ .cfa: $rsp 24 +
STACK CFI 1b909 .cfa: $rsp 48 +
STACK CFI 1b93d .cfa: $rsp 24 +
STACK CFI 1b93e .cfa: $rsp 16 +
STACK CFI 1b93f .cfa: $rsp 8 +
STACK CFI 1b940 .cfa: $rsp 48 +
STACK CFI INIT 1b9a0 9d .cfa: $rsp 8 + .ra: .cfa -8 + ^
STACK CFI 1b9a1 $rbp: .cfa -16 + ^ .cfa: $rsp 16 +
STACK CFI 1b9a2 $rbx: .cfa -24 + ^ .cfa: $rsp 24 +
STACK CFI 1b9a9 .cfa: $rsp 48 +
STACK CFI 1b9dd .cfa: $rsp 24 +
STACK CFI 1b9de .cfa: $rsp 16 +
STACK CFI 1b9df .cfa: $rsp 8 +
STACK CFI 1b9e0 .cfa: $rsp 48 +
STACK CFI INIT 1ba40 9d .cfa: $rsp 8 + .ra: .cfa -8 + ^
STACK CFI 1ba41 $rbp: .cfa -16 + ^ .cfa: $rsp 16 +
STACK CFI 1ba42 $rbx: .cfa -24 + ^ .cfa: $rsp 24 +
STACK CFI 1ba49 .cfa: $rsp 48 +
STACK CFI 1ba7d .cfa: $rsp 24 +
STACK CFI 1ba7e .cfa: $rsp 16 +
STACK CFI 1ba7f .cfa: $rsp 8 +
STACK CFI 1ba80 .cfa: $rsp 48 +
STACK CFI INIT 1bae0 ad .cfa: $rsp 8 + .ra: .cfa -8 + ^
STACK CFI 1bae1 $rbp: .cfa -16 + ^ .cfa: $rsp 16 +
STACK CFI 1bae2 $rbx: .cfa -24 + ^ .cfa: $rsp 24 +
STACK CFI 1bae9 .cfa: $rsp 48 +
STACK CFI 1bb2c .cfa: $rsp 24 +
STACK CFI 1bb2d .cfa: $rsp 16 +
STACK CFI 1bb2e .cfa: $rsp 8 +
STACK CFI 1bb30 .cfa: $rsp 48 +
STACK CFI INIT 1bb90 28f .cfa: $rsp 8 + .ra: .cfa -8 + ^
STACK CFI 1bb92 $r13: .cfa -16 + ^ .cfa: $rsp 16 +
STACK CFI 1bb94 $r12: .cfa -24 + ^ .cfa: $rsp 24 +
STACK CFI 1bb98 $rbp: .cfa -32 + ^ .cfa: $rsp 32 +
STACK CFI 1bb99 $rbx: .cfa -40 + ^ .cfa: $rsp 40 +
STACK CFI 1bba0 .cfa: $rsp 64 +
STACK CFI 1bc26 .cfa: $rsp 40 +
STACK CFI 1bc27 .cfa: $rsp 32 +
STACK CFI 1bc28 .cfa: $rsp 24 +
STACK CFI 1bc2a .cfa: $rsp 16 +
STACK CFI 1bc2c .cfa: $rsp 8 +
STACK CFI 1bc30 .cfa: $rsp 64 +
STACK CFI INIT 1be20 28f .cfa: $rsp 8 + .ra: .cfa -8 + ^
STACK CFI 1be22 $r13: .cfa -16 + ^ .cfa: $rsp 16 +
STACK CFI 1be24 $r12: .cfa -24 + ^ .cfa: $rsp 24 +
STACK CFI 1be28 $rbp: .cfa -32 + ^ .cfa: $rsp 32 +
STACK CFI 1be29 $rbx: .cfa -40 + ^ .cfa: $rsp 40 +
STACK CFI 1be30 .cfa: $rsp 64 +
STACK CFI 1beb6 .cfa: $rsp 40 +
STACK CFI 1beb7 .cfa: $rsp 32 +
STACK CFI 1beb8 .cfa: $rsp 24 +
STACK CFI 1beba .cfa: $rsp 16 +
STACK CFI 1bebc .cfa: $rsp 8 +
STACK CFI 1bec0 .cfa: $rsp 64 +
STACK CFI INIT 1c0b0 4 .cfa: $rsp 8 + .ra: .cfa -8 + ^
STACK CFI INIT 1c0c0 5 .cfa: $rsp 8 + .ra: .cfa -8 + ^
STACK CFI INIT 1c0d0 5 .cfa: $rsp 8 + .ra: .cfa -8 + ^
STACK CFI INIT 1c0e0 5 .cfa: $rsp 8 + .ra: .cfa -8 + ^
STACK CFI INIT 1c0f0 5 .cfa: $rsp 8 + .ra: .cfa -8 + ^
STACK CFI INIT 1c100 5 .cfa: $rsp 8 + .ra: .cfa -8 + ^
STACK CFI INIT 1c110 5 .cfa: $rsp 8 + .ra: .cfa -8 + ^
STACK CFI INIT 1c120 5 .cfa: $rsp 8 + .ra: .cfa -8 + ^
STACK CFI INIT 1c130 5 .cfa: $rsp 8 + .ra: .cfa -8 + ^
STACK CFI INIT 1c140 11b .cfa: $rsp 8 + .ra: .cfa -8 + ^
STACK CFI 1c141 $rbx: .cfa -16 + ^ .cfa: $rsp 16 +
STACK CFI 1c1cd .cfa: $rsp 8 +
STACK CFI 1c1d0 .cfa: $rsp 16 +
STACK CFI INIT 1c260 13 .cfa: $rsp 8 + .ra: .cfa -8 + ^
STACK CFI INIT 1c280 17 .cfa: $rsp 8 + .ra: .cfa -8 + ^
STACK CFI 1c281 $rbx: .cfa -16 + ^ .cfa: $rsp 16 +
STACK CFI 1c292 .cfa: $rsp 8 +
STACK CFI INIT 1c2a0 116a .cfa: $rsp 8 + .ra: .cfa -8 + ^
STACK CFI 1c2a2 $r13: .cfa -16 + ^ .cfa: $rsp 16 +
STACK CFI 1c2a4 $r12: .cfa -24 + ^ .cfa: $rsp 24 +
STACK CFI 1c2a5 $rbp: .cfa -32 + ^ .cfa: $rsp 32 +
STACK CFI 1c2a6 $rbx: .cfa -40 + ^ .cfa: $rsp 40 +
STACK CFI 1c2ad .cfa: $rsp 208 +
STACK CFI 1c328 .cfa: $rsp 40 +
STACK CFI 1c329 .cfa: $rsp 32 +
STACK CFI 1c32a .cfa: $rsp 24 +
STACK CFI 1c32c .cfa: $rsp 16 +
STACK CFI 1c32e .cfa: $rsp 8 +
STACK CFI 1c330 .cfa: $rsp 208 +
STACK CFI INIT 8cb0 2e .cfa: $rsp 8 + .ra: .cfa -8 + ^
STACK CFI 8cbb .cfa: $rsp 16 +
STACK CFI 8cd9 .cfa: $rsp 8 +
STACK CFI INIT 1d410 4 .cfa: $rsp 8 + .ra: .cfa -8 + ^
STACK CFI INIT 1d420 17 .cfa: $rsp 8 + .ra: .cfa -8 + ^
STACK CFI INIT 1d440 6 .cfa: $rsp 8 + .ra: .cfa -8 + ^
STACK CFI INIT 1d450 16f .cfa: $rsp 8 + .ra: .cfa -8 + ^
STACK CFI 1d452 $r13: .cfa -16 + ^ .cfa: $rsp 16 +
STACK CFI 1d454 $r12: .cfa -24 + ^ .cfa: $rsp 24 +
STACK CFI 1d458 $rbp: .cfa -32 + ^ .cfa: $rsp 32 +
STACK CFI 1d459 $rbx: .cfa -40 + ^ .cfa: $rsp 40 +
STACK CFI 1d463 .cfa: $rsp 64 +
STACK CFI 1d4da .cfa: $rsp 40 +
STACK CFI 1d4db .cfa: $rsp 32 +
STACK CFI 1d4dc .cfa: $rsp 24 +
STACK CFI 1d4de .cfa: $rsp 16 +
STACK CFI 1d4e0 .cfa: $rsp 8 +
STACK CFI 1d4e8 .cfa: $rsp 64 +
STACK CFI INIT 1d5c0 7 .cfa: $rsp 8 + .ra: .cfa -8 + ^
STACK CFI INIT 1d5d0 2a .cfa: $rsp 8 + .ra: .cfa -8 + ^
STACK CFI INIT 8ce0 2e .cfa: $rsp 8 + .ra: .cfa -8 + ^
STACK CFI 8ceb .cfa: $rsp 16 +
STACK CFI 8d09 .cfa: $rsp 8 +
STACK CFI INIT 20830 3 .cfa: $rsp 8 + .ra: .cfa -8 + ^
STACK CFI INIT 20840 2 .cfa: $rsp 8 + .ra: .cfa -8 + ^
STACK CFI INIT 20850 a .cfa: $rsp 8 + .ra: .cfa -8 + ^
STACK CFI INIT 1d600 c8 .cfa: $rsp 8 + .ra: .cfa -8 + ^
STACK CFI 1d602 $r12: .cfa -16 + ^ .cfa: $rsp 16 +
STACK CFI 1d603 $rbp: .cfa -24 + ^ .cfa: $rsp 24 +
STACK CFI 1d607 $rbx: .cfa -32 + ^ .cfa: $rsp 32 +
STACK CFI 1d60e .cfa: $rsp 48 +
STACK CFI 1d674 .cfa: $rsp 32 +
STACK CFI 1d675 .cfa: $rsp 24 +
STACK CFI 1d676 .cfa: $rsp 16 +
STACK CFI 1d678 .cfa: $rsp 8 +
STACK CFI 1d680 .cfa: $rsp 48 +
STACK CFI INIT 1d6d0 1d .cfa: $rsp 8 + .ra: .cfa -8 + ^
STACK CFI 1d6d1 $rbx: .cfa -16 + ^ .cfa: $rsp 16 +
STACK CFI 1d6ec .cfa: $rsp 8 +
STACK CFI INIT 1d6f0 29 .cfa: $rsp 8 + .ra: .cfa -8 + ^
STACK CFI 1d6f1 $rbp: .cfa -16 + ^ .cfa: $rsp 16 +
STACK CFI 1d6f2 $rbx: .cfa -24 + ^ .cfa: $rsp 24 +
STACK CFI 1d6fb .cfa: $rsp 32 +
STACK CFI 1d716 .cfa: $rsp 24 +
STACK CFI 1d717 .cfa: $rsp 16 +
STACK CFI 1d718 .cfa: $rsp 8 +
STACK CFI INIT 1d720 856 .cfa: $rsp 8 + .ra: .cfa -8 + ^
STACK CFI 1d722 $r15: .cfa -16 + ^ .cfa: $rsp 16 +
STACK CFI 1d724 $r14: .cfa -24 + ^ .cfa: $rsp 24 +
STACK CFI 1d726 $r13: .cfa -32 + ^ .cfa: $rsp 32 +
STACK CFI 1d728 $r12: .cfa -40 + ^ .cfa: $rsp 40 +
STACK CFI 1d729 $rbp: .cfa -48 + ^ .cfa: $rsp 48 +
STACK CFI 1d72a $rbx: .cfa -56 + ^ .cfa: $rsp 56 +
STACK CFI 1d731 .cfa: $rsp 208 +
STACK CFI 1d88c .cfa: $rsp 56 +
STACK CFI 1d88d .cfa: $rsp 48 +
STACK CFI 1d88e .cfa: $rsp 40 +
STACK CFI 1d890 .cfa: $rsp 32 +
STACK CFI 1d892 .cfa: $rsp 24 +
STACK CFI 1d894 .cfa: $rsp 16 +
STACK CFI 1d896 .cfa: $rsp 8 +
STACK CFI 1d8a0 .cfa: $rsp 208 +
STACK CFI INIT 1df80 310 .cfa: $rsp 8 + .ra: .cfa -8 + ^
STACK CFI 1df82 $r15: .cfa -16 + ^ .cfa: $rsp 16 +
STACK CFI 1df84 $r14: .cfa -24 + ^ .cfa: $rsp 24 +
STACK CFI 1df89 $r13: .cfa -32 + ^ .cfa: $rsp 32 +
STACK CFI 1df8b $r12: .cfa -40 + ^ .cfa: $rsp 40 +
STACK CFI 1df8c $rbp: .cfa -48 + ^ .cfa: $rsp 48 +
STACK CFI 1df8d $rbx: .cfa -56 + ^ .cfa: $rsp 56 +
STACK CFI 1df94 .cfa: $rsp 1168 +
STACK CFI 1e01f .cfa: $rsp 56 +
STACK CFI 1e020 .cfa: $rsp 48 +
STACK CFI 1e021 .cfa: $rsp 40 +
STACK CFI 1e023 .cfa: $rsp 32 +
STACK CFI 1e025 .cfa: $rsp 24 +
STACK CFI 1e027 .cfa: $rsp 16 +
STACK CFI 1e029 .cfa: $rsp 8 +
STACK CFI 1e030 .cfa: $rsp 1168 +
STACK CFI 1e140 .cfa: $rsp 1176 +
STACK CFI 1e151 .cfa: $rsp 1184 +
STACK CFI 1e16d .cfa: $rsp 1176 +
STACK CFI 1e16e .cfa: $rsp 1168 +
STACK CFI INIT 1e290 19f .cfa: $rsp 8 + .ra: .cfa -8 + ^
STACK CFI 1e292 $r13: .cfa -16 + ^ .cfa: $rsp 16 +
STACK CFI 1e294 $r12: .cfa -24 + ^ .cfa: $rsp 24 +
STACK CFI 1e295 $rbp: .cfa -32 + ^ .cfa: $rsp 32 +
STACK CFI 1e296 $rbx: .cfa -40 + ^ .cfa: $rsp 40 +
STACK CFI 1e29d .cfa: $rsp 128 +
STACK CFI 1e347 .cfa: $rsp 40 +
STACK CFI 1e348 .cfa: $rsp 32 +
STACK CFI 1e349 .cfa: $rsp 24 +
STACK CFI 1e34b .cfa: $rsp 16 +
STACK CFI 1e34d .cfa: $rsp 8 +
STACK CFI 1e350 .cfa: $rsp 128 +
STACK CFI INIT 1e430 26a .cfa: $rsp 8 + .ra: .cfa -8 + ^
STACK CFI 1e432 $r15: .cfa -16 + ^ .cfa: $rsp 16 +
STACK CFI 1e434 $r14: .cfa -24 + ^ .cfa: $rsp 24 +
STACK CFI 1e436 $r13: .cfa -32 + ^ .cfa: $rsp 32 +
STACK CFI 1e438 $r12: .cfa -40 + ^ .cfa: $rsp 40 +
STACK CFI 1e439 $rbp: .cfa -48 + ^ .cfa: $rsp 48 +
STACK CFI 1e43a $rbx: .cfa -56 + ^ .cfa: $rsp 56 +
STACK CFI 1e43e .cfa: $rsp 160 +
STACK CFI 1e55e .cfa: $rsp 56 +
STACK CFI 1e55f .cfa: $rsp 48 +
STACK CFI 1e560 .cfa: $rsp 40 +
STACK CFI 1e562 .cfa: $rsp 32 +
STACK CFI 1e564 .cfa: $rsp 24 +
STACK CFI 1e566 .cfa: $rsp 16 +
STACK CFI 1e568 .cfa: $rsp 8 +
STACK CFI 1e570 .cfa: $rsp 160 +
STACK CFI INIT 1e6a0 3c .cfa: $rsp 8 + .ra: .cfa -8 + ^
STACK CFI 1e6a1 $rbx: .cfa -16 + ^ .cfa: $rsp 16 +
STACK CFI 1e6ce .cfa: $rsp 8 +
STACK CFI 1e6d8 .cfa: $rsp 16 +
STACK CFI 1e6db .cfa: $rsp 8 +
STACK CFI INIT 1e6e0 48 .cfa: $rsp 8 + .ra: .cfa -8 + ^
STACK CFI INIT 1e730 576 .cfa: $rsp 8 + .ra: .cfa -8 + ^
STACK CFI 1e732 $r15: .cfa -16 + ^ .cfa: $rsp 16 +
STACK CFI 1e734 $r14: .cfa -24 + ^ .cfa: $rsp 24 +
STACK CFI 1e736 $r13: .cfa -32 + ^ .cfa: $rsp 32 +
STACK CFI 1e738 $r12: .cfa -40 + ^ .cfa: $rsp 40 +
STACK CFI 1e73c $rbp: .cfa -48 + ^ .cfa: $rsp 48 +
STACK CFI 1e73d $rbx: .cfa -56 + ^ .cfa: $rsp 56 +
STACK CFI 1e747 .cfa: $rsp 544 +
STACK CFI 1eb2c .cfa: $rsp 56 +
STACK CFI 1eb2d .cfa: $rsp 48 +
STACK CFI 1eb2e .cfa: $rsp 40 +
STACK CFI 1eb30 .cfa: $rsp 32 +
STACK CFI 1eb32 .cfa: $rsp 24 +
STACK CFI 1eb34 .cfa: $rsp 16 +
STACK CFI 1eb36 .cfa: $rsp 8 +
STACK CFI 1eb40 .cfa: $rsp 544 +
STACK CFI INIT 1ecb0 1163 .cfa: $rsp 8 + .ra: .cfa -8 + ^
STACK CFI 1ecb2 $r15: .cfa -16 + ^ .cfa: $rsp 16 +
STACK CFI 1ecb4 $r14: .cfa -24 + ^ .cfa: $rsp 24 +
STACK CFI 1ecb9 $r13: .cfa -32 + ^ .cfa: $rsp 32 +
STACK CFI 1ecbb $r12: .cfa -40 + ^ .cfa: $rsp 40 +
STACK CFI 1ecbc $rbp: .cfa -48 + ^ .cfa: $rsp 48 +
STACK CFI 1ecbd $rbx: .cfa -56 + ^ .cfa: $rsp 56 +
STACK CFI 1ecc4 .cfa: $rsp 1248 +
STACK CFI 1ed69 .cfa: $rsp 56 +
STACK CFI 1ed6a .cfa: $rsp 48 +
STACK CFI 1ed6b .cfa: $rsp 40 +
STACK CFI 1ed6d .cfa: $rsp 32 +
STACK CFI 1ed6f .cfa: $rsp 24 +
STACK CFI 1ed71 .cfa: $rsp 16 +
STACK CFI 1ed73 .cfa: $rsp 8 +
STACK CFI 1ed78 .cfa: $rsp 1248 +
STACK CFI INIT 1fe20 6c5 .cfa: $rsp 8 + .ra: .cfa -8 + ^
STACK CFI 1fe22 $r15: .cfa -16 + ^ .cfa: $rsp 16 +
STACK CFI 1fe24 $r14: .cfa -24 + ^ .cfa: $rsp 24 +
STACK CFI 1fe26 $r13: .cfa -32 + ^ .cfa: $rsp 32 +
STACK CFI 1fe28 $r12: .cfa -40 + ^ .cfa: $rsp 40 +
STACK CFI 1fe2c $rbp: .cfa -48 + ^ .cfa: $rsp 48 +
STACK CFI 1fe2d $rbx: .cfa -56 + ^ .cfa: $rsp 56 +
STACK CFI 1fe37 .cfa: $rsp 4400 +
STACK CFI 20035 .cfa: $rsp 56 +
STACK CFI 20036 .cfa: $rsp 48 +
STACK CFI 20037 .cfa: $rsp 40 +
STACK CFI 20039 .cfa: $rsp 32 +
STACK CFI 2003b .cfa: $rsp 24 +
STACK CFI 2003d .cfa: $rsp 16 +
STACK CFI 2003f .cfa: $rsp 8 +
STACK CFI 20040 .cfa: $rsp 4400 +
STACK CFI INIT 204f0 336 .cfa: $rsp 8 + .ra: .cfa -8 + ^
STACK CFI 204f2 $r13: .cfa -16 + ^ .cfa: $rsp 16 +
STACK CFI 204f4 $r12: .cfa -24 + ^ .cfa: $rsp 24 +
STACK CFI 204f8 $rbp: .cfa -32 + ^ .cfa: $rsp 32 +
STACK CFI 204f9 $rbx: .cfa -40 + ^ .cfa: $rsp 40 +
STACK CFI 204fd .cfa: $rsp 80 +
STACK CFI 205b2 .cfa: $rsp 40 +
STACK CFI 205b3 .cfa: $rsp 32 +
STACK CFI 205b4 .cfa: $rsp 24 +
STACK CFI 205b6 .cfa: $rsp 16 +
STACK CFI 205b8 .cfa: $rsp 8 +
STACK CFI 205c0 .cfa: $rsp 80 +
STACK CFI INIT 8d10 2e .cfa: $rsp 8 + .ra: .cfa -8 + ^
STACK CFI 8d1b .cfa: $rsp 16 +
STACK CFI 8d39 .cfa: $rsp 8 +
STACK CFI INIT 20f20 2 .cfa: $rsp 8 + .ra: .cfa -8 + ^
STACK CFI INIT 20f30 a .cfa: $rsp 8 + .ra: .cfa -8 + ^
STACK CFI INIT 20860 69e .cfa: $rsp 8 + .ra: .cfa -8 + ^
STACK CFI 20862 $r15: .cfa -16 + ^ .cfa: $rsp 16 +
STACK CFI 20864 $r14: .cfa -24 + ^ .cfa: $rsp 24 +
STACK CFI 20866 $r13: .cfa -32 + ^ .cfa: $rsp 32 +
STACK CFI 20868 $r12: .cfa -40 + ^ .cfa: $rsp 40 +
STACK CFI 20869 $rbp: .cfa -48 + ^ .cfa: $rsp 48 +
STACK CFI 2086a $rbx: .cfa -56 + ^ .cfa: $rsp 56 +
STACK CFI 20874 .cfa: $rsp 384 +
STACK CFI 20a64 .cfa: $rsp 56 +
STACK CFI 20a65 .cfa: $rsp 48 +
STACK CFI 20a66 .cfa: $rsp 40 +
STACK CFI 20a68 .cfa: $rsp 32 +
STACK CFI 20a6a .cfa: $rsp 24 +
STACK CFI 20a6c .cfa: $rsp 16 +
STACK CFI 20a6e .cfa: $rsp 8 +
STACK CFI 20a70 .cfa: $rsp 384 +
STACK CFI INIT 20f00 19 .cfa: $rsp 8 + .ra: .cfa -8 + ^
STACK CFI 20f01 $rbx: .cfa -16 + ^ .cfa: $rsp 16 +
STACK CFI 20f18 .cfa: $rsp 8 +
STACK CFI INIT 8d40 2e .cfa: $rsp 8 + .ra: .cfa -8 + ^
STACK CFI 8d4b .cfa: $rsp 16 +
STACK CFI 8d69 .cfa: $rsp 8 +
STACK CFI INIT 20f40 2d8 .cfa: $rsp 8 + .ra: .cfa -8 + ^
STACK CFI 20f42 $r15: .cfa -16 + ^ .cfa: $rsp 16 +
STACK CFI 20f44 $r14: .cfa -24 + ^ .cfa: $rsp 24 +
STACK CFI 20f49 $r13: .cfa -32 + ^ .cfa: $rsp 32 +
STACK CFI 20f4b $r12: .cfa -40 + ^ .cfa: $rsp 40 +
STACK CFI 20f4f $rbp: .cfa -48 + ^ .cfa: $rsp 48 +
STACK CFI 20f50 $rbx: .cfa -56 + ^ .cfa: $rsp 56 +
STACK CFI 20f5d .cfa: $rsp 256 +
STACK CFI 2115d .cfa: $rsp 56 +
STACK CFI 2115e .cfa: $rsp 48 +
STACK CFI 2115f .cfa: $rsp 40 +
STACK CFI 21161 .cfa: $rsp 32 +
STACK CFI 21163 .cfa: $rsp 24 +
STACK CFI 21165 .cfa: $rsp 16 +
STACK CFI 21167 .cfa: $rsp 8 +
STACK CFI 21170 .cfa: $rsp 256 +
STACK CFI INIT 21220 6c .cfa: $rsp 8 + .ra: .cfa -8 + ^
STACK CFI 21221 $rbp: .cfa -16 + ^ .cfa: $rsp 16 +
STACK CFI 21222 $rbx: .cfa -24 + ^ .cfa: $rsp 24 +
STACK CFI 21226 .cfa: $rsp 32 +
STACK CFI 21254 .cfa: $rsp 24 +
STACK CFI 21258 .cfa: $rsp 16 +
STACK CFI 21259 .cfa: $rsp 8 +
STACK CFI 21260 .cfa: $rsp 32 +
STACK CFI INIT 21290 dc .cfa: $rsp 8 + .ra: .cfa -8 + ^
STACK CFI 21292 $r13: .cfa -16 + ^ .cfa: $rsp 16 +
STACK CFI 21294 $r12: .cfa -24 + ^ .cfa: $rsp 24 +
STACK CFI 2129c $rbp: .cfa -32 + ^ .cfa: $rsp 32 +
STACK CFI 2129d $rbx: .cfa -40 + ^ .cfa: $rsp 40 +
STACK CFI 212b0 .cfa: $rsp 80 +
STACK CFI 2131d .cfa: $rsp 40 +
STACK CFI 2131e .cfa: $rsp 32 +
STACK CFI 2131f .cfa: $rsp 24 +
STACK CFI 21321 .cfa: $rsp 16 +
STACK CFI 21323 .cfa: $rsp 8 +
STACK CFI 21328 .cfa: $rsp 80 +
STACK CFI INIT 21370 110 .cfa: $rsp 8 + .ra: .cfa -8 + ^
STACK CFI 21372 $r12: .cfa -16 + ^ .cfa: $rsp 16 +
STACK CFI 21373 $rbp: .cfa -24 + ^ .cfa: $rsp 24 +
STACK CFI 2137b $rbx: .cfa -32 + ^ .cfa: $rsp 32 +
STACK CFI 21394 .cfa: $rsp 80 +
STACK CFI 2142e .cfa: $rsp 32 +
STACK CFI 2142f .cfa: $rsp 24 +
STACK CFI 21430 .cfa: $rsp 16 +
STACK CFI 21432 .cfa: $rsp 8 +
STACK CFI 21438 .cfa: $rsp 80 +
STACK CFI INIT 21480 110 .cfa: $rsp 8 + .ra: .cfa -8 + ^
STACK CFI 21482 $r12: .cfa -16 + ^ .cfa: $rsp 16 +
STACK CFI 21483 $rbp: .cfa -24 + ^ .cfa: $rsp 24 +
STACK CFI 2148b $rbx: .cfa -32 + ^ .cfa: $rsp 32 +
STACK CFI 214a4 .cfa: $rsp 80 +
STACK CFI 2153e .cfa: $rsp 32 +
STACK CFI 2153f .cfa: $rsp 24 +
STACK CFI 21540 .cfa: $rsp 16 +
STACK CFI 21542 .cfa: $rsp 8 +
STACK CFI 21548 .cfa: $rsp 80 +
STACK CFI INIT 21590 3c .cfa: $rsp 8 + .ra: .cfa -8 + ^
STACK CFI 21592 $r12: .cfa -16 + ^ .cfa: $rsp 16 +
STACK CFI 21593 $rbp: .cfa -24 + ^ .cfa: $rsp 24 +
STACK CFI 21597 $rbx: .cfa -32 + ^ .cfa: $rsp 32 +
STACK CFI 215c8 .cfa: $rsp 24 +
STACK CFI 215c9 .cfa: $rsp 16 +
STACK CFI 215cb .cfa: $rsp 8 +
STACK CFI INIT 8d70 2e .cfa: $rsp 8 + .ra: .cfa -8 + ^
STACK CFI 8d7b .cfa: $rsp 16 +
STACK CFI 8d99 .cfa: $rsp 8 +
STACK CFI INIT 371f0 2 .cfa: $rsp 8 + .ra: .cfa -8 + ^
STACK CFI INIT 37200 d .cfa: $rsp 8 + .ra: .cfa -8 + ^
STACK CFI INIT 37210 13 .cfa: $rsp 8 + .ra: .cfa -8 + ^
STACK CFI INIT 37250 d .cfa: $rsp 8 + .ra: .cfa -8 + ^
STACK CFI INIT 37270 3 .cfa: $rsp 8 + .ra: .cfa -8 + ^
STACK CFI INIT 37290 d .cfa: $rsp 8 + .ra: .cfa -8 + ^
STACK CFI INIT 372b0 e .cfa: $rsp 8 + .ra: .cfa -8 + ^
STACK CFI INIT 372d0 d .cfa: $rsp 8 + .ra: .cfa -8 + ^
STACK CFI INIT 372f0 6 .cfa: $rsp 8 + .ra: .cfa -8 + ^
STACK CFI INIT 37310 d .cfa: $rsp 8 + .ra: .cfa -8 + ^
STACK CFI INIT 37330 13 .cfa: $rsp 8 + .ra: .cfa -8 + ^
STACK CFI INIT 37350 5 .cfa: $rsp 8 + .ra: .cfa -8 + ^
STACK CFI INIT 37360 5 .cfa: $rsp 8 + .ra: .cfa -8 + ^
STACK CFI INIT 37370 5 .cfa: $rsp 8 + .ra: .cfa -8 + ^
STACK CFI INIT 37380 5 .cfa: $rsp 8 + .ra: .cfa -8 + ^
STACK CFI INIT 37390 8 .cfa: $rsp 8 + .ra: .cfa -8 + ^
STACK CFI INIT 215d0 f .cfa: $rsp 8 + .ra: .cfa -8 + ^
STACK CFI INIT 215e0 3a .cfa: $rsp 8 + .ra: .cfa -8 + ^
STACK CFI 215e8 $rbx: .cfa -16 + ^ .cfa: $rsp 16 +
STACK CFI 2160e .cfa: $rsp 8 +
STACK CFI 21618 .cfa: $rsp 16 +
STACK CFI 21619 .cfa: $rsp 8 +
STACK CFI INIT 21620 3 .cfa: $rsp 8 + .ra: .cfa -8 + ^
STACK CFI INIT 21630 2 .cfa: $rsp 8 + .ra: .cfa -8 + ^
STACK CFI INIT 21640 1b .cfa: $rsp 8 + .ra: .cfa -8 + ^
STACK CFI INIT 21660 6 .cfa: $rsp 8 + .ra: .cfa -8 + ^
STACK CFI INIT 21670 6 .cfa: $rsp 8 + .ra: .cfa -8 + ^
STACK CFI INIT 21680 8 .cfa: $rsp 8 + .ra: .cfa -8 + ^
STACK CFI INIT 21690 6 .cfa: $rsp 8 + .ra: .cfa -8 + ^
STACK CFI INIT 216a0 22 .cfa: $rsp 8 + .ra: .cfa -8 + ^
STACK CFI INIT 216d0 3 .cfa: $rsp 8 + .ra: .cfa -8 + ^
STACK CFI INIT 216e0 8 .cfa: $rsp 8 + .ra: .cfa -8 + ^
STACK CFI INIT 216f0 6 .cfa: $rsp 8 + .ra: .cfa -8 + ^
STACK CFI INIT 21700 288 .cfa: $rsp 8 + .ra: .cfa -8 + ^
STACK CFI INIT 373a0 2 .cfa: $rsp 8 + .ra: .cfa -8 + ^
STACK CFI INIT 373b0 2 .cfa: $rsp 8 + .ra: .cfa -8 + ^
STACK CFI INIT 373c0 a .cfa: $rsp 8 + .ra: .cfa -8 + ^
STACK CFI INIT 21990 17 .cfa: $rsp 8 + .ra: .cfa -8 + ^
STACK CFI 21991 $rbx: .cfa -16 + ^ .cfa: $rsp 16 +
STACK CFI 219a2 .cfa: $rsp 8 +
STACK CFI INIT 373d0 a .cfa: $rsp 8 + .ra: .cfa -8 + ^
STACK CFI INIT 219b0 17 .cfa: $rsp 8 + .ra: .cfa -8 + ^
STACK CFI 219b1 $rbx: .cfa -16 + ^ .cfa: $rsp 16 +
STACK CFI 219c2 .cfa: $rsp 8 +
STACK CFI INIT 373e0 a .cfa: $rsp 8 + .ra: .cfa -8 + ^
STACK CFI INIT 219d0 13 .cfa: $rsp 8 + .ra: .cfa -8 + ^
STACK CFI INIT 219f0 17 .cfa: $rsp 8 + .ra: .cfa -8 + ^
STACK CFI 219f1 $rbx: .cfa -16 + ^ .cfa: $rsp 16 +
STACK CFI 21a02 .cfa: $rsp 8 +
STACK CFI INIT 21a10 178 .cfa: $rsp 8 + .ra: .cfa -8 + ^
STACK CFI 21a12 $r12: .cfa -16 + ^ .cfa: $rsp 16 +
STACK CFI 21a13 $rbp: .cfa -24 + ^ .cfa: $rsp 24 +
STACK CFI 21a17 $rbx: .cfa -32 + ^ .cfa: $rsp 32 +
STACK CFI 21a24 .cfa: $rsp 48 +
STACK CFI 21ae7 .cfa: $rsp 32 +
STACK CFI 21ae8 .cfa: $rsp 24 +
STACK CFI 21ae9 .cfa: $rsp 16 +
STACK CFI 21aeb .cfa: $rsp 8 +
STACK CFI 21aec .cfa: $rsp 48 +
STACK CFI INIT 21b90 9 .cfa: $rsp 8 + .ra: .cfa -8 + ^
STACK CFI INIT 373f0 82 .cfa: $rsp 8 + .ra: .cfa -8 + ^
STACK CFI 373f8 $rbx: .cfa -16 + ^ .cfa: $rsp 16 +
STACK CFI 37464 .cfa: $rsp 8 +
STACK CFI 37470 .cfa: $rsp 16 +
STACK CFI 37471 .cfa: $rsp 8 +
STACK CFI INIT 21ba0 62 .cfa: $rsp 8 + .ra: .cfa -8 + ^
STACK CFI 21ba8 $rbx: .cfa -16 + ^ .cfa: $rsp 16 +
STACK CFI 21bf6 .cfa: $rsp 8 +
STACK CFI 21c00 .cfa: $rsp 16 +
STACK CFI 21c01 .cfa: $rsp 8 +
STACK CFI INIT 21c10 17 .cfa: $rsp 8 + .ra: .cfa -8 + ^
STACK CFI 21c11 $rbx: .cfa -16 + ^ .cfa: $rsp 16 +
STACK CFI 21c22 .cfa: $rsp 8 +
STACK CFI INIT 21c30 77 .cfa: $rsp 8 + .ra: .cfa -8 + ^
STACK CFI 21c31 $rbp: .cfa -16 + ^ .cfa: $rsp 16 +
STACK CFI 21c32 $rbx: .cfa -24 + ^ .cfa: $rsp 24 +
STACK CFI 21c39 .cfa: $rsp 32 +
STACK CFI 21c8c .cfa: $rsp 24 +
STACK CFI 21c95 .cfa: $rsp 16 +
STACK CFI 21c96 .cfa: $rsp 8 +
STACK CFI 21ca0 .cfa: $rsp 32 +
STACK CFI 21ca4 .cfa: $rsp 24 +
STACK CFI 21ca5 .cfa: $rsp 16 +
STACK CFI 21ca6 .cfa: $rsp 8 +
STACK CFI INIT 21cb0 17 .cfa: $rsp 8 + .ra: .cfa -8 + ^
STACK CFI 21cb1 $rbx: .cfa -16 + ^ .cfa: $rsp 16 +
STACK CFI 21cc2 .cfa: $rsp 8 +
STACK CFI INIT 21cd0 4a .cfa: $rsp 8 + .ra: .cfa -8 + ^
STACK CFI 21cd8 $rbx: .cfa -16 + ^ .cfa: $rsp 16 +
STACK CFI 21d0c .cfa: $rsp 8 +
STACK CFI 21d18 .cfa: $rsp 16 +
STACK CFI 21d19 .cfa: $rsp 8 +
STACK CFI INIT 21d20 6 .cfa: $rsp 8 + .ra: .cfa -8 + ^
STACK CFI INIT 21d30 17 .cfa: $rsp 8 + .ra: .cfa -8 + ^
STACK CFI 21d31 $rbx: .cfa -16 + ^ .cfa: $rsp 16 +
STACK CFI 21d42 .cfa: $rsp 8 +
STACK CFI INIT 21d50 6 .cfa: $rsp 8 + .ra: .cfa -8 + ^
STACK CFI INIT 37480 44 .cfa: $rsp 8 + .ra: .cfa -8 + ^
STACK CFI 37488 $rbx: .cfa -16 + ^ .cfa: $rsp 16 +
STACK CFI 374bf .cfa: $rsp 8 +
STACK CFI INIT 374d0 7a .cfa: $rsp 8 + .ra: .cfa -8 + ^
STACK CFI 374d8 $rbx: .cfa -16 + ^ .cfa: $rsp 16 +
STACK CFI 3753e .cfa: $rsp 8 +
STACK CFI 37548 .cfa: $rsp 16 +
STACK CFI 37549 .cfa: $rsp 8 +
STACK CFI INIT 21d60 42 .cfa: $rsp 8 + .ra: .cfa -8 + ^
STACK CFI 21d68 $rbx: .cfa -16 + ^ .cfa: $rsp 16 +
STACK CFI 21d96 .cfa: $rsp 8 +
STACK CFI 21da0 .cfa: $rsp 16 +
STACK CFI 21da1 .cfa: $rsp 8 +
STACK CFI INIT 21db0 6 .cfa: $rsp 8 + .ra: .cfa -8 + ^
STACK CFI INIT 21dc0 17 .cfa: $rsp 8 + .ra: .cfa -8 + ^
STACK CFI 21dc1 $rbx: .cfa -16 + ^ .cfa: $rsp 16 +
STACK CFI 21dd2 .cfa: $rsp 8 +
STACK CFI INIT 21de0 6 .cfa: $rsp 8 + .ra: .cfa -8 + ^
STACK CFI INIT 21df0 a7 .cfa: $rsp 8 + .ra: .cfa -8 + ^
STACK CFI 21df1 $rbp: .cfa -16 + ^ .cfa: $rsp 16 +
STACK CFI 21df2 $rbx: .cfa -24 + ^ .cfa: $rsp 24 +
STACK CFI 21df9 .cfa: $rsp 32 +
STACK CFI 21e80 .cfa: $rsp 24 +
STACK CFI 21e89 .cfa: $rsp 16 +
STACK CFI 21e8a .cfa: $rsp 8 +
STACK CFI 21e90 .cfa: $rsp 32 +
STACK CFI 21e94 .cfa: $rsp 24 +
STACK CFI 21e95 .cfa: $rsp 16 +
STACK CFI 21e96 .cfa: $rsp 8 +
STACK CFI INIT 21ea0 9 .cfa: $rsp 8 + .ra: .cfa -8 + ^
STACK CFI INIT 21eb0 17 .cfa: $rsp 8 + .ra: .cfa -8 + ^
STACK CFI 21eb1 $rbx: .cfa -16 + ^ .cfa: $rsp 16 +
STACK CFI 21ec2 .cfa: $rsp 8 +
STACK CFI INIT 21ed0 6 .cfa: $rsp 8 + .ra: .cfa -8 + ^
STACK CFI INIT 21ee0 44 .cfa: $rsp 8 + .ra: .cfa -8 + ^
STACK CFI 21ee1 $rbp: .cfa -16 + ^ .cfa: $rsp 16 +
STACK CFI 21ee2 $rbx: .cfa -24 + ^ .cfa: $rsp 24 +
STACK CFI 21eee .cfa: $rsp 32 +
STACK CFI 21f06 .cfa: $rsp 24 +
STACK CFI 21f0a .cfa: $rsp 16 +
STACK CFI 21f0b .cfa: $rsp 8 +
STACK CFI 21f0c .cfa: $rsp 32 +
STACK CFI INIT 21f30 6 .cfa: $rsp 8 + .ra: .cfa -8 + ^
STACK CFI INIT 21f40 44 .cfa: $rsp 8 + .ra: .cfa -8 + ^
STACK CFI 21f41 $rbp: .cfa -16 + ^ .cfa: $rsp 16 +
STACK CFI 21f42 $rbx: .cfa -24 + ^ .cfa: $rsp 24 +
STACK CFI 21f4e .cfa: $rsp 32 +
STACK CFI 21f66 .cfa: $rsp 24 +
STACK CFI 21f6a .cfa: $rsp 16 +
STACK CFI 21f6b .cfa: $rsp 8 +
STACK CFI 21f6c .cfa: $rsp 32 +
STACK CFI INIT 21f90 6 .cfa: $rsp 8 + .ra: .cfa -8 + ^
STACK CFI INIT 21fa0 c .cfa: $rsp 8 + .ra: .cfa -8 + ^
STACK CFI INIT 21fb0 85 .cfa: $rsp 8 + .ra: .cfa -8 + ^
STACK CFI 21fb2 $r12: .cfa -16 + ^ .cfa: $rsp 16 +
STACK CFI 21fba $rbp: .cfa -24 + ^ .cfa: $rsp 24 +
STACK CFI 21fbb $rbx: .cfa -32 + ^ .cfa: $rsp 32 +
STACK CFI 22021 .cfa: $rsp 24 +
STACK CFI 22022 .cfa: $rsp 16 +
STACK CFI 22024 .cfa: $rsp 8 +
STACK CFI 22030 .cfa: $rsp 32 +
STACK CFI 22031 .cfa: $rsp 24 +
STACK CFI 22032 .cfa: $rsp 16 +
STACK CFI 22034 .cfa: $rsp 8 +
STACK CFI INIT 22040 17 .cfa: $rsp 8 + .ra: .cfa -8 + ^
STACK CFI 22041 $rbx: .cfa -16 + ^ .cfa: $rsp 16 +
STACK CFI 22052 .cfa: $rsp 8 +
STACK CFI INIT 37280 3 .cfa: $rsp 8 + .ra: .cfa -8 + ^
STACK CFI INIT 37300 6 .cfa: $rsp 8 + .ra: .cfa -8 + ^
STACK CFI INIT 22060 3 .cfa: $rsp 8 + .ra: .cfa -8 + ^
STACK CFI INIT 22070 3 .cfa: $rsp 8 + .ra: .cfa -8 + ^
STACK CFI INIT 22080 2 .cfa: $rsp 8 + .ra: .cfa -8 + ^
STACK CFI INIT 22090 3 .cfa: $rsp 8 + .ra: .cfa -8 + ^
STACK CFI INIT 220a0 2 .cfa: $rsp 8 + .ra: .cfa -8 + ^
STACK CFI INIT 220b0 c8 .cfa: $rsp 8 + .ra: .cfa -8 + ^
STACK CFI 220b2 $r12: .cfa -16 + ^ .cfa: $rsp 16 +
STACK CFI 220b3 $rbp: .cfa -24 + ^ .cfa: $rsp 24 +
STACK CFI 220b7 $rbx: .cfa -32 + ^ .cfa: $rsp 32 +
STACK CFI 220be .cfa: $rsp 48 +
STACK CFI 22124 .cfa: $rsp 32 +
STACK CFI 22125 .cfa: $rsp 24 +
STACK CFI 22126 .cfa: $rsp 16 +
STACK CFI 22128 .cfa: $rsp 8 +
STACK CFI 22130 .cfa: $rsp 48 +
STACK CFI INIT 37550 23 .cfa: $rsp 8 + .ra: .cfa -8 + ^
STACK CFI 37555 $rbx: .cfa -16 + ^ .cfa: $rsp 16 +
STACK CFI 37572 .cfa: $rsp 8 +
STACK CFI INIT 37580 23 .cfa: $rsp 8 + .ra: .cfa -8 + ^
STACK CFI 37585 $rbx: .cfa -16 + ^ .cfa: $rsp 16 +
STACK CFI 375a2 .cfa: $rsp 8 +
STACK CFI INIT 375b0 23 .cfa: $rsp 8 + .ra: .cfa -8 + ^
STACK CFI 375b5 $rbx: .cfa -16 + ^ .cfa: $rsp 16 +
STACK CFI 375d2 .cfa: $rsp 8 +
STACK CFI INIT 375e0 29 .cfa: $rsp 8 + .ra: .cfa -8 + ^
STACK CFI 375e5 $rbx: .cfa -16 + ^ .cfa: $rsp 16 +
STACK CFI 37608 .cfa: $rsp 8 +
STACK CFI INIT 37610 29 .cfa: $rsp 8 + .ra: .cfa -8 + ^
STACK CFI 37615 $rbx: .cfa -16 + ^ .cfa: $rsp 16 +
STACK CFI 37638 .cfa: $rsp 8 +
STACK CFI INIT 37640 23 .cfa: $rsp 8 + .ra: .cfa -8 + ^
STACK CFI 37645 $rbx: .cfa -16 + ^ .cfa: $rsp 16 +
STACK CFI 37662 .cfa: $rsp 8 +
STACK CFI INIT 37320 d .cfa: $rsp 8 + .ra: .cfa -8 + ^
STACK CFI INIT 37230 13 .cfa: $rsp 8 + .ra: .cfa -8 + ^
STACK CFI INIT 37260 d .cfa: $rsp 8 + .ra: .cfa -8 + ^
STACK CFI INIT 372a0 d .cfa: $rsp 8 + .ra: .cfa -8 + ^
STACK CFI INIT 372c0 e .cfa: $rsp 8 + .ra: .cfa -8 + ^
STACK CFI INIT 372e0 d .cfa: $rsp 8 + .ra: .cfa -8 + ^
STACK CFI INIT 37670 42 .cfa: $rsp 8 + .ra: .cfa -8 + ^
STACK CFI 37678 $rbx: .cfa -16 + ^ .cfa: $rsp 16 +
STACK CFI 376a2 .cfa: $rsp 8 +
STACK CFI 376b0 .cfa: $rsp 16 +
STACK CFI 376b1 .cfa: $rsp 8 +
STACK CFI INIT 376c0 80 .cfa: $rsp 8 + .ra: .cfa -8 + ^
STACK CFI 376c8 $rbx: .cfa -16 + ^ .cfa: $rsp 16 +
STACK CFI 3773b .cfa: $rsp 8 +
STACK CFI INIT 37740 86 .cfa: $rsp 8 + .ra: .cfa -8 + ^
STACK CFI 37748 $rbx: .cfa -16 + ^ .cfa: $rsp 16 +
STACK CFI 377c1 .cfa: $rsp 8 +
STACK CFI INIT 22180 1f .cfa: $rsp 8 + .ra: .cfa -8 + ^
STACK CFI 2218c $rbx: .cfa -16 + ^ .cfa: $rsp 16 +
STACK CFI 2219e .cfa: $rsp 8 +
STACK CFI INIT 221a0 6 .cfa: $rsp 8 + .ra: .cfa -8 + ^
STACK CFI INIT 221b0 6 .cfa: $rsp 8 + .ra: .cfa -8 + ^
STACK CFI INIT 221c0 6 .cfa: $rsp 8 + .ra: .cfa -8 + ^
STACK CFI INIT 221d0 e4 .cfa: $rsp 8 + .ra: .cfa -8 + ^
STACK CFI 221d1 $rbp: .cfa -16 + ^ .cfa: $rsp 16 +
STACK CFI 221e5 .cfa: $rbp 16 +
STACK CFI 221e8 $r14: .cfa -24 + ^ $rbx: .cfa -32 + ^
STACK CFI 222ae .cfa: $rsp 8 +
STACK CFI 222af .cfa: $rbp 16 +
STACK CFI INIT 222c0 e5 .cfa: $rsp 8 + .ra: .cfa -8 + ^
STACK CFI 222c1 $rbp: .cfa -16 + ^ .cfa: $rsp 16 +
STACK CFI 222d0 .cfa: $rbp 16 +
STACK CFI 222d3 $r14: .cfa -24 + ^ $rbx: .cfa -32 + ^
STACK CFI 2239f .cfa: $rsp 8 +
STACK CFI 223a0 .cfa: $rbp 16 +
STACK CFI INIT 223b0 d1 .cfa: $rsp 8 + .ra: .cfa -8 + ^
STACK CFI 223b2 $r12: .cfa -16 + ^ .cfa: $rsp 16 +
STACK CFI 223b3 $rbp: .cfa -24 + ^ .cfa: $rsp 24 +
STACK CFI 223b4 $rbx: .cfa -32 + ^ .cfa: $rsp 32 +
STACK CFI 223bb .cfa: $rsp 144 +
STACK CFI 2242d .cfa: $rsp 32 +
STACK CFI 2242e .cfa: $rsp 24 +
STACK CFI 2242f .cfa: $rsp 16 +
STACK CFI 22431 .cfa: $rsp 8 +
STACK CFI 22438 .cfa: $rsp 144 +
STACK CFI INIT 22490 cc .cfa: $rsp 8 + .ra: .cfa -8 + ^
STACK CFI 22491 $rbp: .cfa -16 + ^ .cfa: $rsp 16 +
STACK CFI 22492 $rbx: .cfa -24 + ^ .cfa: $rsp 24 +
STACK CFI 22499 .cfa: $rsp 48 +
STACK CFI 22520 .cfa: $rsp 24 +
STACK CFI 22521 .cfa: $rsp 16 +
STACK CFI 22522 .cfa: $rsp 8 +
STACK CFI 22528 .cfa: $rsp 48 +
STACK CFI INIT 22560 9 .cfa: $rsp 8 + .ra: .cfa -8 + ^
STACK CFI INIT 22570 cf .cfa: $rsp 8 + .ra: .cfa -8 + ^
STACK CFI 22571 $rbp: .cfa -16 + ^ .cfa: $rsp 16 +
STACK CFI 22572 $rbx: .cfa -24 + ^ .cfa: $rsp 24 +
STACK CFI 22579 .cfa: $rsp 48 +
STACK CFI 22600 .cfa: $rsp 24 +
STACK CFI 22601 .cfa: $rsp 16 +
STACK CFI 22602 .cfa: $rsp 8 +
STACK CFI 22608 .cfa: $rsp 48 +
STACK CFI INIT 22640 9 .cfa: $rsp 8 + .ra: .cfa -8 + ^
STACK CFI INIT 22650 9d .cfa: $rsp 8 + .ra: .cfa -8 + ^
STACK CFI 22651 $rbp: .cfa -16 + ^ .cfa: $rsp 16 +
STACK CFI 22652 $rbx: .cfa -24 + ^ .cfa: $rsp 24 +
STACK CFI 22656 .cfa: $rsp 48 +
STACK CFI 22684 .cfa: $rsp 24 +
STACK CFI 22685 .cfa: $rsp 16 +
STACK CFI 22686 .cfa: $rsp 8 +
STACK CFI 22690 .cfa: $rsp 48 +
STACK CFI INIT 226f0 9d .cfa: $rsp 8 + .ra: .cfa -8 + ^
STACK CFI 226f1 $rbp: .cfa -16 + ^ .cfa: $rsp 16 +
STACK CFI 226f2 $rbx: .cfa -24 + ^ .cfa: $rsp 24 +
STACK CFI 226f6 .cfa: $rsp 48 +
STACK CFI 22727 .cfa: $rsp 24 +
STACK CFI 22728 .cfa: $rsp 16 +
STACK CFI 22729 .cfa: $rsp 8 +
STACK CFI 22730 .cfa: $rsp 48 +
STACK CFI INIT 22790 9 .cfa: $rsp 8 + .ra: .cfa -8 + ^
STACK CFI INIT 227a0 a2 .cfa: $rsp 8 + .ra: .cfa -8 + ^
STACK CFI 227a1 $rbp: .cfa -16 + ^ .cfa: $rsp 16 +
STACK CFI 227a2 $rbx: .cfa -24 + ^ .cfa: $rsp 24 +
STACK CFI 227a6 .cfa: $rsp 48 +
STACK CFI 227d7 .cfa: $rsp 24 +
STACK CFI 227d8 .cfa: $rsp 16 +
STACK CFI 227d9 .cfa: $rsp 8 +
STACK CFI 227e0 .cfa: $rsp 48 +
STACK CFI INIT 22850 9 .cfa: $rsp 8 + .ra: .cfa -8 + ^
STACK CFI INIT 22860 110 .cfa: $rsp 8 + .ra: .cfa -8 + ^
STACK CFI 22862 $r13: .cfa -16 + ^ .cfa: $rsp 16 +
STACK CFI 22864 $r12: .cfa -24 + ^ .cfa: $rsp 24 +
STACK CFI 22868 $rbp: .cfa -32 + ^ .cfa: $rsp 32 +
STACK CFI 22869 $rbx: .cfa -40 + ^ .cfa: $rsp 40 +
STACK CFI 22870 .cfa: $rsp 64 +
STACK CFI 228bb .cfa: $rsp 40 +
STACK CFI 228bc .cfa: $rsp 32 +
STACK CFI 228bd .cfa: $rsp 24 +
STACK CFI 228bf .cfa: $rsp 16 +
STACK CFI 228c1 .cfa: $rsp 8 +
STACK CFI 228c8 .cfa: $rsp 64 +
STACK CFI INIT 22970 9d .cfa: $rsp 8 + .ra: .cfa -8 + ^
STACK CFI 22971 $rbp: .cfa -16 + ^ .cfa: $rsp 16 +
STACK CFI 22972 $rbx: .cfa -24 + ^ .cfa: $rsp 24 +
STACK CFI 22976 .cfa: $rsp 48 +
STACK CFI 229a8 .cfa: $rsp 24 +
STACK CFI 229a9 .cfa: $rsp 16 +
STACK CFI 229aa .cfa: $rsp 8 +
STACK CFI 229b0 .cfa: $rsp 48 +
STACK CFI INIT 22a10 9d .cfa: $rsp 8 + .ra: .cfa -8 + ^
STACK CFI 22a11 $rbp: .cfa -16 + ^ .cfa: $rsp 16 +
STACK CFI 22a12 $rbx: .cfa -24 + ^ .cfa: $rsp 24 +
STACK CFI 22a16 .cfa: $rsp 48 +
STACK CFI 22a44 .cfa: $rsp 24 +
STACK CFI 22a45 .cfa: $rsp 16 +
STACK CFI 22a46 .cfa: $rsp 8 +
STACK CFI 22a50 .cfa: $rsp 48 +
STACK CFI INIT 22ab0 276 .cfa: $rsp 8 + .ra: .cfa -8 + ^
STACK CFI 22ab1 $rbp: .cfa -16 + ^ .cfa: $rsp 16 +
STACK CFI 22ab4 .cfa: $rbp 16 +
STACK CFI 22abd $r12: .cfa -48 + ^ $r13: .cfa -40 + ^ $r14: .cfa -32 + ^ $r15: .cfa -24 + ^ $rbx: .cfa -56 + ^
STACK CFI 22bc3 .cfa: $rsp 8 +
STACK CFI 22bc8 .cfa: $rbp 16 +
STACK CFI INIT 22d30 9 .cfa: $rsp 8 + .ra: .cfa -8 + ^
STACK CFI INIT 22d40 12c .cfa: $rsp 8 + .ra: .cfa -8 + ^
STACK CFI 22d42 $r13: .cfa -16 + ^ .cfa: $rsp 16 +
STACK CFI 22d44 $r12: .cfa -24 + ^ .cfa: $rsp 24 +
STACK CFI 22d45 $rbp: .cfa -32 + ^ .cfa: $rsp 32 +
STACK CFI 22d46 $rbx: .cfa -40 + ^ .cfa: $rsp 40 +
STACK CFI 22d4a .cfa: $rsp 64 +
STACK CFI 22d97 .cfa: $rsp 40 +
STACK CFI 22d98 .cfa: $rsp 32 +
STACK CFI 22d99 .cfa: $rsp 24 +
STACK CFI 22d9b .cfa: $rsp 16 +
STACK CFI 22d9d .cfa: $rsp 8 +
STACK CFI 22da0 .cfa: $rsp 64 +
STACK CFI INIT 22e70 12c .cfa: $rsp 8 + .ra: .cfa -8 + ^
STACK CFI 22e72 $r13: .cfa -16 + ^ .cfa: $rsp 16 +
STACK CFI 22e74 $r12: .cfa -24 + ^ .cfa: $rsp 24 +
STACK CFI 22e75 $rbp: .cfa -32 + ^ .cfa: $rsp 32 +
STACK CFI 22e76 $rbx: .cfa -40 + ^ .cfa: $rsp 40 +
STACK CFI 22e7a .cfa: $rsp 64 +
STACK CFI 22ec1 .cfa: $rsp 40 +
STACK CFI 22ec2 .cfa: $rsp 32 +
STACK CFI 22ec3 .cfa: $rsp 24 +
STACK CFI 22ec5 .cfa: $rsp 16 +
STACK CFI 22ec7 .cfa: $rsp 8 +
STACK CFI 22ed0 .cfa: $rsp 64 +
STACK CFI INIT 22fa0 12c .cfa: $rsp 8 + .ra: .cfa -8 + ^
STACK CFI 22fa2 $r13: .cfa -16 + ^ .cfa: $rsp 16 +
STACK CFI 22fa4 $r12: .cfa -24 + ^ .cfa: $rsp 24 +
STACK CFI 22fa5 $rbp: .cfa -32 + ^ .cfa: $rsp 32 +
STACK CFI 22fa6 $rbx: .cfa -40 + ^ .cfa: $rsp 40 +
STACK CFI 22faa .cfa: $rsp 64 +
STACK CFI 22ff2 .cfa: $rsp 40 +
STACK CFI 22ff3 .cfa: $rsp 32 +
STACK CFI 22ff4 .cfa: $rsp 24 +
STACK CFI 22ff6 .cfa: $rsp 16 +
STACK CFI 22ff8 .cfa: $rsp 8 +
STACK CFI 23000 .cfa: $rsp 64 +
STACK CFI INIT 230d0 178 .cfa: $rsp 8 + .ra: .cfa -8 + ^
STACK CFI 230d2 $r12: .cfa -16 + ^ .cfa: $rsp 16 +
STACK CFI 230d3 $rbp: .cfa -24 + ^ .cfa: $rsp 24 +
STACK CFI 230d7 $rbx: .cfa -32 + ^ .cfa: $rsp 32 +
STACK CFI 230e4 .cfa: $rsp 48 +
STACK CFI 231a7 .cfa: $rsp 32 +
STACK CFI 231a8 .cfa: $rsp 24 +
STACK CFI 231a9 .cfa: $rsp 16 +
STACK CFI 231ab .cfa: $rsp 8 +
STACK CFI 231ac .cfa: $rsp 48 +
STACK CFI INIT 23250 9 .cfa: $rsp 8 + .ra: .cfa -8 + ^
STACK CFI INIT 377d0 168 .cfa: $rsp 8 + .ra: .cfa -8 + ^
STACK CFI 377d1 $rbp: .cfa -16 + ^ .cfa: $rsp 16 +
STACK CFI 377d2 $rbx: .cfa -24 + ^ .cfa: $rsp 24 +
STACK CFI 377de .cfa: $rsp 48 +
STACK CFI 37899 .cfa: $rsp 24 +
STACK CFI 3789a .cfa: $rsp 16 +
STACK CFI 3789b .cfa: $rsp 8 +
STACK CFI 3789c .cfa: $rsp 48 +
STACK CFI INIT 23260 3f0 .cfa: $rsp 8 + .ra: .cfa -8 + ^
STACK CFI 23261 $rbp: .cfa -16 + ^ .cfa: $rsp 16 +
STACK CFI 23264 .cfa: $rbp 16 +
STACK CFI 2326d $r12: .cfa -48 + ^ $r13: .cfa -40 + ^ $r14: .cfa -32 + ^ $r15: .cfa -24 + ^ $rbx: .cfa -56 + ^
STACK CFI 2343f .cfa: $rsp 8 +
STACK CFI 23440 .cfa: $rbp 16 +
STACK CFI INIT 23650 9 .cfa: $rsp 8 + .ra: .cfa -8 + ^
STACK CFI INIT 23660 515 .cfa: $rsp 8 + .ra: .cfa -8 + ^
STACK CFI 23661 $rbp: .cfa -16 + ^ .cfa: $rsp 16 +
STACK CFI 23664 .cfa: $rbp 16 +
STACK CFI 2366d $r12: .cfa -48 + ^ $r13: .cfa -40 + ^ $r14: .cfa -32 + ^ $r15: .cfa -24 + ^ $rbx: .cfa -56 + ^
STACK CFI 23837 .cfa: $rsp 8 +
STACK CFI 23840 .cfa: $rbp 16 +
STACK CFI INIT 23b80 9 .cfa: $rsp 8 + .ra: .cfa -8 + ^
STACK CFI INIT 23b90 526 .cfa: $rsp 8 + .ra: .cfa -8 + ^
STACK CFI 23b91 $rbp: .cfa -16 + ^ .cfa: $rsp 16 +
STACK CFI 23b94 .cfa: $rbp 16 +
STACK CFI 23b9d $r12: .cfa -48 + ^ $r13: .cfa -40 + ^ $r14: .cfa -32 + ^ $r15: .cfa -24 + ^ $rbx: .cfa -56 + ^
STACK CFI 23d45 .cfa: $rsp 8 +
STACK CFI 23d50 .cfa: $rbp 16 +
STACK CFI INIT 240c0 9 .cfa: $rsp 8 + .ra: .cfa -8 + ^
STACK CFI INIT 240d0 2e .cfa: $rsp 8 + .ra: .cfa -8 + ^
STACK CFI 240d1 $rbp: .cfa -16 + ^ .cfa: $rsp 16 +
STACK CFI 240d2 $rbx: .cfa -24 + ^ .cfa: $rsp 24 +
STACK CFI 240e0 .cfa: $rsp 32 +
STACK CFI 240fb .cfa: $rsp 24 +
STACK CFI 240fc .cfa: $rsp 16 +
STACK CFI 240fd .cfa: $rsp 8 +
STACK CFI INIT 24100 19 .cfa: $rsp 8 + .ra: .cfa -8 + ^
STACK CFI 24101 $rbx: .cfa -16 + ^ .cfa: $rsp 16 +
STACK CFI 24118 .cfa: $rsp 8 +
STACK CFI INIT 24120 2a .cfa: $rsp 8 + .ra: .cfa -8 + ^
STACK CFI 24121 $rbp: .cfa -16 + ^ .cfa: $rsp 16 +
STACK CFI 24122 $rbx: .cfa -24 + ^ .cfa: $rsp 24 +
STACK CFI 2412c .cfa: $rsp 32 +
STACK CFI 24147 .cfa: $rsp 24 +
STACK CFI 24148 .cfa: $rsp 16 +
STACK CFI 24149 .cfa: $rsp 8 +
STACK CFI INIT 24150 3b0 .cfa: $rsp 8 + .ra: .cfa -8 + ^
STACK CFI 24152 $r15: .cfa -16 + ^ .cfa: $rsp 16 +
STACK CFI 24154 $r14: .cfa -24 + ^ .cfa: $rsp 24 +
STACK CFI 24156 $r13: .cfa -32 + ^ .cfa: $rsp 32 +
STACK CFI 24158 $r12: .cfa -40 + ^ .cfa: $rsp 40 +
STACK CFI 24159 $rbp: .cfa -48 + ^ .cfa: $rsp 48 +
STACK CFI 2415a $rbx: .cfa -56 + ^ .cfa: $rsp 56 +
STACK CFI 24160 .cfa: $rsp 160 +
STACK CFI 2434b .cfa: $rsp 56 +
STACK CFI 2434c .cfa: $rsp 48 +
STACK CFI 2434d .cfa: $rsp 40 +
STACK CFI 2434f .cfa: $rsp 32 +
STACK CFI 24351 .cfa: $rsp 24 +
STACK CFI 24353 .cfa: $rsp 16 +
STACK CFI 24355 .cfa: $rsp 8 +
STACK CFI 24360 .cfa: $rsp 160 +
STACK CFI INIT 24500 64 .cfa: $rsp 8 + .ra: .cfa -8 + ^
STACK CFI 24501 $rbx: .cfa -16 + ^ .cfa: $rsp 16 +
STACK CFI 24551 .cfa: $rsp 8 +
STACK CFI 24558 .cfa: $rsp 16 +
STACK CFI 24563 .cfa: $rsp 8 +
STACK CFI INIT 24570 1e .cfa: $rsp 8 + .ra: .cfa -8 + ^
STACK CFI INIT 24590 3b .cfa: $rsp 8 + .ra: .cfa -8 + ^
STACK CFI 24591 $rbp: .cfa -16 + ^ .cfa: $rsp 16 +
STACK CFI 24592 $rbx: .cfa -24 + ^ .cfa: $rsp 24 +
STACK CFI 24599 .cfa: $rsp 32 +
STACK CFI 245c8 .cfa: $rsp 24 +
STACK CFI 245c9 .cfa: $rsp 16 +
STACK CFI 245ca .cfa: $rsp 8 +
STACK CFI INIT 245d0 b1 .cfa: $rsp 8 + .ra: .cfa -8 + ^
STACK CFI 245d2 $r12: .cfa -16 + ^ .cfa: $rsp 16 +
STACK CFI 245d3 $rbp: .cfa -24 + ^ .cfa: $rsp 24 +
STACK CFI 245d4 $rbx: .cfa -32 + ^ .cfa: $rsp 32 +
STACK CFI 245da .cfa: $rsp 48 +
STACK CFI 24655 .cfa: $rsp 32 +
STACK CFI 24656 .cfa: $rsp 24 +
STACK CFI 24657 .cfa: $rsp 16 +
STACK CFI 24659 .cfa: $rsp 8 +
STACK CFI 24660 .cfa: $rsp 48 +
STACK CFI INIT 24690 39 .cfa: $rsp 8 + .ra: .cfa -8 + ^
STACK CFI 24691 $rbx: .cfa -16 + ^ .cfa: $rsp 16 +
STACK CFI 246c8 .cfa: $rsp 8 +
STACK CFI INIT 246d0 206 .cfa: $rsp 8 + .ra: .cfa -8 + ^
STACK CFI 246d1 $rbp: .cfa -16 + ^ .cfa: $rsp 16 +
STACK CFI 246d2 $rbx: .cfa -24 + ^ .cfa: $rsp 24 +
STACK CFI 246d6 .cfa: $rsp 48 +
STACK CFI 24745 .cfa: $rsp 24 +
STACK CFI 24746 .cfa: $rsp 16 +
STACK CFI 24747 .cfa: $rsp 8 +
STACK CFI 24750 .cfa: $rsp 48 +
STACK CFI INIT 248e0 4b .cfa: $rsp 8 + .ra: .cfa -8 + ^
STACK CFI 248e1 $rbx: .cfa -16 + ^ .cfa: $rsp 16 +
STACK CFI 2492a .cfa: $rsp 8 +
STACK CFI INIT 24930 110 .cfa: $rsp 8 + .ra: .cfa -8 + ^
STACK CFI 24932 $r12: .cfa -16 + ^ .cfa: $rsp 16 +
STACK CFI 24933 $rbp: .cfa -24 + ^ .cfa: $rsp 24 +
STACK CFI 24934 $rbx: .cfa -32 + ^ .cfa: $rsp 32 +
STACK CFI 24938 .cfa: $rsp 48 +
STACK CFI 249a7 .cfa: $rsp 32 +
STACK CFI 249a8 .cfa: $rsp 24 +
STACK CFI 249a9 .cfa: $rsp 16 +
STACK CFI 249ab .cfa: $rsp 8 +
STACK CFI 249b0 .cfa: $rsp 48 +
STACK CFI INIT 24a40 64 .cfa: $rsp 8 + .ra: .cfa -8 + ^
STACK CFI 24a41 $rbx: .cfa -16 + ^ .cfa: $rsp 16 +
STACK CFI 24aa3 .cfa: $rsp 8 +
STACK CFI INIT 24ab0 19 .cfa: $rsp 8 + .ra: .cfa -8 + ^
STACK CFI 24ab4 .cfa: $rsp 16 +
STACK CFI 24ac8 .cfa: $rsp 8 +
STACK CFI INIT 24ad0 6 .cfa: $rsp 8 + .ra: .cfa -8 + ^
STACK CFI INIT 24ae0 19 .cfa: $rsp 8 + .ra: .cfa -8 + ^
STACK CFI 24ae4 .cfa: $rsp 16 +
STACK CFI 24af8 .cfa: $rsp 8 +
STACK CFI INIT 24b00 6 .cfa: $rsp 8 + .ra: .cfa -8 + ^
STACK CFI INIT 24b10 64 .cfa: $rsp 8 + .ra: .cfa -8 + ^
STACK CFI 24b11 $rbx: .cfa -16 + ^ .cfa: $rsp 16 +
STACK CFI 24b73 .cfa: $rsp 8 +
STACK CFI INIT 24b80 12c .cfa: $rsp 8 + .ra: .cfa -8 + ^
STACK CFI 24b82 $r13: .cfa -16 + ^ .cfa: $rsp 16 +
STACK CFI 24b84 $r12: .cfa -24 + ^ .cfa: $rsp 24 +
STACK CFI 24b85 $rbp: .cfa -32 + ^ .cfa: $rsp 32 +
STACK CFI 24b86 $rbx: .cfa -40 + ^ .cfa: $rsp 40 +
STACK CFI 24b8a .cfa: $rsp 64 +
STACK CFI 24bd8 .cfa: $rsp 40 +
STACK CFI 24bd9 .cfa: $rsp 32 +
STACK CFI 24bda .cfa: $rsp 24 +
STACK CFI 24bdc .cfa: $rsp 16 +
STACK CFI 24bde .cfa: $rsp 8 +
STACK CFI 24be0 .cfa: $rsp 64 +
STACK CFI INIT 24cb0 1a1 .cfa: $rsp 8 + .ra: .cfa -8 + ^
STACK CFI 24cb2 $r13: .cfa -16 + ^ .cfa: $rsp 16 +
STACK CFI 24cb4 $r12: .cfa -24 + ^ .cfa: $rsp 24 +
STACK CFI 24cb5 $rbp: .cfa -32 + ^ .cfa: $rsp 32 +
STACK CFI 24cb6 $rbx: .cfa -40 + ^ .cfa: $rsp 40 +
STACK CFI 24cba .cfa: $rsp 64 +
STACK CFI 24d29 .cfa: $rsp 40 +
STACK CFI 24d2a .cfa: $rsp 32 +
STACK CFI 24d2b .cfa: $rsp 24 +
STACK CFI 24d2d .cfa: $rsp 16 +
STACK CFI 24d2f .cfa: $rsp 8 +
STACK CFI 24d30 .cfa: $rsp 64 +
STACK CFI INIT 24e60 32 .cfa: $rsp 8 + .ra: .cfa -8 + ^
STACK CFI 24e61 $rbx: .cfa -16 + ^ .cfa: $rsp 16 +
STACK CFI 24e91 .cfa: $rsp 8 +
STACK CFI INIT 24ea0 110 .cfa: $rsp 8 + .ra: .cfa -8 + ^
STACK CFI 24ea2 $r13: .cfa -16 + ^ .cfa: $rsp 16 +
STACK CFI 24ea4 $r12: .cfa -24 + ^ .cfa: $rsp 24 +
STACK CFI 24ea8 $rbp: .cfa -32 + ^ .cfa: $rsp 32 +
STACK CFI 24ea9 $rbx: .cfa -40 + ^ .cfa: $rsp 40 +
STACK CFI 24eb0 .cfa: $rsp 64 +
STACK CFI 24efb .cfa: $rsp 40 +
STACK CFI 24efc .cfa: $rsp 32 +
STACK CFI 24efd .cfa: $rsp 24 +
STACK CFI 24eff .cfa: $rsp 16 +
STACK CFI 24f01 .cfa: $rsp 8 +
STACK CFI 24f08 .cfa: $rsp 64 +
STACK CFI INIT 24fb0 87 .cfa: $rsp 8 + .ra: .cfa -8 + ^
STACK CFI 24fb1 $rbx: .cfa -16 + ^ .cfa: $rsp 16 +
STACK CFI 25036 .cfa: $rsp 8 +
STACK CFI INIT 25040 136 .cfa: $rsp 8 + .ra: .cfa -8 + ^
STACK CFI 25041 $rbp: .cfa -16 + ^ .cfa: $rsp 16 +
STACK CFI 25042 $rbx: .cfa -24 + ^ .cfa: $rsp 24 +
STACK CFI 25046 .cfa: $rsp 48 +
STACK CFI 250b5 .cfa: $rsp 24 +
STACK CFI 250b6 .cfa: $rsp 16 +
STACK CFI 250b7 .cfa: $rsp 8 +
STACK CFI 250c0 .cfa: $rsp 48 +
STACK CFI INIT 25180 41 .cfa: $rsp 8 + .ra: .cfa -8 + ^
STACK CFI 25181 $rbx: .cfa -16 + ^ .cfa: $rsp 16 +
STACK CFI 251c0 .cfa: $rsp 8 +
STACK CFI INIT 251d0 2b7 .cfa: $rsp 8 + .ra: .cfa -8 + ^
STACK CFI 251d2 $r15: .cfa -16 + ^ .cfa: $rsp 16 +
STACK CFI 251d4 $r14: .cfa -24 + ^ .cfa: $rsp 24 +
STACK CFI 251d6 $r13: .cfa -32 + ^ .cfa: $rsp 32 +
STACK CFI 251d8 $r12: .cfa -40 + ^ .cfa: $rsp 40 +
STACK CFI 251dd $rbp: .cfa -48 + ^ .cfa: $rsp 48 +
STACK CFI 251de $rbx: .cfa -56 + ^ .cfa: $rsp 56 +
STACK CFI 251e5 .cfa: $rsp 128 +
STACK CFI 252f7 .cfa: $rsp 56 +
STACK CFI 252f8 .cfa: $rsp 48 +
STACK CFI 252f9 .cfa: $rsp 40 +
STACK CFI 252fb .cfa: $rsp 32 +
STACK CFI 252fd .cfa: $rsp 24 +
STACK CFI 252ff .cfa: $rsp 16 +
STACK CFI 25301 .cfa: $rsp 8 +
STACK CFI 25308 .cfa: $rsp 128 +
STACK CFI INIT 25490 349 .cfa: $rsp 8 + .ra: .cfa -8 + ^
STACK CFI 25492 $r15: .cfa -16 + ^ .cfa: $rsp 16 +
STACK CFI 25494 $r14: .cfa -24 + ^ .cfa: $rsp 24 +
STACK CFI 25496 $r13: .cfa -32 + ^ .cfa: $rsp 32 +
STACK CFI 25498 $r12: .cfa -40 + ^ .cfa: $rsp 40 +
STACK CFI 25499 $rbp: .cfa -48 + ^ .cfa: $rsp 48 +
STACK CFI 2549a $rbx: .cfa -56 + ^ .cfa: $rsp 56 +
STACK CFI 254a1 .cfa: $rsp 160 +
STACK CFI 25618 .cfa: $rsp 56 +
STACK CFI 25619 .cfa: $rsp 48 +
STACK CFI 2561a .cfa: $rsp 40 +
STACK CFI 2561c .cfa: $rsp 32 +
STACK CFI 2561e .cfa: $rsp 24 +
STACK CFI 25620 .cfa: $rsp 16 +
STACK CFI 25622 .cfa: $rsp 8 +
STACK CFI 25628 .cfa: $rsp 160 +
STACK CFI INIT 257e0 188 .cfa: $rsp 8 + .ra: .cfa -8 + ^
STACK CFI 257e2 $r12: .cfa -16 + ^ .cfa: $rsp 16 +
STACK CFI 257e3 $rbp: .cfa -24 + ^ .cfa: $rsp 24 +
STACK CFI 257e4 $rbx: .cfa -32 + ^ .cfa: $rsp 32 +
STACK CFI 257e8 .cfa: $rsp 64 +
STACK CFI 25829 .cfa: $rsp 32 +
STACK CFI 2582a .cfa: $rsp 24 +
STACK CFI 2582b .cfa: $rsp 16 +
STACK CFI 2582d .cfa: $rsp 8 +
STACK CFI 25830 .cfa: $rsp 64 +
STACK CFI 2584b .cfa: $rsp 72 +
STACK CFI 25865 .cfa: $rsp 80 +
STACK CFI 2586f .cfa: $rsp 88 +
STACK CFI 25876 .cfa: $rsp 96 +
STACK CFI 25877 .cfa: $rsp 104 +
STACK CFI 25882 .cfa: $rsp 112 +
STACK CFI 2588b .cfa: $rsp 120 +
STACK CFI 25892 .cfa: $rsp 128 +
STACK CFI 25893 .cfa: $rsp 136 +
STACK CFI 2589e .cfa: $rsp 144 +
STACK CFI 258a7 .cfa: $rsp 152 +
STACK CFI 258b0 .cfa: $rsp 160 +
STACK CFI 258bb .cfa: $rsp 64 +
STACK CFI INIT 25970 47 .cfa: $rsp 8 + .ra: .cfa -8 + ^
STACK CFI 25971 $rbx: .cfa -16 + ^ .cfa: $rsp 16 +
STACK CFI 259b6 .cfa: $rsp 8 +
STACK CFI INIT 259c0 64 .cfa: $rsp 8 + .ra: .cfa -8 + ^
STACK CFI 259c1 $rbx: .cfa -16 + ^ .cfa: $rsp 16 +
STACK CFI 25a23 .cfa: $rsp 8 +
STACK CFI INIT 25a30 19 .cfa: $rsp 8 + .ra: .cfa -8 + ^
STACK CFI 25a34 .cfa: $rsp 16 +
STACK CFI 25a48 .cfa: $rsp 8 +
STACK CFI INIT 25a50 6 .cfa: $rsp 8 + .ra: .cfa -8 + ^
STACK CFI INIT 25a60 a7 .cfa: $rsp 8 + .ra: .cfa -8 + ^
STACK CFI 25a61 $rbx: .cfa -16 + ^ .cfa: $rsp 16 +
STACK CFI 25b06 .cfa: $rsp 8 +
STACK CFI INIT 25b10 7c2 .cfa: $rsp 8 + .ra: .cfa -8 + ^
STACK CFI 25b12 $r12: .cfa -16 + ^ .cfa: $rsp 16 +
STACK CFI 25b13 $rbp: .cfa -24 + ^ .cfa: $rsp 24 +
STACK CFI 25b14 $rbx: .cfa -32 + ^ .cfa: $rsp 32 +
STACK CFI 25b18 .cfa: $rsp 96 +
STACK CFI 25b8a .cfa: $rsp 32 +
STACK CFI 25b8b .cfa: $rsp 24 +
STACK CFI 25b8c .cfa: $rsp 16 +
STACK CFI 25b8e .cfa: $rsp 8 +
STACK CFI 25b90 .cfa: $rsp 96 +
STACK CFI 25e86 .cfa: $rsp 104 +
STACK CFI 25e8e .cfa: $rsp 112 +
STACK CFI 25e96 .cfa: $rsp 120 +
STACK CFI 25e9e .cfa: $rsp 128 +
STACK CFI 25eb6 .cfa: $rsp 96 +
STACK CFI 25f0e .cfa: $rsp 104 +
STACK CFI 25f16 .cfa: $rsp 112 +
STACK CFI 25f1e .cfa: $rsp 120 +
STACK CFI 25f26 .cfa: $rsp 128 +
STACK CFI 25f3e .cfa: $rsp 96 +
STACK CFI INIT 262e0 28 .cfa: $rsp 8 + .ra: .cfa -8 + ^
STACK CFI 262e1 $rbx: .cfa -16 + ^ .cfa: $rsp 16 +
STACK CFI 26307 .cfa: $rsp 8 +
STACK CFI INIT 26310 162 .cfa: $rsp 8 + .ra: .cfa -8 + ^
STACK CFI 26312 $r13: .cfa -16 + ^ .cfa: $rsp 16 +
STACK CFI 26314 $r12: .cfa -24 + ^ .cfa: $rsp 24 +
STACK CFI 26318 $rbp: .cfa -32 + ^ .cfa: $rsp 32 +
STACK CFI 26319 $rbx: .cfa -40 + ^ .cfa: $rsp 40 +
STACK CFI 26320 .cfa: $rsp 64 +
STACK CFI 26373 .cfa: $rsp 40 +
STACK CFI 26374 .cfa: $rsp 32 +
STACK CFI 26375 .cfa: $rsp 24 +
STACK CFI 26377 .cfa: $rsp 16 +
STACK CFI 26379 .cfa: $rsp 8 +
STACK CFI 26380 .cfa: $rsp 64 +
STACK CFI INIT 26480 162 .cfa: $rsp 8 + .ra: .cfa -8 + ^
STACK CFI 26482 $r13: .cfa -16 + ^ .cfa: $rsp 16 +
STACK CFI 26484 $r12: .cfa -24 + ^ .cfa: $rsp 24 +
STACK CFI 26488 $rbp: .cfa -32 + ^ .cfa: $rsp 32 +
STACK CFI 26489 $rbx: .cfa -40 + ^ .cfa: $rsp 40 +
STACK CFI 26490 .cfa: $rsp 64 +
STACK CFI 264e3 .cfa: $rsp 40 +
STACK CFI 264e4 .cfa: $rsp 32 +
STACK CFI 264e5 .cfa: $rsp 24 +
STACK CFI 264e7 .cfa: $rsp 16 +
STACK CFI 264e9 .cfa: $rsp 8 +
STACK CFI 264f0 .cfa: $rsp 64 +
STACK CFI INIT 265f0 140 .cfa: $rsp 8 + .ra: .cfa -8 + ^
STACK CFI 265f1 $rbp: .cfa -16 + ^ .cfa: $rsp 16 +
STACK CFI 265f2 $rbx: .cfa -24 + ^ .cfa: $rsp 24 +
STACK CFI 265f6 .cfa: $rsp 48 +
STACK CFI 26665 .cfa: $rsp 24 +
STACK CFI 26666 .cfa: $rsp 16 +
STACK CFI 26667 .cfa: $rsp 8 +
STACK CFI 26670 .cfa: $rsp 48 +
STACK CFI INIT 26730 29 .cfa: $rsp 8 + .ra: .cfa -8 + ^
STACK CFI 26731 $rbx: .cfa -16 + ^ .cfa: $rsp 16 +
STACK CFI 26758 .cfa: $rsp 8 +
STACK CFI INIT 26760 16 .cfa: $rsp 8 + .ra: .cfa -8 + ^
STACK CFI INIT 26780 1c .cfa: $rsp 8 + .ra: .cfa -8 + ^
STACK CFI INIT 267a0 149 .cfa: $rsp 8 + .ra: .cfa -8 + ^
STACK CFI 267a1 $rbp: .cfa -16 + ^ .cfa: $rsp 16 +
STACK CFI 267a2 $rbx: .cfa -24 + ^ .cfa: $rsp 24 +
STACK CFI 267a6 .cfa: $rsp 48 +
STACK CFI 26815 .cfa: $rsp 24 +
STACK CFI 26816 .cfa: $rsp 16 +
STACK CFI 26817 .cfa: $rsp 8 +
STACK CFI 26820 .cfa: $rsp 48 +
STACK CFI INIT 268f0 5c .cfa: $rsp 8 + .ra: .cfa -8 + ^
STACK CFI 268f1 $rbx: .cfa -16 + ^ .cfa: $rsp 16 +
STACK CFI 2694b .cfa: $rsp 8 +
STACK CFI INIT 26950 12c .cfa: $rsp 8 + .ra: .cfa -8 + ^
STACK CFI 26952 $r13: .cfa -16 + ^ .cfa: $rsp 16 +
STACK CFI 26954 $r12: .cfa -24 + ^ .cfa: $rsp 24 +
STACK CFI 26955 $rbp: .cfa -32 + ^ .cfa: $rsp 32 +
STACK CFI 26956 $rbx: .cfa -40 + ^ .cfa: $rsp 40 +
STACK CFI 2695a .cfa: $rsp 64 +
STACK CFI 269a1 .cfa: $rsp 40 +
STACK CFI 269a2 .cfa: $rsp 32 +
STACK CFI 269a3 .cfa: $rsp 24 +
STACK CFI 269a5 .cfa: $rsp 16 +
STACK CFI 269a7 .cfa: $rsp 8 +
STACK CFI 269b0 .cfa: $rsp 64 +
STACK CFI INIT 26a80 116 .cfa: $rsp 8 + .ra: .cfa -8 + ^
STACK CFI 26a82 $r12: .cfa -16 + ^ .cfa: $rsp 16 +
STACK CFI 26a83 $rbp: .cfa -24 + ^ .cfa: $rsp 24 +
STACK CFI 26a84 $rbx: .cfa -32 + ^ .cfa: $rsp 32 +
STACK CFI 26a88 .cfa: $rsp 48 +
STACK CFI 26af7 .cfa: $rsp 32 +
STACK CFI 26af8 .cfa: $rsp 24 +
STACK CFI 26af9 .cfa: $rsp 16 +
STACK CFI 26afb .cfa: $rsp 8 +
STACK CFI 26b00 .cfa: $rsp 48 +
STACK CFI INIT 26ba0 41 .cfa: $rsp 8 + .ra: .cfa -8 + ^
STACK CFI 26ba1 $rbx: .cfa -16 + ^ .cfa: $rsp 16 +
STACK CFI 26be0 .cfa: $rsp 8 +
STACK CFI INIT 26bf0 104 .cfa: $rsp 8 + .ra: .cfa -8 + ^
STACK CFI 26bf1 $rbp: .cfa -16 + ^ .cfa: $rsp 16 +
STACK CFI 26bf2 $rbx: .cfa -24 + ^ .cfa: $rsp 24 +
STACK CFI 26bf6 .cfa: $rsp 48 +
STACK CFI 26c61 .cfa: $rsp 24 +
STACK CFI 26c62 .cfa: $rsp 16 +
STACK CFI 26c63 .cfa: $rsp 8 +
STACK CFI 26c68 .cfa: $rsp 48 +
STACK CFI INIT 26d00 28 .cfa: $rsp 8 + .ra: .cfa -8 + ^
STACK CFI 26d01 $rbx: .cfa -16 + ^ .cfa: $rsp 16 +
STACK CFI 26d27 .cfa: $rsp 8 +
STACK CFI INIT 26d30 188 .cfa: $rsp 8 + .ra: .cfa -8 + ^
STACK CFI 26d32 $r13: .cfa -16 + ^ .cfa: $rsp 16 +
STACK CFI 26d34 $r12: .cfa -24 + ^ .cfa: $rsp 24 +
STACK CFI 26d35 $rbp: .cfa -32 + ^ .cfa: $rsp 32 +
STACK CFI 26d36 $rbx: .cfa -40 + ^ .cfa: $rsp 40 +
STACK CFI 26d3a .cfa: $rsp 112 +
STACK CFI 26e2e .cfa: $rsp 40 +
STACK CFI 26e2f .cfa: $rsp 32 +
STACK CFI 26e30 .cfa: $rsp 24 +
STACK CFI 26e32 .cfa: $rsp 16 +
STACK CFI 26e34 .cfa: $rsp 8 +
STACK CFI 26e35 .cfa: $rsp 112 +
STACK CFI INIT 26ec0 12c .cfa: $rsp 8 + .ra: .cfa -8 + ^
STACK CFI 26ec2 $r13: .cfa -16 + ^ .cfa: $rsp 16 +
STACK CFI 26ec4 $r12: .cfa -24 + ^ .cfa: $rsp 24 +
STACK CFI 26ec5 $rbp: .cfa -32 + ^ .cfa: $rsp 32 +
STACK CFI 26ec6 $rbx: .cfa -40 + ^ .cfa: $rsp 40 +
STACK CFI 26eca .cfa: $rsp 64 +
STACK CFI 26f12 .cfa: $rsp 40 +
STACK CFI 26f13 .cfa: $rsp 32 +
STACK CFI 26f14 .cfa: $rsp 24 +
STACK CFI 26f16 .cfa: $rsp 16 +
STACK CFI 26f18 .cfa: $rsp 8 +
STACK CFI 26f20 .cfa: $rsp 64 +
STACK CFI INIT 26ff0 d0 .cfa: $rsp 8 + .ra: .cfa -8 + ^
STACK CFI 26ff1 $rbp: .cfa -16 + ^ .cfa: $rsp 16 +
STACK CFI 26ff2 $rbx: .cfa -24 + ^ .cfa: $rsp 24 +
STACK CFI 26ff6 .cfa: $rsp 48 +
STACK CFI 270a5 .cfa: $rsp 24 +
STACK CFI 270a6 .cfa: $rsp 16 +
STACK CFI 270a7 .cfa: $rsp 8 +
STACK CFI 270a8 .cfa: $rsp 48 +
STACK CFI INIT 270c0 d7 .cfa: $rsp 8 + .ra: .cfa -8 + ^
STACK CFI 270c1 $rbx: .cfa -16 + ^ .cfa: $rsp 16 +
STACK CFI 27196 .cfa: $rsp 8 +
STACK CFI INIT 271a0 2f1 .cfa: $rsp 8 + .ra: .cfa -8 + ^
STACK CFI 271a2 $r15: .cfa -16 + ^ .cfa: $rsp 16 +
STACK CFI 271a4 $r14: .cfa -24 + ^ .cfa: $rsp 24 +
STACK CFI 271a6 $r13: .cfa -32 + ^ .cfa: $rsp 32 +
STACK CFI 271a8 $r12: .cfa -40 + ^ .cfa: $rsp 40 +
STACK CFI 271a9 $rbp: .cfa -48 + ^ .cfa: $rsp 48 +
STACK CFI 271aa $rbx: .cfa -56 + ^ .cfa: $rsp 56 +
STACK CFI 271ae .cfa: $rsp 128 +
STACK CFI 27220 .cfa: $rsp 56 +
STACK CFI 27221 .cfa: $rsp 48 +
STACK CFI 27222 .cfa: $rsp 40 +
STACK CFI 27224 .cfa: $rsp 32 +
STACK CFI 27226 .cfa: $rsp 24 +
STACK CFI 27228 .cfa: $rsp 16 +
STACK CFI 2722a .cfa: $rsp 8 +
STACK CFI 27230 .cfa: $rsp 128 +
STACK CFI INIT 274a0 ac .cfa: $rsp 8 + .ra: .cfa -8 + ^
STACK CFI 274a2 $r13: .cfa -16 + ^ .cfa: $rsp 16 +
STACK CFI 274a4 $r12: .cfa -24 + ^ .cfa: $rsp 24 +
STACK CFI 274a8 $rbp: .cfa -32 + ^ .cfa: $rsp 32 +
STACK CFI 274a9 $rbx: .cfa -40 + ^ .cfa: $rsp 40 +
STACK CFI 274b7 .cfa: $rsp 48 +
STACK CFI 27545 .cfa: $rsp 40 +
STACK CFI 27546 .cfa: $rsp 32 +
STACK CFI 27547 .cfa: $rsp 24 +
STACK CFI 27549 .cfa: $rsp 16 +
STACK CFI 2754b .cfa: $rsp 8 +
STACK CFI INIT 27550 95 .cfa: $rsp 8 + .ra: .cfa -8 + ^
STACK CFI 27551 $rbp: .cfa -16 + ^ .cfa: $rsp 16 +
STACK CFI 27552 $rbx: .cfa -24 + ^ .cfa: $rsp 24 +
STACK CFI 27560 .cfa: $rsp 32 +
STACK CFI 275e2 .cfa: $rsp 24 +
STACK CFI 275e3 .cfa: $rsp 16 +
STACK CFI 275e4 .cfa: $rsp 8 +
STACK CFI INIT 275f0 2bf .cfa: $rsp 8 + .ra: .cfa -8 + ^
STACK CFI 275f2 $r13: .cfa -16 + ^ .cfa: $rsp 16 +
STACK CFI 275f4 $r12: .cfa -24 + ^ .cfa: $rsp 24 +
STACK CFI 275f5 $rbp: .cfa -32 + ^ .cfa: $rsp 32 +
STACK CFI 275f6 $rbx: .cfa -40 + ^ .cfa: $rsp 40 +
STACK CFI 275fa .cfa: $rsp 112 +
STACK CFI 2766c .cfa: $rsp 40 +
STACK CFI 2766d .cfa: $rsp 32 +
STACK CFI 2766e .cfa: $rsp 24 +
STACK CFI 27670 .cfa: $rsp 16 +
STACK CFI 27672 .cfa: $rsp 8 +
STACK CFI 27678 .cfa: $rsp 112 +
STACK CFI INIT 278b0 12c .cfa: $rsp 8 + .ra: .cfa -8 + ^
STACK CFI 278b2 $r13: .cfa -16 + ^ .cfa: $rsp 16 +
STACK CFI 278b4 $r12: .cfa -24 + ^ .cfa: $rsp 24 +
STACK CFI 278b5 $rbp: .cfa -32 + ^ .cfa: $rsp 32 +
STACK CFI 278b6 $rbx: .cfa -40 + ^ .cfa: $rsp 40 +
STACK CFI 278ba .cfa: $rsp 64 +
STACK CFI 27901 .cfa: $rsp 40 +
STACK CFI 27902 .cfa: $rsp 32 +
STACK CFI 27903 .cfa: $rsp 24 +
STACK CFI 27905 .cfa: $rsp 16 +
STACK CFI 27907 .cfa: $rsp 8 +
STACK CFI 27910 .cfa: $rsp 64 +
STACK CFI INIT 279e0 1fa .cfa: $rsp 8 + .ra: .cfa -8 + ^
STACK CFI 279e2 $r13: .cfa -16 + ^ .cfa: $rsp 16 +
STACK CFI 279e4 $r12: .cfa -24 + ^ .cfa: $rsp 24 +
STACK CFI 279e5 $rbp: .cfa -32 + ^ .cfa: $rsp 32 +
STACK CFI 279e6 $rbx: .cfa -40 + ^ .cfa: $rsp 40 +
STACK CFI 279ed .cfa: $rsp 112 +
STACK CFI 27b86 .cfa: $rsp 40 +
STACK CFI 27b87 .cfa: $rsp 32 +
STACK CFI 27b88 .cfa: $rsp 24 +
STACK CFI 27b8a .cfa: $rsp 16 +
STACK CFI 27b8c .cfa: $rsp 8 +
STACK CFI 27b90 .cfa: $rsp 112 +
STACK CFI INIT 27be0 203 .cfa: $rsp 8 + .ra: .cfa -8 + ^
STACK CFI 27be2 $r12: .cfa -16 + ^ .cfa: $rsp 16 +
STACK CFI 27be3 $rbp: .cfa -24 + ^ .cfa: $rsp 24 +
STACK CFI 27be6 $rbx: .cfa -32 + ^ .cfa: $rsp 32 +
STACK CFI 27bed .cfa: $rsp 48 +
STACK CFI 27cb8 .cfa: $rsp 32 +
STACK CFI 27cb9 .cfa: $rsp 24 +
STACK CFI 27cba .cfa: $rsp 16 +
STACK CFI 27cbc .cfa: $rsp 8 +
STACK CFI 27cc0 .cfa: $rsp 48 +
STACK CFI INIT 27df0 170 .cfa: $rsp 8 + .ra: .cfa -8 + ^
STACK CFI 27df2 $r12: .cfa -16 + ^ .cfa: $rsp 16 +
STACK CFI 27df3 $rbp: .cfa -24 + ^ .cfa: $rsp 24 +
STACK CFI 27df4 $rbx: .cfa -32 + ^ .cfa: $rsp 32 +
STACK CFI 27df8 .cfa: $rsp 48 +
STACK CFI 27ea5 .cfa: $rsp 32 +
STACK CFI 27ea6 .cfa: $rsp 24 +
STACK CFI 27ea7 .cfa: $rsp 16 +
STACK CFI 27ea9 .cfa: $rsp 8 +
STACK CFI 27eb0 .cfa: $rsp 48 +
STACK CFI INIT 27f60 350 .cfa: $rsp 8 + .ra: .cfa -8 + ^
STACK CFI 27f62 $r15: .cfa -16 + ^ .cfa: $rsp 16 +
STACK CFI 27f64 $r14: .cfa -24 + ^ .cfa: $rsp 24 +
STACK CFI 27f66 $r13: .cfa -32 + ^ .cfa: $rsp 32 +
STACK CFI 27f68 $r12: .cfa -40 + ^ .cfa: $rsp 40 +
STACK CFI 27f69 $rbp: .cfa -48 + ^ .cfa: $rsp 48 +
STACK CFI 27f6a $rbx: .cfa -56 + ^ .cfa: $rsp 56 +
STACK CFI 27f74 .cfa: $rsp 208 +
STACK CFI 28144 .cfa: $rsp 56 +
STACK CFI 28145 .cfa: $rsp 48 +
STACK CFI 28146 .cfa: $rsp 40 +
STACK CFI 28148 .cfa: $rsp 32 +
STACK CFI 2814a .cfa: $rsp 24 +
STACK CFI 2814c .cfa: $rsp 16 +
STACK CFI 2814e .cfa: $rsp 8 +
STACK CFI 28150 .cfa: $rsp 208 +
STACK CFI INIT 282b0 262 .cfa: $rsp 8 + .ra: .cfa -8 + ^
STACK CFI 282b2 $r12: .cfa -16 + ^ .cfa: $rsp 16 +
STACK CFI 282b3 $rbp: .cfa -24 + ^ .cfa: $rsp 24 +
STACK CFI 282b7 $rbx: .cfa -32 + ^ .cfa: $rsp 32 +
STACK CFI 282be .cfa: $rsp 48 +
STACK CFI 283cb .cfa: $rsp 32 +
STACK CFI 283cc .cfa: $rsp 24 +
STACK CFI 283cd .cfa: $rsp 16 +
STACK CFI 283cf .cfa: $rsp 8 +
STACK CFI 283d0 .cfa: $rsp 48 +
STACK CFI INIT 28520 264 .cfa: $rsp 8 + .ra: .cfa -8 + ^
STACK CFI 28522 $r14: .cfa -16 + ^ .cfa: $rsp 16 +
STACK CFI 28524 $r13: .cfa -24 + ^ .cfa: $rsp 24 +
STACK CFI 2852a $r12: .cfa -32 + ^ .cfa: $rsp 32 +
STACK CFI 2852b $rbp: .cfa -40 + ^ .cfa: $rsp 40 +
STACK CFI 28531 $rbx: .cfa -48 + ^ .cfa: $rsp 48 +
STACK CFI 28538 .cfa: $rsp 144 +
STACK CFI 285a6 .cfa: $rsp 48 +
STACK CFI 285a7 .cfa: $rsp 40 +
STACK CFI 285a8 .cfa: $rsp 32 +
STACK CFI 285aa .cfa: $rsp 24 +
STACK CFI 285ac .cfa: $rsp 16 +
STACK CFI 285ae .cfa: $rsp 8 +
STACK CFI 285b0 .cfa: $rsp 144 +
STACK CFI INIT 28790 36d .cfa: $rsp 8 + .ra: .cfa -8 + ^
STACK CFI 28792 $r14: .cfa -16 + ^ .cfa: $rsp 16 +
STACK CFI 28794 $r13: .cfa -24 + ^ .cfa: $rsp 24 +
STACK CFI 28796 $r12: .cfa -32 + ^ .cfa: $rsp 32 +
STACK CFI 28797 $rbp: .cfa -40 + ^ .cfa: $rsp 40 +
STACK CFI 28798 $rbx: .cfa -48 + ^ .cfa: $rsp 48 +
STACK CFI 2879f .cfa: $rsp 144 +
STACK CFI 288c2 .cfa: $rsp 48 +
STACK CFI 288c3 .cfa: $rsp 40 +
STACK CFI 288c4 .cfa: $rsp 32 +
STACK CFI 288c6 .cfa: $rsp 24 +
STACK CFI 288c8 .cfa: $rsp 16 +
STACK CFI 288ca .cfa: $rsp 8 +
STACK CFI 288d0 .cfa: $rsp 144 +
STACK CFI INIT 28b00 15f .cfa: $rsp 8 + .ra: .cfa -8 + ^
STACK CFI 28b02 $r13: .cfa -16 + ^ .cfa: $rsp 16 +
STACK CFI 28b04 $r12: .cfa -24 + ^ .cfa: $rsp 24 +
STACK CFI 28b05 $rbp: .cfa -32 + ^ .cfa: $rsp 32 +
STACK CFI 28b06 $rbx: .cfa -40 + ^ .cfa: $rsp 40 +
STACK CFI 28b0d .cfa: $rsp 112 +
STACK CFI 28b61 .cfa: $rsp 40 +
STACK CFI 28b62 .cfa: $rsp 32 +
STACK CFI 28b63 .cfa: $rsp 24 +
STACK CFI 28b65 .cfa: $rsp 16 +
STACK CFI 28b67 .cfa: $rsp 8 +
STACK CFI 28b70 .cfa: $rsp 112 +
STACK CFI INIT 28c60 3c7 .cfa: $rsp 8 + .ra: .cfa -8 + ^
STACK CFI 28c62 $r15: .cfa -16 + ^ .cfa: $rsp 16 +
STACK CFI 28c64 $r14: .cfa -24 + ^ .cfa: $rsp 24 +
STACK CFI 28c66 $r13: .cfa -32 + ^ .cfa: $rsp 32 +
STACK CFI 28c68 $r12: .cfa -40 + ^ .cfa: $rsp 40 +
STACK CFI 28c69 $rbp: .cfa -48 + ^ .cfa: $rsp 48 +
STACK CFI 28c6a $rbx: .cfa -56 + ^ .cfa: $rsp 56 +
STACK CFI 28c71 .cfa: $rsp 144 +
STACK CFI 28d02 .cfa: $rsp 56 +
STACK CFI 28d03 .cfa: $rsp 48 +
STACK CFI 28d04 .cfa: $rsp 40 +
STACK CFI 28d06 .cfa: $rsp 32 +
STACK CFI 28d08 .cfa: $rsp 24 +
STACK CFI 28d0a .cfa: $rsp 16 +
STACK CFI 28d0c .cfa: $rsp 8 +
STACK CFI 28d10 .cfa: $rsp 144 +
STACK CFI INIT 29030 4e .cfa: $rsp 8 + .ra: .cfa -8 + ^
STACK CFI 29034 .cfa: $rsp 32 +
STACK CFI 2906c .cfa: $rsp 8 +
STACK CFI 29070 .cfa: $rsp 32 +
STACK CFI INIT 29080 17d .cfa: $rsp 8 + .ra: .cfa -8 + ^
STACK CFI 29082 $r12: .cfa -16 + ^ .cfa: $rsp 16 +
STACK CFI 29083 $rbp: .cfa -24 + ^ .cfa: $rsp 24 +
STACK CFI 29087 $rbx: .cfa -32 + ^ .cfa: $rsp 32 +
STACK CFI 290fc .cfa: $rsp 24 +
STACK CFI 290fd .cfa: $rsp 16 +
STACK CFI 290ff .cfa: $rsp 8 +
STACK CFI 29108 .cfa: $rsp 32 +
STACK CFI 29109 .cfa: $rsp 24 +
STACK CFI 2910f .cfa: $rsp 16 +
STACK CFI 29111 .cfa: $rsp 8 +
STACK CFI 29118 .cfa: $rsp 32 +
STACK CFI INIT 29200 2210 .cfa: $rsp 8 + .ra: .cfa -8 + ^
STACK CFI 29202 $r13: .cfa -16 + ^ .cfa: $rsp 16 +
STACK CFI 29204 $r12: .cfa -24 + ^ .cfa: $rsp 24 +
STACK CFI 29205 $rbp: .cfa -32 + ^ .cfa: $rsp 32 +
STACK CFI 29206 $rbx: .cfa -40 + ^ .cfa: $rsp 40 +
STACK CFI 2920f .cfa: $rsp 128 +
STACK CFI 2947a .cfa: $rsp 40 +
STACK CFI 2947b .cfa: $rsp 32 +
STACK CFI 2947c .cfa: $rsp 24 +
STACK CFI 2947e .cfa: $rsp 16 +
STACK CFI 29480 .cfa: $rsp 8 +
STACK CFI 29488 .cfa: $rsp 128 +
STACK CFI INIT 2b410 1da .cfa: $rsp 8 + .ra: .cfa -8 + ^
STACK CFI 2b412 $r12: .cfa -16 + ^ .cfa: $rsp 16 +
STACK CFI 2b413 $rbp: .cfa -24 + ^ .cfa: $rsp 24 +
STACK CFI 2b414 $rbx: .cfa -32 + ^ .cfa: $rsp 32 +
STACK CFI 2b418 .cfa: $rsp 48 +
STACK CFI 2b459 .cfa: $rsp 32 +
STACK CFI 2b45a .cfa: $rsp 24 +
STACK CFI 2b45b .cfa: $rsp 16 +
STACK CFI 2b45d .cfa: $rsp 8 +
STACK CFI 2b460 .cfa: $rsp 48 +
STACK CFI INIT 2b5f0 1e7 .cfa: $rsp 8 + .ra: .cfa -8 + ^
STACK CFI 2b5f2 $r12: .cfa -16 + ^ .cfa: $rsp 16 +
STACK CFI 2b5f3 $rbp: .cfa -24 + ^ .cfa: $rsp 24 +
STACK CFI 2b5f4 $rbx: .cfa -32 + ^ .cfa: $rsp 32 +
STACK CFI 2b5f8 .cfa: $rsp 48 +
STACK CFI 2b63c .cfa: $rsp 32 +
STACK CFI 2b63d .cfa: $rsp 24 +
STACK CFI 2b63e .cfa: $rsp 16 +
STACK CFI 2b640 .cfa: $rsp 8 +
STACK CFI 2b648 .cfa: $rsp 48 +
STACK CFI INIT 2b7e0 1e3 .cfa: $rsp 8 + .ra: .cfa -8 + ^
STACK CFI 2b7e2 $r13: .cfa -16 + ^ .cfa: $rsp 16 +
STACK CFI 2b7e4 $r12: .cfa -24 + ^ .cfa: $rsp 24 +
STACK CFI 2b7e5 $rbp: .cfa -32 + ^ .cfa: $rsp 32 +
STACK CFI 2b7e6 $rbx: .cfa -40 + ^ .cfa: $rsp 40 +
STACK CFI 2b7ea .cfa: $rsp 64 +
STACK CFI 2b859 .cfa: $rsp 40 +
STACK CFI 2b85a .cfa: $rsp 32 +
STACK CFI 2b85b .cfa: $rsp 24 +
STACK CFI 2b85d .cfa: $rsp 16 +
STACK CFI 2b85f .cfa: $rsp 8 +
STACK CFI 2b860 .cfa: $rsp 64 +
STACK CFI INIT 2b9d0 f3 .cfa: $rsp 8 + .ra: .cfa -8 + ^
STACK CFI 2b9d2 $r12: .cfa -16 + ^ .cfa: $rsp 16 +
STACK CFI 2b9d3 $rbp: .cfa -24 + ^ .cfa: $rsp 24 +
STACK CFI 2b9d4 $rbx: .cfa -32 + ^ .cfa: $rsp 32 +
STACK CFI 2b9db .cfa: $rsp 48 +
STACK CFI 2baa6 .cfa: $rsp 32 +
STACK CFI 2baa7 .cfa: $rsp 24 +
STACK CFI 2baa8 .cfa: $rsp 16 +
STACK CFI 2baaa .cfa: $rsp 8 +
STACK CFI 2baab .cfa: $rsp 48 +
STACK CFI INIT 2bad0 7d .cfa: $rsp 8 + .ra: .cfa -8 + ^
STACK CFI 2bad1 $rbp: .cfa -16 + ^ .cfa: $rsp 16 +
STACK CFI 2bad2 $rbx: .cfa -24 + ^ .cfa: $rsp 24 +
STACK CFI 2bad9 .cfa: $rsp 32 +
STACK CFI 2bb4a .cfa: $rsp 24 +
STACK CFI 2bb4b .cfa: $rsp 16 +
STACK CFI 2bb4c .cfa: $rsp 8 +
STACK CFI INIT 2bb50 37f .cfa: $rsp 8 + .ra: .cfa -8 + ^
STACK CFI 2bb52 $r14: .cfa -16 + ^ .cfa: $rsp 16 +
STACK CFI 2bb54 $r13: .cfa -24 + ^ .cfa: $rsp 24 +
STACK CFI 2bb56 $r12: .cfa -32 + ^ .cfa: $rsp 32 +
STACK CFI 2bb57 $rbp: .cfa -40 + ^ .cfa: $rsp 40 +
STACK CFI 2bb5b $rbx: .cfa -48 + ^ .cfa: $rsp 48 +
STACK CFI 2bb62 .cfa: $rsp 144 +
STACK CFI 2bc4e .cfa: $rsp 48 +
STACK CFI 2bc4f .cfa: $rsp 40 +
STACK CFI 2bc50 .cfa: $rsp 32 +
STACK CFI 2bc52 .cfa: $rsp 24 +
STACK CFI 2bc54 .cfa: $rsp 16 +
STACK CFI 2bc56 .cfa: $rsp 8 +
STACK CFI 2bc60 .cfa: $rsp 144 +
STACK CFI INIT 2bed0 2d8 .cfa: $rsp 8 + .ra: .cfa -8 + ^
STACK CFI 2bed2 $r13: .cfa -16 + ^ .cfa: $rsp 16 +
STACK CFI 2bed4 $r12: .cfa -24 + ^ .cfa: $rsp 24 +
STACK CFI 2bed5 $rbp: .cfa -32 + ^ .cfa: $rsp 32 +
STACK CFI 2bed6 $rbx: .cfa -40 + ^ .cfa: $rsp 40 +
STACK CFI 2beda .cfa: $rsp 80 +
STACK CFI 2bf50 .cfa: $rsp 40 +
STACK CFI 2bf51 .cfa: $rsp 32 +
STACK CFI 2bf52 .cfa: $rsp 24 +
STACK CFI 2bf54 .cfa: $rsp 16 +
STACK CFI 2bf56 .cfa: $rsp 8 +
STACK CFI 2bf60 .cfa: $rsp 80 +
STACK CFI INIT 2c1b0 2e6 .cfa: $rsp 8 + .ra: .cfa -8 + ^
STACK CFI 2c1b2 $r14: .cfa -16 + ^ .cfa: $rsp 16 +
STACK CFI 2c1b4 $r13: .cfa -24 + ^ .cfa: $rsp 24 +
STACK CFI 2c1b9 $r12: .cfa -32 + ^ .cfa: $rsp 32 +
STACK CFI 2c1ba $rbp: .cfa -40 + ^ .cfa: $rsp 40 +
STACK CFI 2c1be $rbx: .cfa -48 + ^ .cfa: $rsp 48 +
STACK CFI 2c1c4 .cfa: $rsp 64 +
STACK CFI 2c2b3 .cfa: $rsp 48 +
STACK CFI 2c2b4 .cfa: $rsp 40 +
STACK CFI 2c2b5 .cfa: $rsp 32 +
STACK CFI 2c2b7 .cfa: $rsp 24 +
STACK CFI 2c2b9 .cfa: $rsp 16 +
STACK CFI 2c2bb .cfa: $rsp 8 +
STACK CFI 2c2c0 .cfa: $rsp 64 +
STACK CFI INIT 37940 32 .cfa: $rsp 8 + .ra: .cfa -8 + ^
STACK CFI 37941 $rbx: .cfa -16 + ^ .cfa: $rsp 16 +
STACK CFI 37963 .cfa: $rsp 8 +
STACK CFI 37970 .cfa: $rsp 16 +
STACK CFI 37971 .cfa: $rsp 8 +
STACK CFI INIT 2c4a0 72b .cfa: $rsp 8 + .ra: .cfa -8 + ^
STACK CFI 2c4a2 $r15: .cfa -16 + ^ .cfa: $rsp 16 +
STACK CFI 2c4a4 $r14: .cfa -24 + ^ .cfa: $rsp 24 +
STACK CFI 2c4a6 $r13: .cfa -32 + ^ .cfa: $rsp 32 +
STACK CFI 2c4a8 $r12: .cfa -40 + ^ .cfa: $rsp 40 +
STACK CFI 2c4a9 $rbp: .cfa -48 + ^ .cfa: $rsp 48 +
STACK CFI 2c4aa $rbx: .cfa -56 + ^ .cfa: $rsp 56 +
STACK CFI 2c4b1 .cfa: $rsp 176 +
STACK CFI 2c92d .cfa: $rsp 56 +
STACK CFI 2c92e .cfa: $rsp 48 +
STACK CFI 2c92f .cfa: $rsp 40 +
STACK CFI 2c931 .cfa: $rsp 32 +
STACK CFI 2c933 .cfa: $rsp 24 +
STACK CFI 2c935 .cfa: $rsp 16 +
STACK CFI 2c937 .cfa: $rsp 8 +
STACK CFI 2c940 .cfa: $rsp 176 +
STACK CFI INIT 2cbd0 40a .cfa: $rsp 8 + .ra: .cfa -8 + ^
STACK CFI 2cbd2 $r14: .cfa -16 + ^ .cfa: $rsp 16 +
STACK CFI 2cbd4 $r13: .cfa -24 + ^ .cfa: $rsp 24 +
STACK CFI 2cbd6 $r12: .cfa -32 + ^ .cfa: $rsp 32 +
STACK CFI 2cbd7 $rbp: .cfa -40 + ^ .cfa: $rsp 40 +
STACK CFI 2cbd8 $rbx: .cfa -48 + ^ .cfa: $rsp 48 +
STACK CFI 2cbdc .cfa: $rsp 112 +
STACK CFI 2ccff .cfa: $rsp 48 +
STACK CFI 2cd00 .cfa: $rsp 40 +
STACK CFI 2cd01 .cfa: $rsp 32 +
STACK CFI 2cd03 .cfa: $rsp 24 +
STACK CFI 2cd05 .cfa: $rsp 16 +
STACK CFI 2cd07 .cfa: $rsp 8 +
STACK CFI 2cd10 .cfa: $rsp 112 +
STACK CFI INIT 2cfe0 112 .cfa: $rsp 8 + .ra: .cfa -8 + ^
STACK CFI 2cfe1 $rbp: .cfa -16 + ^ .cfa: $rsp 16 +
STACK CFI 2cfe2 $rbx: .cfa -24 + ^ .cfa: $rsp 24 +
STACK CFI 2cfe6 .cfa: $rsp 48 +
STACK CFI 2d024 .cfa: $rsp 24 +
STACK CFI 2d025 .cfa: $rsp 16 +
STACK CFI 2d026 .cfa: $rsp 8 +
STACK CFI 2d030 .cfa: $rsp 48 +
STACK CFI INIT 2d100 316 .cfa: $rsp 8 + .ra: .cfa -8 + ^
STACK CFI 2d102 $r12: .cfa -16 + ^ .cfa: $rsp 16 +
STACK CFI 2d103 $rbp: .cfa -24 + ^ .cfa: $rsp 24 +
STACK CFI 2d104 $rbx: .cfa -32 + ^ .cfa: $rsp 32 +
STACK CFI 2d108 .cfa: $rsp 48 +
STACK CFI 2d177 .cfa: $rsp 32 +
STACK CFI 2d178 .cfa: $rsp 24 +
STACK CFI 2d179 .cfa: $rsp 16 +
STACK CFI 2d17b .cfa: $rsp 8 +
STACK CFI 2d180 .cfa: $rsp 48 +
STACK CFI INIT 2d420 102 .cfa: $rsp 8 + .ra: .cfa -8 + ^
STACK CFI 2d421 $rbp: .cfa -16 + ^ .cfa: $rsp 16 +
STACK CFI 2d422 $rbx: .cfa -24 + ^ .cfa: $rsp 24 +
STACK CFI 2d426 .cfa: $rsp 48 +
STACK CFI 2d496 .cfa: $rsp 24 +
STACK CFI 2d497 .cfa: $rsp 16 +
STACK CFI 2d498 .cfa: $rsp 8 +
STACK CFI 2d4a0 .cfa: $rsp 48 +
STACK CFI INIT 2d530 4a3 .cfa: $rsp 8 + .ra: .cfa -8 + ^
STACK CFI 2d532 $r15: .cfa -16 + ^ .cfa: $rsp 16 +
STACK CFI 2d534 $r14: .cfa -24 + ^ .cfa: $rsp 24 +
STACK CFI 2d536 $r13: .cfa -32 + ^ .cfa: $rsp 32 +
STACK CFI 2d538 $r12: .cfa -40 + ^ .cfa: $rsp 40 +
STACK CFI 2d539 $rbp: .cfa -48 + ^ .cfa: $rsp 48 +
STACK CFI 2d53a $rbx: .cfa -56 + ^ .cfa: $rsp 56 +
STACK CFI 2d544 .cfa: $rsp 208 +
STACK CFI 2d6f6 .cfa: $rsp 56 +
STACK CFI 2d6f7 .cfa: $rsp 48 +
STACK CFI 2d6f8 .cfa: $rsp 40 +
STACK CFI 2d6fa .cfa: $rsp 32 +
STACK CFI 2d6fc .cfa: $rsp 24 +
STACK CFI 2d6fe .cfa: $rsp 16 +
STACK CFI 2d700 .cfa: $rsp 8 +
STACK CFI 2d708 .cfa: $rsp 208 +
STACK CFI INIT 2d9e0 9 .cfa: $rsp 8 + .ra: .cfa -8 + ^
STACK CFI INIT 2d9f0 168 .cfa: $rsp 8 + .ra: .cfa -8 + ^
STACK CFI 2d9f2 $r13: .cfa -16 + ^ .cfa: $rsp 16 +
STACK CFI 2d9f4 $r12: .cfa -24 + ^ .cfa: $rsp 24 +
STACK CFI 2d9f5 $rbp: .cfa -32 + ^ .cfa: $rsp 32 +
STACK CFI 2d9f6 $rbx: .cfa -40 + ^ .cfa: $rsp 40 +
STACK CFI 2d9fd .cfa: $rsp 96 +
STACK CFI 2db23 .cfa: $rsp 40 +
STACK CFI 2db24 .cfa: $rsp 32 +
STACK CFI 2db25 .cfa: $rsp 24 +
STACK CFI 2db27 .cfa: $rsp 16 +
STACK CFI 2db29 .cfa: $rsp 8 +
STACK CFI 2db2a .cfa: $rsp 96 +
STACK CFI INIT 2db60 200 .cfa: $rsp 8 + .ra: .cfa -8 + ^
STACK CFI 2db62 $r13: .cfa -16 + ^ .cfa: $rsp 16 +
STACK CFI 2db64 $r12: .cfa -24 + ^ .cfa: $rsp 24 +
STACK CFI 2db65 $rbp: .cfa -32 + ^ .cfa: $rsp 32 +
STACK CFI 2db66 $rbx: .cfa -40 + ^ .cfa: $rsp 40 +
STACK CFI 2db6a .cfa: $rsp 64 +
STACK CFI 2dc1a .cfa: $rsp 40 +
STACK CFI 2dc1b .cfa: $rsp 32 +
STACK CFI 2dc1c .cfa: $rsp 24 +
STACK CFI 2dc1e .cfa: $rsp 16 +
STACK CFI 2dc20 .cfa: $rsp 8 +
STACK CFI 2dc28 .cfa: $rsp 64 +
STACK CFI INIT 2dd60 69b .cfa: $rsp 8 + .ra: .cfa -8 + ^
STACK CFI 2dd62 $r14: .cfa -16 + ^ .cfa: $rsp 16 +
STACK CFI 2dd64 $r13: .cfa -24 + ^ .cfa: $rsp 24 +
STACK CFI 2dd66 $r12: .cfa -32 + ^ .cfa: $rsp 32 +
STACK CFI 2dd67 $rbp: .cfa -40 + ^ .cfa: $rsp 40 +
STACK CFI 2dd6a $rbx: .cfa -48 + ^ .cfa: $rsp 48 +
STACK CFI 2dd71 .cfa: $rsp 64 +
STACK CFI 2dff4 .cfa: $rsp 48 +
STACK CFI 2dff5 .cfa: $rsp 40 +
STACK CFI 2dff6 .cfa: $rsp 32 +
STACK CFI 2dff8 .cfa: $rsp 24 +
STACK CFI 2dffa .cfa: $rsp 16 +
STACK CFI 2dffc .cfa: $rsp 8 +
STACK CFI 2e000 .cfa: $rsp 64 +
STACK CFI INIT 37980 2a .cfa: $rsp 8 + .ra: .cfa -8 + ^
STACK CFI 37981 $rbx: .cfa -16 + ^ .cfa: $rsp 16 +
STACK CFI 3799f .cfa: $rsp 8 +
STACK CFI 379a8 .cfa: $rsp 16 +
STACK CFI 379a9 .cfa: $rsp 8 +
STACK CFI INIT 2e400 359 .cfa: $rsp 8 + .ra: .cfa -8 + ^
STACK CFI 2e402 $r13: .cfa -16 + ^ .cfa: $rsp 16 +
STACK CFI 2e404 $r12: .cfa -24 + ^ .cfa: $rsp 24 +
STACK CFI 2e405 $rbp: .cfa -32 + ^ .cfa: $rsp 32 +
STACK CFI 2e406 $rbx: .cfa -40 + ^ .cfa: $rsp 40 +
STACK CFI 2e40a .cfa: $rsp 80 +
STACK CFI 2e44b .cfa: $rsp 40 +
STACK CFI 2e44c .cfa: $rsp 32 +
STACK CFI 2e44d .cfa: $rsp 24 +
STACK CFI 2e44f .cfa: $rsp 16 +
STACK CFI 2e451 .cfa: $rsp 8 +
STACK CFI 2e458 .cfa: $rsp 80 +
STACK CFI INIT 2e760 25a .cfa: $rsp 8 + .ra: .cfa -8 + ^
STACK CFI 2e762 $r15: .cfa -16 + ^ .cfa: $rsp 16 +
STACK CFI 2e764 $r14: .cfa -24 + ^ .cfa: $rsp 24 +
STACK CFI 2e766 $r13: .cfa -32 + ^ .cfa: $rsp 32 +
STACK CFI 2e768 $r12: .cfa -40 + ^ .cfa: $rsp 40 +
STACK CFI 2e769 $rbp: .cfa -48 + ^ .cfa: $rsp 48 +
STACK CFI 2e76a $rbx: .cfa -56 + ^ .cfa: $rsp 56 +
STACK CFI 2e76e .cfa: $rsp 80 +
STACK CFI 2e7dd .cfa: $rsp 56 +
STACK CFI 2e7de .cfa: $rsp 48 +
STACK CFI 2e7df .cfa: $rsp 40 +
STACK CFI 2e7e1 .cfa: $rsp 32 +
STACK CFI 2e7e3 .cfa: $rsp 24 +
STACK CFI 2e7e5 .cfa: $rsp 16 +
STACK CFI 2e7e7 .cfa: $rsp 8 +
STACK CFI 2e7f0 .cfa: $rsp 80 +
STACK CFI INIT 2e9c0 9 .cfa: $rsp 8 + .ra: .cfa -8 + ^
STACK CFI INIT 2e9d0 578 .cfa: $rsp 8 + .ra: .cfa -8 + ^
STACK CFI 2e9d2 $r14: .cfa -16 + ^ .cfa: $rsp 16 +
STACK CFI 2e9d4 $r13: .cfa -24 + ^ .cfa: $rsp 24 +
STACK CFI 2e9d6 $r12: .cfa -32 + ^ .cfa: $rsp 32 +
STACK CFI 2e9d7 $rbp: .cfa -40 + ^ .cfa: $rsp 40 +
STACK CFI 2e9d8 $rbx: .cfa -48 + ^ .cfa: $rsp 48 +
STACK CFI 2e9dc .cfa: $rsp 80 +
STACK CFI 2ea2e .cfa: $rsp 48 +
STACK CFI 2ea2f .cfa: $rsp 40 +
STACK CFI 2ea30 .cfa: $rsp 32 +
STACK CFI 2ea32 .cfa: $rsp 24 +
STACK CFI 2ea34 .cfa: $rsp 16 +
STACK CFI 2ea36 .cfa: $rsp 8 +
STACK CFI 2ea40 .cfa: $rsp 80 +
STACK CFI INIT 2ef50 483 .cfa: $rsp 8 + .ra: .cfa -8 + ^
STACK CFI 2ef52 $r15: .cfa -16 + ^ .cfa: $rsp 16 +
STACK CFI 2ef54 $r14: .cfa -24 + ^ .cfa: $rsp 24 +
STACK CFI 2ef56 $r13: .cfa -32 + ^ .cfa: $rsp 32 +
STACK CFI 2ef58 $r12: .cfa -40 + ^ .cfa: $rsp 40 +
STACK CFI 2ef59 $rbp: .cfa -48 + ^ .cfa: $rsp 48 +
STACK CFI 2ef5a $rbx: .cfa -56 + ^ .cfa: $rsp 56 +
STACK CFI 2ef5e .cfa: $rsp 96 +
STACK CFI 2efb0 .cfa: $rsp 56 +
STACK CFI 2efb1 .cfa: $rsp 48 +
STACK CFI 2efb2 .cfa: $rsp 40 +
STACK CFI 2efb4 .cfa: $rsp 32 +
STACK CFI 2efb6 .cfa: $rsp 24 +
STACK CFI 2efb8 .cfa: $rsp 16 +
STACK CFI 2efba .cfa: $rsp 8 +
STACK CFI 2efc0 .cfa: $rsp 96 +
STACK CFI INIT 2f3e0 1cf .cfa: $rsp 8 + .ra: .cfa -8 + ^
STACK CFI 2f3e1 $rbp: .cfa -16 + ^ .cfa: $rsp 16 +
STACK CFI 2f3e2 $rbx: .cfa -24 + ^ .cfa: $rsp 24 +
STACK CFI 2f3e6 .cfa: $rsp 48 +
STACK CFI 2f45a .cfa: $rsp 24 +
STACK CFI 2f45b .cfa: $rsp 16 +
STACK CFI 2f45c .cfa: $rsp 8 +
STACK CFI 2f460 .cfa: $rsp 48 +
STACK CFI INIT 2f5b0 72a .cfa: $rsp 8 + .ra: .cfa -8 + ^
STACK CFI 2f5b2 $r14: .cfa -16 + ^ .cfa: $rsp 16 +
STACK CFI 2f5b4 $r13: .cfa -24 + ^ .cfa: $rsp 24 +
STACK CFI 2f5b6 $r12: .cfa -32 + ^ .cfa: $rsp 32 +
STACK CFI 2f5b7 $rbp: .cfa -40 + ^ .cfa: $rsp 40 +
STACK CFI 2f5b8 $rbx: .cfa -48 + ^ .cfa: $rsp 48 +
STACK CFI 2f5bc .cfa: $rsp 112 +
STACK CFI 2f62e .cfa: $rsp 48 +
STACK CFI 2f62f .cfa: $rsp 40 +
STACK CFI 2f630 .cfa: $rsp 32 +
STACK CFI 2f632 .cfa: $rsp 24 +
STACK CFI 2f634 .cfa: $rsp 16 +
STACK CFI 2f636 .cfa: $rsp 8 +
STACK CFI 2f640 .cfa: $rsp 112 +
STACK CFI INIT 2fce0 10b .cfa: $rsp 8 + .ra: .cfa -8 + ^
STACK CFI 2fce2 $r12: .cfa -16 + ^ .cfa: $rsp 16 +
STACK CFI 2fce3 $rbp: .cfa -24 + ^ .cfa: $rsp 24 +
STACK CFI 2fce4 $rbx: .cfa -32 + ^ .cfa: $rsp 32 +
STACK CFI 2fce8 .cfa: $rsp 48 +
STACK CFI 2fd57 .cfa: $rsp 32 +
STACK CFI 2fd58 .cfa: $rsp 24 +
STACK CFI 2fd59 .cfa: $rsp 16 +
STACK CFI 2fd5b .cfa: $rsp 8 +
STACK CFI 2fd60 .cfa: $rsp 48 +
STACK CFI INIT 379b0 31b .cfa: $rsp 8 + .ra: .cfa -8 + ^
STACK CFI 379b2 $r15: .cfa -16 + ^ .cfa: $rsp 16 +
STACK CFI 379b4 $r14: .cfa -24 + ^ .cfa: $rsp 24 +
STACK CFI 379b9 $r13: .cfa -32 + ^ .cfa: $rsp 32 +
STACK CFI 379bb $r12: .cfa -40 + ^ .cfa: $rsp 40 +
STACK CFI 379bf $rbp: .cfa -48 + ^ .cfa: $rsp 48 +
STACK CFI 379c0 $rbx: .cfa -56 + ^ .cfa: $rsp 56 +
STACK CFI 379ca .cfa: $rsp 192 +
STACK CFI 37b6e .cfa: $rsp 56 +
STACK CFI 37b6f .cfa: $rsp 48 +
STACK CFI 37b70 .cfa: $rsp 40 +
STACK CFI 37b72 .cfa: $rsp 32 +
STACK CFI 37b74 .cfa: $rsp 24 +
STACK CFI 37b76 .cfa: $rsp 16 +
STACK CFI 37b78 .cfa: $rsp 8 +
STACK CFI 37b80 .cfa: $rsp 192 +
STACK CFI INIT 2fdf0 5 .cfa: $rsp 8 + .ra: .cfa -8 + ^
STACK CFI INIT 2fe00 6 .cfa: $rsp 8 + .ra: .cfa -8 + ^
STACK CFI INIT 37cd0 32b .cfa: $rsp 8 + .ra: .cfa -8 + ^
STACK CFI 37cd2 $r15: .cfa -16 + ^ .cfa: $rsp 16 +
STACK CFI 37cd4 $r14: .cfa -24 + ^ .cfa: $rsp 24 +
STACK CFI 37cd9 $r13: .cfa -32 + ^ .cfa: $rsp 32 +
STACK CFI 37cdb $r12: .cfa -40 + ^ .cfa: $rsp 40 +
STACK CFI 37cdf $rbp: .cfa -48 + ^ .cfa: $rsp 48 +
STACK CFI 37ce0 $rbx: .cfa -56 + ^ .cfa: $rsp 56 +
STACK CFI 37cea .cfa: $rsp 192 +
STACK CFI 37e90 .cfa: $rsp 56 +
STACK CFI 37e91 .cfa: $rsp 48 +
STACK CFI 37e92 .cfa: $rsp 40 +
STACK CFI 37e94 .cfa: $rsp 32 +
STACK CFI 37e96 .cfa: $rsp 24 +
STACK CFI 37e98 .cfa: $rsp 16 +
STACK CFI 37e9a .cfa: $rsp 8 +
STACK CFI 37ea0 .cfa: $rsp 192 +
STACK CFI INIT 2fe10 5 .cfa: $rsp 8 + .ra: .cfa -8 + ^
STACK CFI INIT 2fe20 6 .cfa: $rsp 8 + .ra: .cfa -8 + ^
STACK CFI INIT 38000 32b .cfa: $rsp 8 + .ra: .cfa -8 + ^
STACK CFI 38002 $r15: .cfa -16 + ^ .cfa: $rsp 16 +
STACK CFI 38004 $r14: .cfa -24 + ^ .cfa: $rsp 24 +
STACK CFI 38009 $r13: .cfa -32 + ^ .cfa: $rsp 32 +
STACK CFI 3800b $r12: .cfa -40 + ^ .cfa: $rsp 40 +
STACK CFI 3800f $rbp: .cfa -48 + ^ .cfa: $rsp 48 +
STACK CFI 38010 $rbx: .cfa -56 + ^ .cfa: $rsp 56 +
STACK CFI 3801a .cfa: $rsp 192 +
STACK CFI 381c1 .cfa: $rsp 56 +
STACK CFI 381c2 .cfa: $rsp 48 +
STACK CFI 381c3 .cfa: $rsp 40 +
STACK CFI 381c5 .cfa: $rsp 32 +
STACK CFI 381c7 .cfa: $rsp 24 +
STACK CFI 381c9 .cfa: $rsp 16 +
STACK CFI 381cb .cfa: $rsp 8 +
STACK CFI 381d0 .cfa: $rsp 192 +
STACK CFI INIT 2fe30 5 .cfa: $rsp 8 + .ra: .cfa -8 + ^
STACK CFI INIT 2fe40 6 .cfa: $rsp 8 + .ra: .cfa -8 + ^
STACK CFI INIT 38330 33b .cfa: $rsp 8 + .ra: .cfa -8 + ^
STACK CFI 38332 $r15: .cfa -16 + ^ .cfa: $rsp 16 +
STACK CFI 38334 $r14: .cfa -24 + ^ .cfa: $rsp 24 +
STACK CFI 38339 $r13: .cfa -32 + ^ .cfa: $rsp 32 +
STACK CFI 3833b $r12: .cfa -40 + ^ .cfa: $rsp 40 +
STACK CFI 3833f $rbp: .cfa -48 + ^ .cfa: $rsp 48 +
STACK CFI 38340 $rbx: .cfa -56 + ^ .cfa: $rsp 56 +
STACK CFI 3834a .cfa: $rsp 192 +
STACK CFI 384f1 .cfa: $rsp 56 +
STACK CFI 384f2 .cfa: $rsp 48 +
STACK CFI 384f3 .cfa: $rsp 40 +
STACK CFI 384f5 .cfa: $rsp 32 +
STACK CFI 384f7 .cfa: $rsp 24 +
STACK CFI 384f9 .cfa: $rsp 16 +
STACK CFI 384fb .cfa: $rsp 8 +
STACK CFI 38500 .cfa: $rsp 192 +
STACK CFI INIT 2fe50 5 .cfa: $rsp 8 + .ra: .cfa -8 + ^
STACK CFI INIT 2fe60 6 .cfa: $rsp 8 + .ra: .cfa -8 + ^
STACK CFI INIT 38670 152 .cfa: $rsp 8 + .ra: .cfa -8 + ^
STACK CFI 38672 $r15: .cfa -16 + ^ .cfa: $rsp 16 +
STACK CFI 38674 $r14: .cfa -24 + ^ .cfa: $rsp 24 +
STACK CFI 38679 $r13: .cfa -32 + ^ .cfa: $rsp 32 +
STACK CFI 3867b $r12: .cfa -40 + ^ .cfa: $rsp 40 +
STACK CFI 3867f $rbp: .cfa -48 + ^ .cfa: $rsp 48 +
STACK CFI 38680 $rbx: .cfa -56 + ^ .cfa: $rsp 56 +
STACK CFI 38690 .cfa: $rsp 96 +
STACK CFI 3873b .cfa: $rsp 56 +
STACK CFI 3873c .cfa: $rsp 48 +
STACK CFI 3873d .cfa: $rsp 40 +
STACK CFI 3873f .cfa: $rsp 32 +
STACK CFI 38741 .cfa: $rsp 24 +
STACK CFI 38743 .cfa: $rsp 16 +
STACK CFI 38745 .cfa: $rsp 8 +
STACK CFI 38750 .cfa: $rsp 96 +
STACK CFI INIT 2fe70 17f .cfa: $rsp 8 + .ra: .cfa -8 + ^
STACK CFI 2fe72 $r12: .cfa -16 + ^ .cfa: $rsp 16 +
STACK CFI 2fe73 $rbp: .cfa -24 + ^ .cfa: $rsp 24 +
STACK CFI 2fe74 $rbx: .cfa -32 + ^ .cfa: $rsp 32 +
STACK CFI 2fe78 .cfa: $rsp 112 +
STACK CFI 2feda .cfa: $rsp 32 +
STACK CFI 2fedb .cfa: $rsp 24 +
STACK CFI 2fedc .cfa: $rsp 16 +
STACK CFI 2fede .cfa: $rsp 8 +
STACK CFI 2fee0 .cfa: $rsp 112 +
STACK CFI INIT 2fff0 19 .cfa: $rsp 8 + .ra: .cfa -8 + ^
STACK CFI 2fff4 .cfa: $rsp 16 +
STACK CFI 30008 .cfa: $rsp 8 +
STACK CFI INIT 30010 6 .cfa: $rsp 8 + .ra: .cfa -8 + ^
STACK CFI INIT 30020 17f .cfa: $rsp 8 + .ra: .cfa -8 + ^
STACK CFI 30022 $r12: .cfa -16 + ^ .cfa: $rsp 16 +
STACK CFI 30023 $rbp: .cfa -24 + ^ .cfa: $rsp 24 +
STACK CFI 30024 $rbx: .cfa -32 + ^ .cfa: $rsp 32 +
STACK CFI 30028 .cfa: $rsp 112 +
STACK CFI 30089 .cfa: $rsp 32 +
STACK CFI 3008a .cfa: $rsp 24 +
STACK CFI 3008b .cfa: $rsp 16 +
STACK CFI 3008d .cfa: $rsp 8 +
STACK CFI 30090 .cfa: $rsp 112 +
STACK CFI INIT 301a0 17f .cfa: $rsp 8 + .ra: .cfa -8 + ^
STACK CFI 301a2 $r12: .cfa -16 + ^ .cfa: $rsp 16 +
STACK CFI 301a3 $rbp: .cfa -24 + ^ .cfa: $rsp 24 +
STACK CFI 301a4 $rbx: .cfa -32 + ^ .cfa: $rsp 32 +
STACK CFI 301a8 .cfa: $rsp 112 +
STACK CFI 3020a .cfa: $rsp 32 +
STACK CFI 3020b .cfa: $rsp 24 +
STACK CFI 3020c .cfa: $rsp 16 +
STACK CFI 3020e .cfa: $rsp 8 +
STACK CFI 30210 .cfa: $rsp 112 +
STACK CFI INIT 30320 19 .cfa: $rsp 8 + .ra: .cfa -8 + ^
STACK CFI 30324 .cfa: $rsp 16 +
STACK CFI 30338 .cfa: $rsp 8 +
STACK CFI INIT 30340 6 .cfa: $rsp 8 + .ra: .cfa -8 + ^
STACK CFI INIT 30350 17f .cfa: $rsp 8 + .ra: .cfa -8 + ^
STACK CFI 30352 $r12: .cfa -16 + ^ .cfa: $rsp 16 +
STACK CFI 30353 $rbp: .cfa -24 + ^ .cfa: $rsp 24 +
STACK CFI 30354 $rbx: .cfa -32 + ^ .cfa: $rsp 32 +
STACK CFI 30358 .cfa: $rsp 112 +
STACK CFI 303b9 .cfa: $rsp 32 +
STACK CFI 303ba .cfa: $rsp 24 +
STACK CFI 303bb .cfa: $rsp 16 +
STACK CFI 303bd .cfa: $rsp 8 +
STACK CFI 303c0 .cfa: $rsp 112 +
STACK CFI INIT 387d0 1ac .cfa: $rsp 8 + .ra: .cfa -8 + ^
STACK CFI 387d2 $r15: .cfa -16 + ^ .cfa: $rsp 16 +
STACK CFI 387d4 $r14: .cfa -24 + ^ .cfa: $rsp 24 +
STACK CFI 387d9 $r13: .cfa -32 + ^ .cfa: $rsp 32 +
STACK CFI 387db $r12: .cfa -40 + ^ .cfa: $rsp 40 +
STACK CFI 387df $rbp: .cfa -48 + ^ .cfa: $rsp 48 +
STACK CFI 387e0 $rbx: .cfa -56 + ^ .cfa: $rsp 56 +
STACK CFI 387ef .cfa: $rsp 96 +
STACK CFI 38880 .cfa: $rsp 56 +
STACK CFI 38881 .cfa: $rsp 48 +
STACK CFI 38882 .cfa: $rsp 40 +
STACK CFI 38884 .cfa: $rsp 32 +
STACK CFI 38886 .cfa: $rsp 24 +
STACK CFI 38888 .cfa: $rsp 16 +
STACK CFI 3888a .cfa: $rsp 8 +
STACK CFI 38890 .cfa: $rsp 96 +
STACK CFI INIT 304d0 1ad .cfa: $rsp 8 + .ra: .cfa -8 + ^
STACK CFI 304d2 $r13: .cfa -16 + ^ .cfa: $rsp 16 +
STACK CFI 304d4 $r12: .cfa -24 + ^ .cfa: $rsp 24 +
STACK CFI 304d5 $rbp: .cfa -32 + ^ .cfa: $rsp 32 +
STACK CFI 304d6 $rbx: .cfa -40 + ^ .cfa: $rsp 40 +
STACK CFI 304da .cfa: $rsp 80 +
STACK CFI 30541 .cfa: $rsp 40 +
STACK CFI 30542 .cfa: $rsp 32 +
STACK CFI 30543 .cfa: $rsp 24 +
STACK CFI 30545 .cfa: $rsp 16 +
STACK CFI 30547 .cfa: $rsp 8 +
STACK CFI 30550 .cfa: $rsp 80 +
STACK CFI INIT 30680 19 .cfa: $rsp 8 + .ra: .cfa -8 + ^
STACK CFI 30684 .cfa: $rsp 16 +
STACK CFI 30698 .cfa: $rsp 8 +
STACK CFI INIT 306a0 6 .cfa: $rsp 8 + .ra: .cfa -8 + ^
STACK CFI INIT 306b0 1ad .cfa: $rsp 8 + .ra: .cfa -8 + ^
STACK CFI 306b2 $r13: .cfa -16 + ^ .cfa: $rsp 16 +
STACK CFI 306b4 $r12: .cfa -24 + ^ .cfa: $rsp 24 +
STACK CFI 306b5 $rbp: .cfa -32 + ^ .cfa: $rsp 32 +
STACK CFI 306b6 $rbx: .cfa -40 + ^ .cfa: $rsp 40 +
STACK CFI 306ba .cfa: $rsp 80 +
STACK CFI 30721 .cfa: $rsp 40 +
STACK CFI 30722 .cfa: $rsp 32 +
STACK CFI 30723 .cfa: $rsp 24 +
STACK CFI 30725 .cfa: $rsp 16 +
STACK CFI 30727 .cfa: $rsp 8 +
STACK CFI 30730 .cfa: $rsp 80 +
STACK CFI INIT 30860 19 .cfa: $rsp 8 + .ra: .cfa -8 + ^
STACK CFI 30864 .cfa: $rsp 16 +
STACK CFI 30878 .cfa: $rsp 8 +
STACK CFI INIT 30880 6 .cfa: $rsp 8 + .ra: .cfa -8 + ^
STACK CFI INIT 38980 33f .cfa: $rsp 8 + .ra: .cfa -8 + ^
STACK CFI 38982 $r13: .cfa -16 + ^ .cfa: $rsp 16 +
STACK CFI 38984 $r12: .cfa -24 + ^ .cfa: $rsp 24 +
STACK CFI 38988 $rbp: .cfa -32 + ^ .cfa: $rsp 32 +
STACK CFI 38989 $rbx: .cfa -40 + ^ .cfa: $rsp 40 +
STACK CFI 38990 .cfa: $rsp 80 +
STACK CFI 38a98 .cfa: $rsp 40 +
STACK CFI 38a99 .cfa: $rsp 32 +
STACK CFI 38a9a .cfa: $rsp 24 +
STACK CFI 38a9c .cfa: $rsp 16 +
STACK CFI 38a9e .cfa: $rsp 8 +
STACK CFI 38aa0 .cfa: $rsp 80 +
STACK CFI INIT 30890 36 .cfa: $rsp 8 + .ra: .cfa -8 + ^
STACK CFI 30894 .cfa: $rsp 32 +
STACK CFI 308c0 .cfa: $rsp 8 +
STACK CFI 308c1 .cfa: $rsp 32 +
STACK CFI INIT 38cc0 33f .cfa: $rsp 8 + .ra: .cfa -8 + ^
STACK CFI 38cc2 $r13: .cfa -16 + ^ .cfa: $rsp 16 +
STACK CFI 38cc4 $r12: .cfa -24 + ^ .cfa: $rsp 24 +
STACK CFI 38cc8 $rbp: .cfa -32 + ^ .cfa: $rsp 32 +
STACK CFI 38cc9 $rbx: .cfa -40 + ^ .cfa: $rsp 40 +
STACK CFI 38cd0 .cfa: $rsp 80 +
STACK CFI 38dd8 .cfa: $rsp 40 +
STACK CFI 38dd9 .cfa: $rsp 32 +
STACK CFI 38dda .cfa: $rsp 24 +
STACK CFI 38ddc .cfa: $rsp 16 +
STACK CFI 38dde .cfa: $rsp 8 +
STACK CFI 38de0 .cfa: $rsp 80 +
STACK CFI INIT 308d0 36 .cfa: $rsp 8 + .ra: .cfa -8 + ^
STACK CFI 308d4 .cfa: $rsp 32 +
STACK CFI 30900 .cfa: $rsp 8 +
STACK CFI 30901 .cfa: $rsp 32 +
STACK CFI INIT 39000 33f .cfa: $rsp 8 + .ra: .cfa -8 + ^
STACK CFI 39002 $r13: .cfa -16 + ^ .cfa: $rsp 16 +
STACK CFI 39004 $r12: .cfa -24 + ^ .cfa: $rsp 24 +
STACK CFI 39008 $rbp: .cfa -32 + ^ .cfa: $rsp 32 +
STACK CFI 39009 $rbx: .cfa -40 + ^ .cfa: $rsp 40 +
STACK CFI 39010 .cfa: $rsp 80 +
STACK CFI 39118 .cfa: $rsp 40 +
STACK CFI 39119 .cfa: $rsp 32 +
STACK CFI 3911a .cfa: $rsp 24 +
STACK CFI 3911c .cfa: $rsp 16 +
STACK CFI 3911e .cfa: $rsp 8 +
STACK CFI 39120 .cfa: $rsp 80 +
STACK CFI INIT 30910 36 .cfa: $rsp 8 + .ra: .cfa -8 + ^
STACK CFI 30914 .cfa: $rsp 32 +
STACK CFI 30940 .cfa: $rsp 8 +
STACK CFI 30941 .cfa: $rsp 32 +
STACK CFI INIT 39340 33f .cfa: $rsp 8 + .ra: .cfa -8 + ^
STACK CFI 39342 $r13: .cfa -16 + ^ .cfa: $rsp 16 +
STACK CFI 39344 $r12: .cfa -24 + ^ .cfa: $rsp 24 +
STACK CFI 39348 $rbp: .cfa -32 + ^ .cfa: $rsp 32 +
STACK CFI 39349 $rbx: .cfa -40 + ^ .cfa: $rsp 40 +
STACK CFI 39350 .cfa: $rsp 80 +
STACK CFI 39458 .cfa: $rsp 40 +
STACK CFI 39459 .cfa: $rsp 32 +
STACK CFI 3945a .cfa: $rsp 24 +
STACK CFI 3945c .cfa: $rsp 16 +
STACK CFI 3945e .cfa: $rsp 8 +
STACK CFI 39460 .cfa: $rsp 80 +
STACK CFI INIT 30950 36 .cfa: $rsp 8 + .ra: .cfa -8 + ^
STACK CFI 30954 .cfa: $rsp 32 +
STACK CFI 30980 .cfa: $rsp 8 +
STACK CFI 30981 .cfa: $rsp 32 +
STACK CFI INIT 39680 33f .cfa: $rsp 8 + .ra: .cfa -8 + ^
STACK CFI 39682 $r13: .cfa -16 + ^ .cfa: $rsp 16 +
STACK CFI 39684 $r12: .cfa -24 + ^ .cfa: $rsp 24 +
STACK CFI 39688 $rbp: .cfa -32 + ^ .cfa: $rsp 32 +
STACK CFI 39689 $rbx: .cfa -40 + ^ .cfa: $rsp 40 +
STACK CFI 39690 .cfa: $rsp 80 +
STACK CFI 39798 .cfa: $rsp 40 +
STACK CFI 39799 .cfa: $rsp 32 +
STACK CFI 3979a .cfa: $rsp 24 +
STACK CFI 3979c .cfa: $rsp 16 +
STACK CFI 3979e .cfa: $rsp 8 +
STACK CFI 397a0 .cfa: $rsp 80 +
STACK CFI INIT 30990 36 .cfa: $rsp 8 + .ra: .cfa -8 + ^
STACK CFI 30994 .cfa: $rsp 32 +
STACK CFI 309c0 .cfa: $rsp 8 +
STACK CFI 309c1 .cfa: $rsp 32 +
STACK CFI INIT 399c0 3a .cfa: $rsp 8 + .ra: .cfa -8 + ^
STACK CFI 399c7 $r12: .cfa -16 + ^ .cfa: $rsp 16 +
STACK CFI 399cb $rbp: .cfa -24 + ^ .cfa: $rsp 24 +
STACK CFI 399cc $rbx: .cfa -32 + ^ .cfa: $rsp 32 +
STACK CFI 399f0 .cfa: $rsp 24 +
STACK CFI 399f1 .cfa: $rsp 16 +
STACK CFI 399f3 .cfa: $rsp 8 +
STACK CFI 399f8 $r12: $r12 $rbp: $rbp $rbx: $rbx
STACK CFI INIT 309d0 b3 .cfa: $rsp 8 + .ra: .cfa -8 + ^
STACK CFI 309d2 $r13: .cfa -16 + ^ .cfa: $rsp 16 +
STACK CFI 309d4 $r12: .cfa -24 + ^ .cfa: $rsp 24 +
STACK CFI 309d5 $rbp: .cfa -32 + ^ .cfa: $rsp 32 +
STACK CFI 309d6 $rbx: .cfa -40 + ^ .cfa: $rsp 40 +
STACK CFI 309dd .cfa: $rsp 48 +
STACK CFI 30a74 .cfa: $rsp 40 +
STACK CFI 30a79 .cfa: $rsp 32 +
STACK CFI 30a7a .cfa: $rsp 24 +
STACK CFI 30a7c .cfa: $rsp 16 +
STACK CFI 30a7e .cfa: $rsp 8 +
STACK CFI INIT 30a90 17 .cfa: $rsp 8 + .ra: .cfa -8 + ^
STACK CFI 30a91 $rbx: .cfa -16 + ^ .cfa: $rsp 16 +
STACK CFI 30aa2 .cfa: $rsp 8 +
STACK CFI INIT 39a00 3a .cfa: $rsp 8 + .ra: .cfa -8 + ^
STACK CFI 39a07 $r12: .cfa -16 + ^ .cfa: $rsp 16 +
STACK CFI 39a0b $rbp: .cfa -24 + ^ .cfa: $rsp 24 +
STACK CFI 39a0c $rbx: .cfa -32 + ^ .cfa: $rsp 32 +
STACK CFI 39a30 .cfa: $rsp 24 +
STACK CFI 39a31 .cfa: $rsp 16 +
STACK CFI 39a33 .cfa: $rsp 8 +
STACK CFI 39a38 $r12: $r12 $rbp: $rbp $rbx: $rbx
STACK CFI INIT 30ab0 dd .cfa: $rsp 8 + .ra: .cfa -8 + ^
STACK CFI 30ab9 $r12: .cfa -16 + ^ .cfa: $rsp 16 +
STACK CFI 30aba $rbp: .cfa -24 + ^ .cfa: $rsp 24 +
STACK CFI 30abb $rbx: .cfa -32 + ^ .cfa: $rsp 32 +
STACK CFI 30b73 .cfa: $rsp 24 +
STACK CFI 30b7c .cfa: $rsp 16 +
STACK CFI 30b7e .cfa: $rsp 8 +
STACK CFI 30b88 .cfa: $rsp 32 +
STACK CFI 30b89 .cfa: $rsp 24 +
STACK CFI 30b8a .cfa: $rsp 16 +
STACK CFI 30b8c .cfa: $rsp 8 +
STACK CFI INIT 30b90 9 .cfa: $rsp 8 + .ra: .cfa -8 + ^
STACK CFI INIT 30ba0 17 .cfa: $rsp 8 + .ra: .cfa -8 + ^
STACK CFI 30ba1 $rbx: .cfa -16 + ^ .cfa: $rsp 16 +
STACK CFI 30bb2 .cfa: $rsp 8 +
STACK CFI INIT 30bc0 6 .cfa: $rsp 8 + .ra: .cfa -8 + ^
STACK CFI INIT 30bd0 e5 .cfa: $rsp 8 + .ra: .cfa -8 + ^
STACK CFI 30bd2 $r12: .cfa -16 + ^ .cfa: $rsp 16 +
STACK CFI 30bda $rbp: .cfa -24 + ^ .cfa: $rsp 24 +
STACK CFI 30bdb $rbx: .cfa -32 + ^ .cfa: $rsp 32 +
STACK CFI 30ca0 .cfa: $rsp 24 +
STACK CFI 30ca9 .cfa: $rsp 16 +
STACK CFI 30cab .cfa: $rsp 8 +
STACK CFI 30cb0 .cfa: $rsp 32 +
STACK CFI 30cb1 .cfa: $rsp 24 +
STACK CFI 30cb2 .cfa: $rsp 16 +
STACK CFI 30cb4 .cfa: $rsp 8 +
STACK CFI INIT 30cc0 17 .cfa: $rsp 8 + .ra: .cfa -8 + ^
STACK CFI 30cc1 $rbx: .cfa -16 + ^ .cfa: $rsp 16 +
STACK CFI 30cd2 .cfa: $rsp 8 +
STACK CFI INIT 30ce0 a5 .cfa: $rsp 8 + .ra: .cfa -8 + ^
STACK CFI 30ce9 $r12: .cfa -16 + ^ .cfa: $rsp 16 +
STACK CFI 30cea $rbp: .cfa -24 + ^ .cfa: $rsp 24 +
STACK CFI 30ceb $rbx: .cfa -32 + ^ .cfa: $rsp 32 +
STACK CFI 30d70 .cfa: $rsp 24 +
STACK CFI 30d79 .cfa: $rsp 16 +
STACK CFI 30d7b .cfa: $rsp 8 +
STACK CFI 30d80 .cfa: $rsp 32 +
STACK CFI 30d81 .cfa: $rsp 24 +
STACK CFI 30d82 .cfa: $rsp 16 +
STACK CFI 30d84 .cfa: $rsp 8 +
STACK CFI INIT 30d90 9 .cfa: $rsp 8 + .ra: .cfa -8 + ^
STACK CFI INIT 30da0 17 .cfa: $rsp 8 + .ra: .cfa -8 + ^
STACK CFI 30da1 $rbx: .cfa -16 + ^ .cfa: $rsp 16 +
STACK CFI 30db2 .cfa: $rsp 8 +
STACK CFI INIT 30dc0 6 .cfa: $rsp 8 + .ra: .cfa -8 + ^
STACK CFI INIT 30dd0 95 .cfa: $rsp 8 + .ra: .cfa -8 + ^
STACK CFI 30dd2 $r12: .cfa -16 + ^ .cfa: $rsp 16 +
STACK CFI 30dda $rbp: .cfa -24 + ^ .cfa: $rsp 24 +
STACK CFI 30ddb $rbx: .cfa -32 + ^ .cfa: $rsp 32 +
STACK CFI 30e50 .cfa: $rsp 24 +
STACK CFI 30e59 .cfa: $rsp 16 +
STACK CFI 30e5b .cfa: $rsp 8 +
STACK CFI 30e60 .cfa: $rsp 32 +
STACK CFI 30e61 .cfa: $rsp 24 +
STACK CFI 30e62 .cfa: $rsp 16 +
STACK CFI 30e64 .cfa: $rsp 8 +
STACK CFI INIT 30e70 17 .cfa: $rsp 8 + .ra: .cfa -8 + ^
STACK CFI 30e71 $rbx: .cfa -16 + ^ .cfa: $rsp 16 +
STACK CFI 30e82 .cfa: $rsp 8 +
STACK CFI INIT 39a40 16f .cfa: $rsp 8 + .ra: .cfa -8 + ^
STACK CFI 39a42 $r15: .cfa -16 + ^ .cfa: $rsp 16 +
STACK CFI 39a44 $r14: .cfa -24 + ^ .cfa: $rsp 24 +
STACK CFI 39a49 $r13: .cfa -32 + ^ .cfa: $rsp 32 +
STACK CFI 39a4b $r12: .cfa -40 + ^ .cfa: $rsp 40 +
STACK CFI 39a53 $rbp: .cfa -48 + ^ .cfa: $rsp 48 +
STACK CFI 39a54 $rbx: .cfa -56 + ^ .cfa: $rsp 56 +
STACK CFI 39a58 .cfa: $rsp 64 +
STACK CFI 39b8f .cfa: $rsp 56 +
STACK CFI 39b90 .cfa: $rsp 48 +
STACK CFI 39b91 .cfa: $rsp 40 +
STACK CFI 39b93 .cfa: $rsp 32 +
STACK CFI 39b95 .cfa: $rsp 24 +
STACK CFI 39b97 .cfa: $rsp 16 +
STACK CFI 39b99 .cfa: $rsp 8 +
STACK CFI 39ba0 .cfa: $rsp 64 +
STACK CFI 39ba4 .cfa: $rsp 56 +
STACK CFI 39ba5 .cfa: $rsp 48 +
STACK CFI 39ba6 .cfa: $rsp 40 +
STACK CFI 39ba8 .cfa: $rsp 32 +
STACK CFI 39baa .cfa: $rsp 24 +
STACK CFI 39bac .cfa: $rsp 16 +
STACK CFI 39bae .cfa: $rsp 8 +
STACK CFI INIT 39bb0 16b .cfa: $rsp 8 + .ra: .cfa -8 + ^
STACK CFI 39bb2 $r15: .cfa -16 + ^ .cfa: $rsp 16 +
STACK CFI 39bb4 $r14: .cfa -24 + ^ .cfa: $rsp 24 +
STACK CFI 39bb9 $r13: .cfa -32 + ^ .cfa: $rsp 32 +
STACK CFI 39bbb $r12: .cfa -40 + ^ .cfa: $rsp 40 +
STACK CFI 39bc3 $rbp: .cfa -48 + ^ .cfa: $rsp 48 +
STACK CFI 39bc4 $rbx: .cfa -56 + ^ .cfa: $rsp 56 +
STACK CFI 39bc8 .cfa: $rsp 64 +
STACK CFI 39d04 .cfa: $rsp 56 +
STACK CFI 39d0d .cfa: $rsp 48 +
STACK CFI 39d0e .cfa: $rsp 40 +
STACK CFI 39d10 .cfa: $rsp 32 +
STACK CFI 39d12 .cfa: $rsp 24 +
STACK CFI 39d14 .cfa: $rsp 16 +
STACK CFI 39d16 .cfa: $rsp 8 +
STACK CFI INIT 39d20 12e .cfa: $rsp 8 + .ra: .cfa -8 + ^
STACK CFI 39d22 $r15: .cfa -16 + ^ .cfa: $rsp 16 +
STACK CFI 39d24 $r14: .cfa -24 + ^ .cfa: $rsp 24 +
STACK CFI 39d29 $r13: .cfa -32 + ^ .cfa: $rsp 32 +
STACK CFI 39d2b $r12: .cfa -40 + ^ .cfa: $rsp 40 +
STACK CFI 39d2f $rbp: .cfa -48 + ^ .cfa: $rsp 48 +
STACK CFI 39d30 $rbx: .cfa -56 + ^ .cfa: $rsp 56 +
STACK CFI 39d37 .cfa: $rsp 80 +
STACK CFI 39dfc .cfa: $rsp 56 +
STACK CFI 39dfd .cfa: $rsp 48 +
STACK CFI 39dfe .cfa: $rsp 40 +
STACK CFI 39e00 .cfa: $rsp 32 +
STACK CFI 39e02 .cfa: $rsp 24 +
STACK CFI 39e04 .cfa: $rsp 16 +
STACK CFI 39e06 .cfa: $rsp 8 +
STACK CFI 39e10 .cfa: $rsp 80 +
STACK CFI INIT 39e50 13e .cfa: $rsp 8 + .ra: .cfa -8 + ^
STACK CFI 39e52 $r15: .cfa -16 + ^ .cfa: $rsp 16 +
STACK CFI 39e54 $r14: .cfa -24 + ^ .cfa: $rsp 24 +
STACK CFI 39e56 $r13: .cfa -32 + ^ .cfa: $rsp 32 +
STACK CFI 39e58 $r12: .cfa -40 + ^ .cfa: $rsp 40 +
STACK CFI 39e5c $rbp: .cfa -48 + ^ .cfa: $rsp 48 +
STACK CFI 39e5d $rbx: .cfa -56 + ^ .cfa: $rsp 56 +
STACK CFI 39e71 .cfa: $rsp 80 +
STACK CFI 39f44 .cfa: $rsp 56 +
STACK CFI 39f45 .cfa: $rsp 48 +
STACK CFI 39f46 .cfa: $rsp 40 +
STACK CFI 39f48 .cfa: $rsp 32 +
STACK CFI 39f4a .cfa: $rsp 24 +
STACK CFI 39f4c .cfa: $rsp 16 +
STACK CFI 39f4e .cfa: $rsp 8 +
STACK CFI 39f50 .cfa: $rsp 80 +
STACK CFI INIT 39f90 418 .cfa: $rsp 8 + .ra: .cfa -8 + ^
STACK CFI 39f92 $r15: .cfa -16 + ^ .cfa: $rsp 16 +
STACK CFI 39f94 $r14: .cfa -24 + ^ .cfa: $rsp 24 +
STACK CFI 39fa0 $r13: .cfa -32 + ^ .cfa: $rsp 32 +
STACK CFI 39fa2 $r12: .cfa -40 + ^ .cfa: $rsp 40 +
STACK CFI 39fa6 $rbp: .cfa -48 + ^ .cfa: $rsp 48 +
STACK CFI 39fa7 $rbx: .cfa -56 + ^ .cfa: $rsp 56 +
STACK CFI 39fb1 .cfa: $rsp 96 +
STACK CFI 3a2ae .cfa: $rsp 56 +
STACK CFI 3a2af .cfa: $rsp 48 +
STACK CFI 3a2b0 .cfa: $rsp 40 +
STACK CFI 3a2b2 .cfa: $rsp 32 +
STACK CFI 3a2b4 .cfa: $rsp 24 +
STACK CFI 3a2b6 .cfa: $rsp 16 +
STACK CFI 3a2b8 .cfa: $rsp 8 +
STACK CFI 3a2b9 .cfa: $rsp 96 +
STACK CFI INIT 3a3b0 4a .cfa: $rsp 8 + .ra: .cfa -8 + ^
STACK CFI 3a3b7 $r12: .cfa -16 + ^ .cfa: $rsp 16 +
STACK CFI 3a3bb $rbp: .cfa -24 + ^ .cfa: $rsp 24 +
STACK CFI 3a3bc $rbx: .cfa -32 + ^ .cfa: $rsp 32 +
STACK CFI 3a3ef .cfa: $rsp 24 +
STACK CFI 3a3f0 .cfa: $rsp 16 +
STACK CFI 3a3f2 .cfa: $rsp 8 +
STACK CFI 3a3f8 $r12: $r12 $rbp: $rbp $rbx: $rbx
STACK CFI INIT 30e90 f6 .cfa: $rsp 8 + .ra: .cfa -8 + ^
STACK CFI 30e91 $rbp: .cfa -16 + ^ .cfa: $rsp 16 +
STACK CFI 30e92 $rbx: .cfa -24 + ^ .cfa: $rsp 24 +
STACK CFI 30e99 .cfa: $rsp 48 +
STACK CFI 30f7e .cfa: $rsp 24 +
STACK CFI 30f7f .cfa: $rsp 16 +
STACK CFI 30f80 .cfa: $rsp 8 +
STACK CFI 30f81 .cfa: $rsp 48 +
STACK CFI INIT 30f90 17 .cfa: $rsp 8 + .ra: .cfa -8 + ^
STACK CFI 30f91 $rbx: .cfa -16 + ^ .cfa: $rsp 16 +
STACK CFI 30fa2 .cfa: $rsp 8 +
STACK CFI INIT 30fb0 393 .cfa: $rsp 8 + .ra: .cfa -8 + ^
STACK CFI 30fb2 $r15: .cfa -16 + ^ .cfa: $rsp 16 +
STACK CFI 30fb4 $r14: .cfa -24 + ^ .cfa: $rsp 24 +
STACK CFI 30fb9 $r13: .cfa -32 + ^ .cfa: $rsp 32 +
STACK CFI 30fbb $r12: .cfa -40 + ^ .cfa: $rsp 40 +
STACK CFI 30fbc $rbp: .cfa -48 + ^ .cfa: $rsp 48 +
STACK CFI 30fbd $rbx: .cfa -56 + ^ .cfa: $rsp 56 +
STACK CFI 30fc7 .cfa: $rsp 144 +
STACK CFI 31081 .cfa: $rsp 56 +
STACK CFI 31082 .cfa: $rsp 48 +
STACK CFI 31083 .cfa: $rsp 40 +
STACK CFI 31085 .cfa: $rsp 32 +
STACK CFI 31087 .cfa: $rsp 24 +
STACK CFI 31089 .cfa: $rsp 16 +
STACK CFI 3108b .cfa: $rsp 8 +
STACK CFI 31090 .cfa: $rsp 144 +
STACK CFI INIT 3a400 316 .cfa: $rsp 8 + .ra: .cfa -8 + ^
STACK CFI 3a402 $r15: .cfa -16 + ^ .cfa: $rsp 16 +
STACK CFI 3a404 $r14: .cfa -24 + ^ .cfa: $rsp 24 +
STACK CFI 3a406 $r13: .cfa -32 + ^ .cfa: $rsp 32 +
STACK CFI 3a408 $r12: .cfa -40 + ^ .cfa: $rsp 40 +
STACK CFI 3a409 $rbp: .cfa -48 + ^ .cfa: $rsp 48 +
STACK CFI 3a40a $rbx: .cfa -56 + ^ .cfa: $rsp 56 +
STACK CFI 3a411 .cfa: $rsp 112 +
STACK CFI 3a59a .cfa: $rsp 56 +
STACK CFI 3a5a0 .cfa: $rsp 48 +
STACK CFI 3a5a1 .cfa: $rsp 40 +
STACK CFI 3a5a3 .cfa: $rsp 32 +
STACK CFI 3a5a5 .cfa: $rsp 24 +
STACK CFI 3a5a7 .cfa: $rsp 16 +
STACK CFI 3a5a9 .cfa: $rsp 8 +
STACK CFI 3a5b0 .cfa: $rsp 112 +
STACK CFI 3a668 .cfa: $rsp 56 +
STACK CFI 3a66c .cfa: $rsp 48 +
STACK CFI 3a66d .cfa: $rsp 40 +
STACK CFI 3a66f .cfa: $rsp 32 +
STACK CFI 3a671 .cfa: $rsp 24 +
STACK CFI 3a673 .cfa: $rsp 16 +
STACK CFI 3a675 .cfa: $rsp 8 +
STACK CFI 3a680 .cfa: $rsp 112 +
STACK CFI INIT 31350 71e .cfa: $rsp 8 + .ra: .cfa -8 + ^
STACK CFI 31352 $r15: .cfa -16 + ^ .cfa: $rsp 16 +
STACK CFI 31354 $r14: .cfa -24 + ^ .cfa: $rsp 24 +
STACK CFI 31356 $r13: .cfa -32 + ^ .cfa: $rsp 32 +
STACK CFI 31358 $r12: .cfa -40 + ^ .cfa: $rsp 40 +
STACK CFI 3135c $rbp: .cfa -48 + ^ .cfa: $rsp 48 +
STACK CFI 3135d $rbx: .cfa -56 + ^ .cfa: $rsp 56 +
STACK CFI 3136d .cfa: $rsp 304 +
STACK CFI 31424 .cfa: $rsp 56 +
STACK CFI 31425 .cfa: $rsp 48 +
STACK CFI 31426 .cfa: $rsp 40 +
STACK CFI 31428 .cfa: $rsp 32 +
STACK CFI 3142a .cfa: $rsp 24 +
STACK CFI 3142c .cfa: $rsp 16 +
STACK CFI 3142e .cfa: $rsp 8 +
STACK CFI 31430 .cfa: $rsp 304 +
STACK CFI INIT 3a720 12e .cfa: $rsp 8 + .ra: .cfa -8 + ^
STACK CFI 3a722 $r15: .cfa -16 + ^ .cfa: $rsp 16 +
STACK CFI 3a724 $r14: .cfa -24 + ^ .cfa: $rsp 24 +
STACK CFI 3a729 $r13: .cfa -32 + ^ .cfa: $rsp 32 +
STACK CFI 3a72b $r12: .cfa -40 + ^ .cfa: $rsp 40 +
STACK CFI 3a72f $rbp: .cfa -48 + ^ .cfa: $rsp 48 +
STACK CFI 3a730 $rbx: .cfa -56 + ^ .cfa: $rsp 56 +
STACK CFI 3a737 .cfa: $rsp 80 +
STACK CFI 3a7fd .cfa: $rsp 56 +
STACK CFI 3a7fe .cfa: $rsp 48 +
STACK CFI 3a7ff .cfa: $rsp 40 +
STACK CFI 3a801 .cfa: $rsp 32 +
STACK CFI 3a803 .cfa: $rsp 24 +
STACK CFI 3a805 .cfa: $rsp 16 +
STACK CFI 3a807 .cfa: $rsp 8 +
STACK CFI 3a810 .cfa: $rsp 80 +
STACK CFI INIT 31a70 647 .cfa: $rsp 8 + .ra: .cfa -8 + ^
STACK CFI 31a72 $r15: .cfa -16 + ^ .cfa: $rsp 16 +
STACK CFI 31a74 $r14: .cfa -24 + ^ .cfa: $rsp 24 +
STACK CFI 31a76 $r13: .cfa -32 + ^ .cfa: $rsp 32 +
STACK CFI 31a78 $r12: .cfa -40 + ^ .cfa: $rsp 40 +
STACK CFI 31a7c $rbp: .cfa -48 + ^ .cfa: $rsp 48 +
STACK CFI 31a7d $rbx: .cfa -56 + ^ .cfa: $rsp 56 +
STACK CFI 31a87 .cfa: $rsp 192 +
STACK CFI 31bd0 .cfa: $rsp 56 +
STACK CFI 31bd1 .cfa: $rsp 48 +
STACK CFI 31bd2 .cfa: $rsp 40 +
STACK CFI 31bd4 .cfa: $rsp 32 +
STACK CFI 31bd6 .cfa: $rsp 24 +
STACK CFI 31bd8 .cfa: $rsp 16 +
STACK CFI 31bda .cfa: $rsp 8 +
STACK CFI 31be0 .cfa: $rsp 192 +
STACK CFI INIT 3a850 33f .cfa: $rsp 8 + .ra: .cfa -8 + ^
STACK CFI 3a852 $r13: .cfa -16 + ^ .cfa: $rsp 16 +
STACK CFI 3a854 $r12: .cfa -24 + ^ .cfa: $rsp 24 +
STACK CFI 3a858 $rbp: .cfa -32 + ^ .cfa: $rsp 32 +
STACK CFI 3a859 $rbx: .cfa -40 + ^ .cfa: $rsp 40 +
STACK CFI 3a860 .cfa: $rsp 80 +
STACK CFI 3a968 .cfa: $rsp 40 +
STACK CFI 3a969 .cfa: $rsp 32 +
STACK CFI 3a96a .cfa: $rsp 24 +
STACK CFI 3a96c .cfa: $rsp 16 +
STACK CFI 3a96e .cfa: $rsp 8 +
STACK CFI 3a970 .cfa: $rsp 80 +
STACK CFI INIT 320c0 36 .cfa: $rsp 8 + .ra: .cfa -8 + ^
STACK CFI 320c4 .cfa: $rsp 32 +
STACK CFI 320f0 .cfa: $rsp 8 +
STACK CFI 320f1 .cfa: $rsp 32 +
STACK CFI INIT 3ab90 89 .cfa: $rsp 8 + .ra: .cfa -8 + ^
STACK CFI 3ab91 $rbp: .cfa -16 + ^ .cfa: $rsp 16 +
STACK CFI 3ab92 $rbx: .cfa -24 + ^ .cfa: $rsp 24 +
STACK CFI 3ab96 .cfa: $rsp 32 +
STACK CFI 3abea .cfa: $rsp 24 +
STACK CFI 3abeb .cfa: $rsp 16 +
STACK CFI 3abec .cfa: $rsp 8 +
STACK CFI 3abf0 .cfa: $rsp 32 +
STACK CFI INIT 3ac20 e0 .cfa: $rsp 8 + .ra: .cfa -8 + ^
STACK CFI 3ac22 $r13: .cfa -16 + ^ .cfa: $rsp 16 +
STACK CFI 3ac28 $r12: .cfa -24 + ^ .cfa: $rsp 24 +
STACK CFI 3ac29 $rbp: .cfa -32 + ^ .cfa: $rsp 32 +
STACK CFI 3ac2a $rbx: .cfa -40 + ^ .cfa: $rsp 40 +
STACK CFI 3ac34 .cfa: $rsp 48 +
STACK CFI 3ac78 .cfa: $rsp 40 +
STACK CFI 3ac79 .cfa: $rsp 32 +
STACK CFI 3ac7a .cfa: $rsp 24 +
STACK CFI 3ac7c .cfa: $rsp 16 +
STACK CFI 3ac7e .cfa: $rsp 8 +
STACK CFI 3ac80 .cfa: $rsp 48 +
STACK CFI 3acce .cfa: $rsp 40 +
STACK CFI 3acd5 .cfa: $rsp 32 +
STACK CFI 3acd6 .cfa: $rsp 24 +
STACK CFI 3acd8 .cfa: $rsp 16 +
STACK CFI 3acda .cfa: $rsp 8 +
STACK CFI 3ace0 .cfa: $rsp 48 +
STACK CFI 3ace4 .cfa: $rsp 40 +
STACK CFI 3acea .cfa: $rsp 32 +
STACK CFI 3aceb .cfa: $rsp 24 +
STACK CFI 3aced .cfa: $rsp 16 +
STACK CFI 3acef .cfa: $rsp 8 +
STACK CFI 3acf0 .cfa: $rsp 48 +
STACK CFI 3acf4 .cfa: $rsp 40 +
STACK CFI 3acfa .cfa: $rsp 32 +
STACK CFI 3acfb .cfa: $rsp 24 +
STACK CFI 3acfd .cfa: $rsp 16 +
STACK CFI 3acff .cfa: $rsp 8 +
STACK CFI INIT 32100 a5 .cfa: $rsp 8 + .ra: .cfa -8 + ^
STACK CFI 32102 $r13: .cfa -16 + ^ .cfa: $rsp 16 +
STACK CFI 32104 $r12: .cfa -24 + ^ .cfa: $rsp 24 +
STACK CFI 32108 $rbp: .cfa -32 + ^ .cfa: $rsp 32 +
STACK CFI 32109 $rbx: .cfa -40 + ^ .cfa: $rsp 40 +
STACK CFI 32118 .cfa: $rsp 64 +
STACK CFI 32164 .cfa: $rsp 40 +
STACK CFI 32168 .cfa: $rsp 32 +
STACK CFI 32169 .cfa: $rsp 24 +
STACK CFI 3216b .cfa: $rsp 16 +
STACK CFI 3216d .cfa: $rsp 8 +
STACK CFI 32170 .cfa: $rsp 64 +
STACK CFI 3219e .cfa: $rsp 40 +
STACK CFI 3219f .cfa: $rsp 32 +
STACK CFI 321a0 .cfa: $rsp 24 +
STACK CFI 321a2 .cfa: $rsp 16 +
STACK CFI 321a4 .cfa: $rsp 8 +
STACK CFI INIT 321b0 9a .cfa: $rsp 8 + .ra: .cfa -8 + ^
STACK CFI 321b4 .cfa: $rsp 48 +
STACK CFI 32237 .cfa: $rsp 8 +
STACK CFI 32240 .cfa: $rsp 48 +
STACK CFI INIT 32250 934 .cfa: $rsp 8 + .ra: .cfa -8 + ^
STACK CFI 32252 $r15: .cfa -16 + ^ .cfa: $rsp 16 +
STACK CFI 32254 $r14: .cfa -24 + ^ .cfa: $rsp 24 +
STACK CFI 32259 $r13: .cfa -32 + ^ .cfa: $rsp 32 +
STACK CFI 3225b $r12: .cfa -40 + ^ .cfa: $rsp 40 +
STACK CFI 3225c $rbp: .cfa -48 + ^ .cfa: $rsp 48 +
STACK CFI 3225d $rbx: .cfa -56 + ^ .cfa: $rsp 56 +
STACK CFI 3226b .cfa: $rsp 256 +
STACK CFI 323e3 .cfa: $rsp 56 +
STACK CFI 323e4 .cfa: $rsp 48 +
STACK CFI 323e5 .cfa: $rsp 40 +
STACK CFI 323e7 .cfa: $rsp 32 +
STACK CFI 323e9 .cfa: $rsp 24 +
STACK CFI 323eb .cfa: $rsp 16 +
STACK CFI 323ed .cfa: $rsp 8 +
STACK CFI 323f0 .cfa: $rsp 256 +
STACK CFI INIT 3ad00 33f .cfa: $rsp 8 + .ra: .cfa -8 + ^
STACK CFI 3ad02 $r13: .cfa -16 + ^ .cfa: $rsp 16 +
STACK CFI 3ad04 $r12: .cfa -24 + ^ .cfa: $rsp 24 +
STACK CFI 3ad08 $rbp: .cfa -32 + ^ .cfa: $rsp 32 +
STACK CFI 3ad09 $rbx: .cfa -40 + ^ .cfa: $rsp 40 +
STACK CFI 3ad10 .cfa: $rsp 80 +
STACK CFI 3ae18 .cfa: $rsp 40 +
STACK CFI 3ae19 .cfa: $rsp 32 +
STACK CFI 3ae1a .cfa: $rsp 24 +
STACK CFI 3ae1c .cfa: $rsp 16 +
STACK CFI 3ae1e .cfa: $rsp 8 +
STACK CFI 3ae20 .cfa: $rsp 80 +
STACK CFI INIT 32b90 36 .cfa: $rsp 8 + .ra: .cfa -8 + ^
STACK CFI 32b94 .cfa: $rsp 32 +
STACK CFI 32bc0 .cfa: $rsp 8 +
STACK CFI 32bc1 .cfa: $rsp 32 +
STACK CFI INIT 3b040 11f .cfa: $rsp 8 + .ra: .cfa -8 + ^
STACK CFI 3b042 $r15: .cfa -16 + ^ .cfa: $rsp 16 +
STACK CFI 3b044 $r14: .cfa -24 + ^ .cfa: $rsp 24 +
STACK CFI 3b04a $r13: .cfa -32 + ^ .cfa: $rsp 32 +
STACK CFI 3b04c $r12: .cfa -40 + ^ .cfa: $rsp 40 +
STACK CFI 3b050 $rbp: .cfa -48 + ^ .cfa: $rsp 48 +
STACK CFI 3b051 $rbx: .cfa -56 + ^ .cfa: $rsp 56 +
STACK CFI 3b058 .cfa: $rsp 64 +
STACK CFI 3b0a8 .cfa: $rsp 56 +
STACK CFI 3b0ae .cfa: $rsp 48 +
STACK CFI 3b0af .cfa: $rsp 40 +
STACK CFI 3b0b1 .cfa: $rsp 32 +
STACK CFI 3b0b3 .cfa: $rsp 24 +
STACK CFI 3b0b5 .cfa: $rsp 16 +
STACK CFI 3b0b7 .cfa: $rsp 8 +
STACK CFI 3b0c0 .cfa: $rsp 64 +
STACK CFI 3b12b .cfa: $rsp 56 +
STACK CFI 3b134 .cfa: $rsp 48 +
STACK CFI 3b135 .cfa: $rsp 40 +
STACK CFI 3b137 .cfa: $rsp 32 +
STACK CFI 3b139 .cfa: $rsp 24 +
STACK CFI 3b13b .cfa: $rsp 16 +
STACK CFI 3b13d .cfa: $rsp 8 +
STACK CFI 3b140 .cfa: $rsp 64 +
STACK CFI INIT 3b160 4bb .cfa: $rsp 8 + .ra: .cfa -8 + ^
STACK CFI 3b162 $r15: .cfa -16 + ^ .cfa: $rsp 16 +
STACK CFI 3b164 $r14: .cfa -24 + ^ .cfa: $rsp 24 +
STACK CFI 3b166 $r13: .cfa -32 + ^ .cfa: $rsp 32 +
STACK CFI 3b168 $r12: .cfa -40 + ^ .cfa: $rsp 40 +
STACK CFI 3b16c $rbp: .cfa -48 + ^ .cfa: $rsp 48 +
STACK CFI 3b16d $rbx: .cfa -56 + ^ .cfa: $rsp 56 +
STACK CFI 3b174 .cfa: $rsp 304 +
STACK CFI 3b40f .cfa: $rsp 56 +
STACK CFI 3b410 .cfa: $rsp 48 +
STACK CFI 3b411 .cfa: $rsp 40 +
STACK CFI 3b413 .cfa: $rsp 32 +
STACK CFI 3b415 .cfa: $rsp 24 +
STACK CFI 3b417 .cfa: $rsp 16 +
STACK CFI 3b419 .cfa: $rsp 8 +
STACK CFI 3b420 .cfa: $rsp 304 +
STACK CFI INIT 32bd0 397 .cfa: $rsp 8 + .ra: .cfa -8 + ^
STACK CFI 32bd2 $r15: .cfa -16 + ^ .cfa: $rsp 16 +
STACK CFI 32bd4 $r14: .cfa -24 + ^ .cfa: $rsp 24 +
STACK CFI 32bd9 $r13: .cfa -32 + ^ .cfa: $rsp 32 +
STACK CFI 32bdb $r12: .cfa -40 + ^ .cfa: $rsp 40 +
STACK CFI 32bdf $rbp: .cfa -48 + ^ .cfa: $rsp 48 +
STACK CFI 32be0 $rbx: .cfa -56 + ^ .cfa: $rsp 56 +
STACK CFI 32bea .cfa: $rsp 224 +
STACK CFI 32c81 .cfa: $rsp 56 +
STACK CFI 32c82 .cfa: $rsp 48 +
STACK CFI 32c83 .cfa: $rsp 40 +
STACK CFI 32c85 .cfa: $rsp 32 +
STACK CFI 32c87 .cfa: $rsp 24 +
STACK CFI 32c89 .cfa: $rsp 16 +
STACK CFI 32c8b .cfa: $rsp 8 +
STACK CFI 32c90 .cfa: $rsp 224 +
STACK CFI INIT 32f70 110b .cfa: $rsp 8 + .ra: .cfa -8 + ^
STACK CFI 32f72 $r15: .cfa -16 + ^ .cfa: $rsp 16 +
STACK CFI 32f74 $r14: .cfa -24 + ^ .cfa: $rsp 24 +
STACK CFI 32f76 $r13: .cfa -32 + ^ .cfa: $rsp 32 +
STACK CFI 32f78 $r12: .cfa -40 + ^ .cfa: $rsp 40 +
STACK CFI 32f7c $rbp: .cfa -48 + ^ .cfa: $rsp 48 +
STACK CFI 32f7d $rbx: .cfa -56 + ^ .cfa: $rsp 56 +
STACK CFI 32f87 .cfa: $rsp 464 +
STACK CFI 33103 .cfa: $rsp 56 +
STACK CFI 33104 .cfa: $rsp 48 +
STACK CFI 33105 .cfa: $rsp 40 +
STACK CFI 33107 .cfa: $rsp 32 +
STACK CFI 33109 .cfa: $rsp 24 +
STACK CFI 3310b .cfa: $rsp 16 +
STACK CFI 3310d .cfa: $rsp 8 +
STACK CFI 33110 .cfa: $rsp 464 +
STACK CFI INIT 3b620 33f .cfa: $rsp 8 + .ra: .cfa -8 + ^
STACK CFI 3b622 $r13: .cfa -16 + ^ .cfa: $rsp 16 +
STACK CFI 3b624 $r12: .cfa -24 + ^ .cfa: $rsp 24 +
STACK CFI 3b628 $rbp: .cfa -32 + ^ .cfa: $rsp 32 +
STACK CFI 3b629 $rbx: .cfa -40 + ^ .cfa: $rsp 40 +
STACK CFI 3b630 .cfa: $rsp 80 +
STACK CFI 3b738 .cfa: $rsp 40 +
STACK CFI 3b739 .cfa: $rsp 32 +
STACK CFI 3b73a .cfa: $rsp 24 +
STACK CFI 3b73c .cfa: $rsp 16 +
STACK CFI 3b73e .cfa: $rsp 8 +
STACK CFI 3b740 .cfa: $rsp 80 +
STACK CFI INIT 34080 36 .cfa: $rsp 8 + .ra: .cfa -8 + ^
STACK CFI 34084 .cfa: $rsp 32 +
STACK CFI 340b0 .cfa: $rsp 8 +
STACK CFI 340b1 .cfa: $rsp 32 +
STACK CFI INIT 340c0 b1e .cfa: $rsp 8 + .ra: .cfa -8 + ^
STACK CFI 340c2 $r15: .cfa -16 + ^ .cfa: $rsp 16 +
STACK CFI 340c4 $r14: .cfa -24 + ^ .cfa: $rsp 24 +
STACK CFI 340c6 $r13: .cfa -32 + ^ .cfa: $rsp 32 +
STACK CFI 340c8 $r12: .cfa -40 + ^ .cfa: $rsp 40 +
STACK CFI 340cc $rbp: .cfa -48 + ^ .cfa: $rsp 48 +
STACK CFI 340cd $rbx: .cfa -56 + ^ .cfa: $rsp 56 +
STACK CFI 340d7 .cfa: $rsp 272 +
STACK CFI 34280 .cfa: $rsp 56 +
STACK CFI 34281 .cfa: $rsp 48 +
STACK CFI 34282 .cfa: $rsp 40 +
STACK CFI 34284 .cfa: $rsp 32 +
STACK CFI 34286 .cfa: $rsp 24 +
STACK CFI 34288 .cfa: $rsp 16 +
STACK CFI 3428a .cfa: $rsp 8 +
STACK CFI 34290 .cfa: $rsp 272 +
STACK CFI INIT 3b960 33f .cfa: $rsp 8 + .ra: .cfa -8 + ^
STACK CFI 3b962 $r13: .cfa -16 + ^ .cfa: $rsp 16 +
STACK CFI 3b964 $r12: .cfa -24 + ^ .cfa: $rsp 24 +
STACK CFI 3b968 $rbp: .cfa -32 + ^ .cfa: $rsp 32 +
STACK CFI 3b969 $rbx: .cfa -40 + ^ .cfa: $rsp 40 +
STACK CFI 3b970 .cfa: $rsp 80 +
STACK CFI 3ba78 .cfa: $rsp 40 +
STACK CFI 3ba79 .cfa: $rsp 32 +
STACK CFI 3ba7a .cfa: $rsp 24 +
STACK CFI 3ba7c .cfa: $rsp 16 +
STACK CFI 3ba7e .cfa: $rsp 8 +
STACK CFI 3ba80 .cfa: $rsp 80 +
STACK CFI INIT 34be0 36 .cfa: $rsp 8 + .ra: .cfa -8 + ^
STACK CFI 34be4 .cfa: $rsp 32 +
STACK CFI 34c10 .cfa: $rsp 8 +
STACK CFI 34c11 .cfa: $rsp 32 +
STACK CFI INIT 34c20 823 .cfa: $rsp 8 + .ra: .cfa -8 + ^
STACK CFI 34c22 $r15: .cfa -16 + ^ .cfa: $rsp 16 +
STACK CFI 34c24 $r14: .cfa -24 + ^ .cfa: $rsp 24 +
STACK CFI 34c26 $r13: .cfa -32 + ^ .cfa: $rsp 32 +
STACK CFI 34c28 $r12: .cfa -40 + ^ .cfa: $rsp 40 +
STACK CFI 34c2c $rbp: .cfa -48 + ^ .cfa: $rsp 48 +
STACK CFI 34c2d $rbx: .cfa -56 + ^ .cfa: $rsp 56 +
STACK CFI 34c37 .cfa: $rsp 208 +
STACK CFI 34d5c .cfa: $rsp 56 +
STACK CFI 34d5d .cfa: $rsp 48 +
STACK CFI 34d5e .cfa: $rsp 40 +
STACK CFI 34d60 .cfa: $rsp 32 +
STACK CFI 34d62 .cfa: $rsp 24 +
STACK CFI 34d64 .cfa: $rsp 16 +
STACK CFI 34d66 .cfa: $rsp 8 +
STACK CFI 34d70 .cfa: $rsp 208 +
STACK CFI INIT 3bca0 33f .cfa: $rsp 8 + .ra: .cfa -8 + ^
STACK CFI 3bca2 $r13: .cfa -16 + ^ .cfa: $rsp 16 +
STACK CFI 3bca4 $r12: .cfa -24 + ^ .cfa: $rsp 24 +
STACK CFI 3bca8 $rbp: .cfa -32 + ^ .cfa: $rsp 32 +
STACK CFI 3bca9 $rbx: .cfa -40 + ^ .cfa: $rsp 40 +
STACK CFI 3bcb0 .cfa: $rsp 80 +
STACK CFI 3bdb8 .cfa: $rsp 40 +
STACK CFI 3bdb9 .cfa: $rsp 32 +
STACK CFI 3bdba .cfa: $rsp 24 +
STACK CFI 3bdbc .cfa: $rsp 16 +
STACK CFI 3bdbe .cfa: $rsp 8 +
STACK CFI 3bdc0 .cfa: $rsp 80 +
STACK CFI INIT 35450 36 .cfa: $rsp 8 + .ra: .cfa -8 + ^
STACK CFI 35454 .cfa: $rsp 32 +
STACK CFI 35480 .cfa: $rsp 8 +
STACK CFI 35481 .cfa: $rsp 32 +
STACK CFI INIT 35490 832 .cfa: $rsp 8 + .ra: .cfa -8 + ^
STACK CFI 35492 $r15: .cfa -16 + ^ .cfa: $rsp 16 +
STACK CFI 35494 $r14: .cfa -24 + ^ .cfa: $rsp 24 +
STACK CFI 35499 $r13: .cfa -32 + ^ .cfa: $rsp 32 +
STACK CFI 3549b $r12: .cfa -40 + ^ .cfa: $rsp 40 +
STACK CFI 3549c $rbp: .cfa -48 + ^ .cfa: $rsp 48 +
STACK CFI 3549d $rbx: .cfa -56 + ^ .cfa: $rsp 56 +
STACK CFI 354a7 .cfa: $rsp 304 +
STACK CFI 355f8 .cfa: $rsp 56 +
STACK CFI 355f9 .cfa: $rsp 48 +
STACK CFI 355fa .cfa: $rsp 40 +
STACK CFI 355fc .cfa: $rsp 32 +
STACK CFI 355fe .cfa: $rsp 24 +
STACK CFI 35600 .cfa: $rsp 16 +
STACK CFI 35602 .cfa: $rsp 8 +
STACK CFI 35608 .cfa: $rsp 304 +
STACK CFI INIT 3bfe0 33f .cfa: $rsp 8 + .ra: .cfa -8 + ^
STACK CFI 3bfe2 $r13: .cfa -16 + ^ .cfa: $rsp 16 +
STACK CFI 3bfe4 $r12: .cfa -24 + ^ .cfa: $rsp 24 +
STACK CFI 3bfe8 $rbp: .cfa -32 + ^ .cfa: $rsp 32 +
STACK CFI 3bfe9 $rbx: .cfa -40 + ^ .cfa: $rsp 40 +
STACK CFI 3bff0 .cfa: $rsp 80 +
STACK CFI 3c0f8 .cfa: $rsp 40 +
STACK CFI 3c0f9 .cfa: $rsp 32 +
STACK CFI 3c0fa .cfa: $rsp 24 +
STACK CFI 3c0fc .cfa: $rsp 16 +
STACK CFI 3c0fe .cfa: $rsp 8 +
STACK CFI 3c100 .cfa: $rsp 80 +
STACK CFI INIT 35cd0 36 .cfa: $rsp 8 + .ra: .cfa -8 + ^
STACK CFI 35cd4 .cfa: $rsp 32 +
STACK CFI 35d00 .cfa: $rsp 8 +
STACK CFI 35d01 .cfa: $rsp 32 +
STACK CFI INIT 3c320 89 .cfa: $rsp 8 + .ra: .cfa -8 + ^
STACK CFI 3c321 $rbp: .cfa -16 + ^ .cfa: $rsp 16 +
STACK CFI 3c322 $rbx: .cfa -24 + ^ .cfa: $rsp 24 +
STACK CFI 3c326 .cfa: $rsp 32 +
STACK CFI 3c37a .cfa: $rsp 24 +
STACK CFI 3c37b .cfa: $rsp 16 +
STACK CFI 3c37c .cfa: $rsp 8 +
STACK CFI 3c380 .cfa: $rsp 32 +
STACK CFI INIT 3c3b0 e0 .cfa: $rsp 8 + .ra: .cfa -8 + ^
STACK CFI 3c3b2 $r13: .cfa -16 + ^ .cfa: $rsp 16 +
STACK CFI 3c3b8 $r12: .cfa -24 + ^ .cfa: $rsp 24 +
STACK CFI 3c3b9 $rbp: .cfa -32 + ^ .cfa: $rsp 32 +
STACK CFI 3c3ba $rbx: .cfa -40 + ^ .cfa: $rsp 40 +
STACK CFI 3c3c4 .cfa: $rsp 48 +
STACK CFI 3c408 .cfa: $rsp 40 +
STACK CFI 3c409 .cfa: $rsp 32 +
STACK CFI 3c40a .cfa: $rsp 24 +
STACK CFI 3c40c .cfa: $rsp 16 +
STACK CFI 3c40e .cfa: $rsp 8 +
STACK CFI 3c410 .cfa: $rsp 48 +
STACK CFI 3c45e .cfa: $rsp 40 +
STACK CFI 3c465 .cfa: $rsp 32 +
STACK CFI 3c466 .cfa: $rsp 24 +
STACK CFI 3c468 .cfa: $rsp 16 +
STACK CFI 3c46a .cfa: $rsp 8 +
STACK CFI 3c470 .cfa: $rsp 48 +
STACK CFI 3c474 .cfa: $rsp 40 +
STACK CFI 3c47a .cfa: $rsp 32 +
STACK CFI 3c47b .cfa: $rsp 24 +
STACK CFI 3c47d .cfa: $rsp 16 +
STACK CFI 3c47f .cfa: $rsp 8 +
STACK CFI 3c480 .cfa: $rsp 48 +
STACK CFI 3c484 .cfa: $rsp 40 +
STACK CFI 3c48a .cfa: $rsp 32 +
STACK CFI 3c48b .cfa: $rsp 24 +
STACK CFI 3c48d .cfa: $rsp 16 +
STACK CFI 3c48f .cfa: $rsp 8 +
STACK CFI INIT 35d10 9c2 .cfa: $rsp 8 + .ra: .cfa -8 + ^
STACK CFI 35d12 $r15: .cfa -16 + ^ .cfa: $rsp 16 +
STACK CFI 35d14 $r14: .cfa -24 + ^ .cfa: $rsp 24 +
STACK CFI 35d16 $r13: .cfa -32 + ^ .cfa: $rsp 32 +
STACK CFI 35d18 $r12: .cfa -40 + ^ .cfa: $rsp 40 +
STACK CFI 35d19 $rbp: .cfa -48 + ^ .cfa: $rsp 48 +
STACK CFI 35d1a $rbx: .cfa -56 + ^ .cfa: $rsp 56 +
STACK CFI 35d24 .cfa: $rsp 224 +
STACK CFI 35e05 .cfa: $rsp 56 +
STACK CFI 35e06 .cfa: $rsp 48 +
STACK CFI 35e07 .cfa: $rsp 40 +
STACK CFI 35e09 .cfa: $rsp 32 +
STACK CFI 35e0b .cfa: $rsp 24 +
STACK CFI 35e0d .cfa: $rsp 16 +
STACK CFI 35e0f .cfa: $rsp 8 +
STACK CFI 35e10 .cfa: $rsp 224 +
STACK CFI INIT 3c490 1f6 .cfa: $rsp 8 + .ra: .cfa -8 + ^
STACK CFI 3c492 $r15: .cfa -16 + ^ .cfa: $rsp 16 +
STACK CFI 3c494 $r14: .cfa -24 + ^ .cfa: $rsp 24 +
STACK CFI 3c499 $r13: .cfa -32 + ^ .cfa: $rsp 32 +
STACK CFI 3c49b $r12: .cfa -40 + ^ .cfa: $rsp 40 +
STACK CFI 3c4a1 $rbp: .cfa -48 + ^ .cfa: $rsp 48 +
STACK CFI 3c4a2 $rbx: .cfa -56 + ^ .cfa: $rsp 56 +
STACK CFI 3c4ac .cfa: $rsp 80 +
STACK CFI 3c5a5 .cfa: $rsp 56 +
STACK CFI 3c5a9 .cfa: $rsp 48 +
STACK CFI 3c5aa .cfa: $rsp 40 +
STACK CFI 3c5ac .cfa: $rsp 32 +
STACK CFI 3c5ae .cfa: $rsp 24 +
STACK CFI 3c5b0 .cfa: $rsp 16 +
STACK CFI 3c5b2 .cfa: $rsp 8 +
STACK CFI 3c5b8 .cfa: $rsp 80 +
STACK CFI INIT 3c690 3ec .cfa: $rsp 8 + .ra: .cfa -8 + ^
STACK CFI 3c692 $r15: .cfa -16 + ^ .cfa: $rsp 16 +
STACK CFI 3c694 $r14: .cfa -24 + ^ .cfa: $rsp 24 +
STACK CFI 3c699 $r13: .cfa -32 + ^ .cfa: $rsp 32 +
STACK CFI 3c69b $r12: .cfa -40 + ^ .cfa: $rsp 40 +
STACK CFI 3c6a6 $rbp: .cfa -48 + ^ .cfa: $rsp 48 +
STACK CFI 3c6a7 $rbx: .cfa -56 + ^ .cfa: $rsp 56 +
STACK CFI 3c6b4 .cfa: $rsp 80 +
STACK CFI 3c9d9 .cfa: $rsp 56 +
STACK CFI 3c9da .cfa: $rsp 48 +
STACK CFI 3c9db .cfa: $rsp 40 +
STACK CFI 3c9dd .cfa: $rsp 32 +
STACK CFI 3c9df .cfa: $rsp 24 +
STACK CFI 3c9e1 .cfa: $rsp 16 +
STACK CFI 3c9e3 .cfa: $rsp 8 +
STACK CFI 3c9e8 .cfa: $rsp 80 +
STACK CFI INIT 366e0 ac6 .cfa: $rsp 8 + .ra: .cfa -8 + ^
STACK CFI 366e2 $r15: .cfa -16 + ^ .cfa: $rsp 16 +
STACK CFI 366e4 $r14: .cfa -24 + ^ .cfa: $rsp 24 +
STACK CFI 366e6 $r13: .cfa -32 + ^ .cfa: $rsp 32 +
STACK CFI 366e8 $r12: .cfa -40 + ^ .cfa: $rsp 40 +
STACK CFI 366e9 $rbp: .cfa -48 + ^ .cfa: $rsp 48 +
STACK CFI 366ea $rbx: .cfa -56 + ^ .cfa: $rsp 56 +
STACK CFI 366f1 .cfa: $rsp 256 +
STACK CFI 367b0 .cfa: $rsp 56 +
STACK CFI 367b1 .cfa: $rsp 48 +
STACK CFI 367b2 .cfa: $rsp 40 +
STACK CFI 367b4 .cfa: $rsp 32 +
STACK CFI 367b6 .cfa: $rsp 24 +
STACK CFI 367b8 .cfa: $rsp 16 +
STACK CFI 367ba .cfa: $rsp 8 +
STACK CFI 367c0 .cfa: $rsp 256 +
STACK CFI INIT 3ca80 33f .cfa: $rsp 8 + .ra: .cfa -8 + ^
STACK CFI 3ca82 $r13: .cfa -16 + ^ .cfa: $rsp 16 +
STACK CFI 3ca84 $r12: .cfa -24 + ^ .cfa: $rsp 24 +
STACK CFI 3ca88 $rbp: .cfa -32 + ^ .cfa: $rsp 32 +
STACK CFI 3ca89 $rbx: .cfa -40 + ^ .cfa: $rsp 40 +
STACK CFI 3ca90 .cfa: $rsp 80 +
STACK CFI 3cb98 .cfa: $rsp 40 +
STACK CFI 3cb99 .cfa: $rsp 32 +
STACK CFI 3cb9a .cfa: $rsp 24 +
STACK CFI 3cb9c .cfa: $rsp 16 +
STACK CFI 3cb9e .cfa: $rsp 8 +
STACK CFI 3cba0 .cfa: $rsp 80 +
STACK CFI INIT 371b0 36 .cfa: $rsp 8 + .ra: .cfa -8 + ^
STACK CFI 371b4 .cfa: $rsp 32 +
STACK CFI 371e0 .cfa: $rsp 8 +
STACK CFI 371e1 .cfa: $rsp 32 +
STACK CFI INIT 8da0 2e .cfa: $rsp 8 + .ra: .cfa -8 + ^
STACK CFI 8dab .cfa: $rsp 16 +
STACK CFI 8dc9 .cfa: $rsp 8 +
STACK CFI INIT 3cdc0 c8 .cfa: $rsp 8 + .ra: .cfa -8 + ^
STACK CFI 3cdc2 $r12: .cfa -16 + ^ .cfa: $rsp 16 +
STACK CFI 3cdc3 $rbp: .cfa -24 + ^ .cfa: $rsp 24 +
STACK CFI 3cdc7 $rbx: .cfa -32 + ^ .cfa: $rsp 32 +
STACK CFI 3cdce .cfa: $rsp 48 +
STACK CFI 3ce34 .cfa: $rsp 32 +
STACK CFI 3ce35 .cfa: $rsp 24 +
STACK CFI 3ce36 .cfa: $rsp 16 +
STACK CFI 3ce38 .cfa: $rsp 8 +
STACK CFI 3ce40 .cfa: $rsp 48 +
STACK CFI INIT 3ce90 647 .cfa: $rsp 8 + .ra: .cfa -8 + ^
STACK CFI 3ce92 $r15: .cfa -16 + ^ .cfa: $rsp 16 +
STACK CFI 3ce94 $r14: .cfa -24 + ^ .cfa: $rsp 24 +
STACK CFI 3ce9d $r13: .cfa -32 + ^ .cfa: $rsp 32 +
STACK CFI 3ce9f $r12: .cfa -40 + ^ .cfa: $rsp 40 +
STACK CFI 3cea5 $rbp: .cfa -48 + ^ .cfa: $rsp 48 +
STACK CFI 3cea6 $rbx: .cfa -56 + ^ .cfa: $rsp 56 +
STACK CFI 3cebd .cfa: $rsp 736 +
STACK CFI 3d257 .cfa: $rsp 56 +
STACK CFI 3d258 .cfa: $rsp 48 +
STACK CFI 3d259 .cfa: $rsp 40 +
STACK CFI 3d25b .cfa: $rsp 32 +
STACK CFI 3d25d .cfa: $rsp 24 +
STACK CFI 3d25f .cfa: $rsp 16 +
STACK CFI 3d261 .cfa: $rsp 8 +
STACK CFI 3d268 .cfa: $rsp 736 +
STACK CFI INIT 3d4e0 60 .cfa: $rsp 8 + .ra: .cfa -8 + ^
STACK CFI 3d4e2 $r13: .cfa -16 + ^ .cfa: $rsp 16 +
STACK CFI 3d4e4 $r12: .cfa -24 + ^ .cfa: $rsp 24 +
STACK CFI 3d4e8 $rbp: .cfa -32 + ^ .cfa: $rsp 32 +
STACK CFI 3d4e9 $rbx: .cfa -40 + ^ .cfa: $rsp 40 +
STACK CFI 3d4f8 .cfa: $rsp 48 +
STACK CFI 3d521 .cfa: $rsp 40 +
STACK CFI 3d522 .cfa: $rsp 32 +
STACK CFI 3d523 .cfa: $rsp 24 +
STACK CFI 3d525 .cfa: $rsp 16 +
STACK CFI 3d527 .cfa: $rsp 8 +
STACK CFI 3d528 .cfa: $rsp 48 +
STACK CFI INIT 3d540 5f .cfa: $rsp 8 + .ra: .cfa -8 + ^
STACK CFI 3d542 $r14: .cfa -16 + ^ .cfa: $rsp 16 +
STACK CFI 3d544 $r13: .cfa -24 + ^ .cfa: $rsp 24 +
STACK CFI 3d549 $r12: .cfa -32 + ^ .cfa: $rsp 32 +
STACK CFI 3d54a $rbp: .cfa -40 + ^ .cfa: $rsp 40 +
STACK CFI 3d54e $rbx: .cfa -48 + ^ .cfa: $rsp 48 +
STACK CFI 3d57f .cfa: $rsp 40 +
STACK CFI 3d580 .cfa: $rsp 32 +
STACK CFI 3d582 .cfa: $rsp 24 +
STACK CFI 3d584 .cfa: $rsp 16 +
STACK CFI 3d586 .cfa: $rsp 8 +
STACK CFI 3d587 .cfa: $rsp 48 +
STACK CFI INIT 3d5a0 f .cfa: $rsp 8 + .ra: .cfa -8 + ^
STACK CFI INIT 3d5b0 3c5 .cfa: $rsp 8 + .ra: .cfa -8 + ^
STACK CFI 3d5b1 $rbp: .cfa -16 + ^ .cfa: $rsp 16 +
STACK CFI 3d5b4 .cfa: $rbp 16 +
STACK CFI 3d5bd $r12: .cfa -48 + ^ $r13: .cfa -40 + ^ $r14: .cfa -32 + ^ $r15: .cfa -24 + ^ $rbx: .cfa -56 + ^
STACK CFI 3d6e2 .cfa: $rsp 8 +
STACK CFI 3d6e8 .cfa: $rbp 16 +
STACK CFI INIT 3d980 4c4 .cfa: $rsp 8 + .ra: .cfa -8 + ^
STACK CFI 3d981 $rbp: .cfa -16 + ^ .cfa: $rsp 16 +
STACK CFI 3d984 .cfa: $rbp 16 +
STACK CFI 3d98d $r12: .cfa -48 + ^ $r13: .cfa -40 + ^ $r14: .cfa -32 + ^ $r15: .cfa -24 + ^ $rbx: .cfa -56 + ^
STACK CFI 3da0c .cfa: $rsp 8 +
STACK CFI 3da10 .cfa: $rbp 16 +
STACK CFI INIT 3de50 36 .cfa: $rsp 8 + .ra: .cfa -8 + ^
STACK CFI 3de54 $rbx: .cfa -16 + ^ .cfa: $rsp 16 +
STACK CFI 3de7d .cfa: $rsp 8 +
STACK CFI 3de80 .cfa: $rsp 16 +
STACK CFI 3de85 .cfa: $rsp 8 +
STACK CFI INIT 3de90 26b6 .cfa: $rsp 8 + .ra: .cfa -8 + ^
STACK CFI 3de91 $rbp: .cfa -16 + ^ .cfa: $rsp 16 +
STACK CFI 3de94 .cfa: $rbp 16 +
STACK CFI 3de9c $r12: .cfa -48 + ^ $r13: .cfa -40 + ^ $r14: .cfa -32 + ^ $r15: .cfa -24 + ^
STACK CFI 3dea3 $rbx: .cfa -56 + ^
STACK CFI 3e110 .cfa: $rsp 8 +
STACK CFI 3e118 .cfa: $rbp 16 +
STACK CFI INIT 42a00 a1 .cfa: $rsp 8 + .ra: .cfa -8 + ^
STACK CFI 42a02 $r14: .cfa -16 + ^ .cfa: $rsp 16 +
STACK CFI 42a04 $r13: .cfa -24 + ^ .cfa: $rsp 24 +
STACK CFI 42a09 $r12: .cfa -32 + ^ .cfa: $rsp 32 +
STACK CFI 42a0a $rbp: .cfa -40 + ^ .cfa: $rsp 40 +
STACK CFI 42a0e $rbx: .cfa -48 + ^ .cfa: $rsp 48 +
STACK CFI 42a75 .cfa: $rsp 40 +
STACK CFI 42a76 .cfa: $rsp 32 +
STACK CFI 42a78 .cfa: $rsp 24 +
STACK CFI 42a7a .cfa: $rsp 16 +
STACK CFI 42a7c .cfa: $rsp 8 +
STACK CFI 42a7d .cfa: $rsp 48 +
STACK CFI INIT 40550 651 .cfa: $rsp 8 + .ra: .cfa -8 + ^
STACK CFI 40552 $r15: .cfa -16 + ^ .cfa: $rsp 16 +
STACK CFI 40554 $r14: .cfa -24 + ^ .cfa: $rsp 24 +
STACK CFI 40556 $r13: .cfa -32 + ^ .cfa: $rsp 32 +
STACK CFI 40558 $r12: .cfa -40 + ^ .cfa: $rsp 40 +
STACK CFI 4055c $rbp: .cfa -48 + ^ .cfa: $rsp 48 +
STACK CFI 4055d $rbx: .cfa -56 + ^ .cfa: $rsp 56 +
STACK CFI 40567 .cfa: $rsp 288 +
STACK CFI 408b4 .cfa: $rsp 56 +
STACK CFI 408b5 .cfa: $rsp 48 +
STACK CFI 408b6 .cfa: $rsp 40 +
STACK CFI 408b8 .cfa: $rsp 32 +
STACK CFI 408ba .cfa: $rsp 24 +
STACK CFI 408bc .cfa: $rsp 16 +
STACK CFI 408be .cfa: $rsp 8 +
STACK CFI 408c0 .cfa: $rsp 288 +
STACK CFI INIT 42ab0 52 .cfa: $rsp 8 + .ra: .cfa -8 + ^
STACK CFI 42ab7 $r12: .cfa -16 + ^ .cfa: $rsp 16 +
STACK CFI 42abb $rbp: .cfa -24 + ^ .cfa: $rsp 24 +
STACK CFI 42abc $rbx: .cfa -32 + ^ .cfa: $rsp 32 +
STACK CFI 42af2 .cfa: $rsp 24 +
STACK CFI 42af3 .cfa: $rsp 16 +
STACK CFI 42af5 .cfa: $rsp 8 +
STACK CFI 42b00 $r12: $r12 $rbp: $rbp $rbx: $rbx
STACK CFI INIT 42b10 1c .cfa: $rsp 8 + .ra: .cfa -8 + ^
STACK CFI INIT 42b30 2e .cfa: $rsp 8 + .ra: .cfa -8 + ^
STACK CFI 42b38 $rbx: .cfa -16 + ^ .cfa: $rsp 16 +
STACK CFI 42b59 .cfa: $rsp 8 +
STACK CFI INIT 42b60 2f .cfa: $rsp 8 + .ra: .cfa -8 + ^
STACK CFI 42b61 $rbx: .cfa -16 + ^ .cfa: $rsp 16 +
STACK CFI 42b8e .cfa: $rsp 8 +
STACK CFI INIT 40bb0 66 .cfa: $rsp 8 + .ra: .cfa -8 + ^
STACK CFI 40bb7 $rbx: .cfa -16 + ^ .cfa: $rsp 16 +
STACK CFI 40bf3 $rbx: $rbx .cfa: $rsp 8 +
STACK CFI 40c00 $rbx: .cfa -16 + ^ .cfa: $rsp 16 +
STACK CFI 40c01 .cfa: $rsp 8 +
STACK CFI 40c08 $rbx: $rbx
STACK CFI 40c10 $rbx: .cfa -16 + ^ .cfa: $rsp 16 +
STACK CFI 40c14 $rbx: $rbx .cfa: $rsp 8 +
STACK CFI INIT 42b90 12e .cfa: $rsp 8 + .ra: .cfa -8 + ^
STACK CFI 42b92 $r15: .cfa -16 + ^ .cfa: $rsp 16 +
STACK CFI 42b94 $r14: .cfa -24 + ^ .cfa: $rsp 24 +
STACK CFI 42b99 $r13: .cfa -32 + ^ .cfa: $rsp 32 +
STACK CFI 42b9b $r12: .cfa -40 + ^ .cfa: $rsp 40 +
STACK CFI 42b9f $rbp: .cfa -48 + ^ .cfa: $rsp 48 +
STACK CFI 42ba0 $rbx: .cfa -56 + ^ .cfa: $rsp 56 +
STACK CFI 42ba7 .cfa: $rsp 80 +
STACK CFI 42c6d .cfa: $rsp 56 +
STACK CFI 42c6e .cfa: $rsp 48 +
STACK CFI 42c6f .cfa: $rsp 40 +
STACK CFI 42c71 .cfa: $rsp 32 +
STACK CFI 42c73 .cfa: $rsp 24 +
STACK CFI 42c75 .cfa: $rsp 16 +
STACK CFI 42c77 .cfa: $rsp 8 +
STACK CFI 42c80 .cfa: $rsp 80 +
STACK CFI INIT 42cc0 12e .cfa: $rsp 8 + .ra: .cfa -8 + ^
STACK CFI 42cc2 $r15: .cfa -16 + ^ .cfa: $rsp 16 +
STACK CFI 42cc4 $r14: .cfa -24 + ^ .cfa: $rsp 24 +
STACK CFI 42cc9 $r13: .cfa -32 + ^ .cfa: $rsp 32 +
STACK CFI 42ccb $r12: .cfa -40 + ^ .cfa: $rsp 40 +
STACK CFI 42ccf $rbp: .cfa -48 + ^ .cfa: $rsp 48 +
STACK CFI 42cd0 $rbx: .cfa -56 + ^ .cfa: $rsp 56 +
STACK CFI 42cd7 .cfa: $rsp 80 +
STACK CFI 42d9d .cfa: $rsp 56 +
STACK CFI 42d9e .cfa: $rsp 48 +
STACK CFI 42d9f .cfa: $rsp 40 +
STACK CFI 42da1 .cfa: $rsp 32 +
STACK CFI 42da3 .cfa: $rsp 24 +
STACK CFI 42da5 .cfa: $rsp 16 +
STACK CFI 42da7 .cfa: $rsp 8 +
STACK CFI 42db0 .cfa: $rsp 80 +
STACK CFI INIT 40c20 1be1 .cfa: $rsp 8 + .ra: .cfa -8 + ^
STACK CFI 40c22 $r15: .cfa -16 + ^ .cfa: $rsp 16 +
STACK CFI 40c24 $r14: .cfa -24 + ^ .cfa: $rsp 24 +
STACK CFI 40c29 $r13: .cfa -32 + ^ .cfa: $rsp 32 +
STACK CFI 40c2b $r12: .cfa -40 + ^ .cfa: $rsp 40 +
STACK CFI 40c2c $rbp: .cfa -48 + ^ .cfa: $rsp 48 +
STACK CFI 40c2d $rbx: .cfa -56 + ^ .cfa: $rsp 56 +
STACK CFI 40c37 .cfa: $rsp 416 +
STACK CFI 41a3a .cfa: $rsp 424 +
STACK CFI 41a55 .cfa: $rsp 432 +
STACK CFI 41a6a .cfa: $rsp 424 +
STACK CFI 41a6b .cfa: $rsp 416 +
STACK CFI 41fad .cfa: $rsp 56 +
STACK CFI 41fae .cfa: $rsp 48 +
STACK CFI 41faf .cfa: $rsp 40 +
STACK CFI 41fb1 .cfa: $rsp 32 +
STACK CFI 41fb3 .cfa: $rsp 24 +
STACK CFI 41fb5 .cfa: $rsp 16 +
STACK CFI 41fb7 .cfa: $rsp 8 +
STACK CFI 41fc0 .cfa: $rsp 416 +
STACK CFI INIT 8dd0 2e .cfa: $rsp 8 + .ra: .cfa -8 + ^
STACK CFI 8ddb .cfa: $rsp 16 +
STACK CFI 8df9 .cfa: $rsp 8 +
STACK CFI INIT 42810 1e5 .cfa: $rsp 8 + .ra: .cfa -8 + ^
STACK CFI 42812 $r14: .cfa -16 + ^ .cfa: $rsp 16 +
STACK CFI 42814 $r13: .cfa -24 + ^ .cfa: $rsp 24 +
STACK CFI 4281d $r12: .cfa -32 + ^ .cfa: $rsp 32 +
STACK CFI 4281e $rbp: .cfa -40 + ^ .cfa: $rsp 40 +
STACK CFI 42822 $rbx: .cfa -48 + ^ .cfa: $rsp 48 +
STACK CFI 42837 .cfa: $rsp 208 +
STACK CFI 4297f .cfa: $rsp 48 +
STACK CFI 42980 .cfa: $rsp 40 +
STACK CFI 42981 .cfa: $rsp 32 +
STACK CFI 42983 .cfa: $rsp 24 +
STACK CFI 42985 .cfa: $rsp 16 +
STACK CFI 42987 .cfa: $rsp 8 +
STACK CFI 42990 .cfa: $rsp 208 +
STACK CFI INIT 42df0 1a4 .cfa: $rsp 8 + .ra: .cfa -8 + ^
STACK CFI 42df2 $r12: .cfa -16 + ^ .cfa: $rsp 16 +
STACK CFI 42df3 $rbp: .cfa -24 + ^ .cfa: $rsp 24 +
STACK CFI 42df7 $rbx: .cfa -32 + ^ .cfa: $rsp 32 +
STACK CFI 42e0d .cfa: $rsp 48 +
STACK CFI 42ede .cfa: $rsp 32 +
STACK CFI 42edf .cfa: $rsp 24 +
STACK CFI 42ee0 .cfa: $rsp 16 +
STACK CFI 42ee2 .cfa: $rsp 8 +
STACK CFI 42ee8 .cfa: $rsp 48 +
STACK CFI INIT 42fa0 18d .cfa: $rsp 8 + .ra: .cfa -8 + ^
STACK CFI 42fa2 $r12: .cfa -16 + ^ .cfa: $rsp 16 +
STACK CFI 42fa3 $rbp: .cfa -24 + ^ .cfa: $rsp 24 +
STACK CFI 42fa4 $rbx: .cfa -32 + ^ .cfa: $rsp 32 +
STACK CFI 43129 .cfa: $rsp 24 +
STACK CFI 4312a .cfa: $rsp 16 +
STACK CFI 4312c .cfa: $rsp 8 +
STACK CFI INIT 43130 1b5 .cfa: $rsp 8 + .ra: .cfa -8 + ^
STACK CFI 43132 $r12: .cfa -16 + ^ .cfa: $rsp 16 +
STACK CFI 43133 $rbp: .cfa -24 + ^ .cfa: $rsp 24 +
STACK CFI 43137 $rbx: .cfa -32 + ^ .cfa: $rsp 32 +
STACK CFI 432b7 .cfa: $rsp 24 +
STACK CFI 432b8 .cfa: $rsp 16 +
STACK CFI 432ba .cfa: $rsp 8 +
STACK CFI 432c0 .cfa: $rsp 32 +
STACK CFI 432e1 .cfa: $rsp 24 +
STACK CFI 432e2 .cfa: $rsp 16 +
STACK CFI 432e4 .cfa: $rsp 8 +
STACK CFI INIT 8e00 2e .cfa: $rsp 8 + .ra: .cfa -8 + ^
STACK CFI 8e0b .cfa: $rsp 16 +
STACK CFI 8e29 .cfa: $rsp 8 +
STACK CFI INIT 432f0 c8 .cfa: $rsp 8 + .ra: .cfa -8 + ^
STACK CFI 432f2 $r12: .cfa -16 + ^ .cfa: $rsp 16 +
STACK CFI 432f3 $rbp: .cfa -24 + ^ .cfa: $rsp 24 +
STACK CFI 432f7 $rbx: .cfa -32 + ^ .cfa: $rsp 32 +
STACK CFI 432fe .cfa: $rsp 48 +
STACK CFI 43364 .cfa: $rsp 32 +
STACK CFI 43365 .cfa: $rsp 24 +
STACK CFI 43366 .cfa: $rsp 16 +
STACK CFI 43368 .cfa: $rsp 8 +
STACK CFI 43370 .cfa: $rsp 48 +
STACK CFI INIT 43c40 32 .cfa: $rsp 8 + .ra: .cfa -8 + ^
STACK CFI 43c41 $rbx: .cfa -16 + ^ .cfa: $rsp 16 +
STACK CFI 43c64 .cfa: $rsp 8 +
STACK CFI 43c70 .cfa: $rsp 16 +
STACK CFI 43c71 .cfa: $rsp 8 +
STACK CFI INIT 43c80 4d3 .cfa: $rsp 8 + .ra: .cfa -8 + ^
STACK CFI 43c82 $r15: .cfa -16 + ^ .cfa: $rsp 16 +
STACK CFI 43c84 $r14: .cfa -24 + ^ .cfa: $rsp 24 +
STACK CFI 43c89 $r13: .cfa -32 + ^ .cfa: $rsp 32 +
STACK CFI 43c8b $r12: .cfa -40 + ^ .cfa: $rsp 40 +
STACK CFI 43c96 $rbp: .cfa -48 + ^ .cfa: $rsp 48 +
STACK CFI 43c97 $rbx: .cfa -56 + ^ .cfa: $rsp 56 +
STACK CFI 43ca7 .cfa: $rsp 80 +
STACK CFI 440c3 .cfa: $rsp 56 +
STACK CFI 440c4 .cfa: $rsp 48 +
STACK CFI 440c5 .cfa: $rsp 40 +
STACK CFI 440c7 .cfa: $rsp 32 +
STACK CFI 440c9 .cfa: $rsp 24 +
STACK CFI 440cb .cfa: $rsp 16 +
STACK CFI 440cd .cfa: $rsp 8 +
STACK CFI 440d0 .cfa: $rsp 80 +
STACK CFI INIT 433c0 871 .cfa: $rsp 8 + .ra: .cfa -8 + ^
STACK CFI 433c2 $r15: .cfa -16 + ^ .cfa: $rsp 16 +
STACK CFI 433c4 $r14: .cfa -24 + ^ .cfa: $rsp 24 +
STACK CFI 433cd $r13: .cfa -32 + ^ .cfa: $rsp 32 +
STACK CFI 433cf $r12: .cfa -40 + ^ .cfa: $rsp 40 +
STACK CFI 433d3 $rbp: .cfa -48 + ^ .cfa: $rsp 48 +
STACK CFI 433d4 $rbx: .cfa -56 + ^ .cfa: $rsp 56 +
STACK CFI 433db .cfa: $rsp 352 +
STACK CFI 437d3 .cfa: $rsp 360 +
STACK CFI 437d4 .cfa: $rsp 368 +
STACK CFI 437dc .cfa: $rsp 376 +
STACK CFI 437e1 .cfa: $rsp 384 +
STACK CFI 437f1 .cfa: $rsp 352 +
STACK CFI 43a5a .cfa: $rsp 56 +
STACK CFI 43a5b .cfa: $rsp 48 +
STACK CFI 43a5c .cfa: $rsp 40 +
STACK CFI 43a5e .cfa: $rsp 32 +
STACK CFI 43a60 .cfa: $rsp 24 +
STACK CFI 43a62 .cfa: $rsp 16 +
STACK CFI 43a64 .cfa: $rsp 8 +
STACK CFI 43a68 .cfa: $rsp 352 +
STACK CFI INIT 8e30 2e .cfa: $rsp 8 + .ra: .cfa -8 + ^
STACK CFI 8e3b .cfa: $rsp 16 +
STACK CFI 8e59 .cfa: $rsp 8 +
STACK CFI INIT 44160 c8 .cfa: $rsp 8 + .ra: .cfa -8 + ^
STACK CFI 44162 $r12: .cfa -16 + ^ .cfa: $rsp 16 +
STACK CFI 44163 $rbp: .cfa -24 + ^ .cfa: $rsp 24 +
STACK CFI 44167 $rbx: .cfa -32 + ^ .cfa: $rsp 32 +
STACK CFI 4416e .cfa: $rsp 48 +
STACK CFI 441d4 .cfa: $rsp 32 +
STACK CFI 441d5 .cfa: $rsp 24 +
STACK CFI 441d6 .cfa: $rsp 16 +
STACK CFI 441d8 .cfa: $rsp 8 +
STACK CFI 441e0 .cfa: $rsp 48 +
STACK CFI INIT 44230 2d8 .cfa: $rsp 8 + .ra: .cfa -8 + ^
STACK CFI 44232 $r15: .cfa -16 + ^ .cfa: $rsp 16 +
STACK CFI 44234 $r14: .cfa -24 + ^ .cfa: $rsp 24 +
STACK CFI 44236 $r13: .cfa -32 + ^ .cfa: $rsp 32 +
STACK CFI 44238 $r12: .cfa -40 + ^ .cfa: $rsp 40 +
STACK CFI 44239 $rbp: .cfa -48 + ^ .cfa: $rsp 48 +
STACK CFI 4423a $rbx: .cfa -56 + ^ .cfa: $rsp 56 +
STACK CFI 44247 .cfa: $rsp 608 +
STACK CFI 44297 .cfa: $rsp 56 +
STACK CFI 44298 .cfa: $rsp 48 +
STACK CFI 44299 .cfa: $rsp 40 +
STACK CFI 4429b .cfa: $rsp 32 +
STACK CFI 4429d .cfa: $rsp 24 +
STACK CFI 4429f .cfa: $rsp 16 +
STACK CFI 442a1 .cfa: $rsp 8 +
STACK CFI 442a8 .cfa: $rsp 608 +
STACK CFI INIT 44510 2e6 .cfa: $rsp 8 + .ra: .cfa -8 + ^
STACK CFI 44512 $r15: .cfa -16 + ^ .cfa: $rsp 16 +
STACK CFI 44514 $r14: .cfa -24 + ^ .cfa: $rsp 24 +
STACK CFI 44516 $r13: .cfa -32 + ^ .cfa: $rsp 32 +
STACK CFI 44518 $r12: .cfa -40 + ^ .cfa: $rsp 40 +
STACK CFI 44519 $rbp: .cfa -48 + ^ .cfa: $rsp 48 +
STACK CFI 4451a $rbx: .cfa -56 + ^ .cfa: $rsp 56 +
STACK CFI 4451e .cfa: $rsp 160 +
STACK CFI 4468e .cfa: $rsp 56 +
STACK CFI 4468f .cfa: $rsp 48 +
STACK CFI 44690 .cfa: $rsp 40 +
STACK CFI 44692 .cfa: $rsp 32 +
STACK CFI 44694 .cfa: $rsp 24 +
STACK CFI 44696 .cfa: $rsp 16 +
STACK CFI 44698 .cfa: $rsp 8 +
STACK CFI 446a0 .cfa: $rsp 160 +
STACK CFI INIT 44800 8ea .cfa: $rsp 8 + .ra: .cfa -8 + ^
STACK CFI 44802 $r15: .cfa -16 + ^ .cfa: $rsp 16 +
STACK CFI 44804 $r14: .cfa -24 + ^ .cfa: $rsp 24 +
STACK CFI 44806 $r13: .cfa -32 + ^ .cfa: $rsp 32 +
STACK CFI 44808 $r12: .cfa -40 + ^ .cfa: $rsp 40 +
STACK CFI 4480c $rbp: .cfa -48 + ^ .cfa: $rsp 48 +
STACK CFI 4480d $rbx: .cfa -56 + ^ .cfa: $rsp 56 +
STACK CFI 4481a .cfa: $rsp 384 +
STACK CFI 449f0 .cfa: $rsp 56 +
STACK CFI 449f1 .cfa: $rsp 48 +
STACK CFI 449f2 .cfa: $rsp 40 +
STACK CFI 449f4 .cfa: $rsp 32 +
STACK CFI 449f6 .cfa: $rsp 24 +
STACK CFI 449f8 .cfa: $rsp 16 +
STACK CFI 449fa .cfa: $rsp 8 +
STACK CFI 44a00 .cfa: $rsp 384 +
STACK CFI INIT 450f0 116 .cfa: $rsp 8 + .ra: .cfa -8 + ^
STACK CFI 450f2 $r14: .cfa -16 + ^ .cfa: $rsp 16 +
STACK CFI 450f4 $r13: .cfa -24 + ^ .cfa: $rsp 24 +
STACK CFI 450f9 $r12: .cfa -32 + ^ .cfa: $rsp 32 +
STACK CFI 450fa $rbp: .cfa -40 + ^ .cfa: $rsp 40 +
STACK CFI 450fe $rbx: .cfa -48 + ^ .cfa: $rsp 48 +
STACK CFI 45108 .cfa: $rsp 64 +
STACK CFI 45193 .cfa: $rsp 48 +
STACK CFI 45194 .cfa: $rsp 40 +
STACK CFI 45195 .cfa: $rsp 32 +
STACK CFI 45197 .cfa: $rsp 24 +
STACK CFI 45199 .cfa: $rsp 16 +
STACK CFI 4519b .cfa: $rsp 8 +
STACK CFI 451a0 .cfa: $rsp 64 +
STACK CFI INIT 453d0 64 .cfa: $rsp 8 + .ra: .cfa -8 + ^
STACK CFI 453d2 $r12: .cfa -16 + ^ .cfa: $rsp 16 +
STACK CFI 453da $rbp: .cfa -24 + ^ .cfa: $rsp 24 +
STACK CFI 453db $rbx: .cfa -32 + ^ .cfa: $rsp 32 +
STACK CFI 45424 .cfa: $rsp 24 +
STACK CFI 4542d .cfa: $rsp 16 +
STACK CFI 4542f .cfa: $rsp 8 +
STACK CFI INIT 45440 71 .cfa: $rsp 8 + .ra: .cfa -8 + ^
STACK CFI 45442 $r12: .cfa -16 + ^ .cfa: $rsp 16 +
STACK CFI 4544a $rbp: .cfa -24 + ^ .cfa: $rsp 24 +
STACK CFI 4544b $rbx: .cfa -32 + ^ .cfa: $rsp 32 +
STACK CFI 454a1 .cfa: $rsp 24 +
STACK CFI 454aa .cfa: $rsp 16 +
STACK CFI 454ac .cfa: $rsp 8 +
STACK CFI INIT 454c0 2b8 .cfa: $rsp 8 + .ra: .cfa -8 + ^
STACK CFI 454c2 $r15: .cfa -16 + ^ .cfa: $rsp 16 +
STACK CFI 454c4 $r14: .cfa -24 + ^ .cfa: $rsp 24 +
STACK CFI 454c6 $r13: .cfa -32 + ^ .cfa: $rsp 32 +
STACK CFI 454c8 $r12: .cfa -40 + ^ .cfa: $rsp 40 +
STACK CFI 454c9 $rbp: .cfa -48 + ^ .cfa: $rsp 48 +
STACK CFI 454ca $rbx: .cfa -56 + ^ .cfa: $rsp 56 +
STACK CFI 454d1 .cfa: $rsp 112 +
STACK CFI 4560c .cfa: $rsp 56 +
STACK CFI 45612 .cfa: $rsp 48 +
STACK CFI 45613 .cfa: $rsp 40 +
STACK CFI 45615 .cfa: $rsp 32 +
STACK CFI 45617 .cfa: $rsp 24 +
STACK CFI 45619 .cfa: $rsp 16 +
STACK CFI 4561b .cfa: $rsp 8 +
STACK CFI 45620 .cfa: $rsp 112 +
STACK CFI 456d8 .cfa: $rsp 56 +
STACK CFI 456dc .cfa: $rsp 48 +
STACK CFI 456dd .cfa: $rsp 40 +
STACK CFI 456df .cfa: $rsp 32 +
STACK CFI 456e1 .cfa: $rsp 24 +
STACK CFI 456e3 .cfa: $rsp 16 +
STACK CFI 456e5 .cfa: $rsp 8 +
STACK CFI 456f0 .cfa: $rsp 112 +
STACK CFI INIT 45210 1ba .cfa: $rsp 8 + .ra: .cfa -8 + ^
STACK CFI 45212 $r15: .cfa -16 + ^ .cfa: $rsp 16 +
STACK CFI 45214 $r14: .cfa -24 + ^ .cfa: $rsp 24 +
STACK CFI 45219 $r13: .cfa -32 + ^ .cfa: $rsp 32 +
STACK CFI 4521b $r12: .cfa -40 + ^ .cfa: $rsp 40 +
STACK CFI 4521f $rbp: .cfa -48 + ^ .cfa: $rsp 48 +
STACK CFI 45220 $rbx: .cfa -56 + ^ .cfa: $rsp 56 +
STACK CFI 4522a .cfa: $rsp 176 +
STACK CFI 45291 .cfa: $rsp 56 +
STACK CFI 45292 .cfa: $rsp 48 +
STACK CFI 45293 .cfa: $rsp 40 +
STACK CFI 45295 .cfa: $rsp 32 +
STACK CFI 45297 .cfa: $rsp 24 +
STACK CFI 45299 .cfa: $rsp 16 +
STACK CFI 4529b .cfa: $rsp 8 +
STACK CFI 452a0 .cfa: $rsp 176 +
STACK CFI INIT 8e60 2e .cfa: $rsp 8 + .ra: .cfa -8 + ^
STACK CFI 8e6b .cfa: $rsp 16 +
STACK CFI 8e89 .cfa: $rsp 8 +
STACK CFI INIT 45780 6 .cfa: $rsp 8 + .ra: .cfa -8 + ^
STACK CFI INIT 45790 e4 .cfa: $rsp 8 + .ra: .cfa -8 + ^
STACK CFI 45791 $rbp: .cfa -16 + ^ .cfa: $rsp 16 +
STACK CFI 45792 $rbx: .cfa -24 + ^ .cfa: $rsp 24 +
STACK CFI 45796 .cfa: $rsp 128 +
STACK CFI 4583b .cfa: $rsp 24 +
STACK CFI 4583c .cfa: $rsp 16 +
STACK CFI 4583d .cfa: $rsp 8 +
STACK CFI 4583e .cfa: $rsp 128 +
STACK CFI INIT 45880 b8 .cfa: $rsp 8 + .ra: .cfa -8 + ^
STACK CFI 45881 $rbp: .cfa -16 + ^ .cfa: $rsp 16 +
STACK CFI 45882 $rbx: .cfa -24 + ^ .cfa: $rsp 24 +
STACK CFI 4588c .cfa: $rsp 32 +
STACK CFI 45935 .cfa: $rsp 24 +
STACK CFI 45936 .cfa: $rsp 16 +
STACK CFI 45937 .cfa: $rsp 8 +
STACK CFI INIT 45940 4e9 .cfa: $rsp 8 + .ra: .cfa -8 + ^
STACK CFI 45942 $r15: .cfa -16 + ^ .cfa: $rsp 16 +
STACK CFI 45944 $r14: .cfa -24 + ^ .cfa: $rsp 24 +
STACK CFI 45946 $r13: .cfa -32 + ^ .cfa: $rsp 32 +
STACK CFI 45948 $r12: .cfa -40 + ^ .cfa: $rsp 40 +
STACK CFI 45949 $rbp: .cfa -48 + ^ .cfa: $rsp 48 +
STACK CFI 4594a $rbx: .cfa -56 + ^ .cfa: $rsp 56 +
STACK CFI 45951 .cfa: $rsp 288 +
STACK CFI 459da .cfa: $rsp 56 +
STACK CFI 459db .cfa: $rsp 48 +
STACK CFI 459dc .cfa: $rsp 40 +
STACK CFI 459de .cfa: $rsp 32 +
STACK CFI 459e0 .cfa: $rsp 24 +
STACK CFI 459e2 .cfa: $rsp 16 +
STACK CFI 459e4 .cfa: $rsp 8 +
STACK CFI 459e8 .cfa: $rsp 288 +
STACK CFI INIT 45e30 1a .cfa: $rsp 8 + .ra: .cfa -8 + ^
STACK CFI 45e37 .cfa: $rsp 16 +
STACK CFI 45e46 .cfa: $rsp 8 +
STACK CFI INIT 45e50 ff .cfa: $rsp 8 + .ra: .cfa -8 + ^
STACK CFI 45e52 $r14: .cfa -16 + ^ .cfa: $rsp 16 +
STACK CFI 45e54 $r13: .cfa -24 + ^ .cfa: $rsp 24 +
STACK CFI 45e56 $r12: .cfa -32 + ^ .cfa: $rsp 32 +
STACK CFI 45e57 $rbp: .cfa -40 + ^ .cfa: $rsp 40 +
STACK CFI 45e58 $rbx: .cfa -48 + ^ .cfa: $rsp 48 +
STACK CFI 45e5c .cfa: $rsp 112 +
STACK CFI 45f15 .cfa: $rsp 48 +
STACK CFI 45f16 .cfa: $rsp 40 +
STACK CFI 45f17 .cfa: $rsp 32 +
STACK CFI 45f19 .cfa: $rsp 24 +
STACK CFI 45f1b .cfa: $rsp 16 +
STACK CFI 45f1d .cfa: $rsp 8 +
STACK CFI 45f20 .cfa: $rsp 112 +
STACK CFI INIT 47040 52 .cfa: $rsp 8 + .ra: .cfa -8 + ^
STACK CFI 47047 $r12: .cfa -16 + ^ .cfa: $rsp 16 +
STACK CFI 4704b $rbp: .cfa -24 + ^ .cfa: $rsp 24 +
STACK CFI 4704c $rbx: .cfa -32 + ^ .cfa: $rsp 32 +
STACK CFI 47082 .cfa: $rsp 24 +
STACK CFI 47083 .cfa: $rsp 16 +
STACK CFI 47085 .cfa: $rsp 8 +
STACK CFI 47090 $r12: $r12 $rbp: $rbp $rbx: $rbx
STACK CFI INIT 470a0 52 .cfa: $rsp 8 + .ra: .cfa -8 + ^
STACK CFI 470a7 $r12: .cfa -16 + ^ .cfa: $rsp 16 +
STACK CFI 470ab $rbp: .cfa -24 + ^ .cfa: $rsp 24 +
STACK CFI 470ac $rbx: .cfa -32 + ^ .cfa: $rsp 32 +
STACK CFI 470e2 .cfa: $rsp 24 +
STACK CFI 470e3 .cfa: $rsp 16 +
STACK CFI 470e5 .cfa: $rsp 8 +
STACK CFI 470f0 $r12: $r12 $rbp: $rbp $rbx: $rbx
STACK CFI INIT 47100 52 .cfa: $rsp 8 + .ra: .cfa -8 + ^
STACK CFI 47107 $r12: .cfa -16 + ^ .cfa: $rsp 16 +
STACK CFI 4710b $rbp: .cfa -24 + ^ .cfa: $rsp 24 +
STACK CFI 4710c $rbx: .cfa -32 + ^ .cfa: $rsp 32 +
STACK CFI 47142 .cfa: $rsp 24 +
STACK CFI 47143 .cfa: $rsp 16 +
STACK CFI 47145 .cfa: $rsp 8 +
STACK CFI 47150 $r12: $r12 $rbp: $rbp $rbx: $rbx
STACK CFI INIT 45f50 145 .cfa: $rsp 8 + .ra: .cfa -8 + ^
STACK CFI 45f52 $r12: .cfa -16 + ^ .cfa: $rsp 16 +
STACK CFI 45f5a $rbp: .cfa -24 + ^ .cfa: $rsp 24 +
STACK CFI 45f5b $rbx: .cfa -32 + ^ .cfa: $rsp 32 +
STACK CFI 46041 .cfa: $rsp 24 +
STACK CFI 46042 .cfa: $rsp 16 +
STACK CFI 46044 .cfa: $rsp 8 +
STACK CFI 46050 .cfa: $rsp 32 +
STACK CFI 46091 .cfa: $rsp 24 +
STACK CFI 46092 .cfa: $rsp 16 +
STACK CFI 46094 .cfa: $rsp 8 +
STACK CFI INIT 460a0 17 .cfa: $rsp 8 + .ra: .cfa -8 + ^
STACK CFI 460a1 $rbx: .cfa -16 + ^ .cfa: $rsp 16 +
STACK CFI 460b2 .cfa: $rsp 8 +
STACK CFI INIT 47160 7c .cfa: $rsp 8 + .ra: .cfa -8 + ^
STACK CFI 47162 $r14: .cfa -16 + ^ .cfa: $rsp 16 +
STACK CFI 47164 $r13: .cfa -24 + ^ .cfa: $rsp 24 +
STACK CFI 4716a $r12: .cfa -32 + ^ .cfa: $rsp 32 +
STACK CFI 4716b $rbp: .cfa -40 + ^ .cfa: $rsp 40 +
STACK CFI 4716c $rbx: .cfa -48 + ^ .cfa: $rsp 48 +
STACK CFI 471c1 .cfa: $rsp 40 +
STACK CFI 471c5 .cfa: $rsp 32 +
STACK CFI 471c7 .cfa: $rsp 24 +
STACK CFI 471c9 .cfa: $rsp 16 +
STACK CFI 471cb .cfa: $rsp 8 +
STACK CFI 471d0 .cfa: $rsp 48 +
STACK CFI 471d1 .cfa: $rsp 40 +
STACK CFI 471d5 .cfa: $rsp 32 +
STACK CFI 471d7 .cfa: $rsp 24 +
STACK CFI 471d9 .cfa: $rsp 16 +
STACK CFI 471db .cfa: $rsp 8 +
STACK CFI INIT 460c0 a7 .cfa: $rsp 8 + .ra: .cfa -8 + ^
STACK CFI 460c2 $r12: .cfa -16 + ^ .cfa: $rsp 16 +
STACK CFI 460c3 $rbp: .cfa -24 + ^ .cfa: $rsp 24 +
STACK CFI 460c4 $rbx: .cfa -32 + ^ .cfa: $rsp 32 +
STACK CFI 460c8 .cfa: $rsp 96 +
STACK CFI 46134 .cfa: $rsp 32 +
STACK CFI 46135 .cfa: $rsp 24 +
STACK CFI 46136 .cfa: $rsp 16 +
STACK CFI 46138 .cfa: $rsp 8 +
STACK CFI 46140 .cfa: $rsp 96 +
STACK CFI INIT 46170 b1 .cfa: $rsp 8 + .ra: .cfa -8 + ^
STACK CFI 46172 $r13: .cfa -16 + ^ .cfa: $rsp 16 +
STACK CFI 46174 $r12: .cfa -24 + ^ .cfa: $rsp 24 +
STACK CFI 46175 $rbp: .cfa -32 + ^ .cfa: $rsp 32 +
STACK CFI 46176 $rbx: .cfa -40 + ^ .cfa: $rsp 40 +
STACK CFI 4617d .cfa: $rsp 96 +
STACK CFI 461f8 .cfa: $rsp 40 +
STACK CFI 461f9 .cfa: $rsp 32 +
STACK CFI 461fa .cfa: $rsp 24 +
STACK CFI 461fc .cfa: $rsp 16 +
STACK CFI 461fe .cfa: $rsp 8 +
STACK CFI 461ff .cfa: $rsp 96 +
STACK CFI INIT 46230 b6 .cfa: $rsp 8 + .ra: .cfa -8 + ^
STACK CFI 46232 $r13: .cfa -16 + ^ .cfa: $rsp 16 +
STACK CFI 46234 $r12: .cfa -24 + ^ .cfa: $rsp 24 +
STACK CFI 46235 $rbp: .cfa -32 + ^ .cfa: $rsp 32 +
STACK CFI 46236 $rbx: .cfa -40 + ^ .cfa: $rsp 40 +
STACK CFI 4623d .cfa: $rsp 96 +
STACK CFI 462b8 .cfa: $rsp 40 +
STACK CFI 462b9 .cfa: $rsp 32 +
STACK CFI 462ba .cfa: $rsp 24 +
STACK CFI 462bc .cfa: $rsp 16 +
STACK CFI 462be .cfa: $rsp 8 +
STACK CFI 462c0 .cfa: $rsp 96 +
STACK CFI INIT 462f0 b6 .cfa: $rsp 8 + .ra: .cfa -8 + ^
STACK CFI 462f2 $r13: .cfa -16 + ^ .cfa: $rsp 16 +
STACK CFI 462f4 $r12: .cfa -24 + ^ .cfa: $rsp 24 +
STACK CFI 462f5 $rbp: .cfa -32 + ^ .cfa: $rsp 32 +
STACK CFI 462f6 $rbx: .cfa -40 + ^ .cfa: $rsp 40 +
STACK CFI 462fd .cfa: $rsp 96 +
STACK CFI 46378 .cfa: $rsp 40 +
STACK CFI 46379 .cfa: $rsp 32 +
STACK CFI 4637a .cfa: $rsp 24 +
STACK CFI 4637c .cfa: $rsp 16 +
STACK CFI 4637e .cfa: $rsp 8 +
STACK CFI 46380 .cfa: $rsp 96 +
STACK CFI INIT 471e0 1ee .cfa: $rsp 8 + .ra: .cfa -8 + ^
STACK CFI 471e2 $r15: .cfa -16 + ^ .cfa: $rsp 16 +
STACK CFI 471e4 $r14: .cfa -24 + ^ .cfa: $rsp 24 +
STACK CFI 471e6 $r13: .cfa -32 + ^ .cfa: $rsp 32 +
STACK CFI 471e8 $r12: .cfa -40 + ^ .cfa: $rsp 40 +
STACK CFI 471ec $rbp: .cfa -48 + ^ .cfa: $rsp 48 +
STACK CFI 471ed $rbx: .cfa -56 + ^ .cfa: $rsp 56 +
STACK CFI 471f9 .cfa: $rsp 80 +
STACK CFI 472ee .cfa: $rsp 56 +
STACK CFI 472f4 .cfa: $rsp 48 +
STACK CFI 472f5 .cfa: $rsp 40 +
STACK CFI 472f7 .cfa: $rsp 32 +
STACK CFI 472f9 .cfa: $rsp 24 +
STACK CFI 472fb .cfa: $rsp 16 +
STACK CFI 472fd .cfa: $rsp 8 +
STACK CFI 47300 .cfa: $rsp 80 +
STACK CFI 4732c .cfa: $rsp 56 +
STACK CFI 47330 .cfa: $rsp 48 +
STACK CFI 47336 .cfa: $rsp 40 +
STACK CFI 47338 .cfa: $rsp 32 +
STACK CFI 4733a .cfa: $rsp 24 +
STACK CFI 4733c .cfa: $rsp 16 +
STACK CFI 4733e .cfa: $rsp 8 +
STACK CFI 47340 .cfa: $rsp 80 +
STACK CFI INIT 463b0 3b9 .cfa: $rsp 8 + .ra: .cfa -8 + ^
STACK CFI 463b2 $r15: .cfa -16 + ^ .cfa: $rsp 16 +
STACK CFI 463b4 $r14: .cfa -24 + ^ .cfa: $rsp 24 +
STACK CFI 463b6 $r13: .cfa -32 + ^ .cfa: $rsp 32 +
STACK CFI 463b8 $r12: .cfa -40 + ^ .cfa: $rsp 40 +
STACK CFI 463b9 $rbp: .cfa -48 + ^ .cfa: $rsp 48 +
STACK CFI 463ba $rbx: .cfa -56 + ^ .cfa: $rsp 56 +
STACK CFI 463be .cfa: $rsp 176 +
STACK CFI 464c9 .cfa: $rsp 56 +
STACK CFI 464ca .cfa: $rsp 48 +
STACK CFI 464cb .cfa: $rsp 40 +
STACK CFI 464cd .cfa: $rsp 32 +
STACK CFI 464cf .cfa: $rsp 24 +
STACK CFI 464d1 .cfa: $rsp 16 +
STACK CFI 464d3 .cfa: $rsp 8 +
STACK CFI 464d8 .cfa: $rsp 176 +
STACK CFI INIT 46770 2bb .cfa: $rsp 8 + .ra: .cfa -8 + ^
STACK CFI 46772 $r15: .cfa -16 + ^ .cfa: $rsp 16 +
STACK CFI 46774 $r14: .cfa -24 + ^ .cfa: $rsp 24 +
STACK CFI 46776 $r13: .cfa -32 + ^ .cfa: $rsp 32 +
STACK CFI 46778 $r12: .cfa -40 + ^ .cfa: $rsp 40 +
STACK CFI 46779 $rbp: .cfa -48 + ^ .cfa: $rsp 48 +
STACK CFI 4677a $rbx: .cfa -56 + ^ .cfa: $rsp 56 +
STACK CFI 4677e .cfa: $rsp 176 +
STACK CFI 46888 .cfa: $rsp 56 +
STACK CFI 46889 .cfa: $rsp 48 +
STACK CFI 4688a .cfa: $rsp 40 +
STACK CFI 4688c .cfa: $rsp 32 +
STACK CFI 4688e .cfa: $rsp 24 +
STACK CFI 46890 .cfa: $rsp 16 +
STACK CFI 46892 .cfa: $rsp 8 +
STACK CFI 46898 .cfa: $rsp 176 +
STACK CFI INIT 473d0 1ee .cfa: $rsp 8 + .ra: .cfa -8 + ^
STACK CFI 473d2 $r15: .cfa -16 + ^ .cfa: $rsp 16 +
STACK CFI 473d4 $r14: .cfa -24 + ^ .cfa: $rsp 24 +
STACK CFI 473d6 $r13: .cfa -32 + ^ .cfa: $rsp 32 +
STACK CFI 473d8 $r12: .cfa -40 + ^ .cfa: $rsp 40 +
STACK CFI 473dc $rbp: .cfa -48 + ^ .cfa: $rsp 48 +
STACK CFI 473dd $rbx: .cfa -56 + ^ .cfa: $rsp 56 +
STACK CFI 473e9 .cfa: $rsp 80 +
STACK CFI 474de .cfa: $rsp 56 +
STACK CFI 474e4 .cfa: $rsp 48 +
STACK CFI 474e5 .cfa: $rsp 40 +
STACK CFI 474e7 .cfa: $rsp 32 +
STACK CFI 474e9 .cfa: $rsp 24 +
STACK CFI 474eb .cfa: $rsp 16 +
STACK CFI 474ed .cfa: $rsp 8 +
STACK CFI 474f0 .cfa: $rsp 80 +
STACK CFI 4751c .cfa: $rsp 56 +
STACK CFI 47520 .cfa: $rsp 48 +
STACK CFI 47526 .cfa: $rsp 40 +
STACK CFI 47528 .cfa: $rsp 32 +
STACK CFI 4752a .cfa: $rsp 24 +
STACK CFI 4752c .cfa: $rsp 16 +
STACK CFI 4752e .cfa: $rsp 8 +
STACK CFI 47530 .cfa: $rsp 80 +
STACK CFI INIT 475c0 178 .cfa: $rsp 8 + .ra: .cfa -8 + ^
STACK CFI 475c2 $r15: .cfa -16 + ^ .cfa: $rsp 16 +
STACK CFI 475c4 $r14: .cfa -24 + ^ .cfa: $rsp 24 +
STACK CFI 475c6 $r13: .cfa -32 + ^ .cfa: $rsp 32 +
STACK CFI 475c8 $r12: .cfa -40 + ^ .cfa: $rsp 40 +
STACK CFI 475cd $rbp: .cfa -48 + ^ .cfa: $rsp 48 +
STACK CFI 475ce $rbx: .cfa -56 + ^ .cfa: $rsp 56 +
STACK CFI 475d8 .cfa: $rsp 64 +
STACK CFI 47651 .cfa: $rsp 56 +
STACK CFI 47657 .cfa: $rsp 48 +
STACK CFI 47658 .cfa: $rsp 40 +
STACK CFI 4765a .cfa: $rsp 32 +
STACK CFI 4765c .cfa: $rsp 24 +
STACK CFI 4765e .cfa: $rsp 16 +
STACK CFI 47660 .cfa: $rsp 8 +
STACK CFI 47668 .cfa: $rsp 64 +
STACK CFI 476e0 .cfa: $rsp 56 +
STACK CFI 476e9 .cfa: $rsp 48 +
STACK CFI 476ea .cfa: $rsp 40 +
STACK CFI 476ec .cfa: $rsp 32 +
STACK CFI 476ee .cfa: $rsp 24 +
STACK CFI 476f0 .cfa: $rsp 16 +
STACK CFI 476f2 .cfa: $rsp 8 +
STACK CFI 476f8 .cfa: $rsp 64 +
STACK CFI INIT 46a30 41a .cfa: $rsp 8 + .ra: .cfa -8 + ^
STACK CFI 46a32 $r15: .cfa -16 + ^ .cfa: $rsp 16 +
STACK CFI 46a34 $r14: .cfa -24 + ^ .cfa: $rsp 24 +
STACK CFI 46a36 $r13: .cfa -32 + ^ .cfa: $rsp 32 +
STACK CFI 46a38 $r12: .cfa -40 + ^ .cfa: $rsp 40 +
STACK CFI 46a39 $rbp: .cfa -48 + ^ .cfa: $rsp 48 +
STACK CFI 46a3a $rbx: .cfa -56 + ^ .cfa: $rsp 56 +
STACK CFI 46a3e .cfa: $rsp 176 +
STACK CFI 46b4c .cfa: $rsp 56 +
STACK CFI 46b4d .cfa: $rsp 48 +
STACK CFI 46b4e .cfa: $rsp 40 +
STACK CFI 46b50 .cfa: $rsp 32 +
STACK CFI 46b52 .cfa: $rsp 24 +
STACK CFI 46b54 .cfa: $rsp 16 +
STACK CFI 46b56 .cfa: $rsp 8 +
STACK CFI 46b60 .cfa: $rsp 176 +
STACK CFI INIT 47740 f6 .cfa: $rsp 8 + .ra: .cfa -8 + ^
STACK CFI 47742 $r15: .cfa -16 + ^ .cfa: $rsp 16 +
STACK CFI 47744 $r14: .cfa -24 + ^ .cfa: $rsp 24 +
STACK CFI 47749 $r13: .cfa -32 + ^ .cfa: $rsp 32 +
STACK CFI 4774b $r12: .cfa -40 + ^ .cfa: $rsp 40 +
STACK CFI 47750 $rbp: .cfa -48 + ^ .cfa: $rsp 48 +
STACK CFI 47751 $rbx: .cfa -56 + ^ .cfa: $rsp 56 +
STACK CFI 47758 .cfa: $rsp 64 +
STACK CFI 477ac .cfa: $rsp 56 +
STACK CFI 477b0 .cfa: $rsp 48 +
STACK CFI 477b1 .cfa: $rsp 40 +
STACK CFI 477b3 .cfa: $rsp 32 +
STACK CFI 477b5 .cfa: $rsp 24 +
STACK CFI 477b7 .cfa: $rsp 16 +
STACK CFI 477b9 .cfa: $rsp 8 +
STACK CFI 477c0 .cfa: $rsp 64 +
STACK CFI INIT 47840 d5 .cfa: $rsp 8 + .ra: .cfa -8 + ^
STACK CFI 47842 $r15: .cfa -16 + ^ .cfa: $rsp 16 +
STACK CFI 47844 $r14: .cfa -24 + ^ .cfa: $rsp 24 +
STACK CFI 47846 $r13: .cfa -32 + ^ .cfa: $rsp 32 +
STACK CFI 47848 $r12: .cfa -40 + ^ .cfa: $rsp 40 +
STACK CFI 47849 $rbp: .cfa -48 + ^ .cfa: $rsp 48 +
STACK CFI 4784a $rbx: .cfa -56 + ^ .cfa: $rsp 56 +
STACK CFI 47851 .cfa: $rsp 64 +
STACK CFI 478c6 .cfa: $rsp 56 +
STACK CFI 478ca .cfa: $rsp 48 +
STACK CFI 478cb .cfa: $rsp 40 +
STACK CFI 478cd .cfa: $rsp 32 +
STACK CFI 478cf .cfa: $rsp 24 +
STACK CFI 478d1 .cfa: $rsp 16 +
STACK CFI 478d3 .cfa: $rsp 8 +
STACK CFI 478d8 .cfa: $rsp 64 +
STACK CFI INIT 46e50 1e8 .cfa: $rsp 8 + .ra: .cfa -8 + ^
STACK CFI 46e52 $r15: .cfa -16 + ^ .cfa: $rsp 16 +
STACK CFI 46e54 $r14: .cfa -24 + ^ .cfa: $rsp 24 +
STACK CFI 46e56 $r13: .cfa -32 + ^ .cfa: $rsp 32 +
STACK CFI 46e58 $r12: .cfa -40 + ^ .cfa: $rsp 40 +
STACK CFI 46e59 $rbp: .cfa -48 + ^ .cfa: $rsp 48 +
STACK CFI 46e5a $rbx: .cfa -56 + ^ .cfa: $rsp 56 +
STACK CFI 46e5e .cfa: $rsp 112 +
STACK CFI 46f31 .cfa: $rsp 56 +
STACK CFI 46f32 .cfa: $rsp 48 +
STACK CFI 46f33 .cfa: $rsp 40 +
STACK CFI 46f35 .cfa: $rsp 32 +
STACK CFI 46f37 .cfa: $rsp 24 +
STACK CFI 46f39 .cfa: $rsp 16 +
STACK CFI 46f3b .cfa: $rsp 8 +
STACK CFI 46f40 .cfa: $rsp 112 +
STACK CFI INIT 8e90 2e .cfa: $rsp 8 + .ra: .cfa -8 + ^
STACK CFI 8e9b .cfa: $rsp 16 +
STACK CFI 8eb9 .cfa: $rsp 8 +
STACK CFI INIT 47e50 13 .cfa: $rsp 8 + .ra: .cfa -8 + ^
STACK CFI INIT 47920 13 .cfa: $rsp 8 + .ra: .cfa -8 + ^
STACK CFI INIT 47940 13 .cfa: $rsp 8 + .ra: .cfa -8 + ^
STACK CFI INIT 47960 3a .cfa: $rsp 8 + .ra: .cfa -8 + ^
STACK CFI INIT 47e70 299 .cfa: $rsp 8 + .ra: .cfa -8 + ^
STACK CFI 47e72 $r15: .cfa -16 + ^ .cfa: $rsp 16 +
STACK CFI 47e74 $r14: .cfa -24 + ^ .cfa: $rsp 24 +
STACK CFI 47e79 $r13: .cfa -32 + ^ .cfa: $rsp 32 +
STACK CFI 47e7b $r12: .cfa -40 + ^ .cfa: $rsp 40 +
STACK CFI 47e80 $rbp: .cfa -48 + ^ .cfa: $rsp 48 +
STACK CFI 47e81 $rbx: .cfa -56 + ^ .cfa: $rsp 56 +
STACK CFI 47e88 .cfa: $rsp 96 +
STACK CFI 47fda .cfa: $rsp 56 +
STACK CFI 47fde .cfa: $rsp 48 +
STACK CFI 47fdf .cfa: $rsp 40 +
STACK CFI 47fe1 .cfa: $rsp 32 +
STACK CFI 47fe3 .cfa: $rsp 24 +
STACK CFI 47fe5 .cfa: $rsp 16 +
STACK CFI 47fe7 .cfa: $rsp 8 +
STACK CFI 47fe8 .cfa: $rsp 96 +
STACK CFI 47fee .cfa: $rsp 56 +
STACK CFI 47ff4 .cfa: $rsp 48 +
STACK CFI 47ff5 .cfa: $rsp 40 +
STACK CFI 47ff7 .cfa: $rsp 32 +
STACK CFI 47ff9 .cfa: $rsp 24 +
STACK CFI 47ffb .cfa: $rsp 16 +
STACK CFI 47ffd .cfa: $rsp 8 +
STACK CFI 48000 .cfa: $rsp 96 +
STACK CFI INIT 479a0 4ad .cfa: $rsp 8 + .ra: .cfa -8 + ^
STACK CFI 479a2 $r15: .cfa -16 + ^ .cfa: $rsp 16 +
STACK CFI 479a4 $r14: .cfa -24 + ^ .cfa: $rsp 24 +
STACK CFI 479a6 $r13: .cfa -32 + ^ .cfa: $rsp 32 +
STACK CFI 479a8 $r12: .cfa -40 + ^ .cfa: $rsp 40 +
STACK CFI 479ac $rbp: .cfa -48 + ^ .cfa: $rsp 48 +
STACK CFI 479ad $rbx: .cfa -56 + ^ .cfa: $rsp 56 +
STACK CFI 479ba .cfa: $rsp 224 +
STACK CFI 47b4b .cfa: $rsp 56 +
STACK CFI 47b4c .cfa: $rsp 48 +
STACK CFI 47b4d .cfa: $rsp 40 +
STACK CFI 47b4f .cfa: $rsp 32 +
STACK CFI 47b51 .cfa: $rsp 24 +
STACK CFI 47b53 .cfa: $rsp 16 +
STACK CFI 47b55 .cfa: $rsp 8 +
STACK CFI 47b60 .cfa: $rsp 224 +
STACK CFI INIT 8ec0 2e .cfa: $rsp 8 + .ra: .cfa -8 + ^
STACK CFI 8ecb .cfa: $rsp 16 +
STACK CFI 8ee9 .cfa: $rsp 8 +
STACK CFI INIT 48110 120 .cfa: $rsp 8 + .ra: .cfa -8 + ^
STACK CFI 48111 $rbp: .cfa -16 + ^ .cfa: $rsp 16 +
STACK CFI 48123 .cfa: $rbp 16 +
STACK CFI 48126 $r14: .cfa -24 + ^ $rbx: .cfa -32 + ^
STACK CFI 4820b .cfa: $rsp 8 +
STACK CFI 48210 .cfa: $rbp 16 +
STACK CFI INIT 48230 120 .cfa: $rsp 8 + .ra: .cfa -8 + ^
STACK CFI 48231 $rbp: .cfa -16 + ^ .cfa: $rsp 16 +
STACK CFI 48243 .cfa: $rbp 16 +
STACK CFI 48246 $r14: .cfa -24 + ^ $rbx: .cfa -32 + ^
STACK CFI 4832b .cfa: $rsp 8 +
STACK CFI 48330 .cfa: $rbp 16 +
STACK CFI INIT 48350 c8 .cfa: $rsp 8 + .ra: .cfa -8 + ^
STACK CFI 48352 $r12: .cfa -16 + ^ .cfa: $rsp 16 +
STACK CFI 48353 $rbp: .cfa -24 + ^ .cfa: $rsp 24 +
STACK CFI 48357 $rbx: .cfa -32 + ^ .cfa: $rsp 32 +
STACK CFI 4835e .cfa: $rsp 48 +
STACK CFI 483c4 .cfa: $rsp 32 +
STACK CFI 483c5 .cfa: $rsp 24 +
STACK CFI 483c6 .cfa: $rsp 16 +
STACK CFI 483c8 .cfa: $rsp 8 +
STACK CFI 483d0 .cfa: $rsp 48 +
STACK CFI INIT 48420 113 .cfa: $rsp 8 + .ra: .cfa -8 + ^
STACK CFI 48422 $r13: .cfa -16 + ^ .cfa: $rsp 16 +
STACK CFI 48424 $r12: .cfa -24 + ^ .cfa: $rsp 24 +
STACK CFI 4842b $rbp: .cfa -32 + ^ .cfa: $rsp 32 +
STACK CFI 48430 $rbx: .cfa -40 + ^ .cfa: $rsp 40 +
STACK CFI 4843a .cfa: $rsp 48 +
STACK CFI 484d8 .cfa: $rsp 40 +
STACK CFI 484dc .cfa: $rsp 32 +
STACK CFI 484dd .cfa: $rsp 24 +
STACK CFI 484df .cfa: $rsp 16 +
STACK CFI 484e1 .cfa: $rsp 8 +
STACK CFI 484e2 .cfa: $rsp 48 +
STACK CFI INIT 48540 3c0 .cfa: $rsp 8 + .ra: .cfa -8 + ^
STACK CFI 48541 $rbp: .cfa -16 + ^ .cfa: $rsp 16 +
STACK CFI 48544 .cfa: $rbp 16 +
STACK CFI 48554 $r12: .cfa -48 + ^ $r13: .cfa -40 + ^ $r14: .cfa -32 + ^ $r15: .cfa -24 + ^ $rbx: .cfa -56 + ^
STACK CFI 48851 .cfa: $rsp 8 +
STACK CFI 48852 .cfa: $rbp 16 +
STACK CFI INIT 48900 29c .cfa: $rsp 8 + .ra: .cfa -8 + ^
STACK CFI 48902 $r15: .cfa -16 + ^ .cfa: $rsp 16 +
STACK CFI 48904 $r14: .cfa -24 + ^ .cfa: $rsp 24 +
STACK CFI 48906 $r13: .cfa -32 + ^ .cfa: $rsp 32 +
STACK CFI 48908 $r12: .cfa -40 + ^ .cfa: $rsp 40 +
STACK CFI 48909 $rbp: .cfa -48 + ^ .cfa: $rsp 48 +
STACK CFI 4890a $rbx: .cfa -56 + ^ .cfa: $rsp 56 +
STACK CFI 48911 .cfa: $rsp 272 +
STACK CFI 48b30 .cfa: $rsp 56 +
STACK CFI 48b31 .cfa: $rsp 48 +
STACK CFI 48b32 .cfa: $rsp 40 +
STACK CFI 48b34 .cfa: $rsp 32 +
STACK CFI 48b36 .cfa: $rsp 24 +
STACK CFI 48b38 .cfa: $rsp 16 +
STACK CFI 48b3a .cfa: $rsp 8 +
STACK CFI 48b3b .cfa: $rsp 272 +
STACK CFI INIT 48ba0 1c79 .cfa: $rsp 8 + .ra: .cfa -8 + ^
STACK CFI 48ba2 $r15: .cfa -16 + ^ .cfa: $rsp 16 +
STACK CFI 48ba4 $r14: .cfa -24 + ^ .cfa: $rsp 24 +
STACK CFI 48ba6 $r13: .cfa -32 + ^ .cfa: $rsp 32 +
STACK CFI 48ba8 $r12: .cfa -40 + ^ .cfa: $rsp 40 +
STACK CFI 48ba9 $rbp: .cfa -48 + ^ .cfa: $rsp 48 +
STACK CFI 48baa $rbx: .cfa -56 + ^ .cfa: $rsp 56 +
STACK CFI 48bb1 .cfa: $rsp 400 +
STACK CFI 48e17 .cfa: $rsp 56 +
STACK CFI 48e18 .cfa: $rsp 48 +
STACK CFI 48e19 .cfa: $rsp 40 +
STACK CFI 48e1b .cfa: $rsp 32 +
STACK CFI 48e1d .cfa: $rsp 24 +
STACK CFI 48e1f .cfa: $rsp 16 +
STACK CFI 48e21 .cfa: $rsp 8 +
STACK CFI 48e28 .cfa: $rsp 400 +
STACK CFI INIT 4a820 1294 .cfa: $rsp 8 + .ra: .cfa -8 + ^
STACK CFI 4a821 $rbp: .cfa -16 + ^ .cfa: $rsp 16 +
STACK CFI 4a824 .cfa: $rbp 16 +
STACK CFI 4a82c $r12: .cfa -48 + ^ $r13: .cfa -40 + ^ $r14: .cfa -32 + ^ $r15: .cfa -24 + ^
STACK CFI 4a830 $rbx: .cfa -56 + ^
STACK CFI 4b2f9 .cfa: $rsp 8 +
STACK CFI 4b300 .cfa: $rbp 16 +
STACK CFI INIT 4bac0 992 .cfa: $rsp 8 + .ra: .cfa -8 + ^
STACK CFI 4bac1 $rbp: .cfa -16 + ^ .cfa: $rsp 16 +
STACK CFI 4bac4 .cfa: $rbp 16 +
STACK CFI 4bacc $r12: .cfa -48 + ^ $r13: .cfa -40 + ^ $r14: .cfa -32 + ^ $r15: .cfa -24 + ^
STACK CFI 4bae3 $rbx: .cfa -56 + ^
STACK CFI 4c184 .cfa: $rsp 8 +
STACK CFI 4c188 .cfa: $rbp 16 +
STACK CFI INIT 8ef0 2e .cfa: $rsp 8 + .ra: .cfa -8 + ^
STACK CFI 8efb .cfa: $rsp 16 +
STACK CFI 8f19 .cfa: $rsp 8 +
STACK CFI INIT 4c460 27 .cfa: $rsp 8 + .ra: .cfa -8 + ^
STACK CFI INIT 4c490 4b4 .cfa: $rsp 8 + .ra: .cfa -8 + ^
STACK CFI 4c491 $rbp: .cfa -16 + ^ .cfa: $rsp 16 +
STACK CFI 4c494 .cfa: $rbp 16 +
STACK CFI 4c4a1 $r12: .cfa -48 + ^ $r13: .cfa -40 + ^ $r14: .cfa -32 + ^ $r15: .cfa -24 + ^ $rbx: .cfa -56 + ^
STACK CFI 4c5f8 .cfa: $rsp 8 +
STACK CFI 4c600 .cfa: $rbp 16 +
STACK CFI INIT 4c950 28 .cfa: $rsp 8 + .ra: .cfa -8 + ^
STACK CFI INIT 4c980 17f .cfa: $rsp 8 + .ra: .cfa -8 + ^
STACK CFI 4c982 $r13: .cfa -16 + ^ .cfa: $rsp 16 +
STACK CFI 4c984 $r12: .cfa -24 + ^ .cfa: $rsp 24 +
STACK CFI 4c985 $rbp: .cfa -32 + ^ .cfa: $rsp 32 +
STACK CFI 4c986 $rbx: .cfa -40 + ^ .cfa: $rsp 40 +
STACK CFI 4c990 .cfa: $rsp 176 +
STACK CFI 4cab7 .cfa: $rsp 40 +
STACK CFI 4cab8 .cfa: $rsp 32 +
STACK CFI 4cab9 .cfa: $rsp 24 +
STACK CFI 4cabb .cfa: $rsp 16 +
STACK CFI 4cabd .cfa: $rsp 8 +
STACK CFI 4cac0 .cfa: $rsp 176 +
STACK CFI INIT 4d0a0 12e .cfa: $rsp 8 + .ra: .cfa -8 + ^
STACK CFI 4d0a2 $r15: .cfa -16 + ^ .cfa: $rsp 16 +
STACK CFI 4d0a4 $r14: .cfa -24 + ^ .cfa: $rsp 24 +
STACK CFI 4d0a9 $r13: .cfa -32 + ^ .cfa: $rsp 32 +
STACK CFI 4d0ab $r12: .cfa -40 + ^ .cfa: $rsp 40 +
STACK CFI 4d0af $rbp: .cfa -48 + ^ .cfa: $rsp 48 +
STACK CFI 4d0b0 $rbx: .cfa -56 + ^ .cfa: $rsp 56 +
STACK CFI 4d0b7 .cfa: $rsp 80 +
STACK CFI 4d17d .cfa: $rsp 56 +
STACK CFI 4d17e .cfa: $rsp 48 +
STACK CFI 4d17f .cfa: $rsp 40 +
STACK CFI 4d181 .cfa: $rsp 32 +
STACK CFI 4d183 .cfa: $rsp 24 +
STACK CFI 4d185 .cfa: $rsp 16 +
STACK CFI 4d187 .cfa: $rsp 8 +
STACK CFI 4d190 .cfa: $rsp 80 +
STACK CFI INIT 4cb00 1cc .cfa: $rsp 8 + .ra: .cfa -8 + ^
STACK CFI 4cb02 $r14: .cfa -16 + ^ .cfa: $rsp 16 +
STACK CFI 4cb04 $r13: .cfa -24 + ^ .cfa: $rsp 24 +
STACK CFI 4cb06 $r12: .cfa -32 + ^ .cfa: $rsp 32 +
STACK CFI 4cb07 $rbp: .cfa -40 + ^ .cfa: $rsp 40 +
STACK CFI 4cb08 $rbx: .cfa -48 + ^ .cfa: $rsp 48 +
STACK CFI 4cb0c .cfa: $rsp 160 +
STACK CFI 4cb66 .cfa: $rsp 48 +
STACK CFI 4cb67 .cfa: $rsp 40 +
STACK CFI 4cb68 .cfa: $rsp 32 +
STACK CFI 4cb6a .cfa: $rsp 24 +
STACK CFI 4cb6c .cfa: $rsp 16 +
STACK CFI 4cb6e .cfa: $rsp 8 +
STACK CFI 4cb70 .cfa: $rsp 160 +
STACK CFI INIT 4d1d0 12e .cfa: $rsp 8 + .ra: .cfa -8 + ^
STACK CFI 4d1d2 $r15: .cfa -16 + ^ .cfa: $rsp 16 +
STACK CFI 4d1d4 $r14: .cfa -24 + ^ .cfa: $rsp 24 +
STACK CFI 4d1d9 $r13: .cfa -32 + ^ .cfa: $rsp 32 +
STACK CFI 4d1db $r12: .cfa -40 + ^ .cfa: $rsp 40 +
STACK CFI 4d1df $rbp: .cfa -48 + ^ .cfa: $rsp 48 +
STACK CFI 4d1e0 $rbx: .cfa -56 + ^ .cfa: $rsp 56 +
STACK CFI 4d1e7 .cfa: $rsp 80 +
STACK CFI 4d2ad .cfa: $rsp 56 +
STACK CFI 4d2ae .cfa: $rsp 48 +
STACK CFI 4d2af .cfa: $rsp 40 +
STACK CFI 4d2b1 .cfa: $rsp 32 +
STACK CFI 4d2b3 .cfa: $rsp 24 +
STACK CFI 4d2b5 .cfa: $rsp 16 +
STACK CFI 4d2b7 .cfa: $rsp 8 +
STACK CFI 4d2c0 .cfa: $rsp 80 +
STACK CFI INIT 4ccd0 3ce .cfa: $rsp 8 + .ra: .cfa -8 + ^
STACK CFI 4ccd2 $r15: .cfa -16 + ^ .cfa: $rsp 16 +
STACK CFI 4ccd4 $r14: .cfa -24 + ^ .cfa: $rsp 24 +
STACK CFI 4ccd9 $r13: .cfa -32 + ^ .cfa: $rsp 32 +
STACK CFI 4ccdb $r12: .cfa -40 + ^ .cfa: $rsp 40 +
STACK CFI 4ccdf $rbp: .cfa -48 + ^ .cfa: $rsp 48 +
STACK CFI 4cce0 $rbx: .cfa -56 + ^ .cfa: $rsp 56 +
STACK CFI 4ccea .cfa: $rsp 96 +
STACK CFI 4cdf7 .cfa: $rsp 56 +
STACK CFI 4cdf8 .cfa: $rsp 48 +
STACK CFI 4cdf9 .cfa: $rsp 40 +
STACK CFI 4cdfb .cfa: $rsp 32 +
STACK CFI 4cdfd .cfa: $rsp 24 +
STACK CFI 4cdff .cfa: $rsp 16 +
STACK CFI 4ce01 .cfa: $rsp 8 +
STACK CFI 4ce08 .cfa: $rsp 96 +
STACK CFI INIT 8f20 2e .cfa: $rsp 8 + .ra: .cfa -8 + ^
STACK CFI 8f2b .cfa: $rsp 16 +
STACK CFI 8f49 .cfa: $rsp 8 +
STACK CFI INIT 4d520 2 .cfa: $rsp 8 + .ra: .cfa -8 + ^
STACK CFI INIT 4d300 93 .cfa: $rsp 8 + .ra: .cfa -8 + ^
STACK CFI 4d30c $rbx: .cfa -16 + ^ .cfa: $rsp 16 +
STACK CFI 4d389 .cfa: $rsp 8 +
STACK CFI 4d390 $rbx: $rbx
STACK CFI INIT 4d530 a .cfa: $rsp 8 + .ra: .cfa -8 + ^
STACK CFI INIT 4d3a0 135 .cfa: $rsp 8 + .ra: .cfa -8 + ^
STACK CFI 4d3a1 $rbp: .cfa -16 + ^ .cfa: $rsp 16 +
STACK CFI 4d3a2 $rbx: .cfa -24 + ^ .cfa: $rsp 24 +
STACK CFI 4d3a6 .cfa: $rsp 48 +
STACK CFI 4d468 .cfa: $rsp 24 +
STACK CFI 4d469 .cfa: $rsp 16 +
STACK CFI 4d46a .cfa: $rsp 8 +
STACK CFI 4d470 .cfa: $rsp 48 +
STACK CFI INIT 4d4e0 31 .cfa: $rsp 8 + .ra: .cfa -8 + ^
STACK CFI 4d4e2 $r12: .cfa -16 + ^ .cfa: $rsp 16 +
STACK CFI 4d4e3 $rbp: .cfa -24 + ^ .cfa: $rsp 24 +
STACK CFI 4d4e7 $rbx: .cfa -32 + ^ .cfa: $rsp 32 +
STACK CFI 4d50d .cfa: $rsp 24 +
STACK CFI 4d50e .cfa: $rsp 16 +
STACK CFI 4d510 .cfa: $rsp 8 +
STACK CFI INIT 8f50 2e .cfa: $rsp 8 + .ra: .cfa -8 + ^
STACK CFI 8f5b .cfa: $rsp 16 +
STACK CFI 8f79 .cfa: $rsp 8 +
STACK CFI INIT 4d540 8 .cfa: $rsp 8 + .ra: .cfa -8 + ^
STACK CFI INIT 4dec0 2 .cfa: $rsp 8 + .ra: .cfa -8 + ^
STACK CFI INIT 4ded0 a .cfa: $rsp 8 + .ra: .cfa -8 + ^
STACK CFI INIT 4dee0 42 .cfa: $rsp 8 + .ra: .cfa -8 + ^
STACK CFI 4dee8 $rbx: .cfa -16 + ^ .cfa: $rsp 16 +
STACK CFI 4df12 .cfa: $rsp 8 +
STACK CFI 4df20 .cfa: $rsp 16 +
STACK CFI 4df21 .cfa: $rsp 8 +
STACK CFI INIT 4df30 44 .cfa: $rsp 8 + .ra: .cfa -8 + ^
STACK CFI 4df38 $rbx: .cfa -16 + ^ .cfa: $rsp 16 +
STACK CFI 4df6f .cfa: $rsp 8 +
STACK CFI INIT 4d550 155 .cfa: $rsp 8 + .ra: .cfa -8 + ^
STACK CFI 4d551 $rbp: .cfa -16 + ^ .cfa: $rsp 16 +
STACK CFI 4d552 $rbx: .cfa -24 + ^ .cfa: $rsp 24 +
STACK CFI 4d556 .cfa: $rsp 48 +
STACK CFI 4d640 .cfa: $rsp 24 +
STACK CFI 4d641 .cfa: $rsp 16 +
STACK CFI 4d642 .cfa: $rsp 8 +
STACK CFI 4d648 .cfa: $rsp 48 +
STACK CFI INIT 4d6b0 46 .cfa: $rsp 8 + .ra: .cfa -8 + ^
STACK CFI 4d6b1 $rbp: .cfa -16 + ^ .cfa: $rsp 16 +
STACK CFI 4d6b2 $rbx: .cfa -24 + ^ .cfa: $rsp 24 +
STACK CFI 4d6c2 .cfa: $rsp 32 +
STACK CFI 4d6f3 .cfa: $rsp 24 +
STACK CFI 4d6f4 .cfa: $rsp 16 +
STACK CFI 4d6f5 .cfa: $rsp 8 +
STACK CFI INIT 4d700 19a .cfa: $rsp 8 + .ra: .cfa -8 + ^
STACK CFI 4d702 $r14: .cfa -16 + ^ .cfa: $rsp 16 +
STACK CFI 4d704 $r13: .cfa -24 + ^ .cfa: $rsp 24 +
STACK CFI 4d706 $r12: .cfa -32 + ^ .cfa: $rsp 32 +
STACK CFI 4d707 $rbp: .cfa -40 + ^ .cfa: $rsp 40 +
STACK CFI 4d708 $rbx: .cfa -48 + ^ .cfa: $rsp 48 +
STACK CFI 4d70c .cfa: $rsp 80 +
STACK CFI 4d7a6 .cfa: $rsp 48 +
STACK CFI 4d7a7 .cfa: $rsp 40 +
STACK CFI 4d7a8 .cfa: $rsp 32 +
STACK CFI 4d7aa .cfa: $rsp 24 +
STACK CFI 4d7ac .cfa: $rsp 16 +
STACK CFI 4d7ae .cfa: $rsp 8 +
STACK CFI 4d7b0 .cfa: $rsp 80 +
STACK CFI INIT 4d8a0 22d .cfa: $rsp 8 + .ra: .cfa -8 + ^
STACK CFI 4d8a2 $r15: .cfa -16 + ^ .cfa: $rsp 16 +
STACK CFI 4d8a4 $r14: .cfa -24 + ^ .cfa: $rsp 24 +
STACK CFI 4d8a6 $r13: .cfa -32 + ^ .cfa: $rsp 32 +
STACK CFI 4d8a8 $r12: .cfa -40 + ^ .cfa: $rsp 40 +
STACK CFI 4d8a9 $rbp: .cfa -48 + ^ .cfa: $rsp 48 +
STACK CFI 4d8aa $rbx: .cfa -56 + ^ .cfa: $rsp 56 +
STACK CFI 4d8ae .cfa: $rsp 80 +
STACK CFI 4d963 .cfa: $rsp 56 +
STACK CFI 4d964 .cfa: $rsp 48 +
STACK CFI 4d965 .cfa: $rsp 40 +
STACK CFI 4d967 .cfa: $rsp 32 +
STACK CFI 4d969 .cfa: $rsp 24 +
STACK CFI 4d96b .cfa: $rsp 16 +
STACK CFI 4d96d .cfa: $rsp 8 +
STACK CFI 4d970 .cfa: $rsp 80 +
STACK CFI INIT 4df80 106 .cfa: $rsp 8 + .ra: .cfa -8 + ^
STACK CFI 4df82 $r15: .cfa -16 + ^ .cfa: $rsp 16 +
STACK CFI 4df84 $r14: .cfa -24 + ^ .cfa: $rsp 24 +
STACK CFI 4df86 $r13: .cfa -32 + ^ .cfa: $rsp 32 +
STACK CFI 4df88 $r12: .cfa -40 + ^ .cfa: $rsp 40 +
STACK CFI 4df8d $rbp: .cfa -48 + ^ .cfa: $rsp 48 +
STACK CFI 4df8e $rbx: .cfa -56 + ^ .cfa: $rsp 56 +
STACK CFI 4df92 .cfa: $rsp 64 +
STACK CFI 4e03b .cfa: $rsp 56 +
STACK CFI 4e03f .cfa: $rsp 48 +
STACK CFI 4e040 .cfa: $rsp 40 +
STACK CFI 4e042 .cfa: $rsp 32 +
STACK CFI 4e044 .cfa: $rsp 24 +
STACK CFI 4e046 .cfa: $rsp 16 +
STACK CFI 4e048 .cfa: $rsp 8 +
STACK CFI 4e050 .cfa: $rsp 64 +
STACK CFI 4e054 .cfa: $rsp 56 +
STACK CFI 4e058 .cfa: $rsp 48 +
STACK CFI 4e059 .cfa: $rsp 40 +
STACK CFI 4e05b .cfa: $rsp 32 +
STACK CFI 4e05d .cfa: $rsp 24 +
STACK CFI 4e05f .cfa: $rsp 16 +
STACK CFI 4e061 .cfa: $rsp 8 +
STACK CFI 4e068 .cfa: $rsp 64 +
STACK CFI INIT 4e090 8da .cfa: $rsp 8 + .ra: .cfa -8 + ^
STACK CFI 4e092 $r15: .cfa -16 + ^ .cfa: $rsp 16 +
STACK CFI 4e094 $r14: .cfa -24 + ^ .cfa: $rsp 24 +
STACK CFI 4e096 $r13: .cfa -32 + ^ .cfa: $rsp 32 +
STACK CFI 4e098 $r12: .cfa -40 + ^ .cfa: $rsp 40 +
STACK CFI 4e099 $rbp: .cfa -48 + ^ .cfa: $rsp 48 +
STACK CFI 4e09a $rbx: .cfa -56 + ^ .cfa: $rsp 56 +
STACK CFI 4e0a4 .cfa: $rsp 384 +
STACK CFI 4e616 .cfa: $rsp 56 +
STACK CFI 4e617 .cfa: $rsp 48 +
STACK CFI 4e618 .cfa: $rsp 40 +
STACK CFI 4e61a .cfa: $rsp 32 +
STACK CFI 4e61c .cfa: $rsp 24 +
STACK CFI 4e61e .cfa: $rsp 16 +
STACK CFI 4e620 .cfa: $rsp 8 +
STACK CFI 4e628 .cfa: $rsp 384 +
STACK CFI INIT 4dad0 12f .cfa: $rsp 8 + .ra: .cfa -8 + ^
STACK CFI 4dad1 $rbp: .cfa -16 + ^ .cfa: $rsp 16 +
STACK CFI 4dad4 .cfa: $rbp 16 +
STACK CFI 4dadb $r12: .cfa -40 + ^ $r13: .cfa -32 + ^ $r14: .cfa -24 + ^ $rbx: .cfa -48 + ^
STACK CFI 4dbcd .cfa: $rsp 8 +
STACK CFI 4dbd0 .cfa: $rbp 16 +
STACK CFI 4dbea .cfa: $rsp 8 +
STACK CFI 4dbeb .cfa: $rbp 16 +
STACK CFI INIT 4dc00 2be .cfa: $rsp 8 + .ra: .cfa -8 + ^
STACK CFI 4dc02 $r15: .cfa -16 + ^ .cfa: $rsp 16 +
STACK CFI 4dc04 $r14: .cfa -24 + ^ .cfa: $rsp 24 +
STACK CFI 4dc06 $r13: .cfa -32 + ^ .cfa: $rsp 32 +
STACK CFI 4dc08 $r12: .cfa -40 + ^ .cfa: $rsp 40 +
STACK CFI 4dc09 $rbp: .cfa -48 + ^ .cfa: $rsp 48 +
STACK CFI 4dc0a $rbx: .cfa -56 + ^ .cfa: $rsp 56 +
STACK CFI 4dc0e .cfa: $rsp 80 +
STACK CFI 4dd02 .cfa: $rsp 56 +
STACK CFI 4dd03 .cfa: $rsp 48 +
STACK CFI 4dd04 .cfa: $rsp 40 +
STACK CFI 4dd06 .cfa: $rsp 32 +
STACK CFI 4dd08 .cfa: $rsp 24 +
STACK CFI 4dd0a .cfa: $rsp 16 +
STACK CFI 4dd0c .cfa: $rsp 8 +
STACK CFI 4dd10 .cfa: $rsp 80 +
STACK CFI INIT 8f80 2e .cfa: $rsp 8 + .ra: .cfa -8 + ^
STACK CFI 8f8b .cfa: $rsp 16 +
STACK CFI 8fa9 .cfa: $rsp 8 +
STACK CFI INIT 4ed00 2 .cfa: $rsp 8 + .ra: .cfa -8 + ^
STACK CFI INIT 4ed10 a .cfa: $rsp 8 + .ra: .cfa -8 + ^
STACK CFI INIT 4ed20 42 .cfa: $rsp 8 + .ra: .cfa -8 + ^
STACK CFI 4ed28 $rbx: .cfa -16 + ^ .cfa: $rsp 16 +
STACK CFI 4ed52 .cfa: $rsp 8 +
STACK CFI 4ed60 .cfa: $rsp 16 +
STACK CFI 4ed61 .cfa: $rsp 8 +
STACK CFI INIT 4ed70 44 .cfa: $rsp 8 + .ra: .cfa -8 + ^
STACK CFI 4ed78 $rbx: .cfa -16 + ^ .cfa: $rsp 16 +
STACK CFI 4edaf .cfa: $rsp 8 +
STACK CFI INIT 4e970 13d .cfa: $rsp 8 + .ra: .cfa -8 + ^
STACK CFI 4e971 $rbp: .cfa -16 + ^ .cfa: $rsp 16 +
STACK CFI 4e972 $rbx: .cfa -24 + ^ .cfa: $rsp 24 +
STACK CFI 4e976 .cfa: $rsp 48 +
STACK CFI 4ea47 .cfa: $rsp 24 +
STACK CFI 4ea48 .cfa: $rsp 16 +
STACK CFI 4ea49 .cfa: $rsp 8 +
STACK CFI 4ea50 .cfa: $rsp 48 +
STACK CFI INIT 4eab0 208 .cfa: $rsp 8 + .ra: .cfa -8 + ^
STACK CFI 4eab2 $r13: .cfa -16 + ^ .cfa: $rsp 16 +
STACK CFI 4eab4 $r12: .cfa -24 + ^ .cfa: $rsp 24 +
STACK CFI 4eab8 $rbp: .cfa -32 + ^ .cfa: $rsp 32 +
STACK CFI 4eab9 $rbx: .cfa -40 + ^ .cfa: $rsp 40 +
STACK CFI 4eabd .cfa: $rsp 80 +
STACK CFI 4ec49 .cfa: $rsp 40 +
STACK CFI 4ec4a .cfa: $rsp 32 +
STACK CFI 4ec4b .cfa: $rsp 24 +
STACK CFI 4ec4d .cfa: $rsp 16 +
STACK CFI 4ec4f .cfa: $rsp 8 +
STACK CFI 4ec50 .cfa: $rsp 80 +
STACK CFI INIT 4ecc0 33 .cfa: $rsp 8 + .ra: .cfa -8 + ^
STACK CFI 4ecc1 $rbp: .cfa -16 + ^ .cfa: $rsp 16 +
STACK CFI 4ecc2 $rbx: .cfa -24 + ^ .cfa: $rsp 24 +
STACK CFI 4ecd2 .cfa: $rsp 32 +
STACK CFI 4ecf0 .cfa: $rsp 24 +
STACK CFI 4ecf1 .cfa: $rsp 16 +
STACK CFI 4ecf2 .cfa: $rsp 8 +
STACK CFI INIT 8fb0 2e .cfa: $rsp 8 + .ra: .cfa -8 + ^
STACK CFI 8fbb .cfa: $rsp 16 +
STACK CFI 8fd9 .cfa: $rsp 8 +
STACK CFI INIT 4edc0 7 .cfa: $rsp 8 + .ra: .cfa -8 + ^
STACK CFI INIT 528e0 2 .cfa: $rsp 8 + .ra: .cfa -8 + ^
STACK CFI INIT 528f0 a .cfa: $rsp 8 + .ra: .cfa -8 + ^
STACK CFI INIT 4edd0 c8 .cfa: $rsp 8 + .ra: .cfa -8 + ^
STACK CFI 4edd2 $r12: .cfa -16 + ^ .cfa: $rsp 16 +
STACK CFI 4edd3 $rbp: .cfa -24 + ^ .cfa: $rsp 24 +
STACK CFI 4edd7 $rbx: .cfa -32 + ^ .cfa: $rsp 32 +
STACK CFI 4edde .cfa: $rsp 48 +
STACK CFI 4ee44 .cfa: $rsp 32 +
STACK CFI 4ee45 .cfa: $rsp 24 +
STACK CFI 4ee46 .cfa: $rsp 16 +
STACK CFI 4ee48 .cfa: $rsp 8 +
STACK CFI 4ee50 .cfa: $rsp 48 +
STACK CFI INIT 4eea0 1ad .cfa: $rsp 8 + .ra: .cfa -8 + ^
STACK CFI 4eea1 $rbp: .cfa -16 + ^ .cfa: $rsp 16 +
STACK CFI 4eea2 $rbx: .cfa -24 + ^ .cfa: $rsp 24 +
STACK CFI 4eea6 .cfa: $rsp 48 +
STACK CFI 4efe7 .cfa: $rsp 24 +
STACK CFI 4efe8 .cfa: $rsp 16 +
STACK CFI 4efe9 .cfa: $rsp 8 +
STACK CFI 4eff0 .cfa: $rsp 48 +
STACK CFI INIT 4f050 1d8 .cfa: $rsp 8 + .ra: .cfa -8 + ^
STACK CFI 4f052 $r14: .cfa -16 + ^ .cfa: $rsp 16 +
STACK CFI 4f054 $r13: .cfa -24 + ^ .cfa: $rsp 24 +
STACK CFI 4f056 $r12: .cfa -32 + ^ .cfa: $rsp 32 +
STACK CFI 4f057 $rbp: .cfa -40 + ^ .cfa: $rsp 40 +
STACK CFI 4f05b $rbx: .cfa -48 + ^ .cfa: $rsp 48 +
STACK CFI 4f06b .cfa: $rsp 144 +
STACK CFI 4f0ea .cfa: $rsp 48 +
STACK CFI 4f0eb .cfa: $rsp 40 +
STACK CFI 4f0ec .cfa: $rsp 32 +
STACK CFI 4f0ee .cfa: $rsp 24 +
STACK CFI 4f0f0 .cfa: $rsp 16 +
STACK CFI 4f0f2 .cfa: $rsp 8 +
STACK CFI 4f0f8 .cfa: $rsp 144 +
STACK CFI INIT 4f230 2b5 .cfa: $rsp 8 + .ra: .cfa -8 + ^
STACK CFI 4f232 $r15: .cfa -16 + ^ .cfa: $rsp 16 +
STACK CFI 4f234 $r14: .cfa -24 + ^ .cfa: $rsp 24 +
STACK CFI 4f239 $r13: .cfa -32 + ^ .cfa: $rsp 32 +
STACK CFI 4f23b $r12: .cfa -40 + ^ .cfa: $rsp 40 +
STACK CFI 4f23f $rbp: .cfa -48 + ^ .cfa: $rsp 48 +
STACK CFI 4f240 $rbx: .cfa -56 + ^ .cfa: $rsp 56 +
STACK CFI 4f247 .cfa: $rsp 96 +
STACK CFI 4f329 .cfa: $rsp 56 +
STACK CFI 4f32a .cfa: $rsp 48 +
STACK CFI 4f32b .cfa: $rsp 40 +
STACK CFI 4f32d .cfa: $rsp 32 +
STACK CFI 4f32f .cfa: $rsp 24 +
STACK CFI 4f331 .cfa: $rsp 16 +
STACK CFI 4f333 .cfa: $rsp 8 +
STACK CFI 4f338 .cfa: $rsp 96 +
STACK CFI INIT 4f4f0 e7 .cfa: $rsp 8 + .ra: .cfa -8 + ^
STACK CFI 4f4f1 $rbp: .cfa -16 + ^ .cfa: $rsp 16 +
STACK CFI 4f4f2 $rbx: .cfa -24 + ^ .cfa: $rsp 24 +
STACK CFI 4f4f9 .cfa: $rsp 32 +
STACK CFI 4f5c3 .cfa: $rsp 24 +
STACK CFI 4f5c4 .cfa: $rsp 16 +
STACK CFI 4f5c5 .cfa: $rsp 8 +
STACK CFI 4f5d0 .cfa: $rsp 32 +
STACK CFI 4f5d4 .cfa: $rsp 24 +
STACK CFI 4f5d5 .cfa: $rsp 16 +
STACK CFI 4f5d6 .cfa: $rsp 8 +
STACK CFI INIT 4f5e0 17 .cfa: $rsp 8 + .ra: .cfa -8 + ^
STACK CFI 4f5e1 $rbx: .cfa -16 + ^ .cfa: $rsp 16 +
STACK CFI 4f5f2 .cfa: $rsp 8 +
STACK CFI INIT 52900 52 .cfa: $rsp 8 + .ra: .cfa -8 + ^
STACK CFI 52907 $r12: .cfa -16 + ^ .cfa: $rsp 16 +
STACK CFI 5290b $rbp: .cfa -24 + ^ .cfa: $rsp 24 +
STACK CFI 5290c $rbx: .cfa -32 + ^ .cfa: $rsp 32 +
STACK CFI 52942 .cfa: $rsp 24 +
STACK CFI 52943 .cfa: $rsp 16 +
STACK CFI 52945 .cfa: $rsp 8 +
STACK CFI 52950 $r12: $r12 $rbp: $rbp $rbx: $rbx
STACK CFI INIT 52960 106 .cfa: $rsp 8 + .ra: .cfa -8 + ^
STACK CFI 52962 $r15: .cfa -16 + ^ .cfa: $rsp 16 +
STACK CFI 52964 $r14: .cfa -24 + ^ .cfa: $rsp 24 +
STACK CFI 52966 $r13: .cfa -32 + ^ .cfa: $rsp 32 +
STACK CFI 52968 $r12: .cfa -40 + ^ .cfa: $rsp 40 +
STACK CFI 5296d $rbp: .cfa -48 + ^ .cfa: $rsp 48 +
STACK CFI 5296e $rbx: .cfa -56 + ^ .cfa: $rsp 56 +
STACK CFI 52972 .cfa: $rsp 64 +
STACK CFI 52a1b .cfa: $rsp 56 +
STACK CFI 52a1f .cfa: $rsp 48 +
STACK CFI 52a20 .cfa: $rsp 40 +
STACK CFI 52a22 .cfa: $rsp 32 +
STACK CFI 52a24 .cfa: $rsp 24 +
STACK CFI 52a26 .cfa: $rsp 16 +
STACK CFI 52a28 .cfa: $rsp 8 +
STACK CFI 52a30 .cfa: $rsp 64 +
STACK CFI 52a34 .cfa: $rsp 56 +
STACK CFI 52a38 .cfa: $rsp 48 +
STACK CFI 52a39 .cfa: $rsp 40 +
STACK CFI 52a3b .cfa: $rsp 32 +
STACK CFI 52a3d .cfa: $rsp 24 +
STACK CFI 52a3f .cfa: $rsp 16 +
STACK CFI 52a41 .cfa: $rsp 8 +
STACK CFI 52a48 .cfa: $rsp 64 +
STACK CFI INIT 52a70 106 .cfa: $rsp 8 + .ra: .cfa -8 + ^
STACK CFI 52a72 $r15: .cfa -16 + ^ .cfa: $rsp 16 +
STACK CFI 52a74 $r14: .cfa -24 + ^ .cfa: $rsp 24 +
STACK CFI 52a76 $r13: .cfa -32 + ^ .cfa: $rsp 32 +
STACK CFI 52a78 $r12: .cfa -40 + ^ .cfa: $rsp 40 +
STACK CFI 52a7d $rbp: .cfa -48 + ^ .cfa: $rsp 48 +
STACK CFI 52a7e $rbx: .cfa -56 + ^ .cfa: $rsp 56 +
STACK CFI 52a82 .cfa: $rsp 64 +
STACK CFI 52b2b .cfa: $rsp 56 +
STACK CFI 52b2f .cfa: $rsp 48 +
STACK CFI 52b30 .cfa: $rsp 40 +
STACK CFI 52b32 .cfa: $rsp 32 +
STACK CFI 52b34 .cfa: $rsp 24 +
STACK CFI 52b36 .cfa: $rsp 16 +
STACK CFI 52b38 .cfa: $rsp 8 +
STACK CFI 52b40 .cfa: $rsp 64 +
STACK CFI 52b44 .cfa: $rsp 56 +
STACK CFI 52b48 .cfa: $rsp 48 +
STACK CFI 52b49 .cfa: $rsp 40 +
STACK CFI 52b4b .cfa: $rsp 32 +
STACK CFI 52b4d .cfa: $rsp 24 +
STACK CFI 52b4f .cfa: $rsp 16 +
STACK CFI 52b51 .cfa: $rsp 8 +
STACK CFI 52b58 .cfa: $rsp 64 +
STACK CFI INIT 4f600 ce .cfa: $rsp 8 + .ra: .cfa -8 + ^
STACK CFI 4f602 $r13: .cfa -16 + ^ .cfa: $rsp 16 +
STACK CFI 4f604 $r12: .cfa -24 + ^ .cfa: $rsp 24 +
STACK CFI 4f608 $rbp: .cfa -32 + ^ .cfa: $rsp 32 +
STACK CFI 4f609 $rbx: .cfa -40 + ^ .cfa: $rsp 40 +
STACK CFI 4f618 .cfa: $rsp 48 +
STACK CFI 4f681 .cfa: $rsp 40 +
STACK CFI 4f688 .cfa: $rsp 32 +
STACK CFI 4f689 .cfa: $rsp 24 +
STACK CFI 4f68b .cfa: $rsp 16 +
STACK CFI 4f68d .cfa: $rsp 8 +
STACK CFI 4f698 .cfa: $rsp 48 +
STACK CFI 4f6b2 .cfa: $rsp 40 +
STACK CFI 4f6b6 .cfa: $rsp 32 +
STACK CFI 4f6b7 .cfa: $rsp 24 +
STACK CFI 4f6b9 .cfa: $rsp 16 +
STACK CFI 4f6bb .cfa: $rsp 8 +
STACK CFI 4f6c0 .cfa: $rsp 48 +
STACK CFI INIT 52b80 14b .cfa: $rsp 8 + .ra: .cfa -8 + ^
STACK CFI 52b82 $r15: .cfa -16 + ^ .cfa: $rsp 16 +
STACK CFI 52b84 $r14: .cfa -24 + ^ .cfa: $rsp 24 +
STACK CFI 52b8a $r13: .cfa -32 + ^ .cfa: $rsp 32 +
STACK CFI 52b8c $r12: .cfa -40 + ^ .cfa: $rsp 40 +
STACK CFI 52b90 $rbp: .cfa -48 + ^ .cfa: $rsp 48 +
STACK CFI 52b91 $rbx: .cfa -56 + ^ .cfa: $rsp 56 +
STACK CFI 52b95 .cfa: $rsp 96 +
STACK CFI 52c87 .cfa: $rsp 56 +
STACK CFI 52c88 .cfa: $rsp 48 +
STACK CFI 52c89 .cfa: $rsp 40 +
STACK CFI 52c8b .cfa: $rsp 32 +
STACK CFI 52c8d .cfa: $rsp 24 +
STACK CFI 52c8f .cfa: $rsp 16 +
STACK CFI 52c91 .cfa: $rsp 8 +
STACK CFI 52c98 .cfa: $rsp 96 +
STACK CFI INIT 52cd0 590 .cfa: $rsp 8 + .ra: .cfa -8 + ^
STACK CFI 52cd2 $r15: .cfa -16 + ^ .cfa: $rsp 16 +
STACK CFI 52cd4 $r14: .cfa -24 + ^ .cfa: $rsp 24 +
STACK CFI 52cd6 $r13: .cfa -32 + ^ .cfa: $rsp 32 +
STACK CFI 52cd8 $r12: .cfa -40 + ^ .cfa: $rsp 40 +
STACK CFI 52cd9 $rbp: .cfa -48 + ^ .cfa: $rsp 48 +
STACK CFI 52cda $rbx: .cfa -56 + ^ .cfa: $rsp 56 +
STACK CFI 52ce4 .cfa: $rsp 368 +
STACK CFI 531b1 .cfa: $rsp 56 +
STACK CFI 531b2 .cfa: $rsp 48 +
STACK CFI 531b3 .cfa: $rsp 40 +
STACK CFI 531b5 .cfa: $rsp 32 +
STACK CFI 531b7 .cfa: $rsp 24 +
STACK CFI 531b9 .cfa: $rsp 16 +
STACK CFI 531bb .cfa: $rsp 8 +
STACK CFI 531c0 .cfa: $rsp 368 +
STACK CFI INIT 4f6d0 16f .cfa: $rsp 8 + .ra: .cfa -8 + ^
STACK CFI 4f6d1 $rbp: .cfa -16 + ^ .cfa: $rsp 16 +
STACK CFI 4f6d4 .cfa: $rbp 16 +
STACK CFI 4f6db $r12: .cfa -40 + ^ $r13: .cfa -32 + ^ $r14: .cfa -24 + ^ $rbx: .cfa -48 + ^
STACK CFI 4f809 .cfa: $rsp 8 +
STACK CFI 4f810 .cfa: $rbp 16 +
STACK CFI 4f82a .cfa: $rsp 8 +
STACK CFI 4f82b .cfa: $rbp 16 +
STACK CFI INIT 4f840 2ed1 .cfa: $rsp 8 + .ra: .cfa -8 + ^
STACK CFI 4f842 $r15: .cfa -16 + ^ .cfa: $rsp 16 +
STACK CFI 4f844 $r14: .cfa -24 + ^ .cfa: $rsp 24 +
STACK CFI 4f846 $r13: .cfa -32 + ^ .cfa: $rsp 32 +
STACK CFI 4f848 $r12: .cfa -40 + ^ .cfa: $rsp 40 +
STACK CFI 4f849 $rbp: .cfa -48 + ^ .cfa: $rsp 48 +
STACK CFI 4f84a $rbx: .cfa -56 + ^ .cfa: $rsp 56 +
STACK CFI 4f851 .cfa: $rsp 656 +
STACK CFI 5081b .cfa: $rsp 56 +
STACK CFI 5081c .cfa: $rsp 48 +
STACK CFI 5081d .cfa: $rsp 40 +
STACK CFI 5081f .cfa: $rsp 32 +
STACK CFI 50821 .cfa: $rsp 24 +
STACK CFI 50823 .cfa: $rsp 16 +
STACK CFI 50825 .cfa: $rsp 8 +
STACK CFI 50830 .cfa: $rsp 656 +
STACK CFI INIT 52720 1b4 .cfa: $rsp 8 + .ra: .cfa -8 + ^
STACK CFI 52722 $r14: .cfa -16 + ^ .cfa: $rsp 16 +
STACK CFI 52724 $r13: .cfa -24 + ^ .cfa: $rsp 24 +
STACK CFI 52726 $r12: .cfa -32 + ^ .cfa: $rsp 32 +
STACK CFI 52727 $rbp: .cfa -40 + ^ .cfa: $rsp 40 +
STACK CFI 52728 $rbx: .cfa -48 + ^ .cfa: $rsp 48 +
STACK CFI 5272c .cfa: $rsp 64 +
STACK CFI 527f0 .cfa: $rsp 48 +
STACK CFI 527f1 .cfa: $rsp 40 +
STACK CFI 527f2 .cfa: $rsp 32 +
STACK CFI 527f4 .cfa: $rsp 24 +
STACK CFI 527f6 .cfa: $rsp 16 +
STACK CFI 527f8 .cfa: $rsp 8 +
STACK CFI 52800 .cfa: $rsp 64 +
STACK CFI INIT 8fe0 2e .cfa: $rsp 8 + .ra: .cfa -8 + ^
STACK CFI 8feb .cfa: $rsp 16 +
STACK CFI 9009 .cfa: $rsp 8 +
STACK CFI INIT 54370 2 .cfa: $rsp 8 + .ra: .cfa -8 + ^
STACK CFI INIT 54380 a .cfa: $rsp 8 + .ra: .cfa -8 + ^
STACK CFI INIT 54390 42 .cfa: $rsp 8 + .ra: .cfa -8 + ^
STACK CFI 54398 $rbx: .cfa -16 + ^ .cfa: $rsp 16 +
STACK CFI 543c2 .cfa: $rsp 8 +
STACK CFI 543d0 .cfa: $rsp 16 +
STACK CFI 543d1 .cfa: $rsp 8 +
STACK CFI INIT 543e0 44 .cfa: $rsp 8 + .ra: .cfa -8 + ^
STACK CFI 543e8 $rbx: .cfa -16 + ^ .cfa: $rsp 16 +
STACK CFI 5441f .cfa: $rsp 8 +
STACK CFI INIT 53260 13d .cfa: $rsp 8 + .ra: .cfa -8 + ^
STACK CFI 53261 $rbp: .cfa -16 + ^ .cfa: $rsp 16 +
STACK CFI 53262 $rbx: .cfa -24 + ^ .cfa: $rsp 24 +
STACK CFI 53266 .cfa: $rsp 48 +
STACK CFI 53335 .cfa: $rsp 24 +
STACK CFI 53336 .cfa: $rsp 16 +
STACK CFI 53337 .cfa: $rsp 8 +
STACK CFI 53340 .cfa: $rsp 48 +
STACK CFI INIT 533a0 3d .cfa: $rsp 8 + .ra: .cfa -8 + ^
STACK CFI 533a2 $r12: .cfa -16 + ^ .cfa: $rsp 16 +
STACK CFI 533a6 $rbp: .cfa -24 + ^ .cfa: $rsp 24 +
STACK CFI 533aa $rbx: .cfa -32 + ^ .cfa: $rsp 32 +
STACK CFI 533d9 .cfa: $rsp 24 +
STACK CFI 533da .cfa: $rsp 16 +
STACK CFI 533dc .cfa: $rsp 8 +
STACK CFI INIT 533e0 186 .cfa: $rsp 8 + .ra: .cfa -8 + ^
STACK CFI 533e2 $r14: .cfa -16 + ^ .cfa: $rsp 16 +
STACK CFI 533e4 $r13: .cfa -24 + ^ .cfa: $rsp 24 +
STACK CFI 533e6 $r12: .cfa -32 + ^ .cfa: $rsp 32 +
STACK CFI 533e7 $rbp: .cfa -40 + ^ .cfa: $rsp 40 +
STACK CFI 533e8 $rbx: .cfa -48 + ^ .cfa: $rsp 48 +
STACK CFI 533ec .cfa: $rsp 64 +
STACK CFI 534a1 .cfa: $rsp 48 +
STACK CFI 534a2 .cfa: $rsp 40 +
STACK CFI 534a3 .cfa: $rsp 32 +
STACK CFI 534a5 .cfa: $rsp 24 +
STACK CFI 534a7 .cfa: $rsp 16 +
STACK CFI 534a9 .cfa: $rsp 8 +
STACK CFI 534b0 .cfa: $rsp 64 +
STACK CFI INIT 53570 29d .cfa: $rsp 8 + .ra: .cfa -8 + ^
STACK CFI 53572 $r13: .cfa -16 + ^ .cfa: $rsp 16 +
STACK CFI 53574 $r12: .cfa -24 + ^ .cfa: $rsp 24 +
STACK CFI 53575 $rbp: .cfa -32 + ^ .cfa: $rsp 32 +
STACK CFI 53576 $rbx: .cfa -40 + ^ .cfa: $rsp 40 +
STACK CFI 5357a .cfa: $rsp 80 +
STACK CFI 536b4 .cfa: $rsp 40 +
STACK CFI 536b5 .cfa: $rsp 32 +
STACK CFI 536b6 .cfa: $rsp 24 +
STACK CFI 536b8 .cfa: $rsp 16 +
STACK CFI 536ba .cfa: $rsp 8 +
STACK CFI 536c0 .cfa: $rsp 80 +
STACK CFI INIT 53810 8a1 .cfa: $rsp 8 + .ra: .cfa -8 + ^
STACK CFI 53812 $r15: .cfa -16 + ^ .cfa: $rsp 16 +
STACK CFI 53814 $r14: .cfa -24 + ^ .cfa: $rsp 24 +
STACK CFI 53816 $r13: .cfa -32 + ^ .cfa: $rsp 32 +
STACK CFI 53818 $r12: .cfa -40 + ^ .cfa: $rsp 40 +
STACK CFI 53819 $rbp: .cfa -48 + ^ .cfa: $rsp 48 +
STACK CFI 5381a $rbx: .cfa -56 + ^ .cfa: $rsp 56 +
STACK CFI 5382a .cfa: $rsp 288 +
STACK CFI 53dc5 .cfa: $rsp 56 +
STACK CFI 53dc6 .cfa: $rsp 48 +
STACK CFI 53dc7 .cfa: $rsp 40 +
STACK CFI 53dc9 .cfa: $rsp 32 +
STACK CFI 53dcb .cfa: $rsp 24 +
STACK CFI 53dcd .cfa: $rsp 16 +
STACK CFI 53dcf .cfa: $rsp 8 +
STACK CFI 53dd0 .cfa: $rsp 288 +
STACK CFI INIT 540c0 2aa .cfa: $rsp 8 + .ra: .cfa -8 + ^
STACK CFI 540c2 $r15: .cfa -16 + ^ .cfa: $rsp 16 +
STACK CFI 540c4 $r14: .cfa -24 + ^ .cfa: $rsp 24 +
STACK CFI 540c6 $r13: .cfa -32 + ^ .cfa: $rsp 32 +
STACK CFI 540c8 $r12: .cfa -40 + ^ .cfa: $rsp 40 +
STACK CFI 540c9 $rbp: .cfa -48 + ^ .cfa: $rsp 48 +
STACK CFI 540ca $rbx: .cfa -56 + ^ .cfa: $rsp 56 +
STACK CFI 540ce .cfa: $rsp 96 +
STACK CFI 541fb .cfa: $rsp 56 +
STACK CFI 541fc .cfa: $rsp 48 +
STACK CFI 541fd .cfa: $rsp 40 +
STACK CFI 541ff .cfa: $rsp 32 +
STACK CFI 54201 .cfa: $rsp 24 +
STACK CFI 54203 .cfa: $rsp 16 +
STACK CFI 54205 .cfa: $rsp 8 +
STACK CFI 54210 .cfa: $rsp 96 +
STACK CFI INIT 9010 2e .cfa: $rsp 8 + .ra: .cfa -8 + ^
STACK CFI 901b .cfa: $rsp 16 +
STACK CFI 9039 .cfa: $rsp 8 +
STACK CFI INIT 554d0 2 .cfa: $rsp 8 + .ra: .cfa -8 + ^
STACK CFI INIT 554e0 a .cfa: $rsp 8 + .ra: .cfa -8 + ^
STACK CFI INIT 554f0 42 .cfa: $rsp 8 + .ra: .cfa -8 + ^
STACK CFI 554f8 $rbx: .cfa -16 + ^ .cfa: $rsp 16 +
STACK CFI 55522 .cfa: $rsp 8 +
STACK CFI 55530 .cfa: $rsp 16 +
STACK CFI 55531 .cfa: $rsp 8 +
STACK CFI INIT 55540 44 .cfa: $rsp 8 + .ra: .cfa -8 + ^
STACK CFI 55548 $rbx: .cfa -16 + ^ .cfa: $rsp 16 +
STACK CFI 5557f .cfa: $rsp 8 +
STACK CFI INIT 54430 13d .cfa: $rsp 8 + .ra: .cfa -8 + ^
STACK CFI 54431 $rbp: .cfa -16 + ^ .cfa: $rsp 16 +
STACK CFI 54432 $rbx: .cfa -24 + ^ .cfa: $rsp 24 +
STACK CFI 54436 .cfa: $rsp 48 +
STACK CFI 54508 .cfa: $rsp 24 +
STACK CFI 54509 .cfa: $rsp 16 +
STACK CFI 5450a .cfa: $rsp 8 +
STACK CFI 54510 .cfa: $rsp 48 +
STACK CFI INIT 54570 3b .cfa: $rsp 8 + .ra: .cfa -8 + ^
STACK CFI 54571 $rbp: .cfa -16 + ^ .cfa: $rsp 16 +
STACK CFI 54572 $rbx: .cfa -24 + ^ .cfa: $rsp 24 +
STACK CFI 54582 .cfa: $rsp 32 +
STACK CFI 545a8 .cfa: $rsp 24 +
STACK CFI 545a9 .cfa: $rsp 16 +
STACK CFI 545aa .cfa: $rsp 8 +
STACK CFI INIT 545b0 190 .cfa: $rsp 8 + .ra: .cfa -8 + ^
STACK CFI 545b2 $r14: .cfa -16 + ^ .cfa: $rsp 16 +
STACK CFI 545b4 $r13: .cfa -24 + ^ .cfa: $rsp 24 +
STACK CFI 545b6 $r12: .cfa -32 + ^ .cfa: $rsp 32 +
STACK CFI 545b7 $rbp: .cfa -40 + ^ .cfa: $rsp 40 +
STACK CFI 545b8 $rbx: .cfa -48 + ^ .cfa: $rsp 48 +
STACK CFI 545bc .cfa: $rsp 64 +
STACK CFI 54672 .cfa: $rsp 48 +
STACK CFI 54673 .cfa: $rsp 40 +
STACK CFI 54674 .cfa: $rsp 32 +
STACK CFI 54676 .cfa: $rsp 24 +
STACK CFI 54678 .cfa: $rsp 16 +
STACK CFI 5467a .cfa: $rsp 8 +
STACK CFI 54680 .cfa: $rsp 64 +
STACK CFI INIT 54740 26d .cfa: $rsp 8 + .ra: .cfa -8 + ^
STACK CFI 54742 $r12: .cfa -16 + ^ .cfa: $rsp 16 +
STACK CFI 54743 $rbp: .cfa -24 + ^ .cfa: $rsp 24 +
STACK CFI 54744 $rbx: .cfa -32 + ^ .cfa: $rsp 32 +
STACK CFI 54748 .cfa: $rsp 64 +
STACK CFI 5486f .cfa: $rsp 32 +
STACK CFI 54870 .cfa: $rsp 24 +
STACK CFI 54871 .cfa: $rsp 16 +
STACK CFI 54873 .cfa: $rsp 8 +
STACK CFI 54878 .cfa: $rsp 64 +
STACK CFI INIT 549b0 8a9 .cfa: $rsp 8 + .ra: .cfa -8 + ^
STACK CFI 549b2 $r15: .cfa -16 + ^ .cfa: $rsp 16 +
STACK CFI 549b4 $r14: .cfa -24 + ^ .cfa: $rsp 24 +
STACK CFI 549b6 $r13: .cfa -32 + ^ .cfa: $rsp 32 +
STACK CFI 549b8 $r12: .cfa -40 + ^ .cfa: $rsp 40 +
STACK CFI 549b9 $rbp: .cfa -48 + ^ .cfa: $rsp 48 +
STACK CFI 549ba $rbx: .cfa -56 + ^ .cfa: $rsp 56 +
STACK CFI 549ca .cfa: $rsp 288 +
STACK CFI 54f97 .cfa: $rsp 56 +
STACK CFI 54f98 .cfa: $rsp 48 +
STACK CFI 54f99 .cfa: $rsp 40 +
STACK CFI 54f9b .cfa: $rsp 32 +
STACK CFI 54f9d .cfa: $rsp 24 +
STACK CFI 54f9f .cfa: $rsp 16 +
STACK CFI 54fa1 .cfa: $rsp 8 +
STACK CFI 54fa8 .cfa: $rsp 288 +
STACK CFI INIT 55260 26e .cfa: $rsp 8 + .ra: .cfa -8 + ^
STACK CFI 55262 $r15: .cfa -16 + ^ .cfa: $rsp 16 +
STACK CFI 55264 $r14: .cfa -24 + ^ .cfa: $rsp 24 +
STACK CFI 55266 $r13: .cfa -32 + ^ .cfa: $rsp 32 +
STACK CFI 55268 $r12: .cfa -40 + ^ .cfa: $rsp 40 +
STACK CFI 55269 $rbp: .cfa -48 + ^ .cfa: $rsp 48 +
STACK CFI 5526a $rbx: .cfa -56 + ^ .cfa: $rsp 56 +
STACK CFI 5526e .cfa: $rsp 80 +
STACK CFI 553ca .cfa: $rsp 56 +
STACK CFI 553cb .cfa: $rsp 48 +
STACK CFI 553cc .cfa: $rsp 40 +
STACK CFI 553ce .cfa: $rsp 32 +
STACK CFI 553d0 .cfa: $rsp 24 +
STACK CFI 553d2 .cfa: $rsp 16 +
STACK CFI 553d4 .cfa: $rsp 8 +
STACK CFI 553d8 .cfa: $rsp 80 +
STACK CFI INIT 9040 2e .cfa: $rsp 8 + .ra: .cfa -8 + ^
STACK CFI 904b .cfa: $rsp 16 +
STACK CFI 9069 .cfa: $rsp 8 +
STACK CFI INIT 58ef0 2 .cfa: $rsp 8 + .ra: .cfa -8 + ^
STACK CFI INIT 58f00 a .cfa: $rsp 8 + .ra: .cfa -8 + ^
STACK CFI INIT 58f10 42 .cfa: $rsp 8 + .ra: .cfa -8 + ^
STACK CFI 58f18 $rbx: .cfa -16 + ^ .cfa: $rsp 16 +
STACK CFI 58f42 .cfa: $rsp 8 +
STACK CFI 58f50 .cfa: $rsp 16 +
STACK CFI 58f51 .cfa: $rsp 8 +
STACK CFI INIT 58f60 44 .cfa: $rsp 8 + .ra: .cfa -8 + ^
STACK CFI 58f68 $rbx: .cfa -16 + ^ .cfa: $rsp 16 +
STACK CFI 58f9f .cfa: $rsp 8 +
STACK CFI INIT 55590 13d .cfa: $rsp 8 + .ra: .cfa -8 + ^
STACK CFI 55591 $rbp: .cfa -16 + ^ .cfa: $rsp 16 +
STACK CFI 55592 $rbx: .cfa -24 + ^ .cfa: $rsp 24 +
STACK CFI 55596 .cfa: $rsp 48 +
STACK CFI 55667 .cfa: $rsp 24 +
STACK CFI 55668 .cfa: $rsp 16 +
STACK CFI 55669 .cfa: $rsp 8 +
STACK CFI 55670 .cfa: $rsp 48 +
STACK CFI INIT 556d0 2ae .cfa: $rsp 8 + .ra: .cfa -8 + ^
STACK CFI 556d2 $r14: .cfa -16 + ^ .cfa: $rsp 16 +
STACK CFI 556d4 $r13: .cfa -24 + ^ .cfa: $rsp 24 +
STACK CFI 556d6 $r12: .cfa -32 + ^ .cfa: $rsp 32 +
STACK CFI 556d7 $rbp: .cfa -40 + ^ .cfa: $rsp 40 +
STACK CFI 556db $rbx: .cfa -48 + ^ .cfa: $rsp 48 +
STACK CFI 556eb .cfa: $rsp 144 +
STACK CFI 55763 .cfa: $rsp 48 +
STACK CFI 55764 .cfa: $rsp 40 +
STACK CFI 55765 .cfa: $rsp 32 +
STACK CFI 55767 .cfa: $rsp 24 +
STACK CFI 55769 .cfa: $rsp 16 +
STACK CFI 5576b .cfa: $rsp 8 +
STACK CFI 55770 .cfa: $rsp 144 +
STACK CFI INIT 55980 53a .cfa: $rsp 8 + .ra: .cfa -8 + ^
STACK CFI 55982 $r15: .cfa -16 + ^ .cfa: $rsp 16 +
STACK CFI 55984 $r14: .cfa -24 + ^ .cfa: $rsp 24 +
STACK CFI 55986 $r13: .cfa -32 + ^ .cfa: $rsp 32 +
STACK CFI 55988 $r12: .cfa -40 + ^ .cfa: $rsp 40 +
STACK CFI 55989 $rbp: .cfa -48 + ^ .cfa: $rsp 48 +
STACK CFI 5598a $rbx: .cfa -56 + ^ .cfa: $rsp 56 +
STACK CFI 55991 .cfa: $rsp 112 +
STACK CFI 55bfd .cfa: $rsp 56 +
STACK CFI 55bfe .cfa: $rsp 48 +
STACK CFI 55bff .cfa: $rsp 40 +
STACK CFI 55c01 .cfa: $rsp 32 +
STACK CFI 55c03 .cfa: $rsp 24 +
STACK CFI 55c05 .cfa: $rsp 16 +
STACK CFI 55c07 .cfa: $rsp 8 +
STACK CFI 55c10 .cfa: $rsp 112 +
STACK CFI INIT 58fb0 25d .cfa: $rsp 8 + .ra: .cfa -8 + ^
STACK CFI 58fb2 $r15: .cfa -16 + ^ .cfa: $rsp 16 +
STACK CFI 58fb4 $r14: .cfa -24 + ^ .cfa: $rsp 24 +
STACK CFI 58fba $r13: .cfa -32 + ^ .cfa: $rsp 32 +
STACK CFI 58fbc $r12: .cfa -40 + ^ .cfa: $rsp 40 +
STACK CFI 58fc0 $rbp: .cfa -48 + ^ .cfa: $rsp 48 +
STACK CFI 58fc1 $rbx: .cfa -56 + ^ .cfa: $rsp 56 +
STACK CFI 58fc8 .cfa: $rsp 80 +
STACK CFI 59126 .cfa: $rsp 56 +
STACK CFI 5912b .cfa: $rsp 48 +
STACK CFI 5912c .cfa: $rsp 40 +
STACK CFI 5912e .cfa: $rsp 32 +
STACK CFI 59130 .cfa: $rsp 24 +
STACK CFI 59132 .cfa: $rsp 16 +
STACK CFI 59134 .cfa: $rsp 8 +
STACK CFI 59138 .cfa: $rsp 80 +
STACK CFI INIT 55ec0 2ddf .cfa: $rsp 8 + .ra: .cfa -8 + ^
STACK CFI 55ec2 $r15: .cfa -16 + ^ .cfa: $rsp 16 +
STACK CFI 55ec4 $r14: .cfa -24 + ^ .cfa: $rsp 24 +
STACK CFI 55ec6 $r13: .cfa -32 + ^ .cfa: $rsp 32 +
STACK CFI 55ec8 $r12: .cfa -40 + ^ .cfa: $rsp 40 +
STACK CFI 55ec9 $rbp: .cfa -48 + ^ .cfa: $rsp 48 +
STACK CFI 55eca $rbx: .cfa -56 + ^ .cfa: $rsp 56 +
STACK CFI 55ed1 .cfa: $rsp 336 +
STACK CFI 56f94 .cfa: $rsp 56 +
STACK CFI 56f95 .cfa: $rsp 48 +
STACK CFI 56f96 .cfa: $rsp 40 +
STACK CFI 56f98 .cfa: $rsp 32 +
STACK CFI 56f9a .cfa: $rsp 24 +
STACK CFI 56f9c .cfa: $rsp 16 +
STACK CFI 56f9e .cfa: $rsp 8 +
STACK CFI 56fa0 .cfa: $rsp 336 +
STACK CFI INIT 58ca0 24b .cfa: $rsp 8 + .ra: .cfa -8 + ^
STACK CFI 58ca2 $r15: .cfa -16 + ^ .cfa: $rsp 16 +
STACK CFI 58ca4 $r14: .cfa -24 + ^ .cfa: $rsp 24 +
STACK CFI 58ca6 $r13: .cfa -32 + ^ .cfa: $rsp 32 +
STACK CFI 58ca8 $r12: .cfa -40 + ^ .cfa: $rsp 40 +
STACK CFI 58ca9 $rbp: .cfa -48 + ^ .cfa: $rsp 48 +
STACK CFI 58caa $rbx: .cfa -56 + ^ .cfa: $rsp 56 +
STACK CFI 58cae .cfa: $rsp 80 +
STACK CFI 58dd3 .cfa: $rsp 56 +
STACK CFI 58dd4 .cfa: $rsp 48 +
STACK CFI 58dd5 .cfa: $rsp 40 +
STACK CFI 58dd7 .cfa: $rsp 32 +
STACK CFI 58dd9 .cfa: $rsp 24 +
STACK CFI 58ddb .cfa: $rsp 16 +
STACK CFI 58ddd .cfa: $rsp 8 +
STACK CFI 58de0 .cfa: $rsp 80 +
STACK CFI INIT 9070 2e .cfa: $rsp 8 + .ra: .cfa -8 + ^
STACK CFI 907b .cfa: $rsp 16 +
STACK CFI 9099 .cfa: $rsp 8 +
STACK CFI INIT 597b0 2 .cfa: $rsp 8 + .ra: .cfa -8 + ^
STACK CFI INIT 597c0 a .cfa: $rsp 8 + .ra: .cfa -8 + ^
STACK CFI INIT 597d0 42 .cfa: $rsp 8 + .ra: .cfa -8 + ^
STACK CFI 597d8 $rbx: .cfa -16 + ^ .cfa: $rsp 16 +
STACK CFI 59802 .cfa: $rsp 8 +
STACK CFI 59810 .cfa: $rsp 16 +
STACK CFI 59811 .cfa: $rsp 8 +
STACK CFI INIT 59820 44 .cfa: $rsp 8 + .ra: .cfa -8 + ^
STACK CFI 59828 $rbx: .cfa -16 + ^ .cfa: $rsp 16 +
STACK CFI 5985f .cfa: $rsp 8 +
STACK CFI INIT 59210 254 .cfa: $rsp 8 + .ra: .cfa -8 + ^
STACK CFI 59212 $r13: .cfa -16 + ^ .cfa: $rsp 16 +
STACK CFI 59214 $r12: .cfa -24 + ^ .cfa: $rsp 24 +
STACK CFI 59218 $rbp: .cfa -32 + ^ .cfa: $rsp 32 +
STACK CFI 59219 $rbx: .cfa -40 + ^ .cfa: $rsp 40 +
STACK CFI 5921d .cfa: $rsp 80 +
STACK CFI 593d1 .cfa: $rsp 40 +
STACK CFI 593d2 .cfa: $rsp 32 +
STACK CFI 593d3 .cfa: $rsp 24 +
STACK CFI 593d5 .cfa: $rsp 16 +
STACK CFI 593d7 .cfa: $rsp 8 +
STACK CFI 593e0 .cfa: $rsp 80 +
STACK CFI INIT 59470 17d .cfa: $rsp 8 + .ra: .cfa -8 + ^
STACK CFI 59471 $rbp: .cfa -16 + ^ .cfa: $rsp 16 +
STACK CFI 59472 $rbx: .cfa -24 + ^ .cfa: $rsp 24 +
STACK CFI 59476 .cfa: $rsp 48 +
STACK CFI 59585 .cfa: $rsp 24 +
STACK CFI 59586 .cfa: $rsp 16 +
STACK CFI 59587 .cfa: $rsp 8 +
STACK CFI 59590 .cfa: $rsp 48 +
STACK CFI INIT 595f0 1c0 .cfa: $rsp 8 + .ra: .cfa -8 + ^
STACK CFI 595f2 $r14: .cfa -16 + ^ .cfa: $rsp 16 +
STACK CFI 595f4 $r13: .cfa -24 + ^ .cfa: $rsp 24 +
STACK CFI 595f6 $r12: .cfa -32 + ^ .cfa: $rsp 32 +
STACK CFI 595f7 $rbp: .cfa -40 + ^ .cfa: $rsp 40 +
STACK CFI 595fb $rbx: .cfa -48 + ^ .cfa: $rsp 48 +
STACK CFI 5960b .cfa: $rsp 144 +
STACK CFI 59677 .cfa: $rsp 48 +
STACK CFI 59678 .cfa: $rsp 40 +
STACK CFI 59679 .cfa: $rsp 32 +
STACK CFI 5967b .cfa: $rsp 24 +
STACK CFI 5967d .cfa: $rsp 16 +
STACK CFI 5967f .cfa: $rsp 8 +
STACK CFI 59680 .cfa: $rsp 144 +
STACK CFI INIT 90a0 2e .cfa: $rsp 8 + .ra: .cfa -8 + ^
STACK CFI 90ab .cfa: $rsp 16 +
STACK CFI 90c9 .cfa: $rsp 8 +
STACK CFI INIT 59c20 2 .cfa: $rsp 8 + .ra: .cfa -8 + ^
STACK CFI INIT 59c30 a .cfa: $rsp 8 + .ra: .cfa -8 + ^
STACK CFI INIT 59c40 42 .cfa: $rsp 8 + .ra: .cfa -8 + ^
STACK CFI 59c48 $rbx: .cfa -16 + ^ .cfa: $rsp 16 +
STACK CFI 59c72 .cfa: $rsp 8 +
STACK CFI 59c80 .cfa: $rsp 16 +
STACK CFI 59c81 .cfa: $rsp 8 +
STACK CFI INIT 59c90 44 .cfa: $rsp 8 + .ra: .cfa -8 + ^
STACK CFI 59c98 $rbx: .cfa -16 + ^ .cfa: $rsp 16 +
STACK CFI 59ccf .cfa: $rsp 8 +
STACK CFI INIT 59870 13d .cfa: $rsp 8 + .ra: .cfa -8 + ^
STACK CFI 59871 $rbp: .cfa -16 + ^ .cfa: $rsp 16 +
STACK CFI 59872 $rbx: .cfa -24 + ^ .cfa: $rsp 24 +
STACK CFI 59876 .cfa: $rsp 48 +
STACK CFI 59947 .cfa: $rsp 24 +
STACK CFI 59948 .cfa: $rsp 16 +
STACK CFI 59949 .cfa: $rsp 8 +
STACK CFI 59950 .cfa: $rsp 48 +
STACK CFI INIT 599b0 22f .cfa: $rsp 8 + .ra: .cfa -8 + ^
STACK CFI 599b2 $r13: .cfa -16 + ^ .cfa: $rsp 16 +
STACK CFI 599b4 $r12: .cfa -24 + ^ .cfa: $rsp 24 +
STACK CFI 599b8 $rbp: .cfa -32 + ^ .cfa: $rsp 32 +
STACK CFI 599b9 $rbx: .cfa -40 + ^ .cfa: $rsp 40 +
STACK CFI 599bd .cfa: $rsp 80 +
STACK CFI 59b3f .cfa: $rsp 40 +
STACK CFI 59b40 .cfa: $rsp 32 +
STACK CFI 59b41 .cfa: $rsp 24 +
STACK CFI 59b43 .cfa: $rsp 16 +
STACK CFI 59b45 .cfa: $rsp 8 +
STACK CFI 59b50 .cfa: $rsp 80 +
STACK CFI INIT 59be0 33 .cfa: $rsp 8 + .ra: .cfa -8 + ^
STACK CFI 59be1 $rbp: .cfa -16 + ^ .cfa: $rsp 16 +
STACK CFI 59be2 $rbx: .cfa -24 + ^ .cfa: $rsp 24 +
STACK CFI 59bf2 .cfa: $rsp 32 +
STACK CFI 59c10 .cfa: $rsp 24 +
STACK CFI 59c11 .cfa: $rsp 16 +
STACK CFI 59c12 .cfa: $rsp 8 +
STACK CFI INIT 90d0 2e .cfa: $rsp 8 + .ra: .cfa -8 + ^
STACK CFI 90db .cfa: $rsp 16 +
STACK CFI 90f9 .cfa: $rsp 8 +
STACK CFI INIT 59ce0 e293 .cfa: $rsp 8 + .ra: .cfa -8 + ^
STACK CFI 59ce2 $r12: .cfa -16 + ^ .cfa: $rsp 16 +
STACK CFI 59ce3 $rbp: .cfa -24 + ^ .cfa: $rsp 24 +
STACK CFI 59ce8 $rbx: .cfa -32 + ^ .cfa: $rsp 32 +
STACK CFI 59cef .cfa: $rsp 64 +
STACK CFI 5a47b .cfa: $rsp 32 +
STACK CFI 5a47c .cfa: $rsp 24 +
STACK CFI 5a47d .cfa: $rsp 16 +
STACK CFI 5a47f .cfa: $rsp 8 +
STACK CFI 5a480 .cfa: $rsp 64 +
STACK CFI INIT 67f80 176 .cfa: $rsp 8 + .ra: .cfa -8 + ^
STACK CFI 67f82 $r15: .cfa -16 + ^ .cfa: $rsp 16 +
STACK CFI 67f84 $r14: .cfa -24 + ^ .cfa: $rsp 24 +
STACK CFI 67f89 $r13: .cfa -32 + ^ .cfa: $rsp 32 +
STACK CFI 67f8b $r12: .cfa -40 + ^ .cfa: $rsp 40 +
STACK CFI 67f8c $rbp: .cfa -48 + ^ .cfa: $rsp 48 +
STACK CFI 67f8d $rbx: .cfa -56 + ^ .cfa: $rsp 56 +
STACK CFI 67f94 .cfa: $rsp 80 +
STACK CFI 67fdb .cfa: $rsp 56 +
STACK CFI 67fdc .cfa: $rsp 48 +
STACK CFI 67fdd .cfa: $rsp 40 +
STACK CFI 67fdf .cfa: $rsp 32 +
STACK CFI 67fe1 .cfa: $rsp 24 +
STACK CFI 67fe3 .cfa: $rsp 16 +
STACK CFI 67fe5 .cfa: $rsp 8 +
STACK CFI 67ff0 .cfa: $rsp 80 +
STACK CFI INIT 68100 1c6 .cfa: $rsp 8 + .ra: .cfa -8 + ^
STACK CFI 68102 $r15: .cfa -16 + ^ .cfa: $rsp 16 +
STACK CFI 68104 $r14: .cfa -24 + ^ .cfa: $rsp 24 +
STACK CFI 68109 $r13: .cfa -32 + ^ .cfa: $rsp 32 +
STACK CFI 6810b $r12: .cfa -40 + ^ .cfa: $rsp 40 +
STACK CFI 6810f $rbp: .cfa -48 + ^ .cfa: $rsp 48 +
STACK CFI 68110 $rbx: .cfa -56 + ^ .cfa: $rsp 56 +
STACK CFI 68114 .cfa: $rsp 96 +
STACK CFI 681e7 .cfa: $rsp 56 +
STACK CFI 681e8 .cfa: $rsp 48 +
STACK CFI 681e9 .cfa: $rsp 40 +
STACK CFI 681eb .cfa: $rsp 32 +
STACK CFI 681ed .cfa: $rsp 24 +
STACK CFI 681ef .cfa: $rsp 16 +
STACK CFI 681f1 .cfa: $rsp 8 +
STACK CFI 681f8 .cfa: $rsp 96 +
STACK CFI INIT 682d0 65 .cfa: $rsp 8 + .ra: .cfa -8 + ^
STACK CFI 682d2 $r15: .cfa -16 + ^ .cfa: $rsp 16 +
STACK CFI 682d4 $r14: .cfa -24 + ^ .cfa: $rsp 24 +
STACK CFI 682d9 $r13: .cfa -32 + ^ .cfa: $rsp 32 +
STACK CFI 682db $r12: .cfa -40 + ^ .cfa: $rsp 40 +
STACK CFI 682e3 $rbp: .cfa -48 + ^ .cfa: $rsp 48 +
STACK CFI 682eb $rbx: .cfa -56 + ^ .cfa: $rsp 56 +
STACK CFI 682f8 .cfa: $rsp 64 +
STACK CFI 6832a .cfa: $rsp 56 +
STACK CFI 6832b .cfa: $rsp 48 +
STACK CFI 6832c .cfa: $rsp 40 +
STACK CFI 6832e .cfa: $rsp 32 +
STACK CFI 68330 .cfa: $rsp 24 +
STACK CFI 68332 .cfa: $rsp 16 +
STACK CFI 68334 .cfa: $rsp 8 +
STACK CFI INIT 68340 2 .cfa: $rsp 8 + .ra: .cfa -8 + ^
